 treeview

 Timestamp is 45b72f42 (Wed Jan 24 18:04:50 2007)

 Preferred load address is 00400000

 Start         Length     Name                   Class
 0001:00000000 00094efbH .text                   CODE
 0001:00094f00 0000ec04H .text$x                 CODE
 0001:000a3b10 00003f2bH .text$yc                CODE
 0001:000a7a40 000011daH .text$yd                CODE
 0002:00000000 000003e8H .idata$5                DATA
 0002:000003e8 0000a594H .rdata                  DATA
 0002:0000a97c 0000040cH .rdata$r                DATA
 0002:0000ad88 00000004H .rtc$IAA                DATA
 0002:0000ad8c 00000004H .rtc$IZZ                DATA
 0002:0000ad90 00000004H .rtc$TAA                DATA
 0002:0000ad94 00000004H .rtc$TZZ                DATA
 0002:0000ad98 0000f4bcH .xdata$x                DATA
 0002:0001a254 00000078H .idata$2                DATA
 0002:0001a2cc 00000014H .idata$3                DATA
 0002:0001a2e0 000003e8H .idata$4                DATA
 0002:0001a6c8 0000374aH .idata$6                DATA
 0002:0001de20 0000f138H .edata                  DATA
 0003:00000000 00000004H .CRT$XCA                DATA
 0003:00000004 00000004H .CRT$XCAA               DATA
 0003:00000008 00000298H .CRT$XCU                DATA
 0003:000002a0 00000004H .CRT$XCZ                DATA
 0003:000002a4 00000004H .CRT$XIA                DATA
 0003:000002a8 00000004H .CRT$XIZ                DATA
 0003:000002b0 00003fc8H .data                   DATA
 0003:00004278 000030d4H .bss                    DATA
 0004:00000000 00000004H _BSS                    DATA

  Address         Publics by Value              Rva+Base     Lib:Object

 0000:00000000       ___safe_se_handler_table   00000000     <absolute>
 0000:00000000       __except_list              00000000     <absolute>
 0000:00000000       ___safe_se_handler_count   00000000     <absolute>
 0000:00009876       __ldused                   00009876     <absolute>
 0000:00009876       __fltused                  00009876     <absolute>
 0001:00000000       ??3@YAXPAX0@Z              00401000 f i main.obj
 0001:00000000       ?ShowHideHelp@CEccBaseTable@@EAEXXZ 00401000 f i ecctable.obj
 0001:00000000       ?signalConnectionsChanged@WObject@@EAEXXZ 00401000 f i libwt:WObject.obj
 0001:00000010       ??0logic_error@std@@QAE@ABV?$basic_string@DU?$char_traits@D@std@@V?$allocator@D@2@@1@@Z 00401010 f i main.obj
 0001:00000070       ??1logic_error@std@@UAE@XZ 00401070 f i main.obj
 0001:000000d0       ??_Glogic_error@std@@UAEPAXI@Z 004010d0 f i main.obj
 0001:000000d0       ??_Elogic_error@std@@UAEPAXI@Z 004010d0 f i main.obj
 0001:000000f0       ??_Elength_error@std@@UAEPAXI@Z 004010f0 f i main.obj
 0001:000000f0       ??_Glength_error@std@@UAEPAXI@Z 004010f0 f i main.obj
 0001:00000110       ??1length_error@std@@UAE@XZ 00401110 f i main.obj
 0001:00000120       ??_Eout_of_range@std@@UAEPAXI@Z 00401120 f i main.obj
 0001:00000120       ??_Gout_of_range@std@@UAEPAXI@Z 00401120 f i main.obj
 0001:00000140       ??1out_of_range@std@@UAE@XZ 00401140 f i main.obj
 0001:00000150       ?haveJavaScript@WebSession@@QBE_NXZ 00401150 f i main.obj
 0001:00000160       ?havaAjax@WebSession@@QBE_NXZ 00401160 f i main.obj
 0001:00000170       ??4WObject@@QAEAAV0@ABV0@@Z 00401170 f i main.obj
 0001:00000170       ??4WResource@@QAEAAV0@ABV0@@Z 00401170 f i main.obj
 0001:00000170       ??4WWidget@@QAEAAV0@ABV0@@Z 00401170 f i main.obj
 0001:000001a0       ?value@WLength@@QBENXZ     004011a0 f i main.obj
 0001:000001b0       ??4WLength@@QAEAAV0@ABV0@@Z 004011b0 f i main.obj
 0001:000001e0       ?isAuto@WLength@@QBE_NXZ   004011e0 f i main.obj
 0001:000001e0       ?isDefault@WColor@@QBE_NXZ 004011e0 f i main.obj
 0001:000001f0       ?name@WColor@@QBE?AV?$basic_string@DU?$char_traits@D@std@@V?$allocator@D@2@@std@@XZ 004011f0 f i main.obj
 0001:00000220       ??0WColor@@QAE@ABV0@@Z     00401220 f i main.obj
 0001:00000250       ??4WColor@@QAEAAV0@ABV0@@Z 00401250 f i main.obj
 0001:00000280       ?explicitWidth@WBorder@@QBE?AVWLength@@XZ 00401280 f i main.obj
 0001:000002b0       ?color@WBorder@@QBE?AVWColor@@XZ 004012b0 f i main.obj
 0001:000002f0       ?style@WBorder@@QBE?AW4Style@1@XZ 004012f0 f i main.obj
 0001:00000300       ??1WBorder@@QAE@XZ         00401300 f i main.obj
 0001:00000310       ??0WBorder@@QAE@ABV0@@Z    00401310 f i main.obj
 0001:00000370       ??4WBorder@@QAEAAV0@ABV0@@Z 00401370 f i main.obj
 0001:000003d0       ?specificFamilies@WFont@@QBE?BV?$basic_string@DU?$char_traits@D@std@@V?$allocator@D@2@@std@@XZ 004013d0 f i main.obj
 0001:00000400       ?style@WFont@@QBE?AW4Style@1@XZ 00401400 f i main.obj
 0001:00000410       ?variant@WFont@@QBE?AW4Variant@1@XZ 00401410 f i main.obj
 0001:00000420       ?weight@WFont@@QBE?AW4Weight@1@XZ 00401420 f i main.obj
 0001:00000430       ?weightValue@WFont@@QBEHXZ 00401430 f i main.obj
 0001:00000440       ?fixedSize@WFont@@QBE?AVWLength@@XZ 00401440 f i main.obj
 0001:00000470       ??1WFont@@QAE@XZ           00401470 f i main.obj
 0001:00000470       ??1_Node@?$_List_nod@V?$basic_string@DU?$char_traits@D@std@@V?$allocator@D@2@@std@@V?$allocator@V?$basic_string@DU?$char_traits@D@std@@V?$allocator@D@2@@std@@@2@@std@@QAE@XZ 00401470 f i basefunc.obj
 0001:00000480       ??0WFont@@QAE@ABV0@@Z      00401480 f i main.obj
 0001:00000500       ??4WFont@@QAEAAV0@ABV0@@Z  00401500 f i main.obj
 0001:00000580       ?backgroundColor@WCssDecorationStyle@@QBE?AVWColor@@XZ 00401580 f i main.obj
 0001:000005c0       ?backgroundImage@WCssDecorationStyle@@QBE?BV?$basic_string@DU?$char_traits@D@std@@V?$allocator@D@2@@std@@XZ 004015c0 f i main.obj
 0001:000005f0       ?backgroundImageRepeat@WCssDecorationStyle@@QBE?AW4Repeat@1@XZ 004015f0 f i main.obj
 0001:00000600       ?foregroundColor@WCssDecorationStyle@@QBE?AVWColor@@XZ 00401600 f i main.obj
 0001:00000650       ?border@WCssDecorationStyle@@QBE?AVWBorder@@XZ 00401650 f i main.obj
 0001:00000670       ??1WCssDecorationStyle@@QAE@XZ 00401670 f i main.obj
 0001:00000700       ??0WCssDecorationStyle@@QAE@ABV0@@Z 00401700 f i main.obj
 0001:00000840       ??4WCssDecorationStyle@@QAEAAV0@ABV0@@Z 00401840 f i main.obj
 0001:00000940       ?selector@WCssRule@@QBE?BV?$basic_string@DU?$char_traits@D@std@@V?$allocator@D@2@@std@@XZ 00401940 f i main.obj
 0001:00000970       ??0WCssRule@@QAE@ABV0@@Z   00401970 f i main.obj
 0001:00000990       ??4WCssRule@@QAEAAV0@ABV0@@Z 00401990 f i main.obj
 0001:000009b0       ??_EWCssRule@@UAEPAXI@Z    004019b0 f i main.obj
 0001:00000a10       ?styleSheet@WApplication@@QAEAAVWCssStyleSheet@@XZ 00401a10 f i main.obj
 0001:00000a20       ?root@WApplication@@QBEPAVWContainerWidget@@XZ 00401a20 f i main.obj
 0001:00000a30       ?loading@WApplication@@QBE_NXZ 00401a30 f i main.obj
 0001:00000a40       ?setLoading@WApplication@@QAEX_N@Z 00401a40 f i main.obj
 0001:00000a50       ?messageResourceBundle@WApplication@@QAEAAVWMessageResourceBundle@@XZ 00401a50 f i main.obj
 0001:00000a60       ?locale@WApplication@@QBE?AV?$basic_string@DU?$char_traits@D@std@@V?$allocator@D@2@@std@@XZ 00401a60 f i main.obj
 0001:00000a90       ?getBodyAttribute@WApplication@@QAE?BV?$basic_string@DU?$char_traits@D@std@@V?$allocator@D@2@@std@@XZ 00401a90 f i main.obj
 0001:00000ac0       ?setBeforBodyStr@WApplication@@QAEXV?$basic_string@DU?$char_traits@D@std@@V?$allocator@D@2@@std@@@Z 00401ac0 f i main.obj
 0001:00000b10       ?getBeforBodyStr@WApplication@@QAE?BV?$basic_string@DU?$char_traits@D@std@@V?$allocator@D@2@@std@@XZ 00401b10 f i main.obj
 0001:00000b40       ?size@WFont@@QBE?AW4Size@1@XZ 00401b40 f i main.obj
 0001:00000b40       ?getRefreshTime@WApplication@@QAEHXZ 00401b40 f i main.obj
 0001:00000b50       ?getRefreshFunc@WApplication@@QAE?AV?$basic_string@DU?$char_traits@D@std@@V?$allocator@D@2@@std@@XZ 00401b50 f i main.obj
 0001:00000b80       ?isQuited@WApplication@@ABE_NXZ 00401b80 f i main.obj
 0001:00000b90       ?empty@WMessage@@QBE_NXZ   00401b90 f i main.obj
 0001:00000ba0       ??4WMessage@@QAEAAV0@ABV0@@Z 00401ba0 f i main.obj
 0001:00000bc0       ?width@WWebWidget@@UBE?AVWLength@@XZ 00401bc0 f i main.obj
 0001:00000bf0       ?height@WWebWidget@@UBE?AVWLength@@XZ 00401bf0 f i main.obj
 0001:00000c20       ?isHidden@WWebWidget@@UBE_NXZ 00401c20 f i main.obj
 0001:00000c30       ?isPopup@WWebWidget@@UBE_NXZ 00401c30 f i main.obj
 0001:00000c40       ?isInline@WWebWidget@@UBE_NXZ 00401c40 f i main.obj
 0001:00000c50       ?font@WCssDecorationStyle@@QAEAAVWFont@@XZ 00401c50 f i main.obj
 0001:00000c50       ?decorationStyle@WWebWidget@@UAEAAVWCssDecorationStyle@@XZ 00401c50 f i main.obj
 0001:00000c60       ?styleClass@WWebWidget@@UBE?BV?$basic_string@DU?$char_traits@D@std@@V?$allocator@D@2@@std@@XZ 00401c60 f i main.obj
 0001:00000c90       ?verticalAlignment@WWebWidget@@UBE?AW4VerticalAlignment@WWidget@@XZ 00401c90 f i main.obj
 0001:00000ca0       ?verticalAlignmentLength@WWebWidget@@UBE?AVWLength@@XZ 00401ca0 f i main.obj
 0001:00000cd0       ?toolTip@WWebWidget@@UBE?AV?$basic_string@DU?$char_traits@D@std@@V?$allocator@D@2@@std@@XZ 00401cd0 f i main.obj
 0001:00000d00       ?toolTipMessage@WWebWidget@@UBEABVWMessage@@XZ 00401d00 f i main.obj
 0001:00000d10       ?renderState@WWebWidget@@IBE?AW4RenderState@1@XZ 00401d10 f i main.obj
 0001:00000d20       ?webWidget@WWebWidget@@MAEPAV1@XZ 00401d20 f i main.obj
 0001:00000d30       ?children@WWebWidget@@MBEABV?$vector@PAVWWidget@@V?$allocator@PAVWWidget@@@std@@@std@@XZ 00401d30 f i main.obj
 0001:00000d40       ??_FWWebWidget@@QAEXXZ     00401d40 f i main.obj
 0001:00000d50       ??1WInteractWidget@@UAE@XZ 00401d50 f i main.obj
 0001:00000d60       ??_FWInteractWidget@@QAEXXZ 00401d60 f i main.obj
 0001:00000d70       ?text@WText@@QBE?BV?$basic_string@DU?$char_traits@D@std@@V?$allocator@D@2@@std@@XZ 00401d70 f i main.obj
 0001:00000d70       ?imageRef@WImage@@QBE?BV?$basic_string@DU?$char_traits@D@std@@V?$allocator@D@2@@std@@XZ 00401d70 f i libwt:WImage.obj
 0001:00000da0       ?message@WText@@QBEABVWMessage@@XZ 00401da0 f i main.obj
 0001:00000db0       ?resource@WImage@@QBEPAVWResource@@XZ 00401db0 f i mainview.obj
 0001:00000db0       ?formatting@WText@@QBE?AW4Formatting@1@XZ 00401db0 f i main.obj
 0001:00000dc0       ??1WText@@UAE@XZ           00401dc0 f i main.obj
 0001:00000e30       ??_FWText@@QAEXXZ          00401e30 f i main.obj
 0001:00000e40       ??_FWContainerWidget@@QAEXXZ 00401e40 f i main.obj
 0001:00000e50       ?table@WTableRow@@QBEPAVWTable@@XZ 00401e50 f i main.obj
 0001:00000e60       ??_FWTable@@QAEXXZ         00401e60 f i main.obj
 0001:00000e70       ??1CEccMainView@@UAE@XZ    00401e70 f i main.obj
 0001:00000ef0       ?_Xlen@?$vector@PAVWMessageResources@@V?$allocator@PAVWMessageResources@@@std@@@std@@IBEXXZ 00401ef0 f i main.obj
 0001:00000ef0       ?_Xlen@?$vector@PAVWWidget@@V?$allocator@PAVWWidget@@@std@@@std@@IBEXXZ 00401ef0 f i main.obj
 0001:00000ef0       ?_Xlen@?$vector@UTableData@WTableRow@@V?$allocator@UTableData@WTableRow@@@std@@@std@@IBEXXZ 00401ef0 f i main.obj
 0001:00000ef0       ?_Xlen@?$vector@PAVWObject@@V?$allocator@PAVWObject@@@std@@@std@@IBEXXZ 00401ef0 f i main.obj
 0001:00000ef0       ?_Xlen@?$vector@PAVDomElement@@V?$allocator@PAVDomElement@@@std@@@std@@IBEXXZ 00401ef0 f i main.obj
 0001:00000ef0       ?_Xlen@?$vector@PAVWTableRow@@V?$allocator@PAVWTableRow@@@std@@@std@@IBEXXZ 00401ef0 f i main.obj
 0001:00000f70       ??1_Sentry_base@?$basic_ostream@DU?$char_traits@D@std@@@std@@QAE@XZ 00401f70 f i main.obj
 0001:00000f90       ??0logic_error@std@@QAE@ABV01@@Z 00401f90 f i main.obj
 0001:00000ff0       ??$?HDU?$char_traits@D@std@@V?$allocator@D@1@@std@@YA?AV?$basic_string@DU?$char_traits@D@std@@V?$allocator@D@2@@0@ABV10@0@Z 00401ff0 f i main.obj
 0001:00001070       ??$?HDU?$char_traits@D@std@@V?$allocator@D@1@@std@@YA?AV?$basic_string@DU?$char_traits@D@std@@V?$allocator@D@2@@0@PBDABV10@@Z 00402070 f i main.obj
 0001:000010f0       ??$?HDU?$char_traits@D@std@@V?$allocator@D@1@@std@@YA?AV?$basic_string@DU?$char_traits@D@std@@V?$allocator@D@2@@0@DABV10@@Z 004020f0 f i main.obj
 0001:00001170       ??$?HDU?$char_traits@D@std@@V?$allocator@D@1@@std@@YA?AV?$basic_string@DU?$char_traits@D@std@@V?$allocator@D@2@@0@ABV10@PBD@Z 00402170 f i main.obj
 0001:000011f0       ??$?HDU?$char_traits@D@std@@V?$allocator@D@1@@std@@YA?AV?$basic_string@DU?$char_traits@D@std@@V?$allocator@D@2@@0@ABV10@D@Z 004021f0 f i main.obj
 0001:00001270       ?showMainview@@YAXHQAPAD@Z 00402270 f   main.obj
 0001:000014e0       ??0sentry@?$basic_ostream@DU?$char_traits@D@std@@@std@@QAE@AAV12@@Z 004024e0 f i main.obj
 0001:00001570       ??1sentry@?$basic_ostream@DU?$char_traits@D@std@@@std@@QAE@XZ 00402570 f i main.obj
 0001:000015e0       ?_Max@?$_Tree@V?$_Tset_traits@PBVWResource@@U?$less@PBVWResource@@@std@@V?$allocator@PBVWResource@@@3@$0A@@std@@@std@@KAPAU_Node@?$_Tree_nod@V?$_Tset_traits@PBVWResource@@U?$less@PBVWResource@@@std@@V?$allocator@PBVWResource@@@3@$0A@@std@@@2@PAU342@@Z 004025e0 f i main.obj
 0001:000015e0       ?_Max@?$_Tree@V?$_Tset_traits@PBVWSignalInstance_@@U?$less@PBVWSignalInstance_@@@std@@V?$allocator@PBVWSignalInstance_@@@3@$0A@@std@@@std@@KAPAU_Node@?$_Tree_nod@V?$_Tset_traits@PBVWSignalInstance_@@U?$less@PBVWSignalInstance_@@@std@@V?$allocator@PBVWSignalInstance_@@@3@$0A@@std@@@2@PAU342@@Z 004025e0 f i main.obj
 0001:00001600       ?_Min@?$_Tree@V?$_Tset_traits@PBVWSignalInstance_@@U?$less@PBVWSignalInstance_@@@std@@V?$allocator@PBVWSignalInstance_@@@3@$0A@@std@@@std@@KAPAU_Node@?$_Tree_nod@V?$_Tset_traits@PBVWSignalInstance_@@U?$less@PBVWSignalInstance_@@@std@@V?$allocator@PBVWSignalInstance_@@@3@$0A@@std@@@2@PAU342@@Z 00402600 f i main.obj
 0001:00001600       ?_Min@?$_Tree@V?$_Tset_traits@PBVWResource@@U?$less@PBVWResource@@@std@@V?$allocator@PBVWResource@@@3@$0A@@std@@@std@@KAPAU_Node@?$_Tree_nod@V?$_Tset_traits@PBVWResource@@U?$less@PBVWResource@@@std@@V?$allocator@PBVWResource@@@3@$0A@@std@@@2@PAU342@@Z 00402600 f i main.obj
 0001:00001620       ??0length_error@std@@QAE@ABV01@@Z 00402620 f i main.obj
 0001:00001640       ?_Lrotate@?$_Tree@V?$_Tset_traits@PBVWResource@@U?$less@PBVWResource@@@std@@V?$allocator@PBVWResource@@@3@$0A@@std@@@std@@IAEXPAU_Node@?$_Tree_nod@V?$_Tset_traits@PBVWResource@@U?$less@PBVWResource@@@std@@V?$allocator@PBVWResource@@@3@$0A@@std@@@2@@Z 00402640 f i main.obj
 0001:00001640       ?_Lrotate@?$_Tree@V?$_Tset_traits@PBVWSignalInstance_@@U?$less@PBVWSignalInstance_@@@std@@V?$allocator@PBVWSignalInstance_@@@3@$0A@@std@@@std@@IAEXPAU_Node@?$_Tree_nod@V?$_Tset_traits@PBVWSignalInstance_@@U?$less@PBVWSignalInstance_@@@std@@V?$allocator@PBVWSignalInstance_@@@3@$0A@@std@@@2@@Z 00402640 f i main.obj
 0001:000016a0       ?_Rrotate@?$_Tree@V?$_Tset_traits@PBVWSignalInstance_@@U?$less@PBVWSignalInstance_@@@std@@V?$allocator@PBVWSignalInstance_@@@3@$0A@@std@@@std@@IAEXPAU_Node@?$_Tree_nod@V?$_Tset_traits@PBVWSignalInstance_@@U?$less@PBVWSignalInstance_@@@std@@V?$allocator@PBVWSignalInstance_@@@3@$0A@@std@@@2@@Z 004026a0 f i main.obj
 0001:000016a0       ?_Rrotate@?$_Tree@V?$_Tset_traits@PBVWResource@@U?$less@PBVWResource@@@std@@V?$allocator@PBVWResource@@@3@$0A@@std@@@std@@IAEXPAU_Node@?$_Tree_nod@V?$_Tset_traits@PBVWResource@@U?$less@PBVWResource@@@std@@V?$allocator@PBVWResource@@@3@$0A@@std@@@2@@Z 004026a0 f i main.obj
 0001:00001700       ?_Inc@const_iterator@?$_Tree@V?$_Tset_traits@PBVWResource@@U?$less@PBVWResource@@@std@@V?$allocator@PBVWResource@@@3@$0A@@std@@@std@@QAEXXZ 00402700 f i main.obj
 0001:00001700       ?_Inc@const_iterator@?$_Tree@V?$_Tset_traits@PBVWSignalInstance_@@U?$less@PBVWSignalInstance_@@@std@@V?$allocator@PBVWSignalInstance_@@@3@$0A@@std@@@std@@QAEXXZ 00402700 f i main.obj
 0001:00001760       ??$?6DU?$char_traits@D@std@@V?$allocator@D@1@@std@@YAAAV?$basic_ostream@DU?$char_traits@D@std@@@0@AAV10@ABV?$basic_string@DU?$char_traits@D@std@@V?$allocator@D@2@@0@@Z 00402760 f i main.obj
 0001:00001960       ??$copy@PAUTableData@WTableRow@@PAU12@@std@@YAPAUTableData@WTableRow@@PAU12@00@Z 00402960 f i main.obj
 0001:00001990       ?_Buy@?$vector@PAVWWidget@@V?$allocator@PAVWWidget@@@std@@@std@@IAE_NI@Z 00402990 f i main.obj
 0001:00001990       ?_Buy@?$vector@PAVWMessageResources@@V?$allocator@PAVWMessageResources@@@std@@@std@@IAE_NI@Z 00402990 f i main.obj
 0001:00001990       ?_Buy@?$vector@PAVWTableRow@@V?$allocator@PAVWTableRow@@@std@@@std@@IAE_NI@Z 00402990 f i main.obj
 0001:00001990       ?_Buy@?$vector@PAVWObject@@V?$allocator@PAVWObject@@@std@@@std@@IAE_NI@Z 00402990 f i main.obj
 0001:00001990       ?_Buy@?$vector@PAVDomElement@@V?$allocator@PAVDomElement@@@std@@@std@@IAE_NI@Z 00402990 f i main.obj
 0001:000019e0       ?_Buy@?$vector@UTableData@WTableRow@@V?$allocator@UTableData@WTableRow@@@std@@@std@@IAE_NI@Z 004029e0 f i main.obj
 0001:00001a30       ?_Buynode@?$_Tree@V?$_Tmap_traits@V?$basic_string@DU?$char_traits@D@std@@V?$allocator@D@2@@std@@PAVWCssRule@@U?$less@V?$basic_string@DU?$char_traits@D@std@@V?$allocator@D@2@@std@@@2@V?$allocator@U?$pair@$$CBV?$basic_string@DU?$char_traits@D@std@@V?$allocator@D@2@@std@@PAVWCssRule@@@std@@@2@$0A@@std@@@std@@IAEPAU_Node@?$_Tree_nod@V?$_Tmap_traits@V?$basic_string@DU?$char_traits@D@std@@V?$allocator@D@2@@std@@PAVWCssRule@@U?$less@V?$basic_string@DU?$char_traits@D@std@@V?$allocator@D@2@@std@@@2@V?$allocator@U?$pair@$$CBV?$basic_string@DU?$char_traits@D@std@@V?$allocator@D@2@@std@@PAVWCssRule@@@std@@@2@$0A@@std@@@2@PAU342@00ABU?$pair@$$CBV?$basic_string@DU?$char_traits@D@std@@V?$allocator@D@2@@std@@PAVWCssRule@@@2@D@Z 00402a30 f i main.obj
 0001:00001ad0       ?_Erase@?$_Tree@V?$_Tset_traits@PBVWSignalInstance_@@U?$less@PBVWSignalInstance_@@@std@@V?$allocator@PBVWSignalInstance_@@@3@$0A@@std@@@std@@IAEXPAU_Node@?$_Tree_nod@V?$_Tset_traits@PBVWSignalInstance_@@U?$less@PBVWSignalInstance_@@@std@@V?$allocator@PBVWSignalInstance_@@@3@$0A@@std@@@2@@Z 00402ad0 f i main.obj
 0001:00001b10       ?_Erase@?$_Tree@V?$_Tset_traits@PBVWResource@@U?$less@PBVWResource@@@std@@V?$allocator@PBVWResource@@@3@$0A@@std@@@std@@IAEXPAU_Node@?$_Tree_nod@V?$_Tset_traits@PBVWResource@@U?$less@PBVWResource@@@std@@V?$allocator@PBVWResource@@@3@$0A@@std@@@2@@Z 00402b10 f i main.obj
 0001:00001b50       ?_Buynode@?$_Tree@V?$_Tset_traits@PBVWSignalInstance_@@U?$less@PBVWSignalInstance_@@@std@@V?$allocator@PBVWSignalInstance_@@@3@$0A@@std@@@std@@IAEPAU_Node@?$_Tree_nod@V?$_Tset_traits@PBVWSignalInstance_@@U?$less@PBVWSignalInstance_@@@std@@V?$allocator@PBVWSignalInstance_@@@3@$0A@@std@@@2@PAU342@00ABQBVWSignalInstance_@@D@Z 00402b50 f i main.obj
 0001:00001b50       ?_Buynode@?$_Tree@V?$_Tset_traits@PBVWResource@@U?$less@PBVWResource@@@std@@V?$allocator@PBVWResource@@@3@$0A@@std@@@std@@IAEPAU_Node@?$_Tree_nod@V?$_Tset_traits@PBVWResource@@U?$less@PBVWResource@@@std@@V?$allocator@PBVWResource@@@3@$0A@@std@@@2@PAU342@00ABQBVWResource@@D@Z 00402b50 f i main.obj
 0001:00001b90       ??$_Uninit_copy@PAU?$pair@_NPAUre_syntax_base@re_detail@boost@@@std@@PAU12@V?$allocator@U?$pair@_NPAUre_syntax_base@re_detail@boost@@@std@@@2@@std@@YAPAU?$pair@_NPAUre_syntax_base@re_detail@boost@@@0@PAU10@00AAV?$allocator@U?$pair@_NPAUre_syntax_base@re_detail@boost@@@std@@@0@U_Nonscalar_ptr_iterator_tag@0@@Z 00402b90 f i libboost_regex-vc71-mt-1_33_1:instances.obj
 0001:00001b90       ??$_Uninit_copy@PAUTableData@WTableRow@@PAU12@V?$allocator@UTableData@WTableRow@@@std@@@std@@YAPAUTableData@WTableRow@@PAU12@00AAV?$allocator@UTableData@WTableRow@@@0@U_Nonscalar_ptr_iterator_tag@0@@Z 00402b90 f i main.obj
 0001:00001bc0       ?_Copy@?$_Tree@V?$_Tset_traits@PBVWSignalInstance_@@U?$less@PBVWSignalInstance_@@@std@@V?$allocator@PBVWSignalInstance_@@@3@$0A@@std@@@std@@IAEPAU_Node@?$_Tree_nod@V?$_Tset_traits@PBVWSignalInstance_@@U?$less@PBVWSignalInstance_@@@std@@V?$allocator@PBVWSignalInstance_@@@3@$0A@@std@@@2@PAU342@0@Z 00402bc0 f i main.obj
 0001:00001c70       ?_Copy@?$_Tree@V?$_Tset_traits@PBVWResource@@U?$less@PBVWResource@@@std@@V?$allocator@PBVWResource@@@3@$0A@@std@@@std@@IAEPAU_Node@?$_Tree_nod@V?$_Tset_traits@PBVWResource@@U?$less@PBVWResource@@@std@@V?$allocator@PBVWResource@@@3@$0A@@std@@@2@PAU342@0@Z 00402c70 f i main.obj
 0001:00001d20       ??1WebSession@@QAE@XZ      00402d20 f i main.obj
 0001:00001e00       _main                      00402e00 f   main.obj
 0001:00001f90       ??4?$vector@PAVWMessageResources@@V?$allocator@PAVWMessageResources@@@std@@@std@@QAEAAV01@ABV01@@Z 00402f90 f i main.obj
 0001:00001f90       ??4?$vector@PAVWTableRow@@V?$allocator@PAVWTableRow@@@std@@@std@@QAEAAV01@ABV01@@Z 00402f90 f i main.obj
 0001:00001f90       ??4?$vector@PAVWWidget@@V?$allocator@PAVWWidget@@@std@@@std@@QAEAAV01@ABV01@@Z 00402f90 f i main.obj
 0001:00001f90       ??4?$vector@PAVWObject@@V?$allocator@PAVWObject@@@std@@@std@@QAEAAV01@ABV01@@Z 00402f90 f i main.obj
 0001:00001f90       ??4?$vector@PAVDomElement@@V?$allocator@PAVDomElement@@@std@@@std@@QAEAAV01@ABV01@@Z 00402f90 f i main.obj
 0001:000020e0       ?_Copy@?$_Tree@V?$_Tset_traits@PBVWSignalInstance_@@U?$less@PBVWSignalInstance_@@@std@@V?$allocator@PBVWSignalInstance_@@@3@$0A@@std@@@std@@IAEXABV12@@Z 004030e0 f i main.obj
 0001:00002170       ?_Copy@?$_Tree@V?$_Tset_traits@PBVWResource@@U?$less@PBVWResource@@@std@@V?$allocator@PBVWResource@@@3@$0A@@std@@@std@@IAEXABV12@@Z 00403170 f i main.obj
 0001:00002200       ?erase@?$_Tree@V?$_Tmap_traits@V?$basic_string@DU?$char_traits@D@std@@V?$allocator@D@2@@std@@PAVWCssRule@@U?$less@V?$basic_string@DU?$char_traits@D@std@@V?$allocator@D@2@@std@@@2@V?$allocator@U?$pair@$$CBV?$basic_string@DU?$char_traits@D@std@@V?$allocator@D@2@@std@@PAVWCssRule@@@std@@@2@$0A@@std@@@std@@QAE?AViterator@12@V312@@Z 00403200 f i main.obj
 0001:000024e0       ??0out_of_range@std@@QAE@ABV01@@Z 004034e0 f i main.obj
 0001:00002500       ?erase@?$_Tree@V?$_Tset_traits@PBVWResource@@U?$less@PBVWResource@@@std@@V?$allocator@PBVWResource@@@3@$0A@@std@@@std@@QAE?AViterator@12@V312@@Z 00403500 f i main.obj
 0001:00002500       ?erase@?$_Tree@V?$_Tset_traits@PBVWSignalInstance_@@U?$less@PBVWSignalInstance_@@@std@@V?$allocator@PBVWSignalInstance_@@@3@$0A@@std@@@std@@QAE?AViterator@12@V312@@Z 00403500 f i main.obj
 0001:000027d0       ?_Erase@?$_Tree@V?$_Tmap_traits@V?$basic_string@DU?$char_traits@D@std@@V?$allocator@D@2@@std@@PAVWCssRule@@U?$less@V?$basic_string@DU?$char_traits@D@std@@V?$allocator@D@2@@std@@@2@V?$allocator@U?$pair@$$CBV?$basic_string@DU?$char_traits@D@std@@V?$allocator@D@2@@std@@PAVWCssRule@@@std@@@2@$0A@@std@@@std@@IAEXPAU_Node@?$_Tree_nod@V?$_Tmap_traits@V?$basic_string@DU?$char_traits@D@std@@V?$allocator@D@2@@std@@PAVWCssRule@@U?$less@V?$basic_string@DU?$char_traits@D@std@@V?$allocator@D@2@@std@@@2@V?$allocator@U?$pair@$$CBV?$basic_string@DU?$char_traits@D@std@@V?$allocator@D@2@@std@@PAVWCssRule@@@std@@@2@$0A@@std@@@2@@Z 004037d0 f i main.obj
 0001:00002810       ??$_Ucopy@PAUTableData@WTableRow@@@?$vector@UTableData@WTableRow@@V?$allocator@UTableData@WTableRow@@@std@@@std@@IAEPAUTableData@WTableRow@@PAU23@00@Z 00403810 f i main.obj
 0001:00002830       ??4WebSession@@QAEAAV0@ABV0@@Z 00403830 f i main.obj
 0001:000029f0       ??4WMessageResourceBundle@@QAEAAV0@ABV0@@Z 004039f0 f i main.obj
 0001:00002a10       ??4WWebWidget@@QAEAAV0@ABV0@@Z 00403a10 f i main.obj
 0001:00002d50       ??4WInteractWidget@@QAEAAV0@ABV0@@Z 00403d50 f i main.obj
 0001:00002d90       ??4WText@@QAEAAV0@ABV0@@Z  00403d90 f i main.obj
 0001:00002df0       ??4WContainerWidget@@QAEAAV0@ABV0@@Z 00403df0 f i main.obj
 0001:00002ed0       ??4WTable@@QAEAAV0@ABV0@@Z 00403ed0 f i main.obj
 0001:00003030       ??0?$vector@PAVWMessageResources@@V?$allocator@PAVWMessageResources@@@std@@@std@@QAE@ABV01@@Z 00404030 f i main.obj
 0001:00003030       ??0?$vector@PAVWObject@@V?$allocator@PAVWObject@@@std@@@std@@QAE@ABV01@@Z 00404030 f i main.obj
 0001:000030f0       ?erase@?$_Tree@V?$_Tset_traits@PBVWSignalInstance_@@U?$less@PBVWSignalInstance_@@@std@@V?$allocator@PBVWSignalInstance_@@@3@$0A@@std@@@std@@QAE?AViterator@12@V312@0@Z 004040f0 f i main.obj
 0001:000031b0       ?erase@?$_Tree@V?$_Tset_traits@PBVWResource@@U?$less@PBVWResource@@@std@@V?$allocator@PBVWResource@@@3@$0A@@std@@@std@@QAE?AViterator@12@V312@0@Z 004041b0 f i main.obj
 0001:00003270       ?_Copy@?$_Tree@V?$_Tmap_traits@V?$basic_string@DU?$char_traits@D@std@@V?$allocator@D@2@@std@@PAVWCssRule@@U?$less@V?$basic_string@DU?$char_traits@D@std@@V?$allocator@D@2@@std@@@2@V?$allocator@U?$pair@$$CBV?$basic_string@DU?$char_traits@D@std@@V?$allocator@D@2@@std@@PAVWCssRule@@@std@@@2@$0A@@std@@@std@@IAEPAU_Node@?$_Tree_nod@V?$_Tmap_traits@V?$basic_string@DU?$char_traits@D@std@@V?$allocator@D@2@@std@@PAVWCssRule@@U?$less@V?$basic_string@DU?$char_traits@D@std@@V?$allocator@D@2@@std@@@2@V?$allocator@U?$pair@$$CBV?$basic_string@DU?$char_traits@D@std@@V?$allocator@D@2@@std@@PAVWCssRule@@@std@@@2@$0A@@std@@@2@PAU342@0@Z 00404270 f i main.obj
 0001:00003320       ??0WebSession@@QAE@ABV0@@Z 00404320 f i main.obj
 0001:00003530       ??0WMessageResourceBundle@@QAE@ABV0@@Z 00404530 f i main.obj
 0001:00003550       ??1WTableRow@@UAE@XZ       00404550 f i main.obj
 0001:000035f0       ??4?$vector@UTableData@WTableRow@@V?$allocator@UTableData@WTableRow@@@std@@@std@@QAEAAV01@ABV01@@Z 004045f0 f i main.obj
 0001:00003740       ?erase@?$_Tree@V?$_Tmap_traits@V?$basic_string@DU?$char_traits@D@std@@V?$allocator@D@2@@std@@PAVWCssRule@@U?$less@V?$basic_string@DU?$char_traits@D@std@@V?$allocator@D@2@@std@@@2@V?$allocator@U?$pair@$$CBV?$basic_string@DU?$char_traits@D@std@@V?$allocator@D@2@@std@@PAVWCssRule@@@std@@@2@$0A@@std@@@std@@QAE?AViterator@12@V312@0@Z 00404740 f i main.obj
 0001:00003800       ?_Copy@?$_Tree@V?$_Tmap_traits@V?$basic_string@DU?$char_traits@D@std@@V?$allocator@D@2@@std@@PAVWCssRule@@U?$less@V?$basic_string@DU?$char_traits@D@std@@V?$allocator@D@2@@std@@@2@V?$allocator@U?$pair@$$CBV?$basic_string@DU?$char_traits@D@std@@V?$allocator@D@2@@std@@PAVWCssRule@@@std@@@2@$0A@@std@@@std@@IAEXABV12@@Z 00404800 f i main.obj
 0001:00003890       ??4WTableRow@@QAEAAV0@ABV0@@Z 00404890 f i main.obj
 0001:000038e0       ??4WApplication@@QAEAAV0@ABV0@@Z 004048e0 f i main.obj
 0001:00003a30       ?strtriml@@YA?AV?$basic_string@DU?$char_traits@D@std@@V?$allocator@D@2@@std@@PBD@Z 00404a30 f   basefunc.obj
 0001:00003b20       ?strtrimr@@YA?AV?$basic_string@DU?$char_traits@D@std@@V?$allocator@D@2@@std@@PBD@Z 00404b20 f   basefunc.obj
 0001:00003c20       ?url_Encode@@YA?AV?$basic_string@DU?$char_traits@D@std@@V?$allocator@D@2@@std@@PBD@Z 00404c20 f   basefunc.obj
 0001:00003d70       ?_Xlen@?$vector@U?$sub_match@Vconst_iterator@?$basic_string@DU?$char_traits@D@std@@V?$allocator@D@2@@std@@@boost@@V?$allocator@U?$sub_match@Vconst_iterator@?$basic_string@DU?$char_traits@D@std@@V?$allocator@D@2@@std@@@boost@@@std@@@std@@IBEXXZ 00404d70 f i basefunc.obj
 0001:00003df0       ??1?$repeater_count@Vconst_iterator@?$basic_string@DU?$char_traits@D@std@@V?$allocator@D@2@@std@@@re_detail@boost@@QAE@XZ 00404df0 f i basefunc.obj
 0001:00003e00       ?size@?$vector@U?$sub_match@Vconst_iterator@?$basic_string@DU?$char_traits@D@std@@V?$allocator@D@2@@std@@@boost@@V?$allocator@U?$sub_match@Vconst_iterator@?$basic_string@DU?$char_traits@D@std@@V?$allocator@D@2@@std@@@boost@@@std@@@std@@QBEIXZ 00404e00 f i basefunc.obj
 0001:00003e20       ?buildHtmlText@@YAXAAV?$basic_string@DU?$char_traits@D@std@@V?$allocator@D@2@@std@@@Z 00404e20 f   basefunc.obj
 0001:00003f50       ?str@?$sub_match@Vconst_iterator@?$basic_string@DU?$char_traits@D@std@@V?$allocator@D@2@@std@@@boost@@QBE?AV?$basic_string@DU?$char_traits@D@std@@V?$allocator@D@2@@std@@XZ 00404f50 f i basefunc.obj
 0001:00004010       ??0?$basic_regex@DU?$regex_traits@DV?$w32_regex_traits@D@boost@@@boost@@@boost@@QAE@PBDI@Z 00405010 f i basefunc.obj
 0001:00004080       ?_Buynode@?$list@V?$basic_string@DU?$char_traits@D@std@@V?$allocator@D@2@@std@@V?$allocator@V?$basic_string@DU?$char_traits@D@std@@V?$allocator@D@2@@std@@@2@@std@@IAEPAU_Node@?$_List_nod@V?$basic_string@DU?$char_traits@D@std@@V?$allocator@D@2@@std@@V?$allocator@V?$basic_string@DU?$char_traits@D@std@@V?$allocator@D@2@@std@@@2@@2@PAU342@0ABV?$basic_string@DU?$char_traits@D@std@@V?$allocator@D@2@@2@@Z 00405080 f i basefunc.obj
 0001:00004110       ?_Incsize@?$list@V?$basic_string@DU?$char_traits@D@std@@V?$allocator@D@2@@std@@V?$allocator@V?$basic_string@DU?$char_traits@D@std@@V?$allocator@D@2@@std@@@2@@std@@IAEXI@Z 00405110 f i basefunc.obj
 0001:000041b0       ?_Buy@?$vector@U?$sub_match@Vconst_iterator@?$basic_string@DU?$char_traits@D@std@@V?$allocator@D@2@@std@@@boost@@V?$allocator@U?$sub_match@Vconst_iterator@?$basic_string@DU?$char_traits@D@std@@V?$allocator@D@2@@std@@@boost@@@std@@@std@@IAE_NI@Z 004051b0 f i basefunc.obj
 0001:00004200       ??$copy@PAU?$sub_match@Vconst_iterator@?$basic_string@DU?$char_traits@D@std@@V?$allocator@D@2@@std@@@boost@@PAU12@@std@@YAPAU?$sub_match@Vconst_iterator@?$basic_string@DU?$char_traits@D@std@@V?$allocator@D@2@@std@@@boost@@PAU12@00@Z 00405200 f i basefunc.obj
 0001:00004240       ?str@?$match_results@Vconst_iterator@?$basic_string@DU?$char_traits@D@std@@V?$allocator@D@2@@std@@V?$allocator@U?$sub_match@Vconst_iterator@?$basic_string@DU?$char_traits@D@std@@V?$allocator@D@2@@std@@@boost@@@3@@boost@@QBE?AV?$basic_string@DU?$char_traits@D@std@@V?$allocator@D@2@@std@@H@Z 00405240 f i basefunc.obj
 0001:00004330       ?length@?$match_results@Vconst_iterator@?$basic_string@DU?$char_traits@D@std@@V?$allocator@D@2@@std@@V?$allocator@U?$sub_match@Vconst_iterator@?$basic_string@DU?$char_traits@D@std@@V?$allocator@D@2@@std@@@boost@@@3@@boost@@QBEHH@Z 00405330 f i basefunc.obj
 0001:00004380       ??$_Uninit_copy@PAU?$sub_match@Vconst_iterator@?$basic_string@DU?$char_traits@D@std@@V?$allocator@D@2@@std@@@boost@@PAU12@V?$allocator@U?$sub_match@Vconst_iterator@?$basic_string@DU?$char_traits@D@std@@V?$allocator@D@2@@std@@@boost@@@std@@@std@@YAPAU?$sub_match@Vconst_iterator@?$basic_string@DU?$char_traits@D@std@@V?$allocator@D@2@@std@@@boost@@PAU12@00AAV?$allocator@U?$sub_match@Vconst_iterator@?$basic_string@DU?$char_traits@D@std@@V?$allocator@D@2@@std@@@boost@@@0@U_Nonscalar_ptr_iterator_tag@0@@Z 00405380 f i basefunc.obj
 0001:00004380       ??$_Uninit_copy@Vconst_iterator@?$vector@U?$sub_match@Vconst_iterator@?$basic_string@DU?$char_traits@D@std@@V?$allocator@D@2@@std@@@boost@@V?$allocator@U?$sub_match@Vconst_iterator@?$basic_string@DU?$char_traits@D@std@@V?$allocator@D@2@@std@@@boost@@@std@@@std@@PAU?$sub_match@Vconst_iterator@?$basic_string@DU?$char_traits@D@std@@V?$allocator@D@2@@std@@@boost@@V?$allocator@U?$sub_match@Vconst_iterator@?$basic_string@DU?$char_traits@D@std@@V?$allocator@D@2@@std@@@boost@@@3@@std@@YAPAU?$sub_match@Vconst_iterator@?$basic_string@DU?$char_traits@D@std@@V?$allocator@D@2@@std@@@boost@@Vconst_iterator@?$vector@U?$sub_match@Vconst_iterator@?$basic_string@DU?$char_traits@D@std@@V?$allocator@D@2@@std@@@boost@@V?$allocator@U?$sub_match@Vconst_iterator@?$basic_string@DU?$char_traits@D@std@@V?$allocator@D@2@@std@@@boost@@@std@@@0@0PAU12@AAV?$allocator@U?$sub_match@Vconst_iterator@?$basic_string@DU?$char_traits@D@std@@V?$allocator@D@2@@std@@@boost@@@0@U_Nonscalar_ptr_iterator_tag@0@@Z 00405380 f i basefunc.obj
 0001:000043c0       ?clear@?$list@V?$basic_string@DU?$char_traits@D@std@@V?$allocator@D@2@@std@@V?$allocator@V?$basic_string@DU?$char_traits@D@std@@V?$allocator@D@2@@std@@@2@@std@@QAEXXZ 004053c0 f i basefunc.obj
 0001:00004400       ??4?$back_insert_iterator@V?$list@V?$basic_string@DU?$char_traits@D@std@@V?$allocator@D@2@@std@@V?$allocator@V?$basic_string@DU?$char_traits@D@std@@V?$allocator@D@2@@std@@@2@@std@@@std@@QAEAAV01@ABV?$basic_string@DU?$char_traits@D@std@@V?$allocator@D@2@@1@@Z 00405400 f i basefunc.obj
 0001:00004440       ??R?$split_pred@V?$back_insert_iterator@V?$list@V?$basic_string@DU?$char_traits@D@std@@V?$allocator@D@2@@std@@V?$allocator@V?$basic_string@DU?$char_traits@D@std@@V?$allocator@D@2@@std@@@2@@std@@@std@@DU?$char_traits@D@2@V?$allocator@D@2@@re_detail@boost@@QAE_NABV?$match_results@Vconst_iterator@?$basic_string@DU?$char_traits@D@std@@V?$allocator@D@2@@std@@V?$allocator@U?$sub_match@Vconst_iterator@?$basic_string@DU?$char_traits@D@std@@V?$allocator@D@2@@std@@@boost@@@3@@2@@Z 00405440 f i basefunc.obj
 0001:00004670       ?sv_split@@YAHPBD0AAV?$list@V?$basic_string@DU?$char_traits@D@std@@V?$allocator@D@2@@std@@V?$allocator@V?$basic_string@DU?$char_traits@D@std@@V?$allocator@D@2@@std@@@2@@std@@_N@Z 00405670 f   basefunc.obj
 0001:00004830       ??1?$list@V?$basic_string@DU?$char_traits@D@std@@V?$allocator@D@2@@std@@V?$allocator@V?$basic_string@DU?$char_traits@D@std@@V?$allocator@D@2@@std@@@2@@std@@QAE@XZ 00405830 f i basefunc.obj
 0001:00004830       ?_Tidy@?$list@V?$basic_string@DU?$char_traits@D@std@@V?$allocator@D@2@@std@@V?$allocator@V?$basic_string@DU?$char_traits@D@std@@V?$allocator@D@2@@std@@@2@@std@@IAEXXZ 00405830 f i basefunc.obj
 0001:00004850       ?_Tidy@?$vector@PAVWMessageResources@@V?$allocator@PAVWMessageResources@@@std@@@std@@IAEXXZ 00405850 f i main.obj
 0001:00004850       ??1?$vector@PAVDomElement@@V?$allocator@PAVDomElement@@@std@@@std@@QAE@XZ 00405850 f i libwt:WWebWidget.obj
 0001:00004850       ??1?$vector@UTableData@WTableRow@@V?$allocator@UTableData@WTableRow@@@std@@@std@@QAE@XZ 00405850 f i main.obj
 0001:00004850       ??1?$vector@PAVWWidget@@V?$allocator@PAVWWidget@@@std@@@std@@QAE@XZ 00405850 f i main.obj
 0001:00004850       ??1?$vector@PAVWObject@@V?$allocator@PAVWObject@@@std@@@std@@QAE@XZ 00405850 f i main.obj
 0001:00004850       ?_Tidy@?$vector@PAVWObject@@V?$allocator@PAVWObject@@@std@@@std@@IAEXXZ 00405850 f i main.obj
 0001:00004850       ??1?$match_results@Vconst_iterator@?$basic_string@DU?$char_traits@D@std@@V?$allocator@D@2@@std@@V?$allocator@U?$sub_match@Vconst_iterator@?$basic_string@DU?$char_traits@D@std@@V?$allocator@D@2@@std@@@boost@@@3@@boost@@QAE@XZ 00405850 f i basefunc.obj
 0001:00004850       ??1?$vector@PAVWConnection_@@V?$allocator@PAVWConnection_@@@std@@@std@@QAE@XZ 00405850 f i mainviewwt.obj
 0001:00004850       ?_Tidy@?$vector@U?$sub_match@Vconst_iterator@?$basic_string@DU?$char_traits@D@std@@V?$allocator@D@2@@std@@@boost@@V?$allocator@U?$sub_match@Vconst_iterator@?$basic_string@DU?$char_traits@D@std@@V?$allocator@D@2@@std@@@boost@@@std@@@std@@IAEXXZ 00405850 f i basefunc.obj
 0001:00004850       ??1WMessageResourceBundle@@QAE@XZ 00405850 f i main.obj
 0001:00004850       ?_Tidy@?$vector@PAVWConnection_@@V?$allocator@PAVWConnection_@@@std@@@std@@IAEXXZ 00405850 f i mainviewwt.obj
 0001:00004850       ??1?$vector@PAVWTableRow@@V?$allocator@PAVWTableRow@@@std@@@std@@QAE@XZ 00405850 f i libwt:WTable.obj
 0001:00004850       ??1?$vector@U?$digraph@D@re_detail@boost@@V?$allocator@U?$digraph@D@re_detail@boost@@@std@@@std@@QAE@XZ 00405850 f i libboost_regex-vc71-mt-1_33_1:instances.obj
 0001:00004850       ??1?$vector@PAVWRadioButton@@V?$allocator@PAVWRadioButton@@@std@@@std@@QAE@XZ 00405850 f i libwt:WButtonGroup.obj
 0001:00004850       ??1?$vector@U?$pair@_NPAUre_syntax_base@re_detail@boost@@@std@@V?$allocator@U?$pair@_NPAUre_syntax_base@re_detail@boost@@@std@@@2@@std@@QAE@XZ 00405850 f i libboost_regex-vc71-mt-1_33_1:instances.obj
 0001:00004850       ??1?$vector@PAVWScrollBar@@V?$allocator@PAVWScrollBar@@@std@@@std@@QAE@XZ 00405850 f i libwt:WScrollBar.obj
 0001:00004880       ??$_Ucopy@PAU?$sub_match@Vconst_iterator@?$basic_string@DU?$char_traits@D@std@@V?$allocator@D@2@@std@@@boost@@@?$vector@U?$sub_match@Vconst_iterator@?$basic_string@DU?$char_traits@D@std@@V?$allocator@D@2@@std@@@boost@@V?$allocator@U?$sub_match@Vconst_iterator@?$basic_string@DU?$char_traits@D@std@@V?$allocator@D@2@@std@@@boost@@@std@@@std@@IAEPAU?$sub_match@Vconst_iterator@?$basic_string@DU?$char_traits@D@std@@V?$allocator@D@2@@std@@@boost@@PAU23@00@Z 00405880 f i basefunc.obj
 0001:000048a0       ??0?$vector@U?$sub_match@Vconst_iterator@?$basic_string@DU?$char_traits@D@std@@V?$allocator@D@2@@std@@@boost@@V?$allocator@U?$sub_match@Vconst_iterator@?$basic_string@DU?$char_traits@D@std@@V?$allocator@D@2@@std@@@boost@@@std@@@std@@QAE@ABV01@@Z 004058a0 f i basefunc.obj
 0001:00004970       ??4?$vector@U?$sub_match@Vconst_iterator@?$basic_string@DU?$char_traits@D@std@@V?$allocator@D@2@@std@@@boost@@V?$allocator@U?$sub_match@Vconst_iterator@?$basic_string@DU?$char_traits@D@std@@V?$allocator@D@2@@std@@@boost@@@std@@@std@@QAEAAV01@ABV01@@Z 00405970 f i basefunc.obj
 0001:00004ae0       ?getOperatePostion@@YAIV?$basic_string@DU?$char_traits@D@std@@V?$allocator@D@2@@std@@V?$list@V?$basic_string@DU?$char_traits@D@std@@V?$allocator@D@2@@std@@V?$allocator@V?$basic_string@DU?$char_traits@D@std@@V?$allocator@D@2@@std@@@2@@2@AAV12@@Z 00405ae0 f   basefunc.obj
 0001:00004cf0       ??1?$scoped_ptr@V?$match_results@Vconst_iterator@?$basic_string@DU?$char_traits@D@std@@V?$allocator@D@2@@std@@V?$allocator@U?$sub_match@Vconst_iterator@?$basic_string@DU?$char_traits@D@std@@V?$allocator@D@2@@std@@@boost@@@3@@boost@@@boost@@QAE@XZ 00405cf0 f i basefunc.obj
 0001:00004d10       ??1?$perl_matcher@Vconst_iterator@?$basic_string@DU?$char_traits@D@std@@V?$allocator@D@2@@std@@V?$allocator@U?$sub_match@Vconst_iterator@?$basic_string@DU?$char_traits@D@std@@V?$allocator@D@2@@std@@@boost@@@3@U?$regex_traits@DV?$w32_regex_traits@D@boost@@@boost@@@re_detail@boost@@QAE@XZ 00405d10 f i basefunc.obj
 0001:00004d50       ??$regex_grep@V?$split_pred@V?$back_insert_iterator@V?$list@V?$basic_string@DU?$char_traits@D@std@@V?$allocator@D@2@@std@@V?$allocator@V?$basic_string@DU?$char_traits@D@std@@V?$allocator@D@2@@std@@@2@@std@@@std@@DU?$char_traits@D@2@V?$allocator@D@2@@re_detail@boost@@Vconst_iterator@?$basic_string@DU?$char_traits@D@std@@V?$allocator@D@2@@std@@DU?$regex_traits@DV?$w32_regex_traits@D@boost@@@3@@boost@@YAIV?$split_pred@V?$back_insert_iterator@V?$list@V?$basic_string@DU?$char_traits@D@std@@V?$allocator@D@2@@std@@V?$allocator@V?$basic_string@DU?$char_traits@D@std@@V?$allocator@D@2@@std@@@2@@std@@@std@@DU?$char_traits@D@2@V?$allocator@D@2@@re_detail@0@Vconst_iterator@?$basic_string@DU?$char_traits@D@std@@V?$allocator@D@2@@std@@1ABV?$basic_regex@DU?$regex_traits@DV?$w32_regex_traits@D@boost@@@boost@@@0@W4_match_flags@regex_constants@0@@Z 00405d50 f i basefunc.obj
 0001:00004fb0       ??$regex_split@V?$back_insert_iterator@V?$list@V?$basic_string@DU?$char_traits@D@std@@V?$allocator@D@2@@std@@V?$allocator@V?$basic_string@DU?$char_traits@D@std@@V?$allocator@D@2@@std@@@2@@std@@@std@@DU?$char_traits@D@2@V?$allocator@D@2@U?$regex_traits@DV?$w32_regex_traits@D@boost@@@boost@@@boost@@YAIV?$back_insert_iterator@V?$list@V?$basic_string@DU?$char_traits@D@std@@V?$allocator@D@2@@std@@V?$allocator@V?$basic_string@DU?$char_traits@D@std@@V?$allocator@D@2@@std@@@2@@std@@@std@@AAV?$basic_string@DU?$char_traits@D@std@@V?$allocator@D@2@@2@ABV?$basic_regex@DU?$regex_traits@DV?$w32_regex_traits@D@boost@@@boost@@@0@W4_match_flags@regex_constants@0@I@Z 00405fb0 f i basefunc.obj
 0001:00005110       ??$regex_match@Vconst_iterator@?$basic_string@DU?$char_traits@D@std@@V?$allocator@D@2@@std@@V?$allocator@U?$sub_match@Vconst_iterator@?$basic_string@DU?$char_traits@D@std@@V?$allocator@D@2@@std@@@boost@@@3@DU?$regex_traits@DV?$w32_regex_traits@D@boost@@@boost@@@boost@@YA_NVconst_iterator@?$basic_string@DU?$char_traits@D@std@@V?$allocator@D@2@@std@@0AAV?$match_results@Vconst_iterator@?$basic_string@DU?$char_traits@D@std@@V?$allocator@D@2@@std@@V?$allocator@U?$sub_match@Vconst_iterator@?$basic_string@DU?$char_traits@D@std@@V?$allocator@D@2@@std@@@boost@@@3@@0@ABV?$basic_regex@DU?$regex_traits@DV?$w32_regex_traits@D@boost@@@boost@@@0@W4_match_flags@regex_constants@0@@Z 00406110 f i basefunc.obj
 0001:000051c0       ??$regex_match@U?$char_traits@D@std@@V?$allocator@D@2@DU?$regex_traits@DV?$w32_regex_traits@D@boost@@@boost@@@boost@@YA_NABV?$basic_string@DU?$char_traits@D@std@@V?$allocator@D@2@@std@@ABV?$basic_regex@DU?$regex_traits@DV?$w32_regex_traits@D@boost@@@boost@@@0@W4_match_flags@regex_constants@0@@Z 004061c0 f i basefunc.obj
 0001:00005270       ?getCondition@@YAIAAV?$list@V?$basic_string@DU?$char_traits@D@std@@V?$allocator@D@2@@std@@V?$allocator@V?$basic_string@DU?$char_traits@D@std@@V?$allocator@D@2@@std@@@2@@std@@V?$basic_string@DU?$char_traits@D@std@@V?$allocator@D@2@@2@@Z 00406270 f   basefunc.obj
 0001:00005310       ?getParam@@YAIAAV?$list@V?$basic_string@DU?$char_traits@D@std@@V?$allocator@D@2@@std@@V?$allocator@V?$basic_string@DU?$char_traits@D@std@@V?$allocator@D@2@@std@@@2@@std@@V?$basic_string@DU?$char_traits@D@std@@V?$allocator@D@2@@2@@Z 00406310 f   basefunc.obj
 0001:000053b0       ?SV_IsNumeric@@YA_NAAV?$basic_string@DU?$char_traits@D@std@@V?$allocator@D@2@@std@@@Z 004063b0 f   basefunc.obj
 0001:00005430       ?PrintDebugString@@YAXPBD@Z 00406430 f   debuginfor.obj
 0001:00005460       ?PrintDebugString@@YAXABV?$basic_string@DU?$char_traits@D@std@@V?$allocator@D@2@@std@@@Z 00406460 f   debuginfor.obj
 0001:000054a0       ??0TTime@chen@@QAE@HHHHHHH@Z 004064a0 f i eccobjfunc.obj
 0001:00005570       ?GetCurrentTimeEx@TTime@chen@@SA?AV12@XZ 00406570 f i eccobjfunc.obj
 0001:00005820       ?isEnabled@WFormWidget@@QBE_NXZ 00406820 f i eccobjfunc.obj
 0001:00005830       ??_FWFormWidget@@QAEXXZ    00406830 f i eccobjfunc.obj
 0001:00005840       ??_FWComboBox@@QAEXXZ      00406840 f i eccobjfunc.obj
 0001:00005850       ?saveDisableByParent@@YA_NAAPAXHV?$basic_string@DU?$char_traits@D@std@@V?$allocator@D@2@@std@@@Z 00406850 f   eccobjfunc.obj
 0001:00005b90       ?checkNetworkPoint@@YA_NH@Z 00406b90 f   eccobjfunc.obj
 0001:00005e20       ?checkMonitorsPoint@@YA_NH@Z 00406e20 f   eccobjfunc.obj
 0001:000060b0       ?isDisable@@YA_NABV?$basic_string@DU?$char_traits@D@std@@V?$allocator@D@2@@std@@H@Z 004070b0 f   eccobjfunc.obj
 0001:00006450       ?getMonitorNameMTID@@YA?AV?$basic_string@DU?$char_traits@D@std@@V?$allocator@D@2@@std@@ABV12@AAH@Z 00407450 f   eccobjfunc.obj
 0001:000065f0       ??1sv_pair@@QAE@XZ         004075f0 f i eccobjfunc.obj
 0001:000065f0       ??1?$pair@$$CBV?$basic_string@DU?$char_traits@D@std@@V?$allocator@D@2@@std@@V12@@std@@QAE@XZ 004075f0 f i eccobjfunc.obj
 0001:00006640       ??R?$less@V?$basic_string@DU?$char_traits@D@std@@V?$allocator@D@2@@std@@@std@@QBE_NABV?$basic_string@DU?$char_traits@D@std@@V?$allocator@D@2@@1@0@Z 00407640 f i eccobjfunc.obj
 0001:00006660       ?size@?$vector@V?$basic_string@DU?$char_traits@D@std@@V?$allocator@D@2@@std@@V?$allocator@V?$basic_string@DU?$char_traits@D@std@@V?$allocator@D@2@@std@@@2@@std@@QBEIXZ 00407660 f i eccobjfunc.obj
 0001:00006690       ??0?$pair@$$CBV?$basic_string@DU?$char_traits@D@std@@V?$allocator@D@2@@std@@V12@@std@@QAE@ABV?$basic_string@DU?$char_traits@D@std@@V?$allocator@D@2@@1@0@Z 00407690 f i eccobjfunc.obj
 0001:000066f0       ?_Xlen@?$vector@V?$basic_string@DU?$char_traits@D@std@@V?$allocator@D@2@@std@@V?$allocator@V?$basic_string@DU?$char_traits@D@std@@V?$allocator@D@2@@std@@@2@@std@@IBEXXZ 004076f0 f i eccobjfunc.obj
 0001:00006770       ?_Rrotate@?$_Tree@V?$_Tmap_traits@V?$basic_string@DU?$char_traits@D@std@@V?$allocator@D@2@@std@@V12@U?$less@V?$basic_string@DU?$char_traits@D@std@@V?$allocator@D@2@@std@@@2@V?$allocator@U?$pair@$$CBV?$basic_string@DU?$char_traits@D@std@@V?$allocator@D@2@@std@@V12@@std@@@2@$0A@@std@@@std@@IAEXPAU_Node@?$_Tree_nod@V?$_Tmap_traits@V?$basic_string@DU?$char_traits@D@std@@V?$allocator@D@2@@std@@V12@U?$less@V?$basic_string@DU?$char_traits@D@std@@V?$allocator@D@2@@std@@@2@V?$allocator@U?$pair@$$CBV?$basic_string@DU?$char_traits@D@std@@V?$allocator@D@2@@std@@V12@@std@@@2@$0A@@std@@@2@@Z 00407770 f i eccobjfunc.obj
 0001:000067d0       ?_Max@?$_Tree@V?$_Tmap_traits@V?$basic_string@DU?$char_traits@D@std@@V?$allocator@D@2@@std@@V12@U?$less@V?$basic_string@DU?$char_traits@D@std@@V?$allocator@D@2@@std@@@2@V?$allocator@U?$pair@$$CBV?$basic_string@DU?$char_traits@D@std@@V?$allocator@D@2@@std@@V12@@std@@@2@$0A@@std@@@std@@KAPAU_Node@?$_Tree_nod@V?$_Tmap_traits@V?$basic_string@DU?$char_traits@D@std@@V?$allocator@D@2@@std@@V12@U?$less@V?$basic_string@DU?$char_traits@D@std@@V?$allocator@D@2@@std@@@2@V?$allocator@U?$pair@$$CBV?$basic_string@DU?$char_traits@D@std@@V?$allocator@D@2@@std@@V12@@std@@@2@$0A@@std@@@2@PAU342@@Z 004077d0 f i eccobjfunc.obj
 0001:000067f0       ?_Min@?$_Tree@V?$_Tmap_traits@V?$basic_string@DU?$char_traits@D@std@@V?$allocator@D@2@@std@@V12@U?$less@V?$basic_string@DU?$char_traits@D@std@@V?$allocator@D@2@@std@@@2@V?$allocator@U?$pair@$$CBV?$basic_string@DU?$char_traits@D@std@@V?$allocator@D@2@@std@@V12@@std@@@2@$0A@@std@@@std@@KAPAU_Node@?$_Tree_nod@V?$_Tmap_traits@V?$basic_string@DU?$char_traits@D@std@@V?$allocator@D@2@@std@@V12@U?$less@V?$basic_string@DU?$char_traits@D@std@@V?$allocator@D@2@@std@@@2@V?$allocator@U?$pair@$$CBV?$basic_string@DU?$char_traits@D@std@@V?$allocator@D@2@@std@@V12@@std@@@2@$0A@@std@@@2@PAU342@@Z 004077f0 f i eccobjfunc.obj
 0001:00006810       ?_Dec@const_iterator@?$_Tree@V?$_Tmap_traits@V?$basic_string@DU?$char_traits@D@std@@V?$allocator@D@2@@std@@V12@U?$less@V?$basic_string@DU?$char_traits@D@std@@V?$allocator@D@2@@std@@@2@V?$allocator@U?$pair@$$CBV?$basic_string@DU?$char_traits@D@std@@V?$allocator@D@2@@std@@V12@@std@@@2@$0A@@std@@@std@@QAEXXZ 00407810 f i eccobjfunc.obj
 0001:00006870       ??0?$pair@$$CBV?$basic_string@DU?$char_traits@D@std@@V?$allocator@D@2@@std@@V12@@std@@QAE@ABU01@@Z 00407870 f i eccobjfunc.obj
 0001:000068d0       ??1_Node@?$_List_nod@Usv_pair@@V?$allocator@Usv_pair@@@std@@@std@@QAE@XZ 004078d0 f i eccobjfunc.obj
 0001:000068e0       ??1_Node@?$_Tree_nod@V?$_Tmap_traits@V?$basic_string@DU?$char_traits@D@std@@V?$allocator@D@2@@std@@V12@U?$less@V?$basic_string@DU?$char_traits@D@std@@V?$allocator@D@2@@std@@@2@V?$allocator@U?$pair@$$CBV?$basic_string@DU?$char_traits@D@std@@V?$allocator@D@2@@std@@V12@@std@@@2@$0A@@std@@@std@@QAE@XZ 004078e0 f i eccobjfunc.obj
 0001:000068f0       ??$_Copy_opt@PAV?$basic_string@DU?$char_traits@D@std@@V?$allocator@D@2@@std@@PAV12@@std@@YAPAV?$basic_string@DU?$char_traits@D@std@@V?$allocator@D@2@@0@PAV10@00U_Nonscalar_ptr_iterator_tag@0@@Z 004078f0 f i eccobjfunc.obj
 0001:00006930       ?makeDllName@@YA?AV?$basic_string@DU?$char_traits@D@std@@V?$allocator@D@2@@std@@ABV12@@Z 00407930 f   eccobjfunc.obj
 0001:00006ab0       ?ReadFromRetQueue@@YA_NABV?$basic_string@DU?$char_traits@D@std@@V?$allocator@D@2@@std@@PADAAH@Z 00407ab0 f   eccobjfunc.obj
 0001:00006cc0       ?_Lbound@?$_Tree@V?$_Tmap_traits@V?$basic_string@DU?$char_traits@D@std@@V?$allocator@D@2@@std@@V12@U?$less@V?$basic_string@DU?$char_traits@D@std@@V?$allocator@D@2@@std@@@2@V?$allocator@U?$pair@$$CBV?$basic_string@DU?$char_traits@D@std@@V?$allocator@D@2@@std@@V12@@std@@@2@$0A@@std@@@std@@IBEPAU_Node@?$_Tree_nod@V?$_Tmap_traits@V?$basic_string@DU?$char_traits@D@std@@V?$allocator@D@2@@std@@V12@U?$less@V?$basic_string@DU?$char_traits@D@std@@V?$allocator@D@2@@std@@@2@V?$allocator@U?$pair@$$CBV?$basic_string@DU?$char_traits@D@std@@V?$allocator@D@2@@std@@V12@@std@@@2@$0A@@std@@@2@ABV?$basic_string@DU?$char_traits@D@std@@V?$allocator@D@2@@2@@Z 00407cc0 f i eccobjfunc.obj
 0001:00006d10       ?_Lrotate@?$_Tree@V?$_Tmap_traits@V?$basic_string@DU?$char_traits@D@std@@V?$allocator@D@2@@std@@V12@U?$less@V?$basic_string@DU?$char_traits@D@std@@V?$allocator@D@2@@std@@@2@V?$allocator@U?$pair@$$CBV?$basic_string@DU?$char_traits@D@std@@V?$allocator@D@2@@std@@V12@@std@@@2@$0A@@std@@@std@@IAEXPAU_Node@?$_Tree_nod@V?$_Tmap_traits@V?$basic_string@DU?$char_traits@D@std@@V?$allocator@D@2@@std@@V12@U?$less@V?$basic_string@DU?$char_traits@D@std@@V?$allocator@D@2@@std@@@2@V?$allocator@U?$pair@$$CBV?$basic_string@DU?$char_traits@D@std@@V?$allocator@D@2@@std@@V12@@std@@@2@$0A@@std@@@2@@Z 00407d10 f i eccobjfunc.obj
 0001:00006d70       ?_Inc@const_iterator@?$_Tree@V?$_Tmap_traits@V?$basic_string@DU?$char_traits@D@std@@V?$allocator@D@2@@std@@V12@U?$less@V?$basic_string@DU?$char_traits@D@std@@V?$allocator@D@2@@std@@@2@V?$allocator@U?$pair@$$CBV?$basic_string@DU?$char_traits@D@std@@V?$allocator@D@2@@std@@V12@@std@@@2@$0A@@std@@@std@@QAEXXZ 00407d70 f i eccobjfunc.obj
 0001:00006dd0       ?ReadWriteDynQueue@@YA_NABV?$basic_string@DU?$char_traits@D@std@@V?$allocator@D@2@@std@@00PBDABHPADAAH@Z 00407dd0 f   eccobjfunc.obj
 0001:000074f0       ?_Buy@?$vector@V?$basic_string@DU?$char_traits@D@std@@V?$allocator@D@2@@std@@V?$allocator@V?$basic_string@DU?$char_traits@D@std@@V?$allocator@D@2@@std@@@2@@std@@IAE_NI@Z 004084f0 f i eccobjfunc.obj
 0001:00007540       ?_Buynode@?$list@V?$basic_string@DU?$char_traits@D@std@@V?$allocator@D@2@@std@@V?$allocator@V?$basic_string@DU?$char_traits@D@std@@V?$allocator@D@2@@std@@@2@@std@@IAEPAU_Node@?$_List_nod@V?$basic_string@DU?$char_traits@D@std@@V?$allocator@D@2@@std@@V?$allocator@V?$basic_string@DU?$char_traits@D@std@@V?$allocator@D@2@@std@@@2@@2@XZ 00408540 f i eccobjfunc.obj
 0001:00007560       ?_Buynode@?$_Tree@V?$_Tmap_traits@V?$basic_string@DU?$char_traits@D@std@@V?$allocator@D@2@@std@@V12@U?$less@V?$basic_string@DU?$char_traits@D@std@@V?$allocator@D@2@@std@@@2@V?$allocator@U?$pair@$$CBV?$basic_string@DU?$char_traits@D@std@@V?$allocator@D@2@@std@@V12@@std@@@2@$0A@@std@@@std@@IAEPAU_Node@?$_Tree_nod@V?$_Tmap_traits@V?$basic_string@DU?$char_traits@D@std@@V?$allocator@D@2@@std@@V12@U?$less@V?$basic_string@DU?$char_traits@D@std@@V?$allocator@D@2@@std@@@2@V?$allocator@U?$pair@$$CBV?$basic_string@DU?$char_traits@D@std@@V?$allocator@D@2@@std@@V12@@std@@@2@$0A@@std@@@2@XZ 00408560 f i eccobjfunc.obj
 0001:000075a0       ?_Buynode@?$_Tree@V?$_Tmap_traits@V?$basic_string@DU?$char_traits@D@std@@V?$allocator@D@2@@std@@V12@U?$less@V?$basic_string@DU?$char_traits@D@std@@V?$allocator@D@2@@std@@@2@V?$allocator@U?$pair@$$CBV?$basic_string@DU?$char_traits@D@std@@V?$allocator@D@2@@std@@V12@@std@@@2@$0A@@std@@@std@@IAEPAU_Node@?$_Tree_nod@V?$_Tmap_traits@V?$basic_string@DU?$char_traits@D@std@@V?$allocator@D@2@@std@@V12@U?$less@V?$basic_string@DU?$char_traits@D@std@@V?$allocator@D@2@@std@@@2@V?$allocator@U?$pair@$$CBV?$basic_string@DU?$char_traits@D@std@@V?$allocator@D@2@@std@@V12@@std@@@2@$0A@@std@@@2@PAU342@00ABU?$pair@$$CBV?$basic_string@DU?$char_traits@D@std@@V?$allocator@D@2@@std@@V12@@2@D@Z 004085a0 f i eccobjfunc.obj
 0001:00007640       ??$_Uninit_copy@PAV?$basic_string@DU?$char_traits@D@std@@V?$allocator@D@2@@std@@PAV12@V?$allocator@V?$basic_string@DU?$char_traits@D@std@@V?$allocator@D@2@@std@@@2@@std@@YAPAV?$basic_string@DU?$char_traits@D@std@@V?$allocator@D@2@@0@PAV10@00AAV?$allocator@V?$basic_string@DU?$char_traits@D@std@@V?$allocator@D@2@@std@@@0@U_Nonscalar_ptr_iterator_tag@0@@Z 00408640 f i eccobjfunc.obj
 0001:000076d0       ?_Insert@?$_Tree@V?$_Tmap_traits@V?$basic_string@DU?$char_traits@D@std@@V?$allocator@D@2@@std@@V12@U?$less@V?$basic_string@DU?$char_traits@D@std@@V?$allocator@D@2@@std@@@2@V?$allocator@U?$pair@$$CBV?$basic_string@DU?$char_traits@D@std@@V?$allocator@D@2@@std@@V12@@std@@@2@$0A@@std@@@std@@IAE?AViterator@12@_NPAU_Node@?$_Tree_nod@V?$_Tmap_traits@V?$basic_string@DU?$char_traits@D@std@@V?$allocator@D@2@@std@@V12@U?$less@V?$basic_string@DU?$char_traits@D@std@@V?$allocator@D@2@@std@@@2@V?$allocator@U?$pair@$$CBV?$basic_string@DU?$char_traits@D@std@@V?$allocator@D@2@@std@@V12@@std@@@2@$0A@@std@@@2@ABU?$pair@$$CBV?$basic_string@DU?$char_traits@D@std@@V?$allocator@D@2@@std@@V12@@2@@Z 004086d0 f i eccobjfunc.obj
 0001:00007890       ?insert@?$_Tree@V?$_Tmap_traits@V?$basic_string@DU?$char_traits@D@std@@V?$allocator@D@2@@std@@V12@U?$less@V?$basic_string@DU?$char_traits@D@std@@V?$allocator@D@2@@std@@@2@V?$allocator@U?$pair@$$CBV?$basic_string@DU?$char_traits@D@std@@V?$allocator@D@2@@std@@V12@@std@@@2@$0A@@std@@@std@@QAE?AU?$pair@Viterator@?$_Tree@V?$_Tmap_traits@V?$basic_string@DU?$char_traits@D@std@@V?$allocator@D@2@@std@@V12@U?$less@V?$basic_string@DU?$char_traits@D@std@@V?$allocator@D@2@@std@@@2@V?$allocator@U?$pair@$$CBV?$basic_string@DU?$char_traits@D@std@@V?$allocator@D@2@@std@@V12@@std@@@2@$0A@@std@@@std@@_N@2@ABU?$pair@$$CBV?$basic_string@DU?$char_traits@D@std@@V?$allocator@D@2@@std@@V12@@2@@Z 00408890 f i eccobjfunc.obj
 0001:00007970       ?clear@?$list@Usv_pair@@V?$allocator@Usv_pair@@@std@@@std@@QAEXXZ 00408970 f i eccobjfunc.obj
 0001:000079b0       ?erase@?$_Tree@V?$_Tmap_traits@V?$basic_string@DU?$char_traits@D@std@@V?$allocator@D@2@@std@@V12@U?$less@V?$basic_string@DU?$char_traits@D@std@@V?$allocator@D@2@@std@@@2@V?$allocator@U?$pair@$$CBV?$basic_string@DU?$char_traits@D@std@@V?$allocator@D@2@@std@@V12@@std@@@2@$0A@@std@@@std@@QAE?AViterator@12@V312@@Z 004089b0 f i eccobjfunc.obj
 0001:00007cb0       ?_Erase@?$_Tree@V?$_Tmap_traits@V?$basic_string@DU?$char_traits@D@std@@V?$allocator@D@2@@std@@V12@U?$less@V?$basic_string@DU?$char_traits@D@std@@V?$allocator@D@2@@std@@@2@V?$allocator@U?$pair@$$CBV?$basic_string@DU?$char_traits@D@std@@V?$allocator@D@2@@std@@V12@@std@@@2@$0A@@std@@@std@@IAEXPAU_Node@?$_Tree_nod@V?$_Tmap_traits@V?$basic_string@DU?$char_traits@D@std@@V?$allocator@D@2@@std@@V12@U?$less@V?$basic_string@DU?$char_traits@D@std@@V?$allocator@D@2@@std@@@2@V?$allocator@U?$pair@$$CBV?$basic_string@DU?$char_traits@D@std@@V?$allocator@D@2@@std@@V12@@std@@@2@$0A@@std@@@2@@Z 00408cb0 f i eccobjfunc.obj
 0001:00007cf0       ??$_Ucopy@PAV?$basic_string@DU?$char_traits@D@std@@V?$allocator@D@2@@std@@@?$vector@V?$basic_string@DU?$char_traits@D@std@@V?$allocator@D@2@@std@@V?$allocator@V?$basic_string@DU?$char_traits@D@std@@V?$allocator@D@2@@std@@@2@@std@@IAEPAV?$basic_string@DU?$char_traits@D@std@@V?$allocator@D@2@@1@PAV21@00@Z 00408cf0 f i eccobjfunc.obj
 0001:00007d10       ??4WFormWidget@@QAEAAV0@ABV0@@Z 00408d10 f i eccobjfunc.obj
 0001:00007d60       ?insert@?$_Tree@V?$_Tmap_traits@V?$basic_string@DU?$char_traits@D@std@@V?$allocator@D@2@@std@@V12@U?$less@V?$basic_string@DU?$char_traits@D@std@@V?$allocator@D@2@@std@@@2@V?$allocator@U?$pair@$$CBV?$basic_string@DU?$char_traits@D@std@@V?$allocator@D@2@@std@@V12@@std@@@2@$0A@@std@@@std@@QAE?AViterator@12@V312@ABU?$pair@$$CBV?$basic_string@DU?$char_traits@D@std@@V?$allocator@D@2@@std@@V12@@2@@Z 00408d60 f i eccobjfunc.obj
 0001:00007f20       ?_Destroy@?$vector@V?$basic_string@DU?$char_traits@D@std@@V?$allocator@D@2@@std@@V?$allocator@V?$basic_string@DU?$char_traits@D@std@@V?$allocator@D@2@@std@@@2@@std@@IAEXPAV?$basic_string@DU?$char_traits@D@std@@V?$allocator@D@2@@2@0@Z 00408f20 f i eccobjfunc.obj
 0001:00007f50       ?_Tidy@?$vector@V?$basic_string@DU?$char_traits@D@std@@V?$allocator@D@2@@std@@V?$allocator@V?$basic_string@DU?$char_traits@D@std@@V?$allocator@D@2@@std@@@2@@std@@IAEXXZ 00408f50 f i eccobjfunc.obj
 0001:00007fa0       ?AddTaskList@@YAXPAVWComboBox@@@Z 00408fa0 f   eccobjfunc.obj
 0001:000080c0       ?createAllTableOfDevice@@YAXABV?$basic_string@DU?$char_traits@D@std@@V?$allocator@D@2@@std@@@Z 004090c0 f   eccobjfunc.obj
 0001:000082e0       ??A?$map@V?$basic_string@DU?$char_traits@D@std@@V?$allocator@D@2@@std@@V12@U?$less@V?$basic_string@DU?$char_traits@D@std@@V?$allocator@D@2@@std@@@2@V?$allocator@U?$pair@$$CBV?$basic_string@DU?$char_traits@D@std@@V?$allocator@D@2@@std@@V12@@std@@@2@@std@@QAEAAV?$basic_string@DU?$char_traits@D@std@@V?$allocator@D@2@@1@ABV21@@Z 004092e0 f i eccobjfunc.obj
 0001:00008390       ??1?$vector@V?$basic_string@DU?$char_traits@D@std@@V?$allocator@D@2@@std@@V?$allocator@V?$basic_string@DU?$char_traits@D@std@@V?$allocator@D@2@@std@@@2@@std@@QAE@XZ 00409390 f i eccobjfunc.obj
 0001:000083a0       ??1?$list@Usv_pair@@V?$allocator@Usv_pair@@@std@@@std@@QAE@XZ 004093a0 f i eccobjfunc.obj
 0001:000083c0       ?erase@?$_Tree@V?$_Tmap_traits@V?$basic_string@DU?$char_traits@D@std@@V?$allocator@D@2@@std@@V12@U?$less@V?$basic_string@DU?$char_traits@D@std@@V?$allocator@D@2@@std@@@2@V?$allocator@U?$pair@$$CBV?$basic_string@DU?$char_traits@D@std@@V?$allocator@D@2@@std@@V12@@std@@@2@$0A@@std@@@std@@QAE?AViterator@12@V312@0@Z 004093c0 f i eccobjfunc.obj
 0001:00008480       ??1WComboBox@@UAE@XZ       00409480 f i eccobjfunc.obj
 0001:000084d0       ?getUsingNetworkCount@@YAHV?$basic_string@DU?$char_traits@D@std@@V?$allocator@D@2@@std@@@Z 004094d0 f   eccobjfunc.obj
 0001:00008790       ?getUsingMonitorCount@@YAHXZ 00409790 f   eccobjfunc.obj
 0001:000088f0       ?isCanBePasteDevice@@YA_NABV?$basic_string@DU?$char_traits@D@std@@V?$allocator@D@2@@std@@@Z 004098f0 f   eccobjfunc.obj
 0001:00008a20       ?PasteDevice@@YA?AV?$basic_string@DU?$char_traits@D@std@@V?$allocator@D@2@@std@@ABV12@0@Z 00409a20 f   eccobjfunc.obj
 0001:00008cd0       ??4?$vector@V?$basic_string@DU?$char_traits@D@std@@V?$allocator@D@2@@std@@V?$allocator@V?$basic_string@DU?$char_traits@D@std@@V?$allocator@D@2@@std@@@2@@std@@QAEAAV01@ABV01@@Z 00409cd0 f i eccobjfunc.obj
 0001:00008e60       ??4WComboBox@@QAEAAV0@ABV0@@Z 00409e60 f i eccobjfunc.obj
 0001:00008f00       ?_Tidy@?$_Tree@V?$_Tmap_traits@V?$basic_string@DU?$char_traits@D@std@@V?$allocator@D@2@@std@@V12@U?$less@V?$basic_string@DU?$char_traits@D@std@@V?$allocator@D@2@@std@@@2@V?$allocator@U?$pair@$$CBV?$basic_string@DU?$char_traits@D@std@@V?$allocator@D@2@@std@@V12@@std@@@2@$0A@@std@@@std@@IAEXXZ 00409f00 f i eccobjfunc.obj
 0001:00008f00       ??1?$map@V?$basic_string@DU?$char_traits@D@std@@V?$allocator@D@2@@std@@V12@U?$less@V?$basic_string@DU?$char_traits@D@std@@V?$allocator@D@2@@std@@@2@V?$allocator@U?$pair@$$CBV?$basic_string@DU?$char_traits@D@std@@V?$allocator@D@2@@std@@V12@@std@@@2@@std@@QAE@XZ 00409f00 f i eccobjfunc.obj
 0001:00008f30       ?MakeRunParamStringByID@@YA?AV?$basic_string@DU?$char_traits@D@std@@V?$allocator@D@2@@std@@ABV12@H@Z 00409f30 f   eccobjfunc.obj
 0001:00009590       ?enumDeviceRunParam@@YA?AV?$basic_string@DU?$char_traits@D@std@@V?$allocator@D@2@@std@@ABV12@@Z 0040a590 f   eccobjfunc.obj
 0001:00009c60       ?loadString@OperateLog@@AAEXXZ 0040ac60 f   OperateLog.obj
 0001:00009d20       ?buildbuf@@YAPADV?$basic_string@DU?$char_traits@D@std@@V?$allocator@D@2@@std@@PADH@Z 0040ad20 f   OperateLog.obj
 0001:00009de0       ??$fill@PAV?$basic_string@DU?$char_traits@D@std@@V?$allocator@D@2@@std@@V12@@std@@YAXPAV?$basic_string@DU?$char_traits@D@std@@V?$allocator@D@2@@0@0ABV10@@Z 0040ade0 f i OperateLog.obj
 0001:00009e10       ??$_Copy_backward_opt@PAV?$basic_string@DU?$char_traits@D@std@@V?$allocator@D@2@@std@@PAV12@@std@@YAPAV?$basic_string@DU?$char_traits@D@std@@V?$allocator@D@2@@0@PAV10@00U_Nonscalar_ptr_iterator_tag@0@@Z 0040ae10 f i OperateLog.obj
 0001:00009e50       ?QueryOperateTypeNum@OperateLog@@AAEHV?$basic_string@DU?$char_traits@D@std@@V?$allocator@D@2@@std@@@Z 0040ae50 f   OperateLog.obj
 0001:00009f30       ?QueryOperateObjNameNum@OperateLog@@AAEHV?$basic_string@DU?$char_traits@D@std@@V?$allocator@D@2@@std@@@Z 0040af30 f   OperateLog.obj
 0001:0000a000       ?InsertOperateRecord@OperateLog@@QAE_NV?$basic_string@DU?$char_traits@D@std@@V?$allocator@D@2@@std@@00000@Z 0040b000 f   OperateLog.obj
 0001:0000a3e0       ??$_Uninit_fill_n@PAV?$basic_string@DU?$char_traits@D@std@@V?$allocator@D@2@@std@@IV12@V?$allocator@V?$basic_string@DU?$char_traits@D@std@@V?$allocator@D@2@@std@@@2@@std@@YAXPAV?$basic_string@DU?$char_traits@D@std@@V?$allocator@D@2@@0@IABV10@AAV?$allocator@V?$basic_string@DU?$char_traits@D@std@@V?$allocator@D@2@@std@@@0@U_Nonscalar_ptr_iterator_tag@0@@Z 0040b3e0 f i OperateLog.obj
 0001:0000a470       ?_Ufill@?$vector@V?$basic_string@DU?$char_traits@D@std@@V?$allocator@D@2@@std@@V?$allocator@V?$basic_string@DU?$char_traits@D@std@@V?$allocator@D@2@@std@@@2@@std@@IAEPAV?$basic_string@DU?$char_traits@D@std@@V?$allocator@D@2@@2@PAV32@IABV32@@Z 0040b470 f i OperateLog.obj
 0001:0000a4a0       ?_Insert_n@?$vector@V?$basic_string@DU?$char_traits@D@std@@V?$allocator@D@2@@std@@V?$allocator@V?$basic_string@DU?$char_traits@D@std@@V?$allocator@D@2@@std@@@2@@std@@IAEXViterator@12@IABV?$basic_string@DU?$char_traits@D@std@@V?$allocator@D@2@@2@@Z 0040b4a0 f i OperateLog.obj
 0001:0000a7d0       ?insert@?$vector@V?$basic_string@DU?$char_traits@D@std@@V?$allocator@D@2@@std@@V?$allocator@V?$basic_string@DU?$char_traits@D@std@@V?$allocator@D@2@@std@@@2@@std@@QAE?AViterator@12@V312@ABV?$basic_string@DU?$char_traits@D@std@@V?$allocator@D@2@@2@@Z 0040b7d0 f i OperateLog.obj
 0001:0000a840       ?push_back@?$vector@V?$basic_string@DU?$char_traits@D@std@@V?$allocator@D@2@@std@@V?$allocator@V?$basic_string@DU?$char_traits@D@std@@V?$allocator@D@2@@std@@@2@@std@@QAEXABV?$basic_string@DU?$char_traits@D@std@@V?$allocator@D@2@@2@@Z 0040b840 f i OperateLog.obj
 0001:0000a8d0       ??1OperateLog@@QAE@XZ      0040b8d0 f   OperateLog.obj
 0001:0000a930       ?OperateTypeInit@OperateLog@@AAEXXZ 0040b930 f   OperateLog.obj
 0001:0000acd0       ?OperateObjNameInit@OperateLog@@AAEXXZ 0040bcd0 f   OperateLog.obj
 0001:0000b250       ??0OperateLog@@QAE@XZ      0040c250 f   OperateLog.obj
 0001:0000b2d0       ?loadTreeviewStrings@SVResString@@AAEXAAPAX@Z 0040c2d0 f   resstring.obj
 0001:0000b6b0       ?getStringFromRes@SVResString@@AAE?BV?$basic_string@DU?$char_traits@D@std@@V?$allocator@D@2@@std@@PBD@Z 0040c6b0 f   resstring.obj
 0001:0000b800       ??1SVResString@@QAE@XZ     0040c800 f   resstring.obj
 0001:0000b8c0       ?getResString@SVResString@@SA?BV?$basic_string@DU?$char_traits@D@std@@V?$allocator@D@2@@std@@PBD@Z 0040c8c0 f   resstring.obj
 0001:0000b9b0       ?loadStrings@SVResString@@AAEXXZ 0040c9b0 f   resstring.obj
 0001:0000ba40       ??0SVResString@@QAE@V?$basic_string@DU?$char_traits@D@std@@V?$allocator@D@2@@std@@0@Z 0040ca40 f   resstring.obj
 0001:0000bb00       ??4SVTableCell@@QAEABV0@ABV0@@Z 0040cb00 f i SVTable.obj
 0001:0000bbb0       ??0SVTableCell@@QAE@XZ     0040cbb0 f   SVTable.obj
 0001:0000bc30       ??0SVTableCell@@QAE@ABV0@@Z 0040cc30 f   SVTable.obj
 0001:0000bd00       ??1SVTableCell@@QAE@XZ     0040cd00 f   SVTable.obj
 0001:0000bd70       ?setValue@SVTableCell@@QAEXPBX@Z 0040cd70 f   SVTable.obj
 0001:0000be10       ?setType@SVTableCell@@QAEXH@Z 0040ce10 f   SVTable.obj
 0001:0000be60       ?Type@SVTableCell@@QAE?BHXZ 0040ce60 f   SVTable.obj
 0001:0000be70       ?Value@SVTableCell@@QAEPBXXZ 0040ce70 f   SVTable.obj
 0001:0000be80       ?setProperty@SVTableCell@@QAEXPBD@Z 0040ce80 f   SVTable.obj
 0001:0000be90       ?Property@SVTableCell@@QAEPBDXZ 0040ce90 f   SVTable.obj
 0001:0000bea0       ?setProperty@SVTableRow@@QAEXPBD@Z 0040cea0 f   SVTable.obj
 0001:0000beb0       ?setTag@SVTableRow@@QAEXH@Z 0040ceb0 f   SVTable.obj
 0001:0000bec0       ?getProperty@SVTableRow@@QAEPBDXZ 0040cec0 f   SVTable.obj
 0001:0000bed0       ?getTag@SVTableRow@@QAEHXZ 0040ced0 f   SVTable.obj
 0001:0000bee0       ??1?$pair@$$CBHVSVTableCell@@@std@@QAE@XZ 0040cee0 f i SVTable.obj
 0001:0000bef0       ?_Min@?$_Tree@V?$_Tmap_traits@HVSVTableRow@@U?$less@H@std@@V?$allocator@U?$pair@$$CBHVSVTableRow@@@std@@@3@$0A@@std@@@std@@KAPAU_Node@?$_Tree_nod@V?$_Tmap_traits@HVSVTableRow@@U?$less@H@std@@V?$allocator@U?$pair@$$CBHVSVTableRow@@@std@@@3@$0A@@std@@@2@PAU342@@Z 0040cef0 f i SVTable.obj
 0001:0000bef0       ?_Min@?$_Tree@V?$_Tmap_traits@HVSVTableCell@@U?$less@H@std@@V?$allocator@U?$pair@$$CBHVSVTableCell@@@std@@@3@$0A@@std@@@std@@KAPAU_Node@?$_Tree_nod@V?$_Tmap_traits@HVSVTableCell@@U?$less@H@std@@V?$allocator@U?$pair@$$CBHVSVTableCell@@@std@@@3@$0A@@std@@@2@PAU342@@Z 0040cef0 f i SVTable.obj
 0001:0000bf10       ?_Max@?$_Tree@V?$_Tmap_traits@HVSVTableRow@@U?$less@H@std@@V?$allocator@U?$pair@$$CBHVSVTableRow@@@std@@@3@$0A@@std@@@std@@KAPAU_Node@?$_Tree_nod@V?$_Tmap_traits@HVSVTableRow@@U?$less@H@std@@V?$allocator@U?$pair@$$CBHVSVTableRow@@@std@@@3@$0A@@std@@@2@PAU342@@Z 0040cf10 f i SVTable.obj
 0001:0000bf10       ?_Max@?$_Tree@V?$_Tmap_traits@HVSVTableCell@@U?$less@H@std@@V?$allocator@U?$pair@$$CBHVSVTableCell@@@std@@@3@$0A@@std@@@std@@KAPAU_Node@?$_Tree_nod@V?$_Tmap_traits@HVSVTableCell@@U?$less@H@std@@V?$allocator@U?$pair@$$CBHVSVTableCell@@@std@@@3@$0A@@std@@@2@PAU342@@Z 0040cf10 f i SVTable.obj
 0001:0000bf30       ?_Rrotate@?$_Tree@V?$_Tmap_traits@HVSVTableCell@@U?$less@H@std@@V?$allocator@U?$pair@$$CBHVSVTableCell@@@std@@@3@$0A@@std@@@std@@IAEXPAU_Node@?$_Tree_nod@V?$_Tmap_traits@HVSVTableCell@@U?$less@H@std@@V?$allocator@U?$pair@$$CBHVSVTableCell@@@std@@@3@$0A@@std@@@2@@Z 0040cf30 f i SVTable.obj
 0001:0000bf30       ?_Rrotate@?$_Tree@V?$_Tmap_traits@HVSVTableRow@@U?$less@H@std@@V?$allocator@U?$pair@$$CBHVSVTableRow@@@std@@@3@$0A@@std@@@std@@IAEXPAU_Node@?$_Tree_nod@V?$_Tmap_traits@HVSVTableRow@@U?$less@H@std@@V?$allocator@U?$pair@$$CBHVSVTableRow@@@std@@@3@$0A@@std@@@2@@Z 0040cf30 f i SVTable.obj
 0001:0000bf90       ?_Inc@const_iterator@?$_Tree@V?$_Tmap_traits@HVSVTableRow@@U?$less@H@std@@V?$allocator@U?$pair@$$CBHVSVTableRow@@@std@@@3@$0A@@std@@@std@@QAEXXZ 0040cf90 f i SVTable.obj
 0001:0000bf90       ?_Inc@const_iterator@?$_Tree@V?$_Tmap_traits@HVSVTableCell@@U?$less@H@std@@V?$allocator@U?$pair@$$CBHVSVTableCell@@@std@@@3@$0A@@std@@@std@@QAEXXZ 0040cf90 f i SVTable.obj
 0001:0000bff0       ?_Dec@const_iterator@?$_Tree@V?$_Tmap_traits@HVSVTableCell@@U?$less@H@std@@V?$allocator@U?$pair@$$CBHVSVTableCell@@@std@@@3@$0A@@std@@@std@@QAEXXZ 0040cff0 f i SVTable.obj
 0001:0000bff0       ?_Dec@const_iterator@?$_Tree@V?$_Tmap_traits@HVSVTableRow@@U?$less@H@std@@V?$allocator@U?$pair@$$CBHVSVTableRow@@@std@@@3@$0A@@std@@@std@@QAEXXZ 0040cff0 f i SVTable.obj
 0001:0000c050       ??1_Node@?$_Tree_nod@V?$_Tmap_traits@HVSVTableCell@@U?$less@H@std@@V?$allocator@U?$pair@$$CBHVSVTableCell@@@std@@@3@$0A@@std@@@std@@QAE@XZ 0040d050 f i SVTable.obj
 0001:0000c060       ?green@WColor@@QBEHXZ      0040d060 f   main.obj
 0001:0000c060       ?RowCount@SVIntTable@@QAE?BHXZ 0040d060 f   SVTable.obj
 0001:0000c060       ?type@WConnection_@@QBE?AW4ConnectionType@WObject@@XZ 0040d060 f   libwt:WebSession.obj
 0001:0000c070       ?_Lrotate@?$_Tree@V?$_Tmap_traits@HVSVTableRow@@U?$less@H@std@@V?$allocator@U?$pair@$$CBHVSVTableRow@@@std@@@3@$0A@@std@@@std@@IAEXPAU_Node@?$_Tree_nod@V?$_Tmap_traits@HVSVTableRow@@U?$less@H@std@@V?$allocator@U?$pair@$$CBHVSVTableRow@@@std@@@3@$0A@@std@@@2@@Z 0040d070 f i SVTable.obj
 0001:0000c070       ?_Lrotate@?$_Tree@V?$_Tmap_traits@HVSVTableCell@@U?$less@H@std@@V?$allocator@U?$pair@$$CBHVSVTableCell@@@std@@@3@$0A@@std@@@std@@IAEXPAU_Node@?$_Tree_nod@V?$_Tmap_traits@HVSVTableCell@@U?$less@H@std@@V?$allocator@U?$pair@$$CBHVSVTableCell@@@std@@@3@$0A@@std@@@2@@Z 0040d070 f i SVTable.obj
 0001:0000c0d0       ?_Buynode@?$_Tree@V?$_Tmap_traits@HVSVTableRow@@U?$less@H@std@@V?$allocator@U?$pair@$$CBHVSVTableRow@@@std@@@3@$0A@@std@@@std@@IAEPAU_Node@?$_Tree_nod@V?$_Tmap_traits@HVSVTableRow@@U?$less@H@std@@V?$allocator@U?$pair@$$CBHVSVTableRow@@@std@@@3@$0A@@std@@@2@XZ 0040d0d0 f i SVTable.obj
 0001:0000c0d0       ?_Buynode@?$_Tree@V?$_Tmap_traits@HVSVTableCell@@U?$less@H@std@@V?$allocator@U?$pair@$$CBHVSVTableCell@@@std@@@3@$0A@@std@@@std@@IAEPAU_Node@?$_Tree_nod@V?$_Tmap_traits@HVSVTableCell@@U?$less@H@std@@V?$allocator@U?$pair@$$CBHVSVTableCell@@@std@@@3@$0A@@std@@@2@XZ 0040d0d0 f i SVTable.obj
 0001:0000c110       ?_Buynode@?$_Tree@V?$_Tmap_traits@HVSVTableCell@@U?$less@H@std@@V?$allocator@U?$pair@$$CBHVSVTableCell@@@std@@@3@$0A@@std@@@std@@IAEPAU_Node@?$_Tree_nod@V?$_Tmap_traits@HVSVTableCell@@U?$less@H@std@@V?$allocator@U?$pair@$$CBHVSVTableCell@@@std@@@3@$0A@@std@@@2@PAU342@00ABU?$pair@$$CBHVSVTableCell@@@2@D@Z 0040d110 f i SVTable.obj
 0001:0000c1b0       ?find@?$_Tree@V?$_Tmap_traits@HVSVTableRow@@U?$less@H@std@@V?$allocator@U?$pair@$$CBHVSVTableRow@@@std@@@3@$0A@@std@@@std@@QAE?AViterator@12@ABH@Z 0040d1b0 f i SVTable.obj
 0001:0000c1b0       ?find@?$_Tree@V?$_Tmap_traits@HVSVTableCell@@U?$less@H@std@@V?$allocator@U?$pair@$$CBHVSVTableCell@@@std@@@3@$0A@@std@@@std@@QAE?AViterator@12@ABH@Z 0040d1b0 f i SVTable.obj
 0001:0000c220       ?_Insert@?$_Tree@V?$_Tmap_traits@HVSVTableCell@@U?$less@H@std@@V?$allocator@U?$pair@$$CBHVSVTableCell@@@std@@@3@$0A@@std@@@std@@IAE?AViterator@12@_NPAU_Node@?$_Tree_nod@V?$_Tmap_traits@HVSVTableCell@@U?$less@H@std@@V?$allocator@U?$pair@$$CBHVSVTableCell@@@std@@@3@$0A@@std@@@2@ABU?$pair@$$CBHVSVTableCell@@@2@@Z 0040d220 f i SVTable.obj
 0001:0000c3e0       ?Row@SVIntTable@@QAEPAVSVTableRow@@H@Z 0040d3e0 f   SVTable.obj
 0001:0000c3e0       ?Cell@SVTableRow@@QAEPAVSVTableCell@@H@Z 0040d3e0 f   SVTable.obj
 0001:0000c410       ?erase@?$_Tree@V?$_Tmap_traits@HVSVTableCell@@U?$less@H@std@@V?$allocator@U?$pair@$$CBHVSVTableCell@@@std@@@3@$0A@@std@@@std@@QAE?AViterator@12@V312@@Z 0040d410 f i SVTable.obj
 0001:0000c6f0       ?_Erase@?$_Tree@V?$_Tmap_traits@HVSVTableCell@@U?$less@H@std@@V?$allocator@U?$pair@$$CBHVSVTableCell@@@std@@@3@$0A@@std@@@std@@IAEXPAU_Node@?$_Tree_nod@V?$_Tmap_traits@HVSVTableCell@@U?$less@H@std@@V?$allocator@U?$pair@$$CBHVSVTableCell@@@std@@@3@$0A@@std@@@2@@Z 0040d6f0 f i SVTable.obj
 0001:0000c730       ?insert@?$_Tree@V?$_Tmap_traits@HVSVTableCell@@U?$less@H@std@@V?$allocator@U?$pair@$$CBHVSVTableCell@@@std@@@3@$0A@@std@@@std@@QAE?AU?$pair@Viterator@?$_Tree@V?$_Tmap_traits@HVSVTableCell@@U?$less@H@std@@V?$allocator@U?$pair@$$CBHVSVTableCell@@@std@@@3@$0A@@std@@@std@@_N@2@ABU?$pair@$$CBHVSVTableCell@@@2@@Z 0040d730 f i SVTable.obj
 0001:0000c7f0       ?_Copy@?$_Tree@V?$_Tmap_traits@HVSVTableCell@@U?$less@H@std@@V?$allocator@U?$pair@$$CBHVSVTableCell@@@std@@@3@$0A@@std@@@std@@IAEPAU_Node@?$_Tree_nod@V?$_Tmap_traits@HVSVTableCell@@U?$less@H@std@@V?$allocator@U?$pair@$$CBHVSVTableCell@@@std@@@3@$0A@@std@@@2@PAU342@0@Z 0040d7f0 f i SVTable.obj
 0001:0000c8a0       ?insert@?$_Tree@V?$_Tmap_traits@HVSVTableCell@@U?$less@H@std@@V?$allocator@U?$pair@$$CBHVSVTableCell@@@std@@@3@$0A@@std@@@std@@QAE?AViterator@12@V312@ABU?$pair@$$CBHVSVTableCell@@@2@@Z 0040d8a0 f i SVTable.obj
 0001:0000ca10       ?erase@?$_Tree@V?$_Tmap_traits@HVSVTableCell@@U?$less@H@std@@V?$allocator@U?$pair@$$CBHVSVTableCell@@@std@@@3@$0A@@std@@@std@@QAE?AViterator@12@V312@0@Z 0040da10 f i SVTable.obj
 0001:0000cad0       ?_Copy@?$_Tree@V?$_Tmap_traits@HVSVTableCell@@U?$less@H@std@@V?$allocator@U?$pair@$$CBHVSVTableCell@@@std@@@3@$0A@@std@@@std@@IAEXABV12@@Z 0040dad0 f i SVTable.obj
 0001:0000cb60       ??0?$_Tree@V?$_Tmap_traits@HVSVTableCell@@U?$less@H@std@@V?$allocator@U?$pair@$$CBHVSVTableCell@@@std@@@3@$0A@@std@@@std@@QAE@ABV01@@Z 0040db60 f i SVTable.obj
 0001:0000cbf0       ??A?$map@HVSVTableCell@@U?$less@H@std@@V?$allocator@U?$pair@$$CBHVSVTableCell@@@std@@@3@@std@@QAEAAVSVTableCell@@ABH@Z 0040dbf0 f i SVTable.obj
 0001:0000cce0       ??1?$map@HVSVTableCell@@U?$less@H@std@@V?$allocator@U?$pair@$$CBHVSVTableCell@@@std@@@3@@std@@QAE@XZ 0040dce0 f i SVTable.obj
 0001:0000cce0       ?_Tidy@?$_Tree@V?$_Tmap_traits@HVSVTableCell@@U?$less@H@std@@V?$allocator@U?$pair@$$CBHVSVTableCell@@@std@@@3@$0A@@std@@@std@@IAEXXZ 0040dce0 f i SVTable.obj
 0001:0000cd10       ??1SVTableRow@@QAE@XZ      0040dd10 f   SVTable.obj
 0001:0000cdc0       ?WriteCell@SVTableRow@@AAEXHAAVSVTableCell@@@Z 0040ddc0 f   SVTable.obj
 0001:0000ce30       ??1?$pair@$$CBHVSVTableRow@@@std@@QAE@XZ 0040de30 f i SVTable.obj
 0001:0000ce40       ??0SVTableRow@@QAE@ABV0@@Z 0040de40 f i SVTable.obj
 0001:0000ceb0       ??1_Node@?$_Tree_nod@V?$_Tmap_traits@HVSVTableRow@@U?$less@H@std@@V?$allocator@U?$pair@$$CBHVSVTableRow@@@std@@@3@$0A@@std@@@std@@QAE@XZ 0040deb0 f i SVTable.obj
 0001:0000cec0       ??4SVTableRow@@QAEAAV0@ABV0@@Z 0040dec0 f i SVTable.obj
 0001:0000cf20       ??0SVTableRow@@QAE@XZ      0040df20 f   SVTable.obj
 0001:0000cfd0       ?_Buynode@?$_Tree@V?$_Tmap_traits@HVSVTableRow@@U?$less@H@std@@V?$allocator@U?$pair@$$CBHVSVTableRow@@@std@@@3@$0A@@std@@@std@@IAEPAU_Node@?$_Tree_nod@V?$_Tmap_traits@HVSVTableRow@@U?$less@H@std@@V?$allocator@U?$pair@$$CBHVSVTableRow@@@std@@@3@$0A@@std@@@2@PAU342@00ABU?$pair@$$CBHVSVTableRow@@@2@D@Z 0040dfd0 f i SVTable.obj
 0001:0000d070       ?_Insert@?$_Tree@V?$_Tmap_traits@HVSVTableRow@@U?$less@H@std@@V?$allocator@U?$pair@$$CBHVSVTableRow@@@std@@@3@$0A@@std@@@std@@IAE?AViterator@12@_NPAU_Node@?$_Tree_nod@V?$_Tmap_traits@HVSVTableRow@@U?$less@H@std@@V?$allocator@U?$pair@$$CBHVSVTableRow@@@std@@@3@$0A@@std@@@2@ABU?$pair@$$CBHVSVTableRow@@@2@@Z 0040e070 f i SVTable.obj
 0001:0000d230       ?erase@?$_Tree@V?$_Tmap_traits@HVSVTableRow@@U?$less@H@std@@V?$allocator@U?$pair@$$CBHVSVTableRow@@@std@@@3@$0A@@std@@@std@@QAE?AViterator@12@V312@@Z 0040e230 f i SVTable.obj
 0001:0000d510       ?_Erase@?$_Tree@V?$_Tmap_traits@HVSVTableRow@@U?$less@H@std@@V?$allocator@U?$pair@$$CBHVSVTableRow@@@std@@@3@$0A@@std@@@std@@IAEXPAU_Node@?$_Tree_nod@V?$_Tmap_traits@HVSVTableRow@@U?$less@H@std@@V?$allocator@U?$pair@$$CBHVSVTableRow@@@std@@@3@$0A@@std@@@2@@Z 0040e510 f i SVTable.obj
 0001:0000d550       ?insert@?$_Tree@V?$_Tmap_traits@HVSVTableRow@@U?$less@H@std@@V?$allocator@U?$pair@$$CBHVSVTableRow@@@std@@@3@$0A@@std@@@std@@QAE?AU?$pair@Viterator@?$_Tree@V?$_Tmap_traits@HVSVTableRow@@U?$less@H@std@@V?$allocator@U?$pair@$$CBHVSVTableRow@@@std@@@3@$0A@@std@@@std@@_N@2@ABU?$pair@$$CBHVSVTableRow@@@2@@Z 0040e550 f i SVTable.obj
 0001:0000d610       ?insert@?$_Tree@V?$_Tmap_traits@HVSVTableRow@@U?$less@H@std@@V?$allocator@U?$pair@$$CBHVSVTableRow@@@std@@@3@$0A@@std@@@std@@QAE?AViterator@12@V312@ABU?$pair@$$CBHVSVTableRow@@@2@@Z 0040e610 f i SVTable.obj
 0001:0000d780       ?erase@?$_Tree@V?$_Tmap_traits@HVSVTableRow@@U?$less@H@std@@V?$allocator@U?$pair@$$CBHVSVTableRow@@@std@@@3@$0A@@std@@@std@@QAE?AViterator@12@V312@0@Z 0040e780 f i SVTable.obj
 0001:0000d840       ?clear@SVIntTable@@QAEXXZ  0040e840 f   SVTable.obj
 0001:0000d870       ??A?$map@HVSVTableRow@@U?$less@H@std@@V?$allocator@U?$pair@$$CBHVSVTableRow@@@std@@@3@@std@@QAEAAVSVTableRow@@ABH@Z 0040e870 f i SVTable.obj
 0001:0000d960       ?WriteCell@SVIntTable@@QAEXHHAAVSVTableCell@@@Z 0040e960 f   SVTable.obj
 0001:0000da40       ??1?$map@HVSVTableRow@@U?$less@H@std@@V?$allocator@U?$pair@$$CBHVSVTableRow@@@std@@@3@@std@@QAE@XZ 0040ea40 f i SVTable.obj
 0001:0000da70       ??1SVIntTable@@QAE@XZ      0040ea70 f   SVTable.obj
 0001:0000db00       ??0SVIntTable@@QAE@XZ      0040eb00 f   SVTable.obj
 0001:0000db30       ?_Rrotate@?$_Tree@V?$_Tmap_traits@W4Property@Wt@@V?$basic_string@DU?$char_traits@D@std@@V?$allocator@D@2@@std@@U?$less@W4Property@Wt@@@4@V?$allocator@U?$pair@$$CBW4Property@Wt@@V?$basic_string@DU?$char_traits@D@std@@V?$allocator@D@2@@std@@@std@@@4@$0A@@std@@@std@@IAEXPAU_Node@?$_Tree_nod@V?$_Tmap_traits@W4Property@Wt@@V?$basic_string@DU?$char_traits@D@std@@V?$allocator@D@2@@std@@U?$less@W4Property@Wt@@@4@V?$allocator@U?$pair@$$CBW4Property@Wt@@V?$basic_string@DU?$char_traits@D@std@@V?$allocator@D@2@@std@@@std@@@4@$0A@@std@@@2@@Z 0040eb30 f i libwt:WWebWidget.obj
 0001:0000db30       ?_Rrotate@?$_Tree@V?$_Tmap_traits@PAVWObject@@V?$basic_string@DU?$char_traits@D@std@@V?$allocator@D@2@@std@@U?$less@PAVWObject@@@3@V?$allocator@U?$pair@QAVWObject@@V?$basic_string@DU?$char_traits@D@std@@V?$allocator@D@2@@std@@@std@@@3@$0A@@std@@@std@@IAEXPAU_Node@?$_Tree_nod@V?$_Tmap_traits@PAVWObject@@V?$basic_string@DU?$char_traits@D@std@@V?$allocator@D@2@@std@@U?$less@PAVWObject@@@3@V?$allocator@U?$pair@QAVWObject@@V?$basic_string@DU?$char_traits@D@std@@V?$allocator@D@2@@std@@@std@@@3@$0A@@std@@@2@@Z 0040eb30 f i libwt:WSignalMapper.obj
 0001:0000db30       ?_Rrotate@?$_Tree@V?$_Tmap_traits@V?$basic_string@DU?$char_traits@D@std@@V?$allocator@D@2@@std@@_NU?$less@V?$basic_string@DU?$char_traits@D@std@@V?$allocator@D@2@@std@@@2@V?$allocator@U?$pair@$$CBV?$basic_string@DU?$char_traits@D@std@@V?$allocator@D@2@@std@@_N@std@@@2@$0A@@std@@@std@@IAEXPAU_Node@?$_Tree_nod@V?$_Tmap_traits@V?$basic_string@DU?$char_traits@D@std@@V?$allocator@D@2@@std@@_NU?$less@V?$basic_string@DU?$char_traits@D@std@@V?$allocator@D@2@@std@@@2@V?$allocator@U?$pair@$$CBV?$basic_string@DU?$char_traits@D@std@@V?$allocator@D@2@@std@@_N@std@@@2@$0A@@std@@@2@@Z 0040eb30 f i User.obj
 0001:0000db30       ?_Rrotate@?$_Tree@V?$_Tmap_traits@V?$basic_string@DU?$char_traits@D@std@@V?$allocator@D@2@@std@@PAVWSignalInstance_@@U?$less@V?$basic_string@DU?$char_traits@D@std@@V?$allocator@D@2@@std@@@2@V?$allocator@U?$pair@$$CBV?$basic_string@DU?$char_traits@D@std@@V?$allocator@D@2@@std@@PAVWSignalInstance_@@@std@@@2@$0A@@std@@@std@@IAEXPAU_Node@?$_Tree_nod@V?$_Tmap_traits@V?$basic_string@DU?$char_traits@D@std@@V?$allocator@D@2@@std@@PAVWSignalInstance_@@U?$less@V?$basic_string@DU?$char_traits@D@std@@V?$allocator@D@2@@std@@@2@V?$allocator@U?$pair@$$CBV?$basic_string@DU?$char_traits@D@std@@V?$allocator@D@2@@std@@PAVWSignalInstance_@@@std@@@2@$0A@@std@@@2@@Z 0040eb30 f i mainviewwt.obj
 0001:0000db30       ?_Rrotate@?$_Tree@V?$_Tmap_traits@V?$basic_string@DU?$char_traits@D@std@@V?$allocator@D@2@@std@@PAVWCheckBox@@U?$less@V?$basic_string@DU?$char_traits@D@std@@V?$allocator@D@2@@std@@@2@V?$allocator@U?$pair@$$CBV?$basic_string@DU?$char_traits@D@std@@V?$allocator@D@2@@std@@PAVWCheckBox@@@std@@@2@$0A@@std@@@std@@IAEXPAU_Node@?$_Tree_nod@V?$_Tmap_traits@V?$basic_string@DU?$char_traits@D@std@@V?$allocator@D@2@@std@@PAVWCheckBox@@U?$less@V?$basic_string@DU?$char_traits@D@std@@V?$allocator@D@2@@std@@@2@V?$allocator@U?$pair@$$CBV?$basic_string@DU?$char_traits@D@std@@V?$allocator@D@2@@std@@PAVWCheckBox@@@std@@@2@$0A@@std@@@2@@Z 0040eb30 f i listtable.obj
 0001:0000db30       ?_Rrotate@?$_Tree@V?$_Tmap_traits@V?$basic_string@DU?$char_traits@D@std@@V?$allocator@D@2@@std@@PAVWCssRule@@U?$less@V?$basic_string@DU?$char_traits@D@std@@V?$allocator@D@2@@std@@@2@V?$allocator@U?$pair@$$CBV?$basic_string@DU?$char_traits@D@std@@V?$allocator@D@2@@std@@PAVWCssRule@@@std@@@2@$0A@@std@@@std@@IAEXPAU_Node@?$_Tree_nod@V?$_Tmap_traits@V?$basic_string@DU?$char_traits@D@std@@V?$allocator@D@2@@std@@PAVWCssRule@@U?$less@V?$basic_string@DU?$char_traits@D@std@@V?$allocator@D@2@@std@@@2@V?$allocator@U?$pair@$$CBV?$basic_string@DU?$char_traits@D@std@@V?$allocator@D@2@@std@@PAVWCssRule@@@std@@@2@$0A@@std@@@2@@Z 0040eb30 f i main.obj
 0001:0000db30       ?_Rrotate@?$_Tree@V?$_Tmap_traits@V?$basic_string@DU?$char_traits@D@std@@V?$allocator@D@2@@std@@PAVWSlotInstance_@@U?$less@V?$basic_string@DU?$char_traits@D@std@@V?$allocator@D@2@@std@@@2@V?$allocator@U?$pair@$$CBV?$basic_string@DU?$char_traits@D@std@@V?$allocator@D@2@@std@@PAVWSlotInstance_@@@std@@@2@$0A@@std@@@std@@IAEXPAU_Node@?$_Tree_nod@V?$_Tmap_traits@V?$basic_string@DU?$char_traits@D@std@@V?$allocator@D@2@@std@@PAVWSlotInstance_@@U?$less@V?$basic_string@DU?$char_traits@D@std@@V?$allocator@D@2@@std@@@2@V?$allocator@U?$pair@$$CBV?$basic_string@DU?$char_traits@D@std@@V?$allocator@D@2@@std@@PAVWSlotInstance_@@@std@@@2@$0A@@std@@@2@@Z 0040eb30 f i libwt:WWebWidget.obj
 0001:0000db30       ?_Rrotate@?$_Tree@V?$_Tmap_traits@HV?$basic_string@DU?$char_traits@D@std@@V?$allocator@D@2@@std@@U?$less@H@2@V?$allocator@U?$pair@$$CBHV?$basic_string@DU?$char_traits@D@std@@V?$allocator@D@2@@std@@@std@@@2@$0A@@std@@@std@@IAEXPAU_Node@?$_Tree_nod@V?$_Tmap_traits@HV?$basic_string@DU?$char_traits@D@std@@V?$allocator@D@2@@std@@U?$less@H@2@V?$allocator@U?$pair@$$CBHV?$basic_string@DU?$char_traits@D@std@@V?$allocator@D@2@@std@@@std@@@2@$0A@@std@@@2@@Z 0040eb30 f i sortlist.obj
 0001:0000db30       ?_Rrotate@?$_Tree@V?$_Tmap_traits@V?$basic_string@DU?$char_traits@D@std@@V?$allocator@D@2@@std@@KU?$less@V?$basic_string@DU?$char_traits@D@std@@V?$allocator@D@2@@std@@@2@V?$allocator@U?$pair@$$CBV?$basic_string@DU?$char_traits@D@std@@V?$allocator@D@2@@std@@K@std@@@2@$0A@@std@@@std@@IAEXPAU_Node@?$_Tree_nod@V?$_Tmap_traits@V?$basic_string@DU?$char_traits@D@std@@V?$allocator@D@2@@std@@KU?$less@V?$basic_string@DU?$char_traits@D@std@@V?$allocator@D@2@@std@@@2@V?$allocator@U?$pair@$$CBV?$basic_string@DU?$char_traits@D@std@@V?$allocator@D@2@@std@@K@std@@@2@$0A@@std@@@2@@Z 0040eb30 f i libboost_regex-vc71-mt-1_33_1:instances.obj
 0001:0000db30       ?_Rrotate@?$_Tree@V?$_Tmap_traits@PAVWLineEdit@@V?$basic_string@DU?$char_traits@D@std@@V?$allocator@D@2@@std@@U?$less@PAVWLineEdit@@@3@V?$allocator@U?$pair@QAVWLineEdit@@V?$basic_string@DU?$char_traits@D@std@@V?$allocator@D@2@@std@@@std@@@3@$0A@@std@@@std@@IAEXPAU_Node@?$_Tree_nod@V?$_Tmap_traits@PAVWLineEdit@@V?$basic_string@DU?$char_traits@D@std@@V?$allocator@D@2@@std@@U?$less@PAVWLineEdit@@@3@V?$allocator@U?$pair@QAVWLineEdit@@V?$basic_string@DU?$char_traits@D@std@@V?$allocator@D@2@@std@@@std@@@3@$0A@@std@@@2@@Z 0040eb30 f i sortlist.obj
 0001:0000db30       ?_Rrotate@?$_Tree@V?$_Tmap_traits@V?$basic_string@DU?$char_traits@D@std@@V?$allocator@D@2@@std@@PAUScopeFunc@@U?$less@V?$basic_string@DU?$char_traits@D@std@@V?$allocator@D@2@@std@@@2@V?$allocator@U?$pair@$$CBV?$basic_string@DU?$char_traits@D@std@@V?$allocator@D@2@@std@@PAUScopeFunc@@@std@@@2@$0A@@std@@@std@@IAEXPAU_Node@?$_Tree_nod@V?$_Tmap_traits@V?$basic_string@DU?$char_traits@D@std@@V?$allocator@D@2@@std@@PAUScopeFunc@@U?$less@V?$basic_string@DU?$char_traits@D@std@@V?$allocator@D@2@@std@@@2@V?$allocator@U?$pair@$$CBV?$basic_string@DU?$char_traits@D@std@@V?$allocator@D@2@@std@@PAUScopeFunc@@@std@@@2@$0A@@std@@@2@@Z 0040eb30 f i User.obj
 0001:0000db90       ?haveGroupRight@CUser@@QAE_NV?$basic_string@DU?$char_traits@D@std@@V?$allocator@D@2@@std@@H@Z 0040eb90 f   User.obj
 0001:0000dd40       ?_Buynode@?$_Tree@V?$_Tmap_traits@V?$basic_string@DU?$char_traits@D@std@@V?$allocator@D@2@@std@@_NU?$less@V?$basic_string@DU?$char_traits@D@std@@V?$allocator@D@2@@std@@@2@V?$allocator@U?$pair@$$CBV?$basic_string@DU?$char_traits@D@std@@V?$allocator@D@2@@std@@_N@std@@@2@$0A@@std@@@std@@IAEPAU_Node@?$_Tree_nod@V?$_Tmap_traits@V?$basic_string@DU?$char_traits@D@std@@V?$allocator@D@2@@std@@_NU?$less@V?$basic_string@DU?$char_traits@D@std@@V?$allocator@D@2@@std@@@2@V?$allocator@U?$pair@$$CBV?$basic_string@DU?$char_traits@D@std@@V?$allocator@D@2@@std@@_N@std@@@2@$0A@@std@@@2@XZ 0040ed40 f i User.obj
 0001:0000dd40       ?_Buynode@?$_Tree@V?$_Tmap_traits@V?$basic_string@DU?$char_traits@D@std@@V?$allocator@D@2@@std@@PAUScopeFunc@@U?$less@V?$basic_string@DU?$char_traits@D@std@@V?$allocator@D@2@@std@@@2@V?$allocator@U?$pair@$$CBV?$basic_string@DU?$char_traits@D@std@@V?$allocator@D@2@@std@@PAUScopeFunc@@@std@@@2@$0A@@std@@@std@@IAEPAU_Node@?$_Tree_nod@V?$_Tmap_traits@V?$basic_string@DU?$char_traits@D@std@@V?$allocator@D@2@@std@@PAUScopeFunc@@U?$less@V?$basic_string@DU?$char_traits@D@std@@V?$allocator@D@2@@std@@@2@V?$allocator@U?$pair@$$CBV?$basic_string@DU?$char_traits@D@std@@V?$allocator@D@2@@std@@PAUScopeFunc@@@std@@@2@$0A@@std@@@2@XZ 0040ed40 f i User.obj
 0001:0000dd40       ?_Buynode@?$_Tree@V?$_Tmap_traits@V?$basic_string@DU?$char_traits@D@std@@V?$allocator@D@2@@std@@PAVWSlotInstance_@@U?$less@V?$basic_string@DU?$char_traits@D@std@@V?$allocator@D@2@@std@@@2@V?$allocator@U?$pair@$$CBV?$basic_string@DU?$char_traits@D@std@@V?$allocator@D@2@@std@@PAVWSlotInstance_@@@std@@@2@$0A@@std@@@std@@IAEPAU_Node@?$_Tree_nod@V?$_Tmap_traits@V?$basic_string@DU?$char_traits@D@std@@V?$allocator@D@2@@std@@PAVWSlotInstance_@@U?$less@V?$basic_string@DU?$char_traits@D@std@@V?$allocator@D@2@@std@@@2@V?$allocator@U?$pair@$$CBV?$basic_string@DU?$char_traits@D@std@@V?$allocator@D@2@@std@@PAVWSlotInstance_@@@std@@@2@$0A@@std@@@2@XZ 0040ed40 f i libwt:WObject.obj
 0001:0000dd40       ?_Buynode@?$_Tree@V?$_Tmap_traits@PAVWObject@@V?$basic_string@DU?$char_traits@D@std@@V?$allocator@D@2@@std@@U?$less@PAVWObject@@@3@V?$allocator@U?$pair@QAVWObject@@V?$basic_string@DU?$char_traits@D@std@@V?$allocator@D@2@@std@@@std@@@3@$0A@@std@@@std@@IAEPAU_Node@?$_Tree_nod@V?$_Tmap_traits@PAVWObject@@V?$basic_string@DU?$char_traits@D@std@@V?$allocator@D@2@@std@@U?$less@PAVWObject@@@3@V?$allocator@U?$pair@QAVWObject@@V?$basic_string@DU?$char_traits@D@std@@V?$allocator@D@2@@std@@@std@@@3@$0A@@std@@@2@XZ 0040ed40 f i libwt:WSignalMapper.obj
 0001:0000dd40       ?_Buynode@?$_Tree@V?$_Tmap_traits@HV?$basic_string@DU?$char_traits@D@std@@V?$allocator@D@2@@std@@U?$less@H@2@V?$allocator@U?$pair@$$CBHV?$basic_string@DU?$char_traits@D@std@@V?$allocator@D@2@@std@@@std@@@2@$0A@@std@@@std@@IAEPAU_Node@?$_Tree_nod@V?$_Tmap_traits@HV?$basic_string@DU?$char_traits@D@std@@V?$allocator@D@2@@std@@U?$less@H@2@V?$allocator@U?$pair@$$CBHV?$basic_string@DU?$char_traits@D@std@@V?$allocator@D@2@@std@@@std@@@2@$0A@@std@@@2@XZ 0040ed40 f i sortlist.obj
 0001:0000dd40       ?_Buynode@?$_Tree@V?$_Tmap_traits@V?$basic_string@DU?$char_traits@D@std@@V?$allocator@D@2@@std@@PAVWCssRule@@U?$less@V?$basic_string@DU?$char_traits@D@std@@V?$allocator@D@2@@std@@@2@V?$allocator@U?$pair@$$CBV?$basic_string@DU?$char_traits@D@std@@V?$allocator@D@2@@std@@PAVWCssRule@@@std@@@2@$0A@@std@@@std@@IAEPAU_Node@?$_Tree_nod@V?$_Tmap_traits@V?$basic_string@DU?$char_traits@D@std@@V?$allocator@D@2@@std@@PAVWCssRule@@U?$less@V?$basic_string@DU?$char_traits@D@std@@V?$allocator@D@2@@std@@@2@V?$allocator@U?$pair@$$CBV?$basic_string@DU?$char_traits@D@std@@V?$allocator@D@2@@std@@PAVWCssRule@@@std@@@2@$0A@@std@@@2@XZ 0040ed40 f i libwt:WCssStyleSheet.obj
 0001:0000dd40       ?_Buynode@?$_Tree@V?$_Tmap_traits@V?$basic_string@DU?$char_traits@D@std@@V?$allocator@D@2@@std@@PAVWSignalInstance_@@U?$less@V?$basic_string@DU?$char_traits@D@std@@V?$allocator@D@2@@std@@@2@V?$allocator@U?$pair@$$CBV?$basic_string@DU?$char_traits@D@std@@V?$allocator@D@2@@std@@PAVWSignalInstance_@@@std@@@2@$0A@@std@@@std@@IAEPAU_Node@?$_Tree_nod@V?$_Tmap_traits@V?$basic_string@DU?$char_traits@D@std@@V?$allocator@D@2@@std@@PAVWSignalInstance_@@U?$less@V?$basic_string@DU?$char_traits@D@std@@V?$allocator@D@2@@std@@@2@V?$allocator@U?$pair@$$CBV?$basic_string@DU?$char_traits@D@std@@V?$allocator@D@2@@std@@PAVWSignalInstance_@@@std@@@2@$0A@@std@@@2@XZ 0040ed40 f i libwt:WObject.obj
 0001:0000dd40       ?_Buynode@?$_Tree@V?$_Tmap_traits@V?$basic_string@DU?$char_traits@D@std@@V?$allocator@D@2@@std@@KU?$less@V?$basic_string@DU?$char_traits@D@std@@V?$allocator@D@2@@std@@@2@V?$allocator@U?$pair@$$CBV?$basic_string@DU?$char_traits@D@std@@V?$allocator@D@2@@std@@K@std@@@2@$0A@@std@@@std@@IAEPAU_Node@?$_Tree_nod@V?$_Tmap_traits@V?$basic_string@DU?$char_traits@D@std@@V?$allocator@D@2@@std@@KU?$less@V?$basic_string@DU?$char_traits@D@std@@V?$allocator@D@2@@std@@@2@V?$allocator@U?$pair@$$CBV?$basic_string@DU?$char_traits@D@std@@V?$allocator@D@2@@std@@K@std@@@2@$0A@@std@@@2@XZ 0040ed40 f i libboost_regex-vc71-mt-1_33_1:instances.obj
 0001:0000dd40       ?_Buynode@?$_Tree@V?$_Tmap_traits@W4Property@Wt@@V?$basic_string@DU?$char_traits@D@std@@V?$allocator@D@2@@std@@U?$less@W4Property@Wt@@@4@V?$allocator@U?$pair@$$CBW4Property@Wt@@V?$basic_string@DU?$char_traits@D@std@@V?$allocator@D@2@@std@@@std@@@4@$0A@@std@@@std@@IAEPAU_Node@?$_Tree_nod@V?$_Tmap_traits@W4Property@Wt@@V?$basic_string@DU?$char_traits@D@std@@V?$allocator@D@2@@std@@U?$less@W4Property@Wt@@@4@V?$allocator@U?$pair@$$CBW4Property@Wt@@V?$basic_string@DU?$char_traits@D@std@@V?$allocator@D@2@@std@@@std@@@4@$0A@@std@@@2@XZ 0040ed40 f i libwt:WWebWidget.obj
 0001:0000dd40       ?_Buynode@?$_Tree@V?$_Tmap_traits@V?$basic_string@DU?$char_traits@D@std@@V?$allocator@D@2@@std@@PAVWCheckBox@@U?$less@V?$basic_string@DU?$char_traits@D@std@@V?$allocator@D@2@@std@@@2@V?$allocator@U?$pair@$$CBV?$basic_string@DU?$char_traits@D@std@@V?$allocator@D@2@@std@@PAVWCheckBox@@@std@@@2@$0A@@std@@@std@@IAEPAU_Node@?$_Tree_nod@V?$_Tmap_traits@V?$basic_string@DU?$char_traits@D@std@@V?$allocator@D@2@@std@@PAVWCheckBox@@U?$less@V?$basic_string@DU?$char_traits@D@std@@V?$allocator@D@2@@std@@@2@V?$allocator@U?$pair@$$CBV?$basic_string@DU?$char_traits@D@std@@V?$allocator@D@2@@std@@PAVWCheckBox@@@std@@@2@$0A@@std@@@2@XZ 0040ed40 f i listtable.obj
 0001:0000dd40       ?_Buynode@?$_Tree@V?$_Tmap_traits@PAVWLineEdit@@V?$basic_string@DU?$char_traits@D@std@@V?$allocator@D@2@@std@@U?$less@PAVWLineEdit@@@3@V?$allocator@U?$pair@QAVWLineEdit@@V?$basic_string@DU?$char_traits@D@std@@V?$allocator@D@2@@std@@@std@@@3@$0A@@std@@@std@@IAEPAU_Node@?$_Tree_nod@V?$_Tmap_traits@PAVWLineEdit@@V?$basic_string@DU?$char_traits@D@std@@V?$allocator@D@2@@std@@U?$less@PAVWLineEdit@@@3@V?$allocator@U?$pair@QAVWLineEdit@@V?$basic_string@DU?$char_traits@D@std@@V?$allocator@D@2@@std@@@std@@@3@$0A@@std@@@2@XZ 0040ed40 f i sortlist.obj
 0001:0000dd80       ?_Buynode@?$_Tree@V?$_Tmap_traits@V?$basic_string@DU?$char_traits@D@std@@V?$allocator@D@2@@std@@_NU?$less@V?$basic_string@DU?$char_traits@D@std@@V?$allocator@D@2@@std@@@2@V?$allocator@U?$pair@$$CBV?$basic_string@DU?$char_traits@D@std@@V?$allocator@D@2@@std@@_N@std@@@2@$0A@@std@@@std@@IAEPAU_Node@?$_Tree_nod@V?$_Tmap_traits@V?$basic_string@DU?$char_traits@D@std@@V?$allocator@D@2@@std@@_NU?$less@V?$basic_string@DU?$char_traits@D@std@@V?$allocator@D@2@@std@@@2@V?$allocator@U?$pair@$$CBV?$basic_string@DU?$char_traits@D@std@@V?$allocator@D@2@@std@@_N@std@@@2@$0A@@std@@@2@PAU342@00ABU?$pair@$$CBV?$basic_string@DU?$char_traits@D@std@@V?$allocator@D@2@@std@@_N@2@D@Z 0040ed80 f i User.obj
 0001:0000de20       ?_Buynode@?$_Tree@V?$_Tmap_traits@V?$basic_string@DU?$char_traits@D@std@@V?$allocator@D@2@@std@@PAUScopeFunc@@U?$less@V?$basic_string@DU?$char_traits@D@std@@V?$allocator@D@2@@std@@@2@V?$allocator@U?$pair@$$CBV?$basic_string@DU?$char_traits@D@std@@V?$allocator@D@2@@std@@PAUScopeFunc@@@std@@@2@$0A@@std@@@std@@IAEPAU_Node@?$_Tree_nod@V?$_Tmap_traits@V?$basic_string@DU?$char_traits@D@std@@V?$allocator@D@2@@std@@PAUScopeFunc@@U?$less@V?$basic_string@DU?$char_traits@D@std@@V?$allocator@D@2@@std@@@2@V?$allocator@U?$pair@$$CBV?$basic_string@DU?$char_traits@D@std@@V?$allocator@D@2@@std@@PAUScopeFunc@@@std@@@2@$0A@@std@@@2@PAU342@00ABU?$pair@$$CBV?$basic_string@DU?$char_traits@D@std@@V?$allocator@D@2@@std@@PAUScopeFunc@@@2@D@Z 0040ee20 f i User.obj
 0001:0000dec0       ?_Insert@?$_Tree@V?$_Tmap_traits@V?$basic_string@DU?$char_traits@D@std@@V?$allocator@D@2@@std@@_NU?$less@V?$basic_string@DU?$char_traits@D@std@@V?$allocator@D@2@@std@@@2@V?$allocator@U?$pair@$$CBV?$basic_string@DU?$char_traits@D@std@@V?$allocator@D@2@@std@@_N@std@@@2@$0A@@std@@@std@@IAE?AViterator@12@_NPAU_Node@?$_Tree_nod@V?$_Tmap_traits@V?$basic_string@DU?$char_traits@D@std@@V?$allocator@D@2@@std@@_NU?$less@V?$basic_string@DU?$char_traits@D@std@@V?$allocator@D@2@@std@@@2@V?$allocator@U?$pair@$$CBV?$basic_string@DU?$char_traits@D@std@@V?$allocator@D@2@@std@@_N@std@@@2@$0A@@std@@@2@ABU?$pair@$$CBV?$basic_string@DU?$char_traits@D@std@@V?$allocator@D@2@@std@@_N@2@@Z 0040eec0 f i User.obj
 0001:0000e080       ?_Insert@?$_Tree@V?$_Tmap_traits@V?$basic_string@DU?$char_traits@D@std@@V?$allocator@D@2@@std@@PAUScopeFunc@@U?$less@V?$basic_string@DU?$char_traits@D@std@@V?$allocator@D@2@@std@@@2@V?$allocator@U?$pair@$$CBV?$basic_string@DU?$char_traits@D@std@@V?$allocator@D@2@@std@@PAUScopeFunc@@@std@@@2@$0A@@std@@@std@@IAE?AViterator@12@_NPAU_Node@?$_Tree_nod@V?$_Tmap_traits@V?$basic_string@DU?$char_traits@D@std@@V?$allocator@D@2@@std@@PAUScopeFunc@@U?$less@V?$basic_string@DU?$char_traits@D@std@@V?$allocator@D@2@@std@@@2@V?$allocator@U?$pair@$$CBV?$basic_string@DU?$char_traits@D@std@@V?$allocator@D@2@@std@@PAUScopeFunc@@@std@@@2@$0A@@std@@@2@ABU?$pair@$$CBV?$basic_string@DU?$char_traits@D@std@@V?$allocator@D@2@@std@@PAUScopeFunc@@@2@@Z 0040f080 f i User.obj
 0001:0000e240       ?haveUserRight@CUser@@QAE_NV?$basic_string@DU?$char_traits@D@std@@V?$allocator@D@2@@std@@0@Z 0040f240 f   User.obj
 0001:0000e380       ?insert@?$_Tree@V?$_Tmap_traits@V?$basic_string@DU?$char_traits@D@std@@V?$allocator@D@2@@std@@_NU?$less@V?$basic_string@DU?$char_traits@D@std@@V?$allocator@D@2@@std@@@2@V?$allocator@U?$pair@$$CBV?$basic_string@DU?$char_traits@D@std@@V?$allocator@D@2@@std@@_N@std@@@2@$0A@@std@@@std@@QAE?AU?$pair@Viterator@?$_Tree@V?$_Tmap_traits@V?$basic_string@DU?$char_traits@D@std@@V?$allocator@D@2@@std@@_NU?$less@V?$basic_string@DU?$char_traits@D@std@@V?$allocator@D@2@@std@@@2@V?$allocator@U?$pair@$$CBV?$basic_string@DU?$char_traits@D@std@@V?$allocator@D@2@@std@@_N@std@@@2@$0A@@std@@@std@@_N@2@ABU?$pair@$$CBV?$basic_string@DU?$char_traits@D@std@@V?$allocator@D@2@@std@@_N@2@@Z 0040f380 f i User.obj
 0001:0000e460       ?insert@?$_Tree@V?$_Tmap_traits@V?$basic_string@DU?$char_traits@D@std@@V?$allocator@D@2@@std@@PAUScopeFunc@@U?$less@V?$basic_string@DU?$char_traits@D@std@@V?$allocator@D@2@@std@@@2@V?$allocator@U?$pair@$$CBV?$basic_string@DU?$char_traits@D@std@@V?$allocator@D@2@@std@@PAUScopeFunc@@@std@@@2@$0A@@std@@@std@@QAE?AU?$pair@Viterator@?$_Tree@V?$_Tmap_traits@V?$basic_string@DU?$char_traits@D@std@@V?$allocator@D@2@@std@@PAUScopeFunc@@U?$less@V?$basic_string@DU?$char_traits@D@std@@V?$allocator@D@2@@std@@@2@V?$allocator@U?$pair@$$CBV?$basic_string@DU?$char_traits@D@std@@V?$allocator@D@2@@std@@PAUScopeFunc@@@std@@@2@$0A@@std@@@std@@_N@2@ABU?$pair@$$CBV?$basic_string@DU?$char_traits@D@std@@V?$allocator@D@2@@std@@PAUScopeFunc@@@2@@Z 0040f460 f i User.obj
 0001:0000e540       ?_Erase@?$_Tree@V?$_Tmap_traits@V?$basic_string@DU?$char_traits@D@std@@V?$allocator@D@2@@std@@PAUScopeFunc@@U?$less@V?$basic_string@DU?$char_traits@D@std@@V?$allocator@D@2@@std@@@2@V?$allocator@U?$pair@$$CBV?$basic_string@DU?$char_traits@D@std@@V?$allocator@D@2@@std@@PAUScopeFunc@@@std@@@2@$0A@@std@@@std@@IAEXPAU_Node@?$_Tree_nod@V?$_Tmap_traits@V?$basic_string@DU?$char_traits@D@std@@V?$allocator@D@2@@std@@PAUScopeFunc@@U?$less@V?$basic_string@DU?$char_traits@D@std@@V?$allocator@D@2@@std@@@2@V?$allocator@U?$pair@$$CBV?$basic_string@DU?$char_traits@D@std@@V?$allocator@D@2@@std@@PAUScopeFunc@@@std@@@2@$0A@@std@@@2@@Z 0040f540 f i User.obj
 0001:0000e580       ?erase@?$_Tree@V?$_Tmap_traits@V?$basic_string@DU?$char_traits@D@std@@V?$allocator@D@2@@std@@PAUScopeFunc@@U?$less@V?$basic_string@DU?$char_traits@D@std@@V?$allocator@D@2@@std@@@2@V?$allocator@U?$pair@$$CBV?$basic_string@DU?$char_traits@D@std@@V?$allocator@D@2@@std@@PAUScopeFunc@@@std@@@2@$0A@@std@@@std@@QAE?AViterator@12@V312@@Z 0040f580 f i User.obj
 0001:0000e580       ?erase@?$_Tree@V?$_Tmap_traits@V?$basic_string@DU?$char_traits@D@std@@V?$allocator@D@2@@std@@_NU?$less@V?$basic_string@DU?$char_traits@D@std@@V?$allocator@D@2@@std@@@2@V?$allocator@U?$pair@$$CBV?$basic_string@DU?$char_traits@D@std@@V?$allocator@D@2@@std@@_N@std@@@2@$0A@@std@@@std@@QAE?AViterator@12@V312@@Z 0040f580 f i User.obj
 0001:0000e860       ?_Erase@?$_Tree@V?$_Tmap_traits@V?$basic_string@DU?$char_traits@D@std@@V?$allocator@D@2@@std@@_NU?$less@V?$basic_string@DU?$char_traits@D@std@@V?$allocator@D@2@@std@@@2@V?$allocator@U?$pair@$$CBV?$basic_string@DU?$char_traits@D@std@@V?$allocator@D@2@@std@@_N@std@@@2@$0A@@std@@@std@@IAEXPAU_Node@?$_Tree_nod@V?$_Tmap_traits@V?$basic_string@DU?$char_traits@D@std@@V?$allocator@D@2@@std@@_NU?$less@V?$basic_string@DU?$char_traits@D@std@@V?$allocator@D@2@@std@@@2@V?$allocator@U?$pair@$$CBV?$basic_string@DU?$char_traits@D@std@@V?$allocator@D@2@@std@@_N@std@@@2@$0A@@std@@@2@@Z 0040f860 f i User.obj
 0001:0000e8a0       ?insert@?$_Tree@V?$_Tmap_traits@V?$basic_string@DU?$char_traits@D@std@@V?$allocator@D@2@@std@@_NU?$less@V?$basic_string@DU?$char_traits@D@std@@V?$allocator@D@2@@std@@@2@V?$allocator@U?$pair@$$CBV?$basic_string@DU?$char_traits@D@std@@V?$allocator@D@2@@std@@_N@std@@@2@$0A@@std@@@std@@QAE?AViterator@12@V312@ABU?$pair@$$CBV?$basic_string@DU?$char_traits@D@std@@V?$allocator@D@2@@std@@_N@2@@Z 0040f8a0 f i User.obj
 0001:0000ea60       ?insert@?$_Tree@V?$_Tmap_traits@V?$basic_string@DU?$char_traits@D@std@@V?$allocator@D@2@@std@@PAUScopeFunc@@U?$less@V?$basic_string@DU?$char_traits@D@std@@V?$allocator@D@2@@std@@@2@V?$allocator@U?$pair@$$CBV?$basic_string@DU?$char_traits@D@std@@V?$allocator@D@2@@std@@PAUScopeFunc@@@std@@@2@$0A@@std@@@std@@QAE?AViterator@12@V312@ABU?$pair@$$CBV?$basic_string@DU?$char_traits@D@std@@V?$allocator@D@2@@std@@PAUScopeFunc@@@2@@Z 0040fa60 f i User.obj
 0001:0000ec20       ??A?$map@V?$basic_string@DU?$char_traits@D@std@@V?$allocator@D@2@@std@@_NU?$less@V?$basic_string@DU?$char_traits@D@std@@V?$allocator@D@2@@std@@@2@V?$allocator@U?$pair@$$CBV?$basic_string@DU?$char_traits@D@std@@V?$allocator@D@2@@std@@_N@std@@@2@@std@@QAEAA_NABV?$basic_string@DU?$char_traits@D@std@@V?$allocator@D@2@@1@@Z 0040fc20 f i User.obj
 0001:0000ecc0       ??A?$map@V?$basic_string@DU?$char_traits@D@std@@V?$allocator@D@2@@std@@PAUScopeFunc@@U?$less@V?$basic_string@DU?$char_traits@D@std@@V?$allocator@D@2@@std@@@2@V?$allocator@U?$pair@$$CBV?$basic_string@DU?$char_traits@D@std@@V?$allocator@D@2@@std@@PAUScopeFunc@@@std@@@2@@std@@QAEAAPAUScopeFunc@@ABV?$basic_string@DU?$char_traits@D@std@@V?$allocator@D@2@@1@@Z 0040fcc0 f i User.obj
 0001:0000ed60       ?erase@?$_Tree@V?$_Tmap_traits@V?$basic_string@DU?$char_traits@D@std@@V?$allocator@D@2@@std@@PAUScopeFunc@@U?$less@V?$basic_string@DU?$char_traits@D@std@@V?$allocator@D@2@@std@@@2@V?$allocator@U?$pair@$$CBV?$basic_string@DU?$char_traits@D@std@@V?$allocator@D@2@@std@@PAUScopeFunc@@@std@@@2@$0A@@std@@@std@@QAE?AViterator@12@V312@0@Z 0040fd60 f i User.obj
 0001:0000ee20       ?erase@?$_Tree@V?$_Tmap_traits@V?$basic_string@DU?$char_traits@D@std@@V?$allocator@D@2@@std@@_NU?$less@V?$basic_string@DU?$char_traits@D@std@@V?$allocator@D@2@@std@@@2@V?$allocator@U?$pair@$$CBV?$basic_string@DU?$char_traits@D@std@@V?$allocator@D@2@@std@@_N@std@@@2@$0A@@std@@@std@@QAE?AViterator@12@V312@0@Z 0040fe20 f i User.obj
 0001:0000eee0       ??1?$map@V?$basic_string@DU?$char_traits@D@std@@V?$allocator@D@2@@std@@PAUScopeFunc@@U?$less@V?$basic_string@DU?$char_traits@D@std@@V?$allocator@D@2@@std@@@2@V?$allocator@U?$pair@$$CBV?$basic_string@DU?$char_traits@D@std@@V?$allocator@D@2@@std@@PAUScopeFunc@@@std@@@2@@std@@QAE@XZ 0040fee0 f i User.obj
 0001:0000ef10       ?ParserToken@CUser@@AAE_NAAV?$vector@V?$basic_string@DU?$char_traits@D@std@@V?$allocator@D@2@@std@@V?$allocator@V?$basic_string@DU?$char_traits@D@std@@V?$allocator@D@2@@std@@@2@@std@@PBDPAD@Z 0040ff10 f   User.obj
 0001:0000efe0       ??0CUser@@QAE@XZ           0040ffe0 f   User.obj
 0001:0000f080       ??1ScopeFunc@@QAE@XZ       00410080 f i User.obj
 0001:0000f100       ??0ScopeFunc@@QAE@XZ       00410100 f i User.obj
 0001:0000f170       ?AddScopeRight@CUser@@QAE_NV?$basic_string@DU?$char_traits@D@std@@V?$allocator@D@2@@std@@0AAV23@@Z 00410170 f   User.obj
 0001:0000f330       ?MakeGroupFunc@CUser@@AAEXXZ 00410330 f   User.obj
 0001:0000f7c0       ?AddUserScopeAllRight@CUser@@QAE_NV?$basic_string@DU?$char_traits@D@std@@V?$allocator@D@2@@std@@H@Z 004107c0 f   User.obj
 0001:0000fda0       ?ClearScopeFuncList@CUser@@AAEXXZ 00410da0 f   User.obj
 0001:0000fe00       ??1CUser@@QAE@XZ           00410e00 f   User.obj
 0001:0000fea0       ?setUserID@CUser@@QAEXV?$basic_string@DU?$char_traits@D@std@@V?$allocator@D@2@@std@@@Z 00410ea0 f   User.obj
 0001:00010390       ?alternateText@WImage@@QBE?BV?$basic_string@DU?$char_traits@D@std@@V?$allocator@D@2@@std@@XZ 00411390 f i mainview.obj
 0001:000103c0       ??1WImage@@UAE@XZ          004113c0 f i mainview.obj
 0001:00010430       ??_FWImage@@QAEXXZ         00411430 f i mainview.obj
 0001:00010440       ?rowSpan@WTableCell@@QBEHXZ 00411440 f i mainview.obj
 0001:00010440       ?currentIndex@WStackedWidget@@QBEHXZ 00411440 f i libwt:WStackedWidget.obj
 0001:00010450       ?columnSpan@WTableCell@@QBEHXZ 00411450 f i mainview.obj
 0001:00010460       ?column@WTableCell@@QBEHXZ 00411460 f i mainview.obj
 0001:00010470       ?textSize@WLineEdit@@QBEHXZ 00411470 f i mainview.obj
 0001:00010480       ?echoMode@WLineEdit@@QBE?AW4EchoMode@1@XZ 00411480 f i mainview.obj
 0001:00010490       ??1WLineEdit@@UAE@XZ       00411490 f i mainview.obj
 0001:000104e0       ??_FWLineEdit@@QAEXXZ      004114e0 f i mainview.obj
 0001:000104f0       ?text@WPushButton@@QBE?AV?$basic_string@DU?$char_traits@D@std@@V?$allocator@D@2@@std@@XZ 004114f0 f i mainview.obj
 0001:00010520       ?message@WPushButton@@QBEABVWMessage@@XZ 00411520 f i mainview.obj
 0001:00010530       ??1WPushButton@@UAE@XZ     00411530 f i mainview.obj
 0001:000105a0       ??_FWPushButton@@QAEXXZ    004115a0 f i mainview.obj
 0001:000105b0       ?createFrame@CEccMainView@@AAEXXZ 004115b0 f   mainview.obj
 0001:00010800       ?getTreeTableName@CEccMainView@@QAE?AV?$basic_string@DU?$char_traits@D@std@@V?$allocator@D@2@@std@@XZ 00411800 f   mainview.obj
 0001:00010840       ?EccObjectClick@CEccMainView@@AAEXXZ 00411840 f   mainview.obj
 0001:00010a40       ?AddJsParam@CEccMainView@@AAEXV?$basic_string@DU?$char_traits@D@std@@V?$allocator@D@2@@std@@0@Z 00411a40 f   mainview.obj
 0001:00010b70       ?createHideObject@CEccMainView@@AAEXXZ 00411b70 f   mainview.obj
 0001:00010f60       ?RefreshState@CEccMainView@@AAEXXZ 00411f60 f   mainview.obj
 0001:00010f90       ?refresh@CEccMainView@@UAEXXZ 00411f90 f   mainview.obj
 0001:00011210       ?_Max@?$_Tree@V?$_Tmap_traits@HVCECCMonitor@@U?$less@H@std@@V?$allocator@U?$pair@$$CBHVCECCMonitor@@@std@@@3@$0A@@std@@@std@@KAPAU_Node@?$_Tree_nod@V?$_Tmap_traits@HVCECCMonitor@@U?$less@H@std@@V?$allocator@U?$pair@$$CBHVCECCMonitor@@@std@@@3@$0A@@std@@@2@PAU342@@Z 00412210 f i mainview.obj
 0001:00011230       ?_Min@?$_Tree@V?$_Tmap_traits@HVCECCMonitor@@U?$less@H@std@@V?$allocator@U?$pair@$$CBHVCECCMonitor@@@std@@@3@$0A@@std@@@std@@KAPAU_Node@?$_Tree_nod@V?$_Tmap_traits@HVCECCMonitor@@U?$less@H@std@@V?$allocator@U?$pair@$$CBHVCECCMonitor@@@std@@@3@$0A@@std@@@2@PAU342@@Z 00412230 f i mainview.obj
 0001:00011250       ?_Rrotate@?$_Tree@V?$_Tmap_traits@HVCECCMonitor@@U?$less@H@std@@V?$allocator@U?$pair@$$CBHVCECCMonitor@@@std@@@3@$0A@@std@@@std@@IAEXPAU_Node@?$_Tree_nod@V?$_Tmap_traits@HVCECCMonitor@@U?$less@H@std@@V?$allocator@U?$pair@$$CBHVCECCMonitor@@@std@@@3@$0A@@std@@@2@@Z 00412250 f i mainview.obj
 0001:000112b0       ?_Inc@const_iterator@?$_Tree@V?$_Tmap_traits@HVCECCMonitor@@U?$less@H@std@@V?$allocator@U?$pair@$$CBHVCECCMonitor@@@std@@@3@$0A@@std@@@std@@QAEXXZ 004122b0 f i mainview.obj
 0001:00011310       ??1?$pair@$$CBHVCECCMonitor@@@std@@QAE@XZ 00412310 f i mainview.obj
 0001:00011320       ??0CEccMainView@@QAE@PAVWContainerWidget@@@Z 00412320 f   mainview.obj
 0001:00011440       ??_GCEccMainView@@UAEPAXI@Z 00412440 f i mainview.obj
 0001:00011440       ??_ECEccMainView@@UAEPAXI@Z 00412440 f i mainview.obj
 0001:00011460       ?TestDevice@CEccMainView@@AAEXABV?$basic_string@DU?$char_traits@D@std@@V?$allocator@D@2@@std@@@Z 00412460 f   mainview.obj
 0001:00011590       ?_Lrotate@?$_Tree@V?$_Tmap_traits@HVCECCMonitor@@U?$less@H@std@@V?$allocator@U?$pair@$$CBHVCECCMonitor@@@std@@@3@$0A@@std@@@std@@IAEXPAU_Node@?$_Tree_nod@V?$_Tmap_traits@HVCECCMonitor@@U?$less@H@std@@V?$allocator@U?$pair@$$CBHVCECCMonitor@@@std@@@3@$0A@@std@@@2@@Z 00412590 f i mainview.obj
 0001:000115f0       ??1_Node@?$_Tree_nod@V?$_Tmap_traits@HVCECCMonitor@@U?$less@H@std@@V?$allocator@U?$pair@$$CBHVCECCMonitor@@@std@@@3@$0A@@std@@@std@@QAE@XZ 004125f0 f i mainview.obj
 0001:00011600       ?RefreshDevice@CEccMainView@@AAEXPBVCEccTreeDevice@@@Z 00412600 f   mainview.obj
 0001:00011be0       ??1WContainerWidget@@UAE@XZ 00412be0 f i main.obj
 0001:00011be0       ??1WTableCell@@UAE@XZ      00412be0 f i mainview.obj
 0001:00011c20       ?EccMenuClick@CEccMainView@@AAEXXZ 00412c20 f   mainview.obj
 0001:00013260       ??4WImage@@QAEAAV0@ABV0@@Z 00414260 f i mainview.obj
 0001:000132c0       ??4WTableCell@@QAEAAV0@ABV0@@Z 004142c0 f i mainview.obj
 0001:00013320       ??4WLineEdit@@QAEAAV0@ABV0@@Z 00414320 f i mainview.obj
 0001:000133c0       ??4WPushButton@@QAEAAV0@ABV0@@Z 004143c0 f i mainview.obj
 0001:00013450       ?erase@?$_Tree@V?$_Tmap_traits@HVCECCMonitor@@U?$less@H@std@@V?$allocator@U?$pair@$$CBHVCECCMonitor@@@std@@@3@$0A@@std@@@std@@QAE?AViterator@12@V312@@Z 00414450 f i mainview.obj
 0001:00013730       ?ConfirmDelete@CEccMainView@@AAEXXZ 00414730 f   mainview.obj
 0001:00013bb0       ?good@WSignal_@@QBE_NXZ    00414bb0 f i mainviewwt.obj
 0001:00013bb0       ?good@WSlot_@@QAE_NXZ      00414bb0 f i mainviewwt.obj
 0001:00013bc0       ?staticCodeChanged@WSignalInstance_@@QBE_NXZ 00414bc0 f i mainviewwt.obj
 0001:00013bd0       ?connectivityChanged@WSignalInstance_@@QBE_NXZ 00414bd0 f i mainviewwt.obj
 0001:00013be0       ?canStatic@WSlot_@@QBE_NXZ 00414be0 f i mainviewwt.obj
 0001:00013be0       ?exposable@WSignal_@@QBE_NXZ 00414be0 f i mainviewwt.obj
 0001:00013bf0       ??0WSignal_@@QAE@ABV0@@Z   00414bf0 f i mainviewwt.obj
 0001:00013bf0       ??0WSlot_@@QAE@ABV0@@Z     00414bf0 f i mainviewwt.obj
 0001:00013c10       ??4WSignal_@@QAEAAV0@ABV0@@Z 00414c10 f i mainviewwt.obj
 0001:00013c10       ??4WSlot_@@QAEAAV0@ABV0@@Z 00414c10 f i mainviewwt.obj
 0001:00013c30       ?staticCodeCollected@WSlotInstance_@@QBE_NXZ 00414c30 f i mainviewwt.obj
 0001:00013c40       ?staticCode@WSlotInstance_@@QBE?BV?$basic_string@DU?$char_traits@D@std@@V?$allocator@D@2@@std@@XZ 00414c40 f i mainviewwt.obj
 0001:00013c40       ?getStaticCode@WSlotInstance_@@QAE?AV?$basic_string@DU?$char_traits@D@std@@V?$allocator@D@2@@std@@XZ 00414c40 f i mainviewwt.obj
 0001:00013c40       ?id@DomElement@@QBE?AV?$basic_string@DU?$char_traits@D@std@@V?$allocator@D@2@@std@@XZ 00414c40 f i libwt:WWebWidget.obj
 0001:00013c40       ?statements@JavaScript@@QBE?BV?$basic_string@DU?$char_traits@D@std@@V?$allocator@D@2@@std@@XZ 00414c40 f i libwt:WWebWidget.obj
 0001:00013c70       ?buildSlotMap@CEccMainView@@MAEXAAV?$map@V?$basic_string@DU?$char_traits@D@std@@V?$allocator@D@2@@std@@PAVWSlotInstance_@@U?$less@V?$basic_string@DU?$char_traits@D@std@@V?$allocator@D@2@@std@@@2@V?$allocator@U?$pair@$$CBV?$basic_string@DU?$char_traits@D@std@@V?$allocator@D@2@@std@@PAVWSlotInstance_@@@std@@@2@@std@@@Z 00414c70 f   mainviewwt.obj
 0001:00013d60       ?triggerSlot@CEccMainView@@MAE_NPAVWObject@@PBVWSlot_@@PAPAX@Z 00414d60 f   mainviewwt.obj
 0001:00013dd0       ?_Xlen@?$vector@PAVWConnection_@@V?$allocator@PAVWConnection_@@@std@@@std@@IBEXXZ 00414dd0 f i mainviewwt.obj
 0001:00013e50       ?_Min@?$_Tree@V?$_Tmap_traits@V?$basic_string@DU?$char_traits@D@std@@V?$allocator@D@2@@std@@KU?$less@V?$basic_string@DU?$char_traits@D@std@@V?$allocator@D@2@@std@@@2@V?$allocator@U?$pair@$$CBV?$basic_string@DU?$char_traits@D@std@@V?$allocator@D@2@@std@@K@std@@@2@$0A@@std@@@std@@KAPAU_Node@?$_Tree_nod@V?$_Tmap_traits@V?$basic_string@DU?$char_traits@D@std@@V?$allocator@D@2@@std@@KU?$less@V?$basic_string@DU?$char_traits@D@std@@V?$allocator@D@2@@std@@@2@V?$allocator@U?$pair@$$CBV?$basic_string@DU?$char_traits@D@std@@V?$allocator@D@2@@std@@K@std@@@2@$0A@@std@@@2@PAU342@@Z 00414e50 f i libboost_regex-vc71-mt-1_33_1:instances.obj
 0001:00013e50       ?_Min@?$_Tree@V?$_Tmap_traits@PAVWLineEdit@@V?$basic_string@DU?$char_traits@D@std@@V?$allocator@D@2@@std@@U?$less@PAVWLineEdit@@@3@V?$allocator@U?$pair@QAVWLineEdit@@V?$basic_string@DU?$char_traits@D@std@@V?$allocator@D@2@@std@@@std@@@3@$0A@@std@@@std@@KAPAU_Node@?$_Tree_nod@V?$_Tmap_traits@PAVWLineEdit@@V?$basic_string@DU?$char_traits@D@std@@V?$allocator@D@2@@std@@U?$less@PAVWLineEdit@@@3@V?$allocator@U?$pair@QAVWLineEdit@@V?$basic_string@DU?$char_traits@D@std@@V?$allocator@D@2@@std@@@std@@@3@$0A@@std@@@2@PAU342@@Z 00414e50 f i sortlist.obj
 0001:00013e50       ?_Min@?$_Tree@V?$_Tmap_traits@V?$basic_string@DU?$char_traits@D@std@@V?$allocator@D@2@@std@@PAVWCssRule@@U?$less@V?$basic_string@DU?$char_traits@D@std@@V?$allocator@D@2@@std@@@2@V?$allocator@U?$pair@$$CBV?$basic_string@DU?$char_traits@D@std@@V?$allocator@D@2@@std@@PAVWCssRule@@@std@@@2@$0A@@std@@@std@@KAPAU_Node@?$_Tree_nod@V?$_Tmap_traits@V?$basic_string@DU?$char_traits@D@std@@V?$allocator@D@2@@std@@PAVWCssRule@@U?$less@V?$basic_string@DU?$char_traits@D@std@@V?$allocator@D@2@@std@@@2@V?$allocator@U?$pair@$$CBV?$basic_string@DU?$char_traits@D@std@@V?$allocator@D@2@@std@@PAVWCssRule@@@std@@@2@$0A@@std@@@2@PAU342@@Z 00414e50 f i main.obj
 0001:00013e50       ?_Min@?$_Tree@V?$_Tmap_traits@V?$basic_string@DU?$char_traits@D@std@@V?$allocator@D@2@@std@@_NU?$less@V?$basic_string@DU?$char_traits@D@std@@V?$allocator@D@2@@std@@@2@V?$allocator@U?$pair@$$CBV?$basic_string@DU?$char_traits@D@std@@V?$allocator@D@2@@std@@_N@std@@@2@$0A@@std@@@std@@KAPAU_Node@?$_Tree_nod@V?$_Tmap_traits@V?$basic_string@DU?$char_traits@D@std@@V?$allocator@D@2@@std@@_NU?$less@V?$basic_string@DU?$char_traits@D@std@@V?$allocator@D@2@@std@@@2@V?$allocator@U?$pair@$$CBV?$basic_string@DU?$char_traits@D@std@@V?$allocator@D@2@@std@@_N@std@@@2@$0A@@std@@@2@PAU342@@Z 00414e50 f i User.obj
 0001:00013e50       ?_Min@?$_Tree@V?$_Tmap_traits@V?$basic_string@DU?$char_traits@D@std@@V?$allocator@D@2@@std@@PAUScopeFunc@@U?$less@V?$basic_string@DU?$char_traits@D@std@@V?$allocator@D@2@@std@@@2@V?$allocator@U?$pair@$$CBV?$basic_string@DU?$char_traits@D@std@@V?$allocator@D@2@@std@@PAUScopeFunc@@@std@@@2@$0A@@std@@@std@@KAPAU_Node@?$_Tree_nod@V?$_Tmap_traits@V?$basic_string@DU?$char_traits@D@std@@V?$allocator@D@2@@std@@PAUScopeFunc@@U?$less@V?$basic_string@DU?$char_traits@D@std@@V?$allocator@D@2@@std@@@2@V?$allocator@U?$pair@$$CBV?$basic_string@DU?$char_traits@D@std@@V?$allocator@D@2@@std@@PAUScopeFunc@@@std@@@2@$0A@@std@@@2@PAU342@@Z 00414e50 f i User.obj
 0001:00013e50       ?_Min@?$_Tree@V?$_Tmap_traits@HV?$basic_string@DU?$char_traits@D@std@@V?$allocator@D@2@@std@@U?$less@H@2@V?$allocator@U?$pair@$$CBHV?$basic_string@DU?$char_traits@D@std@@V?$allocator@D@2@@std@@@std@@@2@$0A@@std@@@std@@KAPAU_Node@?$_Tree_nod@V?$_Tmap_traits@HV?$basic_string@DU?$char_traits@D@std@@V?$allocator@D@2@@std@@U?$less@H@2@V?$allocator@U?$pair@$$CBHV?$basic_string@DU?$char_traits@D@std@@V?$allocator@D@2@@std@@@std@@@2@$0A@@std@@@2@PAU342@@Z 00414e50 f i sortlist.obj
 0001:00013e50       ?_Min@?$_Tree@V?$_Tmap_traits@V?$basic_string@DU?$char_traits@D@std@@V?$allocator@D@2@@std@@PAVWSignalInstance_@@U?$less@V?$basic_string@DU?$char_traits@D@std@@V?$allocator@D@2@@std@@@2@V?$allocator@U?$pair@$$CBV?$basic_string@DU?$char_traits@D@std@@V?$allocator@D@2@@std@@PAVWSignalInstance_@@@std@@@2@$0A@@std@@@std@@KAPAU_Node@?$_Tree_nod@V?$_Tmap_traits@V?$basic_string@DU?$char_traits@D@std@@V?$allocator@D@2@@std@@PAVWSignalInstance_@@U?$less@V?$basic_string@DU?$char_traits@D@std@@V?$allocator@D@2@@std@@@2@V?$allocator@U?$pair@$$CBV?$basic_string@DU?$char_traits@D@std@@V?$allocator@D@2@@std@@PAVWSignalInstance_@@@std@@@2@$0A@@std@@@2@PAU342@@Z 00414e50 f i mainviewwt.obj
 0001:00013e50       ?_Min@?$_Tree@V?$_Tmap_traits@V?$basic_string@DU?$char_traits@D@std@@V?$allocator@D@2@@std@@PAVWCheckBox@@U?$less@V?$basic_string@DU?$char_traits@D@std@@V?$allocator@D@2@@std@@@2@V?$allocator@U?$pair@$$CBV?$basic_string@DU?$char_traits@D@std@@V?$allocator@D@2@@std@@PAVWCheckBox@@@std@@@2@$0A@@std@@@std@@KAPAU_Node@?$_Tree_nod@V?$_Tmap_traits@V?$basic_string@DU?$char_traits@D@std@@V?$allocator@D@2@@std@@PAVWCheckBox@@U?$less@V?$basic_string@DU?$char_traits@D@std@@V?$allocator@D@2@@std@@@2@V?$allocator@U?$pair@$$CBV?$basic_string@DU?$char_traits@D@std@@V?$allocator@D@2@@std@@PAVWCheckBox@@@std@@@2@$0A@@std@@@2@PAU342@@Z 00414e50 f i listtable.obj
 0001:00013e50       ?_Min@?$_Tree@V?$_Tmap_traits@V?$basic_string@DU?$char_traits@D@std@@V?$allocator@D@2@@std@@PAVWSlotInstance_@@U?$less@V?$basic_string@DU?$char_traits@D@std@@V?$allocator@D@2@@std@@@2@V?$allocator@U?$pair@$$CBV?$basic_string@DU?$char_traits@D@std@@V?$allocator@D@2@@std@@PAVWSlotInstance_@@@std@@@2@$0A@@std@@@std@@KAPAU_Node@?$_Tree_nod@V?$_Tmap_traits@V?$basic_string@DU?$char_traits@D@std@@V?$allocator@D@2@@std@@PAVWSlotInstance_@@U?$less@V?$basic_string@DU?$char_traits@D@std@@V?$allocator@D@2@@std@@@2@V?$allocator@U?$pair@$$CBV?$basic_string@DU?$char_traits@D@std@@V?$allocator@D@2@@std@@PAVWSlotInstance_@@@std@@@2@$0A@@std@@@2@PAU342@@Z 00414e50 f i libwt:WWebWidget.obj
 0001:00013e50       ?_Min@?$_Tree@V?$_Tmap_traits@PAVWObject@@V?$basic_string@DU?$char_traits@D@std@@V?$allocator@D@2@@std@@U?$less@PAVWObject@@@3@V?$allocator@U?$pair@QAVWObject@@V?$basic_string@DU?$char_traits@D@std@@V?$allocator@D@2@@std@@@std@@@3@$0A@@std@@@std@@KAPAU_Node@?$_Tree_nod@V?$_Tmap_traits@PAVWObject@@V?$basic_string@DU?$char_traits@D@std@@V?$allocator@D@2@@std@@U?$less@PAVWObject@@@3@V?$allocator@U?$pair@QAVWObject@@V?$basic_string@DU?$char_traits@D@std@@V?$allocator@D@2@@std@@@std@@@3@$0A@@std@@@2@PAU342@@Z 00414e50 f i libwt:WSignalMapper.obj
 0001:00013e50       ?_Min@?$_Tree@V?$_Tmap_traits@W4Property@Wt@@V?$basic_string@DU?$char_traits@D@std@@V?$allocator@D@2@@std@@U?$less@W4Property@Wt@@@4@V?$allocator@U?$pair@$$CBW4Property@Wt@@V?$basic_string@DU?$char_traits@D@std@@V?$allocator@D@2@@std@@@std@@@4@$0A@@std@@@std@@KAPAU_Node@?$_Tree_nod@V?$_Tmap_traits@W4Property@Wt@@V?$basic_string@DU?$char_traits@D@std@@V?$allocator@D@2@@std@@U?$less@W4Property@Wt@@@4@V?$allocator@U?$pair@$$CBW4Property@Wt@@V?$basic_string@DU?$char_traits@D@std@@V?$allocator@D@2@@std@@@std@@@4@$0A@@std@@@2@PAU342@@Z 00414e50 f i libwt:WWebWidget.obj
 0001:00013e70       ?_Dec@const_iterator@?$_Tree@V?$_Tmap_traits@V?$basic_string@DU?$char_traits@D@std@@V?$allocator@D@2@@std@@PAVWSignalInstance_@@U?$less@V?$basic_string@DU?$char_traits@D@std@@V?$allocator@D@2@@std@@@2@V?$allocator@U?$pair@$$CBV?$basic_string@DU?$char_traits@D@std@@V?$allocator@D@2@@std@@PAVWSignalInstance_@@@std@@@2@$0A@@std@@@std@@QAEXXZ 00414e70 f i mainviewwt.obj
 0001:00013e70       ?_Dec@const_iterator@?$_Tree@V?$_Tmap_traits@PAVWLineEdit@@V?$basic_string@DU?$char_traits@D@std@@V?$allocator@D@2@@std@@U?$less@PAVWLineEdit@@@3@V?$allocator@U?$pair@QAVWLineEdit@@V?$basic_string@DU?$char_traits@D@std@@V?$allocator@D@2@@std@@@std@@@3@$0A@@std@@@std@@QAEXXZ 00414e70 f i sortlist.obj
 0001:00013e70       ?_Dec@const_iterator@?$_Tree@V?$_Tmap_traits@PAVWObject@@V?$basic_string@DU?$char_traits@D@std@@V?$allocator@D@2@@std@@U?$less@PAVWObject@@@3@V?$allocator@U?$pair@QAVWObject@@V?$basic_string@DU?$char_traits@D@std@@V?$allocator@D@2@@std@@@std@@@3@$0A@@std@@@std@@QAEXXZ 00414e70 f i libwt:WSignalMapper.obj
 0001:00013e70       ?_Dec@const_iterator@?$_Tree@V?$_Tmap_traits@V?$basic_string@DU?$char_traits@D@std@@V?$allocator@D@2@@std@@_NU?$less@V?$basic_string@DU?$char_traits@D@std@@V?$allocator@D@2@@std@@@2@V?$allocator@U?$pair@$$CBV?$basic_string@DU?$char_traits@D@std@@V?$allocator@D@2@@std@@_N@std@@@2@$0A@@std@@@std@@QAEXXZ 00414e70 f i User.obj
 0001:00013e70       ?_Dec@const_iterator@?$_Tree@V?$_Tmap_traits@HV?$basic_string@DU?$char_traits@D@std@@V?$allocator@D@2@@std@@U?$less@H@2@V?$allocator@U?$pair@$$CBHV?$basic_string@DU?$char_traits@D@std@@V?$allocator@D@2@@std@@@std@@@2@$0A@@std@@@std@@QAEXXZ 00414e70 f i sortlist.obj
 0001:00013e70       ?_Dec@const_iterator@?$_Tree@V?$_Tmap_traits@V?$basic_string@DU?$char_traits@D@std@@V?$allocator@D@2@@std@@KU?$less@V?$basic_string@DU?$char_traits@D@std@@V?$allocator@D@2@@std@@@2@V?$allocator@U?$pair@$$CBV?$basic_string@DU?$char_traits@D@std@@V?$allocator@D@2@@std@@K@std@@@2@$0A@@std@@@std@@QAEXXZ 00414e70 f i libboost_regex-vc71-mt-1_33_1:instances.obj
 0001:00013e70       ?_Dec@const_iterator@?$_Tree@V?$_Tmap_traits@V?$basic_string@DU?$char_traits@D@std@@V?$allocator@D@2@@std@@PAVWCheckBox@@U?$less@V?$basic_string@DU?$char_traits@D@std@@V?$allocator@D@2@@std@@@2@V?$allocator@U?$pair@$$CBV?$basic_string@DU?$char_traits@D@std@@V?$allocator@D@2@@std@@PAVWCheckBox@@@std@@@2@$0A@@std@@@std@@QAEXXZ 00414e70 f i listtable.obj
 0001:00013e70       ?_Dec@const_iterator@?$_Tree@V?$_Tmap_traits@W4Property@Wt@@V?$basic_string@DU?$char_traits@D@std@@V?$allocator@D@2@@std@@U?$less@W4Property@Wt@@@4@V?$allocator@U?$pair@$$CBW4Property@Wt@@V?$basic_string@DU?$char_traits@D@std@@V?$allocator@D@2@@std@@@std@@@4@$0A@@std@@@std@@QAEXXZ 00414e70 f i libwt:DomElement.obj
 0001:00013e70       ?_Dec@const_iterator@?$_Tree@V?$_Tmap_traits@V?$basic_string@DU?$char_traits@D@std@@V?$allocator@D@2@@std@@PAUScopeFunc@@U?$less@V?$basic_string@DU?$char_traits@D@std@@V?$allocator@D@2@@std@@@2@V?$allocator@U?$pair@$$CBV?$basic_string@DU?$char_traits@D@std@@V?$allocator@D@2@@std@@PAUScopeFunc@@@std@@@2@$0A@@std@@@std@@QAEXXZ 00414e70 f i User.obj
 0001:00013e70       ?_Dec@const_iterator@?$_Tree@V?$_Tmap_traits@V?$basic_string@DU?$char_traits@D@std@@V?$allocator@D@2@@std@@PAVWSlotInstance_@@U?$less@V?$basic_string@DU?$char_traits@D@std@@V?$allocator@D@2@@std@@@2@V?$allocator@U?$pair@$$CBV?$basic_string@DU?$char_traits@D@std@@V?$allocator@D@2@@std@@PAVWSlotInstance_@@@std@@@2@$0A@@std@@@std@@QAEXXZ 00414e70 f i libwt:WWebWidget.obj
 0001:00013ed0       ?isConnected@WSignalInstance_@@ABE_NXZ 00414ed0 f i mainviewwt.obj
 0001:00013f00       ?_Buy@?$vector@PAVWConnection_@@V?$allocator@PAVWConnection_@@@std@@@std@@IAE_NI@Z 00414f00 f i mainviewwt.obj
 0001:00013f50       ?_Buynode@?$_Tree@V?$_Tmap_traits@V?$basic_string@DU?$char_traits@D@std@@V?$allocator@D@2@@std@@PAVWSignalInstance_@@U?$less@V?$basic_string@DU?$char_traits@D@std@@V?$allocator@D@2@@std@@@2@V?$allocator@U?$pair@$$CBV?$basic_string@DU?$char_traits@D@std@@V?$allocator@D@2@@std@@PAVWSignalInstance_@@@std@@@2@$0A@@std@@@std@@IAEPAU_Node@?$_Tree_nod@V?$_Tmap_traits@V?$basic_string@DU?$char_traits@D@std@@V?$allocator@D@2@@std@@PAVWSignalInstance_@@U?$less@V?$basic_string@DU?$char_traits@D@std@@V?$allocator@D@2@@std@@@2@V?$allocator@U?$pair@$$CBV?$basic_string@DU?$char_traits@D@std@@V?$allocator@D@2@@std@@PAVWSignalInstance_@@@std@@@2@$0A@@std@@@2@PAU342@00ABU?$pair@$$CBV?$basic_string@DU?$char_traits@D@std@@V?$allocator@D@2@@std@@PAVWSignalInstance_@@@2@D@Z 00414f50 f i mainviewwt.obj
 0001:00013ff0       ??$_Uninit_copy@Vconst_iterator@?$vector@PAVWObject@@V?$allocator@PAVWObject@@@std@@@std@@PAPAVWObject@@V?$allocator@PAVWObject@@@3@@std@@YAPAPAVWObject@@Vconst_iterator@?$vector@PAVWObject@@V?$allocator@PAVWObject@@@std@@@0@0PAPAV1@AAV?$allocator@PAVWObject@@@0@U_Nonscalar_ptr_iterator_tag@0@@Z 00414ff0 f i main.obj
 0001:00013ff0       ??$_Uninit_copy@Vconst_iterator@?$vector@PAVWConnection_@@V?$allocator@PAVWConnection_@@@std@@@std@@PAPAVWConnection_@@V?$allocator@PAVWConnection_@@@3@@std@@YAPAPAVWConnection_@@Vconst_iterator@?$vector@PAVWConnection_@@V?$allocator@PAVWConnection_@@@std@@@0@0PAPAV1@AAV?$allocator@PAVWConnection_@@@0@U_Nonscalar_ptr_iterator_tag@0@@Z 00414ff0 f i mainviewwt.obj
 0001:00013ff0       ??$_Uninit_copy@Vconst_iterator@?$vector@PAVWMessageResources@@V?$allocator@PAVWMessageResources@@@std@@@std@@PAPAVWMessageResources@@V?$allocator@PAVWMessageResources@@@3@@std@@YAPAPAVWMessageResources@@Vconst_iterator@?$vector@PAVWMessageResources@@V?$allocator@PAVWMessageResources@@@std@@@0@0PAPAV1@AAV?$allocator@PAVWMessageResources@@@0@U_Nonscalar_ptr_iterator_tag@0@@Z 00414ff0 f i main.obj
 0001:00014020       ?_Insert@?$_Tree@V?$_Tmap_traits@V?$basic_string@DU?$char_traits@D@std@@V?$allocator@D@2@@std@@PAVWSignalInstance_@@U?$less@V?$basic_string@DU?$char_traits@D@std@@V?$allocator@D@2@@std@@@2@V?$allocator@U?$pair@$$CBV?$basic_string@DU?$char_traits@D@std@@V?$allocator@D@2@@std@@PAVWSignalInstance_@@@std@@@2@$0A@@std@@@std@@IAE?AViterator@12@_NPAU_Node@?$_Tree_nod@V?$_Tmap_traits@V?$basic_string@DU?$char_traits@D@std@@V?$allocator@D@2@@std@@PAVWSignalInstance_@@U?$less@V?$basic_string@DU?$char_traits@D@std@@V?$allocator@D@2@@std@@@2@V?$allocator@U?$pair@$$CBV?$basic_string@DU?$char_traits@D@std@@V?$allocator@D@2@@std@@PAVWSignalInstance_@@@std@@@2@$0A@@std@@@2@ABU?$pair@$$CBV?$basic_string@DU?$char_traits@D@std@@V?$allocator@D@2@@std@@PAVWSignalInstance_@@@2@@Z 00415020 f i mainviewwt.obj
 0001:000141e0       ??4?$vector@PAVWConnection_@@V?$allocator@PAVWConnection_@@@std@@@std@@QAEAAV01@ABV01@@Z 004151e0 f i mainviewwt.obj
 0001:00014330       ?insert@?$_Tree@V?$_Tmap_traits@V?$basic_string@DU?$char_traits@D@std@@V?$allocator@D@2@@std@@PAVWSignalInstance_@@U?$less@V?$basic_string@DU?$char_traits@D@std@@V?$allocator@D@2@@std@@@2@V?$allocator@U?$pair@$$CBV?$basic_string@DU?$char_traits@D@std@@V?$allocator@D@2@@std@@PAVWSignalInstance_@@@std@@@2@$0A@@std@@@std@@QAE?AU?$pair@Viterator@?$_Tree@V?$_Tmap_traits@V?$basic_string@DU?$char_traits@D@std@@V?$allocator@D@2@@std@@PAVWSignalInstance_@@U?$less@V?$basic_string@DU?$char_traits@D@std@@V?$allocator@D@2@@std@@@2@V?$allocator@U?$pair@$$CBV?$basic_string@DU?$char_traits@D@std@@V?$allocator@D@2@@std@@PAVWSignalInstance_@@@std@@@2@$0A@@std@@@std@@_N@2@ABU?$pair@$$CBV?$basic_string@DU?$char_traits@D@std@@V?$allocator@D@2@@std@@PAVWSignalInstance_@@@2@@Z 00415330 f i mainviewwt.obj
 0001:00014410       ??4WSignalInstance_@@QAEAAV0@ABV0@@Z 00415410 f i mainviewwt.obj
 0001:00014460       ??4WSlotInstance_@@QAEAAV0@ABV0@@Z 00415460 f i mainviewwt.obj
 0001:000144a0       ??0?$vector@PAVWConnection_@@V?$allocator@PAVWConnection_@@@std@@@std@@QAE@ABV01@@Z 004154a0 f i mainviewwt.obj
 0001:00014560       ?insert@?$_Tree@V?$_Tmap_traits@V?$basic_string@DU?$char_traits@D@std@@V?$allocator@D@2@@std@@PAVWSignalInstance_@@U?$less@V?$basic_string@DU?$char_traits@D@std@@V?$allocator@D@2@@std@@@2@V?$allocator@U?$pair@$$CBV?$basic_string@DU?$char_traits@D@std@@V?$allocator@D@2@@std@@PAVWSignalInstance_@@@std@@@2@$0A@@std@@@std@@QAE?AViterator@12@V312@ABU?$pair@$$CBV?$basic_string@DU?$char_traits@D@std@@V?$allocator@D@2@@std@@PAVWSignalInstance_@@@2@@Z 00415560 f i mainviewwt.obj
 0001:00014720       ??0WSignalInstance_@@QAE@ABV0@@Z 00415720 f i mainviewwt.obj
 0001:000147a0       ??0WSlotInstance_@@QAE@ABV0@@Z 004157a0 f i mainviewwt.obj
 0001:00014810       ??A?$map@V?$basic_string@DU?$char_traits@D@std@@V?$allocator@D@2@@std@@PAVWSignalInstance_@@U?$less@V?$basic_string@DU?$char_traits@D@std@@V?$allocator@D@2@@std@@@2@V?$allocator@U?$pair@$$CBV?$basic_string@DU?$char_traits@D@std@@V?$allocator@D@2@@std@@PAVWSignalInstance_@@@std@@@2@@std@@QAEAAPAVWSignalInstance_@@ABV?$basic_string@DU?$char_traits@D@std@@V?$allocator@D@2@@1@@Z 00415810 f i mainviewwt.obj
 0001:000148b0       ?buildSignalMap@CEccMainView@@MAEXAAV?$map@V?$basic_string@DU?$char_traits@D@std@@V?$allocator@D@2@@std@@PAVWSignalInstance_@@U?$less@V?$basic_string@DU?$char_traits@D@std@@V?$allocator@D@2@@std@@@2@V?$allocator@U?$pair@$$CBV?$basic_string@DU?$char_traits@D@std@@V?$allocator@D@2@@std@@PAVWSignalInstance_@@@std@@@2@@std@@@Z 004158b0 f   mainviewwt.obj
 0001:00014970       ??0sv_pair@@QAE@XZ         00415970 f i advanceparam.obj
 0001:000149c0       ?text@WLineEdit@@QBE?BV?$basic_string@DU?$char_traits@D@std@@V?$allocator@D@2@@std@@XZ 004159c0 f i mainview.obj
 0001:000149c0       ?text@WTextArea@@QBE?BV?$basic_string@DU?$char_traits@D@std@@V?$allocator@D@2@@std@@XZ 004159c0 f i advanceparam.obj
 0001:000149f0       ?widget@WScrollArea@@QBEPAVWWidget@@XZ 004159f0 f i advanceparam.obj
 0001:000149f0       ?data@WInteractWidget@@QAEPAXXZ 004159f0 f i main.obj
 0001:00014a00       ?horizontalScrollBar@WScrollArea@@QBEPAVWScrollBar@@XZ 00415a00 f i advanceparam.obj
 0001:00014a10       ?verticalScrollBar@WScrollArea@@QBEPAVWScrollBar@@XZ 00415a10 f i advanceparam.obj
 0001:00014a20       ??_FWScrollArea@@QAEXXZ    00415a20 f i advanceparam.obj
 0001:00014a30       ?isChecked@WAbstractToggleButton@@QBE_NXZ 00415a30 f i advanceparam.obj
 0001:00014a40       ??_FWAbstractToggleButton@@QAEXXZ 00415a40 f i advanceparam.obj
 0001:00014a50       ??1WCheckBox@@UAE@XZ       00415a50 f i listtable.obj
 0001:00014a50       ??1WRadioButton@@UAE@XZ    00415a50 f i advanceparam.obj
 0001:00014a50       ??1WAbstractToggleButton@@UAE@XZ 00415a50 f i advanceparam.obj
 0001:00014a60       ??_FWRadioButton@@QAEXXZ   00415a60 f i advanceparam.obj
 0001:00014a70       ?createTitle@CEccAdvanceTable@@AAEXXZ 00415a70 f   advanceparam.obj
 0001:00014c80       ?ShowHideSub@CEccAdvanceTable@@AAEXXZ 00415c80 f   advanceparam.obj
 0001:00014d10       ?createSubTable@CEccAdvanceTable@@AAEXPAVWTable@@@Z 00415d10 f   advanceparam.obj
 0001:00014e90       ?createHide@CEccAdvanceTable@@AAEXXZ 00415e90 f   advanceparam.obj
 0001:00014fb0       ?getConditon@CEccAdvanceTable@@QAE?AV?$basic_string@DU?$char_traits@D@std@@V?$allocator@D@2@@std@@XZ 00415fb0 f   advanceparam.obj
 0001:00015090       ?getDepends@CEccAdvanceTable@@QAE?AV?$basic_string@DU?$char_traits@D@std@@V?$allocator@D@2@@std@@XZ 00416090 f   advanceparam.obj
 0001:00015180       ?getDescription@CEccAdvanceTable@@QAE?AV?$basic_string@DU?$char_traits@D@std@@V?$allocator@D@2@@std@@XZ 00416180 f   advanceparam.obj
 0001:00015240       ?setCondition@CEccAdvanceTable@@QAEXABV?$basic_string@DU?$char_traits@D@std@@V?$allocator@D@2@@std@@@Z 00416240 f   advanceparam.obj
 0001:000152d0       ?setDescription@CEccAdvanceTable@@QAEXABV?$basic_string@DU?$char_traits@D@std@@V?$allocator@D@2@@std@@@Z 004162d0 f   advanceparam.obj
 0001:00015310       ?ResetData@CEccAdvanceTable@@QAEXXZ 00416310 f   advanceparam.obj
 0001:000153e0       ?setSEID@CEccAdvanceTable@@QAEXABV?$basic_string@DU?$char_traits@D@std@@V?$allocator@D@2@@std@@@Z 004163e0 f   advanceparam.obj
 0001:000153f0       ?SaveAdvanceParam@CEccAdvanceTable@@QAE_NAAPAX@Z 004163f0 f   advanceparam.obj
 0001:00015640       ?isDependsChanged@CEccAdvanceTable@@QAE_NXZ 00416640 f   advanceparam.obj
 0001:00015720       ?_Xlen@?$vector@PAVWRadioButton@@V?$allocator@PAVWRadioButton@@@std@@@std@@IBEXXZ 00416720 f i advanceparam.obj
 0001:000157a0       ?showDepend@CEccAdvanceTable@@AAEXXZ 004167a0 f   advanceparam.obj
 0001:000159c0       ??$copy@PAPAVWTableRow@@PAPAV1@@std@@YAPAPAVWTableRow@@PAPAV1@00@Z 004169c0 f i main.obj
 0001:000159c0       ??$copy@PAPAVWConnection_@@PAPAV1@@std@@YAPAPAVWConnection_@@PAPAV1@00@Z 004169c0 f i mainviewwt.obj
 0001:000159c0       ??$copy@PAPAVWScrollBar@@PAPAV1@@std@@YAPAPAVWScrollBar@@PAPAV1@00@Z 004169c0 f i libwt:WScrollArea.obj
 0001:000159c0       ??$copy@PAPAVDomElement@@PAPAV1@@std@@YAPAPAVDomElement@@PAPAV1@00@Z 004169c0 f i main.obj
 0001:000159c0       ??$copy@PAPAVWObject@@PAPAV1@@std@@YAPAPAVWObject@@PAPAV1@00@Z 004169c0 f i main.obj
 0001:000159c0       ??$copy@PAPAVWRadioButton@@PAPAV1@@std@@YAPAPAVWRadioButton@@PAPAV1@00@Z 004169c0 f i advanceparam.obj
 0001:000159c0       ??$copy@PAPAVWMessageResources@@PAPAV1@@std@@YAPAPAVWMessageResources@@PAPAV1@00@Z 004169c0 f i main.obj
 0001:000159c0       ??$copy@PAPAVWWidget@@PAPAV1@@std@@YAPAPAVWWidget@@PAPAV1@00@Z 004169c0 f i main.obj
 0001:000159f0       ?_Buy@?$vector@PAVWRadioButton@@V?$allocator@PAVWRadioButton@@@std@@@std@@IAE_NI@Z 004169f0 f i advanceparam.obj
 0001:00015a40       ?_Incsize@?$list@PAVWText@@V?$allocator@PAVWText@@@std@@@std@@IAEXI@Z 00416a40 f i advanceparam.obj
 0001:00015ae0       ??$_Ucopy@PAPAVWMessageResources@@@?$vector@PAVWMessageResources@@V?$allocator@PAVWMessageResources@@@std@@@std@@IAEPAPAVWMessageResources@@PAPAV2@00@Z 00416ae0 f i main.obj
 0001:00015ae0       ??$_Ucopy@PAJ@?$vector@JV?$allocator@J@std@@@std@@IAEPAJPAJ00@Z 00416ae0 f i libboost_regex-vc71-mt-1_33_1:instances.obj
 0001:00015ae0       ??$_Ucopy@PAPAVDomElement@@@?$vector@PAVDomElement@@V?$allocator@PAVDomElement@@@std@@@std@@IAEPAPAVDomElement@@PAPAV2@00@Z 00416ae0 f i main.obj
 0001:00015ae0       ??$_Ucopy@PAPAVWWidget@@@?$vector@PAVWWidget@@V?$allocator@PAVWWidget@@@std@@@std@@IAEPAPAVWWidget@@PAPAV2@00@Z 00416ae0 f i main.obj
 0001:00015ae0       ??$_Ucopy@PAPAVWScrollBar@@@?$vector@PAVWScrollBar@@V?$allocator@PAVWScrollBar@@@std@@@std@@IAEPAPAVWScrollBar@@PAPAV2@00@Z 00416ae0 f i libwt:WScrollArea.obj
 0001:00015ae0       ??$_Ucopy@PAPAVWTableRow@@@?$vector@PAVWTableRow@@V?$allocator@PAVWTableRow@@@std@@@std@@IAEPAPAVWTableRow@@PAPAV2@00@Z 00416ae0 f i main.obj
 0001:00015ae0       ??$_Ucopy@PAPAVWRadioButton@@@?$vector@PAVWRadioButton@@V?$allocator@PAVWRadioButton@@@std@@@std@@IAEPAPAVWRadioButton@@PAPAV2@00@Z 00416ae0 f i advanceparam.obj
 0001:00015ae0       ??$_Ucopy@PAPAVWConnection_@@@?$vector@PAVWConnection_@@V?$allocator@PAVWConnection_@@@std@@@std@@IAEPAPAVWConnection_@@PAPAV2@00@Z 00416ae0 f i mainviewwt.obj
 0001:00015ae0       ??$_Ucopy@PAPAVWObject@@@?$vector@PAVWObject@@V?$allocator@PAVWObject@@@std@@@std@@IAEPAPAVWObject@@PAPAV2@00@Z 00416ae0 f i main.obj
 0001:00015b10       ?ShowHideHelp@CEccAdvanceTable@@QAEX_N@Z 00416b10 f   advanceparam.obj
 0001:00015b50       ?push_back@?$list@PAVWText@@V?$allocator@PAVWText@@@std@@@std@@QAEXABQAVWText@@@Z 00416b50 f i advanceparam.obj
 0001:00015b90       ??4?$vector@PAVWRadioButton@@V?$allocator@PAVWRadioButton@@@std@@@std@@QAEAAV01@ABV01@@Z 00416b90 f i advanceparam.obj
 0001:00015ce0       ??4WScrollArea@@QAEAAV0@ABV0@@Z 00416ce0 f i advanceparam.obj
 0001:00015d50       ??4WButtonGroup@@QAEAAV0@ABV0@@Z 00416d50 f i advanceparam.obj
 0001:00015d90       ??4WAbstractToggleButton@@QAEAAV0@ABV0@@Z 00416d90 f i advanceparam.obj
 0001:00015e00       ??4WRadioButton@@QAEAAV0@ABV0@@Z 00416e00 f i advanceparam.obj
 0001:00015e30       ?createCondition@CEccAdvanceTable@@AAEXXZ 00416e30 f   advanceparam.obj
 0001:000161a0       ?createDescription@CEccAdvanceTable@@AAEXXZ 004171a0 f   advanceparam.obj
 0001:00016420       ?createDepends@CEccAdvanceTable@@AAEXXZ 00417420 f   advanceparam.obj
 0001:000167a0       ?pop_front@?$list@Usv_pair@@V?$allocator@Usv_pair@@@std@@@std@@QAEXXZ 004177a0 f i advanceparam.obj
 0001:000167e0       ?initForm@CEccAdvanceTable@@AAEXXZ 004177e0 f   advanceparam.obj
 0001:00016bc0       ?setDepends@CEccAdvanceTable@@QAEXABV?$basic_string@DU?$char_traits@D@std@@V?$allocator@D@2@@std@@@Z 00417bc0 f   advanceparam.obj
 0001:00016e20       ?changePath@CEccAdvanceTable@@AAEXXZ 00417e20 f   advanceparam.obj
 0001:000171a0       ??0CEccAdvanceTable@@QAE@PAVWContainerWidget@@@Z 004181a0 f   advanceparam.obj
 0001:00017260       ??_GCEccAdvanceTable@@UAEPAXI@Z 00418260 f i advanceparam.obj
 0001:00017260       ??_ECEccAdvanceTable@@UAEPAXI@Z 00418260 f i advanceparam.obj
 0001:00017280       ??1CEccAdvanceTable@@UAE@XZ 00418280 f i advanceparam.obj
 0001:00017310       ?buildSlotMap@CEccAdvanceTable@@MAEXAAV?$map@V?$basic_string@DU?$char_traits@D@std@@V?$allocator@D@2@@std@@PAVWSlotInstance_@@U?$less@V?$basic_string@DU?$char_traits@D@std@@V?$allocator@D@2@@std@@@2@V?$allocator@U?$pair@$$CBV?$basic_string@DU?$char_traits@D@std@@V?$allocator@D@2@@std@@PAVWSlotInstance_@@@std@@@2@@std@@@Z 00418310 f   advanceparamwt.obj
 0001:00017400       ?triggerSlot@CEccAdvanceTable@@MAE_NPAVWObject@@PBVWSlot_@@PAPAX@Z 00418400 f   advanceparamwt.obj
 0001:00017460       ?buildSignalMap@CEccAdvanceTable@@MAEXAAV?$map@V?$basic_string@DU?$char_traits@D@std@@V?$allocator@D@2@@std@@PAVWSignalInstance_@@U?$less@V?$basic_string@DU?$char_traits@D@std@@V?$allocator@D@2@@std@@@2@V?$allocator@U?$pair@$$CBV?$basic_string@DU?$char_traits@D@std@@V?$allocator@D@2@@std@@PAVWSignalInstance_@@@std@@@2@@std@@@Z 00418460 f   advanceparamwt.obj
 0001:00017520       ?getLabel@SVReturnItem@@QAE?BV?$basic_string@DU?$char_traits@D@std@@V?$allocator@D@2@@std@@XZ 00418520 f i conditionparam.obj
 0001:00017520       ?title@WApplication@@QBE?AV?$basic_string@DU?$char_traits@D@std@@V?$allocator@D@2@@std@@XZ 00418520 f i main.obj
 0001:00017550       ?createButtonGroup@SVConditionParam@@AAEXXZ 00418550 f   conditionparam.obj
 0001:00017750       ?createHideButton@SVConditionParam@@AAEXXZ 00418750 f   conditionparam.obj
 0001:00017840       ?createShowButton@SVConditionParam@@AAEXH@Z 00418840 f   conditionparam.obj
 0001:00017900       ?EnumParam@SVConditionParam@@AAEXAAPAX@Z 00418900 f   conditionparam.obj
 0001:00017ae0       ?showAddCondition@SVConditionParam@@AAEXXZ 00418ae0 f   conditionparam.obj
 0001:00017b00       ?hideAddCondition@SVConditionParam@@AAEXXZ 00418b00 f   conditionparam.obj
 0001:00017b20       ?showHelp@SVConditionParam@@QAEX_N@Z 00418b20 f   conditionparam.obj
 0001:00017b50       ?createHelp@SVConditionParam@@AAEXH@Z 00418b50 f   conditionparam.obj
 0001:00017ce0       ?_Buynode@?$list@PAVSVReturnItem@@V?$allocator@PAVSVReturnItem@@@std@@@std@@IAEPAU_Node@?$_List_nod@PAVSVReturnItem@@V?$allocator@PAVSVReturnItem@@@std@@@2@PAU342@0ABQAVSVReturnItem@@@Z 00418ce0 f i conditionparam.obj
 0001:00017ce0       ?_Buynode@?$list@PAVWCheckBox@@V?$allocator@PAVWCheckBox@@@std@@@std@@IAEPAU_Node@?$_List_nod@PAVWCheckBox@@V?$allocator@PAVWCheckBox@@@std@@@2@PAU342@0ABQAVWCheckBox@@@Z 00418ce0 f i adddevice3rd.obj
 0001:00017ce0       ?_Buynode@?$list@HV?$allocator@H@std@@@std@@IAEPAU_Node@?$_List_nod@HV?$allocator@H@std@@@2@PAU342@0ABH@Z 00418ce0 f i groupview.obj
 0001:00017ce0       ?_Buynode@?$list@PAVCEccParamItem@@V?$allocator@PAVCEccParamItem@@@std@@@std@@IAEPAU_Node@?$_List_nod@PAVCEccParamItem@@V?$allocator@PAVCEccParamItem@@@std@@@2@PAU342@0ABQAVCEccParamItem@@@Z 00418ce0 f i adddevice2nd.obj
 0001:00017ce0       ?_Buynode@?$list@PAVWText@@V?$allocator@PAVWText@@@std@@@std@@IAEPAU_Node@?$_List_nod@PAVWText@@V?$allocator@PAVWText@@@std@@@2@PAU342@0ABQAVWText@@@Z 00418ce0 f i advanceparam.obj
 0001:00017d10       ?_Incsize@?$list@PAVSVReturnItem@@V?$allocator@PAVSVReturnItem@@@std@@@std@@IAEXI@Z 00418d10 f i conditionparam.obj
 0001:00017db0       ?createAddButton@SVConditionParam@@AAEXH@Z 00418db0 f   conditionparam.obj
 0001:000181e0       ?createCondition@SVConditionParam@@AAEXXZ 004191e0 f   conditionparam.obj
 0001:000184f0       ?checkParamValue@SVConditionParam@@AAE_NAAV?$basic_string@DU?$char_traits@D@std@@V?$allocator@D@2@@std@@0@Z 004194f0 f   conditionparam.obj
 0001:000186e0       ?getParamLabel@SVConditionParam@@AAEXAAV?$basic_string@DU?$char_traits@D@std@@V?$allocator@D@2@@std@@@Z 004196e0 f   conditionparam.obj
 0001:000187c0       ?setDefaultValue@SVConditionParam@@QAEXXZ 004197c0 f   conditionparam.obj
 0001:000188e0       ?SetCondition@SVConditionParam@@QAEXAAPAX@Z 004198e0 f   conditionparam.obj
 0001:00019010       ?SetMapNode@SVConditionParam@@QAEXAAPAX@Z 0041a010 f   conditionparam.obj
 0001:00019040       ?addCondition@SVConditionParam@@AAEXXZ 0041a040 f   conditionparam.obj
 0001:00019500       ?erase@?$list@V?$basic_string@DU?$char_traits@D@std@@V?$allocator@D@2@@std@@V?$allocator@V?$basic_string@DU?$char_traits@D@std@@V?$allocator@D@2@@std@@@2@@std@@QAE?AViterator@12@V312@@Z 0041a500 f i conditionparam.obj
 0001:00019550       ??$_Insert@Vconst_iterator@?$list@V?$basic_string@DU?$char_traits@D@std@@V?$allocator@D@2@@std@@V?$allocator@V?$basic_string@DU?$char_traits@D@std@@V?$allocator@D@2@@std@@@2@@std@@@?$list@V?$basic_string@DU?$char_traits@D@std@@V?$allocator@D@2@@std@@V?$allocator@V?$basic_string@DU?$char_traits@D@std@@V?$allocator@D@2@@std@@@2@@std@@QAEXViterator@01@Vconst_iterator@01@1Uforward_iterator_tag@1@@Z 0041a550 f i conditionparam.obj
 0001:00019600       ?SetReturnList@SVConditionParam@@QAEXAAV?$list@PAVSVReturnItem@@V?$allocator@PAVSVReturnItem@@@std@@@std@@@Z 0041a600 f   conditionparam.obj
 0001:00019660       ?loadCondition@SVConditionParam@@AAEXXZ 0041a660 f   conditionparam.obj
 0001:00019900       ?pop_front@?$list@V?$basic_string@DU?$char_traits@D@std@@V?$allocator@D@2@@std@@V?$allocator@V?$basic_string@DU?$char_traits@D@std@@V?$allocator@D@2@@std@@@2@@std@@QAEXXZ 0041a900 f i conditionparam.obj
 0001:00019940       ??0?$list@V?$basic_string@DU?$char_traits@D@std@@V?$allocator@D@2@@std@@V?$allocator@V?$basic_string@DU?$char_traits@D@std@@V?$allocator@D@2@@std@@@2@@std@@QAE@ABV01@@Z 0041a940 f i conditionparam.obj
 0001:000199c0       ??0SVConditionParam@@QAE@PAVWContainerWidget@@H@Z 0041a9c0 f   conditionparam.obj
 0001:00019b10       ?checkCondition@SVConditionParam@@QAE_NAAPAX@Z 0041ab10 f   conditionparam.obj
 0001:0001a380       ?SaveCondition@SVConditionParam@@QAE_NAAPAX@Z 0041b380 f   conditionparam.obj
 0001:0001b0a0       ??_GSVConditionParam@@UAEPAXI@Z 0041c0a0 f i conditionparam.obj
 0001:0001b0a0       ??_ESVConditionParam@@UAEPAXI@Z 0041c0a0 f i conditionparam.obj
 0001:0001b0c0       ??1SVConditionParam@@UAE@XZ 0041c0c0 f i conditionparam.obj
 0001:0001b1b0       ?buildSlotMap@SVConditionParam@@MAEXAAV?$map@V?$basic_string@DU?$char_traits@D@std@@V?$allocator@D@2@@std@@PAVWSlotInstance_@@U?$less@V?$basic_string@DU?$char_traits@D@std@@V?$allocator@D@2@@std@@@2@V?$allocator@U?$pair@$$CBV?$basic_string@DU?$char_traits@D@std@@V?$allocator@D@2@@std@@PAVWSlotInstance_@@@std@@@2@@std@@@Z 0041c1b0 f   conditionparamwt.obj
 0001:0001b2a0       ?triggerSlot@SVConditionParam@@MAE_NPAVWObject@@PBVWSlot_@@PAPAX@Z 0041c2a0 f   conditionparamwt.obj
 0001:0001b300       ?buildSignalMap@SVConditionParam@@MAEXAAV?$map@V?$basic_string@DU?$char_traits@D@std@@V?$allocator@D@2@@std@@PAVWSignalInstance_@@U?$less@V?$basic_string@DU?$char_traits@D@std@@V?$allocator@D@2@@std@@@2@V?$allocator@U?$pair@$$CBV?$basic_string@DU?$char_traits@D@std@@V?$allocator@D@2@@std@@PAVWSignalInstance_@@@std@@@2@@std@@@Z 0041c300 f   conditionparamwt.obj
 0001:0001b3c0       ?createTitle@CEccBaseTable@@AAEX_N@Z 0041c3c0 f   ecctable.obj
 0001:0001b5c0       ?createOperate@CEccBaseTable@@AAEXXZ 0041c5c0 f   ecctable.obj
 0001:0001b690       ?createContent@CEccBaseTable@@AAEXXZ 0041c690 f   ecctable.obj
 0001:0001b800       ?setTitle@CEccBaseTable@@QAEXV?$basic_string@DU?$char_traits@D@std@@V?$allocator@D@2@@std@@@Z 0041c800 f   ecctable.obj
 0001:0001b870       ?setContentCellStyle@CEccBaseTable@@AAEXV?$basic_string@DU?$char_traits@D@std@@V?$allocator@D@2@@std@@@Z 0041c870 f   ecctable.obj
 0001:0001b8f0       ?initForm@CEccBaseTable@@EAEX_N@Z 0041c8f0 f   ecctable.obj
 0001:0001b910       ??0CEccBaseTable@@QAE@PAVWContainerWidget@@@Z 0041c910 f   ecctable.obj
 0001:0001b990       ??_GCEccBaseTable@@UAEPAXI@Z 0041c990 f i ecctable.obj
 0001:0001b990       ??_ECEccBaseTable@@UAEPAXI@Z 0041c990 f i ecctable.obj
 0001:0001b9b0       ??1CEccBaseTable@@UAE@XZ   0041c9b0 f i ecctable.obj
 0001:0001b9e0       ?buildSlotMap@CEccBaseTable@@MAEXAAV?$map@V?$basic_string@DU?$char_traits@D@std@@V?$allocator@D@2@@std@@PAVWSlotInstance_@@U?$less@V?$basic_string@DU?$char_traits@D@std@@V?$allocator@D@2@@std@@@2@V?$allocator@U?$pair@$$CBV?$basic_string@DU?$char_traits@D@std@@V?$allocator@D@2@@std@@PAVWSlotInstance_@@@std@@@2@@std@@@Z 0041c9e0 f   ecctablewt.obj
 0001:0001bad0       ?triggerSlot@CEccBaseTable@@MAE_NPAVWObject@@PBVWSlot_@@PAPAX@Z 0041cad0 f   ecctablewt.obj
 0001:0001bb00       ?buildSignalMap@CEccBaseTable@@MAEXAAV?$map@V?$basic_string@DU?$char_traits@D@std@@V?$allocator@D@2@@std@@PAVWSignalInstance_@@U?$less@V?$basic_string@DU?$char_traits@D@std@@V?$allocator@D@2@@std@@@2@V?$allocator@U?$pair@$$CBV?$basic_string@DU?$char_traits@D@std@@V?$allocator@D@2@@std@@PAVWSignalInstance_@@@std@@@2@@std@@@Z 0041cb00 f   ecctablewt.obj
 0001:0001bbc0       ?Format@TTime@chen@@QBE?AV?$basic_string@DU?$char_traits@D@std@@V?$allocator@D@2@@std@@XZ 0041cbc0 f i gentitle.obj
 0001:0001bc50       ?setTitle@CEccGenTitle@@QAEXABV?$basic_string@DU?$char_traits@D@std@@V?$allocator@D@2@@std@@@Z 0041cc50 f   gentitle.obj
 0001:0001bd20       ?initForm@CEccGenTitle@@AAEXXZ 0041cd20 f   gentitle.obj
 0001:0001bf20       ?refreshTime@CEccGenTitle@@QAEXXZ 0041cf20 f   gentitle.obj
 0001:0001bfd0       ??0CEccGenTitle@@QAE@PAVWContainerWidget@@@Z 0041cfd0 f   gentitle.obj
 0001:0001c040       ?setCurIndex@CEccGenTitle@@QAEXABV?$basic_string@DU?$char_traits@D@std@@V?$allocator@D@2@@std@@@Z 0041d040 f   gentitle.obj
 0001:0001c410       ?buildSlotMap@CEccGenTitle@@MAEXAAV?$map@V?$basic_string@DU?$char_traits@D@std@@V?$allocator@D@2@@std@@PAVWSlotInstance_@@U?$less@V?$basic_string@DU?$char_traits@D@std@@V?$allocator@D@2@@std@@@2@V?$allocator@U?$pair@$$CBV?$basic_string@DU?$char_traits@D@std@@V?$allocator@D@2@@std@@PAVWSlotInstance_@@@std@@@2@@std@@@Z 0041d410 f   gentitlewt.obj
 0001:0001c500       ?buildSignalMap@CEccGenTitle@@MAEXAAV?$map@V?$basic_string@DU?$char_traits@D@std@@V?$allocator@D@2@@std@@PAVWSignalInstance_@@U?$less@V?$basic_string@DU?$char_traits@D@std@@V?$allocator@D@2@@std@@@2@V?$allocator@U?$pair@$$CBV?$basic_string@DU?$char_traits@D@std@@V?$allocator@D@2@@std@@PAVWSignalInstance_@@@std@@@2@@std@@@Z 0041d500 f   gentitlewt.obj
 0001:0001c5c0       ??_FWCheckBox@@QAEXXZ      0041d5c0 f i listtable.obj
 0001:0001c850       ?setTitle@CEccListTable@@QAEXV?$basic_string@DU?$char_traits@D@std@@V?$allocator@D@2@@std@@@Z 0041d850 f   listtable.obj
 0001:0001c8c0       ?createOpaerate@CEccListTable@@AAEXPAVWTable@@@Z 0041d8c0 f   listtable.obj
 0001:0001cd40       ?createSubTable@CEccListTable@@AAEXPAVWTable@@_N@Z 0041dd40 f   listtable.obj
 0001:0001ce90       ?createTitle@CEccListTable@@AAEX_N@Z 0041de90 f   listtable.obj
 0001:0001d150       ?getListTable@CEccListTable@@QAEPAVWTable@@XZ 0041e150 f   listtable.obj
 0001:0001d160       ?ShowHideSub@CEccListTable@@AAEXXZ 0041e160 f   listtable.obj
 0001:0001d2d0       ?hideNoChild@CEccListTable@@QAEXXZ 0041e2d0 f   listtable.obj
 0001:0001d2f0       ?setAddNewTitle@CEccListTable@@QAEXV?$basic_string@DU?$char_traits@D@std@@V?$allocator@D@2@@std@@@Z 0041e2f0 f   listtable.obj
 0001:0001d370       ?setAddNewTip@CEccListTable@@QAEXV?$basic_string@DU?$char_traits@D@std@@V?$allocator@D@2@@std@@@Z 0041e370 f   listtable.obj
 0001:0001d3f0       ?AddNew@CEccListTable@@AAEXXZ 0041e3f0 f   listtable.obj
 0001:0001d440       ?setAddNewFunc@CEccListTable@@QAEXP6AXV?$basic_string@DU?$char_traits@D@std@@V?$allocator@D@2@@std@@@Z@Z 0041e440 f   listtable.obj
 0001:0001d460       ?setCurrentID@CEccListTable@@QAEXV?$basic_string@DU?$char_traits@D@std@@V?$allocator@D@2@@std@@@Z 0041e460 f   listtable.obj
 0001:0001d4b0       ?showSubTable@CEccListTable@@QAEXXZ 0041e4b0 f   listtable.obj
 0001:0001d500       ?hideSubTable@CEccListTable@@QAEXXZ 0041e500 f   listtable.obj
 0001:0001d550       ?Sort@CEccListTable@@AAEXXZ 0041e550 f   listtable.obj
 0001:0001d5f0       ?createHideConfirm@CEccListTable@@AAEXPAVWTable@@@Z 0041e5f0 f   listtable.obj
 0001:0001d6b0       ?_Rrotate@?$_Tree@V?$_Tmap_traits@PAVWObject@@HU?$less@PAVWObject@@@std@@V?$allocator@U?$pair@QAVWObject@@H@std@@@3@$0A@@std@@@std@@IAEXPAU_Node@?$_Tree_nod@V?$_Tmap_traits@PAVWObject@@HU?$less@PAVWObject@@@std@@V?$allocator@U?$pair@QAVWObject@@H@std@@@3@$0A@@std@@@2@@Z 0041e6b0 f i libwt:WSignalMapper.obj
 0001:0001d6b0       ?_Rrotate@?$_Tree@V?$_Tmap_traits@HPAVWLineEdit@@U?$less@H@std@@V?$allocator@U?$pair@$$CBHPAVWLineEdit@@@std@@@3@$0A@@std@@@std@@IAEXPAU_Node@?$_Tree_nod@V?$_Tmap_traits@HPAVWLineEdit@@U?$less@H@std@@V?$allocator@U?$pair@$$CBHPAVWLineEdit@@@std@@@3@$0A@@std@@@2@@Z 0041e6b0 f i sortlist.obj
 0001:0001d6b0       ?_Rrotate@?$_Tree@V?$_Tmap_traits@HPAVCEccButton@@U?$less@H@std@@V?$allocator@U?$pair@$$CBHPAVCEccButton@@@std@@@3@$0A@@std@@@std@@IAEXPAU_Node@?$_Tree_nod@V?$_Tmap_traits@HPAVCEccButton@@U?$less@H@std@@V?$allocator@U?$pair@$$CBHPAVCEccButton@@@std@@@3@$0A@@std@@@2@@Z 0041e6b0 f i listtable.obj
 0001:0001d6b0       ?_Rrotate@?$_Tree@V?$_Tmap_traits@KViterator@?$list@U?$pair@V?$shared_ptr@V?$w32_regex_traits_implementation@D@re_detail@boost@@@boost@@PBK@std@@V?$allocator@U?$pair@V?$shared_ptr@V?$w32_regex_traits_implementation@D@re_detail@boost@@@boost@@PBK@std@@@2@@std@@U?$less@K@3@V?$allocator@U?$pair@$$CBKViterator@?$list@U?$pair@V?$shared_ptr@V?$w32_regex_traits_implementation@D@re_detail@boost@@@boost@@PBK@std@@V?$allocator@U?$pair@V?$shared_ptr@V?$w32_regex_traits_implementation@D@re_detail@boost@@@boost@@PBK@std@@@2@@std@@@std@@@3@$0A@@std@@@std@@IAEXPAU_Node@?$_Tree_nod@V?$_Tmap_traits@KViterator@?$list@U?$pair@V?$shared_ptr@V?$w32_regex_traits_implementation@D@re_detail@boost@@@boost@@PBK@std@@V?$allocator@U?$pair@V?$shared_ptr@V?$w32_regex_traits_implementation@D@re_detail@boost@@@boost@@PBK@std@@@2@@std@@U?$less@K@3@V?$allocator@U?$pair@$$CBKViterator@?$list@U?$pair@V?$shared_ptr@V?$w32_regex_traits_implementation@D@re_detail@boost@@@boost@@PBK@std@@V?$allocator@U?$pair@V?$shared_ptr@V?$w32_regex_traits_implementation@D@re_detail@boost@@@boost@@PBK@std@@@2@@std@@@std@@@3@$0A@@std@@@2@@Z 0041e6b0 f i libboost_regex-vc71-mt-1_33_1:instances.obj
 0001:0001d6b0       ?_Rrotate@?$_Tree@V?$_Tmap_traits@PAVWObject@@PAVWWidget@@U?$less@PAVWObject@@@std@@V?$allocator@U?$pair@QAVWObject@@PAVWWidget@@@std@@@4@$0A@@std@@@std@@IAEXPAU_Node@?$_Tree_nod@V?$_Tmap_traits@PAVWObject@@PAVWWidget@@U?$less@PAVWObject@@@std@@V?$allocator@U?$pair@QAVWObject@@PAVWWidget@@@std@@@4@$0A@@std@@@2@@Z 0041e6b0 f i libwt:WSignalMapper.obj
 0001:0001d710       ?initForm@CEccListTable@@AAEX_N000@Z 0041e710 f   listtable.obj
 0001:0001db50       ?setNoChild@CEccListTable@@QAEXV?$basic_string@DU?$char_traits@D@std@@V?$allocator@D@2@@std@@@Z 0041eb50 f   listtable.obj
 0001:0001dbd0       ?_Buynode@?$_Tree@V?$_Tmap_traits@V?$basic_string@DU?$char_traits@D@std@@V?$allocator@D@2@@std@@PAVWCheckBox@@U?$less@V?$basic_string@DU?$char_traits@D@std@@V?$allocator@D@2@@std@@@2@V?$allocator@U?$pair@$$CBV?$basic_string@DU?$char_traits@D@std@@V?$allocator@D@2@@std@@PAVWCheckBox@@@std@@@2@$0A@@std@@@std@@IAEPAU_Node@?$_Tree_nod@V?$_Tmap_traits@V?$basic_string@DU?$char_traits@D@std@@V?$allocator@D@2@@std@@PAVWCheckBox@@U?$less@V?$basic_string@DU?$char_traits@D@std@@V?$allocator@D@2@@std@@@2@V?$allocator@U?$pair@$$CBV?$basic_string@DU?$char_traits@D@std@@V?$allocator@D@2@@std@@PAVWCheckBox@@@std@@@2@$0A@@std@@@2@PAU342@00ABU?$pair@$$CBV?$basic_string@DU?$char_traits@D@std@@V?$allocator@D@2@@std@@PAVWCheckBox@@@2@D@Z 0041ebd0 f i listtable.obj
 0001:0001dc70       ?_Erase@?$_Tree@V?$_Tmap_traits@HPAVCEccButton@@U?$less@H@std@@V?$allocator@U?$pair@$$CBHPAVCEccButton@@@std@@@3@$0A@@std@@@std@@IAEXPAU_Node@?$_Tree_nod@V?$_Tmap_traits@HPAVCEccButton@@U?$less@H@std@@V?$allocator@U?$pair@$$CBHPAVCEccButton@@@std@@@3@$0A@@std@@@2@@Z 0041ec70 f i listtable.obj
 0001:0001dcb0       ?pasteDevice@CEccListTable@@AAEXXZ 0041ecb0 f   listtable.obj
 0001:0001dd40       ?pasteMonitor@CEccListTable@@AAEXXZ 0041ed40 f   listtable.obj
 0001:0001e090       ?IsCanBePaste@CEccListTable@@AAE_NXZ 0041f090 f   listtable.obj
 0001:0001e2f0       ?find@?$_Tree@V?$_Tmap_traits@HPAVCEccButton@@U?$less@H@std@@V?$allocator@U?$pair@$$CBHPAVCEccButton@@@std@@@3@$0A@@std@@@std@@QAE?AViterator@12@ABH@Z 0041f2f0 f i listtable.obj
 0001:0001e360       ?_Insert@?$_Tree@V?$_Tmap_traits@HPAVCEccButton@@U?$less@H@std@@V?$allocator@U?$pair@$$CBHPAVCEccButton@@@std@@@3@$0A@@std@@@std@@IAE?AViterator@12@_NPAU_Node@?$_Tree_nod@V?$_Tmap_traits@HPAVCEccButton@@U?$less@H@std@@V?$allocator@U?$pair@$$CBHPAVCEccButton@@@std@@@3@$0A@@std@@@2@ABU?$pair@$$CBHPAVCEccButton@@@2@@Z 0041f360 f i listtable.obj
 0001:0001e520       ?_Insert@?$_Tree@V?$_Tmap_traits@V?$basic_string@DU?$char_traits@D@std@@V?$allocator@D@2@@std@@PAVWCheckBox@@U?$less@V?$basic_string@DU?$char_traits@D@std@@V?$allocator@D@2@@std@@@2@V?$allocator@U?$pair@$$CBV?$basic_string@DU?$char_traits@D@std@@V?$allocator@D@2@@std@@PAVWCheckBox@@@std@@@2@$0A@@std@@@std@@IAE?AViterator@12@_NPAU_Node@?$_Tree_nod@V?$_Tmap_traits@V?$basic_string@DU?$char_traits@D@std@@V?$allocator@D@2@@std@@PAVWCheckBox@@U?$less@V?$basic_string@DU?$char_traits@D@std@@V?$allocator@D@2@@std@@@2@V?$allocator@U?$pair@$$CBV?$basic_string@DU?$char_traits@D@std@@V?$allocator@D@2@@std@@PAVWCheckBox@@@std@@@2@$0A@@std@@@2@ABU?$pair@$$CBV?$basic_string@DU?$char_traits@D@std@@V?$allocator@D@2@@std@@PAVWCheckBox@@@2@@Z 0041f520 f i listtable.obj
 0001:0001e6e0       ?erase@?$_Tree@V?$_Tmap_traits@HPAVCEccButton@@U?$less@H@std@@V?$allocator@U?$pair@$$CBHPAVCEccButton@@@std@@@3@$0A@@std@@@std@@QAE?AViterator@12@V312@@Z 0041f6e0 f i listtable.obj
 0001:0001e9b0       ?SelectAll@CEccListTable@@AAEXXZ 0041f9b0 f   listtable.obj
 0001:0001e9f0       ?SelectNone@CEccListTable@@AAEXXZ 0041f9f0 f   listtable.obj
 0001:0001ea30       ?InvertSelect@CEccListTable@@AAEXXZ 0041fa30 f   listtable.obj
 0001:0001ea70       ?DelSelect@CEccListTable@@AAEXXZ 0041fa70 f   listtable.obj
 0001:0001f200       ?Paste@CEccListTable@@AAEXXZ 00420200 f   listtable.obj
 0001:0001f3c0       ?showHideSort@CEccListTable@@QAEX_N@Z 004203c0 f   listtable.obj
 0001:0001f420       ?erase@?$_Tree@V?$_Tmap_traits@V?$basic_string@DU?$char_traits@D@std@@V?$allocator@D@2@@std@@PAVWCheckBox@@U?$less@V?$basic_string@DU?$char_traits@D@std@@V?$allocator@D@2@@std@@@2@V?$allocator@U?$pair@$$CBV?$basic_string@DU?$char_traits@D@std@@V?$allocator@D@2@@std@@PAVWCheckBox@@@std@@@2@$0A@@std@@@std@@QAE?AViterator@12@V312@@Z 00420420 f i listtable.obj
 0001:0001f700       ?_Erase@?$_Tree@V?$_Tmap_traits@V?$basic_string@DU?$char_traits@D@std@@V?$allocator@D@2@@std@@PAVWCheckBox@@U?$less@V?$basic_string@DU?$char_traits@D@std@@V?$allocator@D@2@@std@@@2@V?$allocator@U?$pair@$$CBV?$basic_string@DU?$char_traits@D@std@@V?$allocator@D@2@@std@@PAVWCheckBox@@@std@@@2@$0A@@std@@@std@@IAEXPAU_Node@?$_Tree_nod@V?$_Tmap_traits@V?$basic_string@DU?$char_traits@D@std@@V?$allocator@D@2@@std@@PAVWCheckBox@@U?$less@V?$basic_string@DU?$char_traits@D@std@@V?$allocator@D@2@@std@@@2@V?$allocator@U?$pair@$$CBV?$basic_string@DU?$char_traits@D@std@@V?$allocator@D@2@@std@@PAVWCheckBox@@@std@@@2@$0A@@std@@@2@@Z 00420700 f i listtable.obj
 0001:0001f740       ?insert@?$_Tree@V?$_Tmap_traits@HPAVCEccButton@@U?$less@H@std@@V?$allocator@U?$pair@$$CBHPAVCEccButton@@@std@@@3@$0A@@std@@@std@@QAE?AU?$pair@Viterator@?$_Tree@V?$_Tmap_traits@HPAVCEccButton@@U?$less@H@std@@V?$allocator@U?$pair@$$CBHPAVCEccButton@@@std@@@3@$0A@@std@@@std@@_N@2@ABU?$pair@$$CBHPAVCEccButton@@@2@@Z 00420740 f i listtable.obj
 0001:0001f800       ?erase@?$_Tree@V?$_Tmap_traits@HPAVCEccButton@@U?$less@H@std@@V?$allocator@U?$pair@$$CBHPAVCEccButton@@@std@@@3@$0A@@std@@@std@@QAE?AViterator@12@V312@0@Z 00420800 f i listtable.obj
 0001:0001f8c0       ?insert@?$_Tree@V?$_Tmap_traits@V?$basic_string@DU?$char_traits@D@std@@V?$allocator@D@2@@std@@PAVWCheckBox@@U?$less@V?$basic_string@DU?$char_traits@D@std@@V?$allocator@D@2@@std@@@2@V?$allocator@U?$pair@$$CBV?$basic_string@DU?$char_traits@D@std@@V?$allocator@D@2@@std@@PAVWCheckBox@@@std@@@2@$0A@@std@@@std@@QAE?AU?$pair@Viterator@?$_Tree@V?$_Tmap_traits@V?$basic_string@DU?$char_traits@D@std@@V?$allocator@D@2@@std@@PAVWCheckBox@@U?$less@V?$basic_string@DU?$char_traits@D@std@@V?$allocator@D@2@@std@@@2@V?$allocator@U?$pair@$$CBV?$basic_string@DU?$char_traits@D@std@@V?$allocator@D@2@@std@@PAVWCheckBox@@@std@@@2@$0A@@std@@@std@@_N@2@ABU?$pair@$$CBV?$basic_string@DU?$char_traits@D@std@@V?$allocator@D@2@@std@@PAVWCheckBox@@@2@@Z 004208c0 f i listtable.obj
 0001:0001f9a0       ??4WCheckBox@@QAEAAV0@ABV0@@Z 004209a0 f i listtable.obj
 0001:0001fa20       ?showNoChild@CEccListTable@@QAEXXZ 00420a20 f   listtable.obj
 0001:0001fa80       ?Copy@CEccListTable@@AAEXXZ 00420a80 f   listtable.obj
 0001:0001fb70       ?setOperatePurview@CEccListTable@@QAEXHH@Z 00420b70 f   listtable.obj
 0001:0001fd80       ?insert@?$_Tree@V?$_Tmap_traits@HPAVCEccButton@@U?$less@H@std@@V?$allocator@U?$pair@$$CBHPAVCEccButton@@@std@@@3@$0A@@std@@@std@@QAE?AViterator@12@V312@ABU?$pair@$$CBHPAVCEccButton@@@2@@Z 00420d80 f i listtable.obj
 0001:0001fef0       ?insert@?$_Tree@V?$_Tmap_traits@V?$basic_string@DU?$char_traits@D@std@@V?$allocator@D@2@@std@@PAVWCheckBox@@U?$less@V?$basic_string@DU?$char_traits@D@std@@V?$allocator@D@2@@std@@@2@V?$allocator@U?$pair@$$CBV?$basic_string@DU?$char_traits@D@std@@V?$allocator@D@2@@std@@PAVWCheckBox@@@std@@@2@$0A@@std@@@std@@QAE?AViterator@12@V312@ABU?$pair@$$CBV?$basic_string@DU?$char_traits@D@std@@V?$allocator@D@2@@std@@PAVWCheckBox@@@2@@Z 00420ef0 f i listtable.obj
 0001:000200b0       ?erase@?$_Tree@V?$_Tmap_traits@V?$basic_string@DU?$char_traits@D@std@@V?$allocator@D@2@@std@@PAVWCheckBox@@U?$less@V?$basic_string@DU?$char_traits@D@std@@V?$allocator@D@2@@std@@@2@V?$allocator@U?$pair@$$CBV?$basic_string@DU?$char_traits@D@std@@V?$allocator@D@2@@std@@PAVWCheckBox@@@std@@@2@$0A@@std@@@std@@QAE?AViterator@12@V312@0@Z 004210b0 f i listtable.obj
 0001:00020170       ?setCols@CEccListTable@@QAEXAAV?$list@V?$basic_string@DU?$char_traits@D@std@@V?$allocator@D@2@@std@@V?$allocator@V?$basic_string@DU?$char_traits@D@std@@V?$allocator@D@2@@std@@@2@@std@@@Z 00421170 f   listtable.obj
 0001:000203f0       ?clearCheckList@CEccListTable@@QAEXXZ 004213f0 f   listtable.obj
 0001:00020430       ?Disable@CEccListTable@@AAEXXZ 00421430 f   listtable.obj
 0001:00020cd0       ?Enable@CEccListTable@@AAEXXZ 00421cd0 f   listtable.obj
 0001:00021570       ?RefreshSel@CEccListTable@@AAEXXZ 00422570 f   listtable.obj
 0001:00021c70       ?Confirm@CEccListTable@@AAEXXZ 00422c70 f   listtable.obj
 0001:000222e0       ??A?$map@HPAVCEccButton@@U?$less@H@std@@V?$allocator@U?$pair@$$CBHPAVCEccButton@@@std@@@3@@std@@QAEAAPAVCEccButton@@ABH@Z 004232e0 f i listtable.obj
 0001:00022360       ??A?$map@V?$basic_string@DU?$char_traits@D@std@@V?$allocator@D@2@@std@@PAVWCheckBox@@U?$less@V?$basic_string@DU?$char_traits@D@std@@V?$allocator@D@2@@std@@@2@V?$allocator@U?$pair@$$CBV?$basic_string@DU?$char_traits@D@std@@V?$allocator@D@2@@std@@PAVWCheckBox@@@std@@@2@@std@@QAEAAPAVWCheckBox@@ABV?$basic_string@DU?$char_traits@D@std@@V?$allocator@D@2@@1@@Z 00423360 f i listtable.obj
 0001:00022400       ??1?$map@HPAVCEccButton@@U?$less@H@std@@V?$allocator@U?$pair@$$CBHPAVCEccButton@@@std@@@3@@std@@QAE@XZ 00423400 f i listtable.obj
 0001:00022430       ?setOperaters@CEccListTable@@QAEXAAV?$list@HV?$allocator@H@std@@@std@@H@Z 00423430 f   listtable.obj
 0001:00022b50       ?addCheckList@CEccListTable@@QAEXV?$basic_string@DU?$char_traits@D@std@@V?$allocator@D@2@@std@@PAVWCheckBox@@@Z 00423b50 f   listtable.obj
 0001:00022bb0       ??1?$map@V?$basic_string@DU?$char_traits@D@std@@V?$allocator@D@2@@std@@PAVWCheckBox@@U?$less@V?$basic_string@DU?$char_traits@D@std@@V?$allocator@D@2@@std@@@2@V?$allocator@U?$pair@$$CBV?$basic_string@DU?$char_traits@D@std@@V?$allocator@D@2@@std@@PAVWCheckBox@@@std@@@2@@std@@QAE@XZ 00423bb0 f i listtable.obj
 0001:00022be0       ??0CEccListTable@@QAE@PAVWContainerWidget@@_N111@Z 00423be0 f   listtable.obj
 0001:00022d20       ??_GCEccListTable@@UAEPAXI@Z 00423d20 f i listtable.obj
 0001:00022d20       ??_ECEccListTable@@UAEPAXI@Z 00423d20 f i listtable.obj
 0001:00022d40       ??1CEccListTable@@UAE@XZ   00423d40 f i listtable.obj
 0001:00022e20       ?buildSlotMap@CEccListTable@@MAEXAAV?$map@V?$basic_string@DU?$char_traits@D@std@@V?$allocator@D@2@@std@@PAVWSlotInstance_@@U?$less@V?$basic_string@DU?$char_traits@D@std@@V?$allocator@D@2@@std@@@2@V?$allocator@U?$pair@$$CBV?$basic_string@DU?$char_traits@D@std@@V?$allocator@D@2@@std@@PAVWSlotInstance_@@@std@@@2@@std@@@Z 00423e20 f   listtablewt.obj
 0001:00022f10       ?triggerSlot@CEccListTable@@MAE_NPAVWObject@@PBVWSlot_@@PAPAX@Z 00423f10 f   listtablewt.obj
 0001:00023060       ?buildSignalMap@CEccListTable@@MAEXAAV?$map@V?$basic_string@DU?$char_traits@D@std@@V?$allocator@D@2@@std@@PAVWSignalInstance_@@U?$less@V?$basic_string@DU?$char_traits@D@std@@V?$allocator@D@2@@std@@@2@V?$allocator@U?$pair@$$CBV?$basic_string@DU?$char_traits@D@std@@V?$allocator@D@2@@std@@PAVWSignalInstance_@@@std@@@2@@std@@@Z 00424060 f   listtablewt.obj
 0001:00023120       ??0ecc_value_list@@QAE@ABV?$basic_string@DU?$char_traits@D@std@@V?$allocator@D@2@@std@@0@Z 00424120 f i paramitem.obj
 0001:00023180       ?getECCIndex@CEccTreeNode@@QBE?AV?$basic_string@DU?$char_traits@D@std@@V?$allocator@D@2@@std@@XZ 00424180 f i treeview.obj
 0001:00023180       ?getSaveName@CEccParamItem@@QAE?AV?$basic_string@DU?$char_traits@D@std@@V?$allocator@D@2@@std@@XZ 00424180 f i paramitem.obj
 0001:000231b0       ?showTip@CEccParamItem@@QAEXXZ 004241b0 f   paramitem.obj
 0001:000231f0       ?hideTip@CEccParamItem@@QAEXXZ 004241f0 f   paramitem.obj
 0001:00023230       ?resetDynData@CEccParamItem@@QAEXXZ 00424230 f   paramitem.obj
 0001:00023270       ?setDefaultValue@CEccParamItem@@QAEXXZ 00424270 f   paramitem.obj
 0001:000233a0       ?EidtQueryString@CEccParamItem@@AAEXABV?$basic_string@DU?$char_traits@D@std@@V?$allocator@D@2@@std@@PAD@Z 004243a0 f   paramitem.obj
 0001:000233f0       ??1ecc_value_list@@QAE@XZ  004243f0 f i paramitem.obj
 0001:00023440       ?addNoSortList@CEccParamItem@@AAEXAAV?$basic_string@DU?$char_traits@D@std@@V?$allocator@D@2@@std@@0@Z 00424440 f   paramitem.obj
 0001:00023510       ?getNoSortString@CEccParamItem@@AAEPBDXZ 00424510 f   paramitem.obj
 0001:00023550       ??0ecc_value_list@@QAE@ABU0@@Z 00424550 f i paramitem.obj
 0001:000235b0       ?checkTextEdit@CEccParamItem@@AAE_NXZ 004245b0 f   paramitem.obj
 0001:000235b0       ?checkTextArea@CEccParamItem@@AAE_NXZ 004245b0 f   paramitem.obj
 0001:00023690       ?_Buynode@?$list@Uecc_value_list@@V?$allocator@Uecc_value_list@@@std@@@std@@IAEPAU_Node@?$_List_nod@Uecc_value_list@@V?$allocator@Uecc_value_list@@@std@@@2@PAU342@0ABUecc_value_list@@@Z 00424690 f i paramitem.obj
 0001:00023720       ?_Incsize@?$list@Uecc_value_list@@V?$allocator@Uecc_value_list@@@std@@@std@@IAEXI@Z 00424720 f i paramitem.obj
 0001:000237c0       ?checkComboBox@CEccParamItem@@AAE_NXZ 004247c0 f   paramitem.obj
 0001:00023930       ?checkValue@CEccParamItem@@QAE_NXZ 00424930 f   paramitem.obj
 0001:000239e0       ?getStringValue@CEccParamItem@@QAEXAAV?$basic_string@DU?$char_traits@D@std@@V?$allocator@D@2@@std@@@Z 004249e0 f   paramitem.obj
 0001:00023d80       ?CreateControl@CEccParamItem@@QAEXPAVWTable@@AAV?$list@PAVWText@@V?$allocator@PAVWText@@@std@@@std@@@Z 00424d80 f   paramitem.obj
 0001:00024580       ?ParserReturnInList@CEccParamItem@@AAEXPBDAAV?$list@V?$basic_string@DU?$char_traits@D@std@@V?$allocator@D@2@@std@@V?$allocator@V?$basic_string@DU?$char_traits@D@std@@V?$allocator@D@2@@std@@@2@@std@@@Z 00425580 f   paramitem.obj
 0001:00024640       ?MakeValueList@CEccParamItem@@QAEXAAV?$list@Uecc_value_list@@V?$allocator@Uecc_value_list@@@std@@@std@@@Z 00425640 f   paramitem.obj
 0001:000248c0       ?setNoSortString@CEccParamItem@@AAEXAAV?$basic_string@DU?$char_traits@D@std@@V?$allocator@D@2@@std@@@Z 004258c0 f   paramitem.obj
 0001:00024a30       ?setStringValue@CEccParamItem@@QAEXAAV?$basic_string@DU?$char_traits@D@std@@V?$allocator@D@2@@std@@@Z 00425a30 f   paramitem.obj
 0001:00024de0       ?clearDynData@CEccParamItem@@QAEXXZ 00425de0 f   paramitem.obj
 0001:00024e90       ?TidyReturnList@CEccParamItem@@AAEXAAV?$list@V?$basic_string@DU?$char_traits@D@std@@V?$allocator@D@2@@std@@V?$allocator@V?$basic_string@DU?$char_traits@D@std@@V?$allocator@D@2@@std@@@2@@std@@@Z 00425e90 f   paramitem.obj
 0001:000251e0       ?enumOS@CEccParamItem@@QAEXXZ 004261e0 f   paramitem.obj
 0001:000255f0       ??1CEccParamItem@@QAE@XZ   004265f0 f   paramitem.obj
 0001:00025830       ?enumProperty@CEccParamItem@@AAEXXZ 00426830 f   paramitem.obj
 0001:000260e0       ?enumDynValue@CEccParamItem@@QAEXABV?$basic_string@DU?$char_traits@D@std@@V?$allocator@D@2@@std@@0@Z 004270e0 f   paramitem.obj
 0001:000264c0       ??0CEccParamItem@@QAE@PAX@Z 004274c0 f   paramitem.obj
 0001:000266e0       ??0CEccButton@@QAE@V?$basic_string@DU?$char_traits@D@std@@V?$allocator@D@2@@std@@00PAVWContainerWidget@@@Z 004276e0 f   pushbutton.obj
 0001:00026a70       ?setText@CEccImportButton@@UAEXV?$basic_string@DU?$char_traits@D@std@@V?$allocator@D@2@@std@@@Z 00427a70 f   pushbutton.obj
 0001:00026a70       ?setText@CEccButton@@UAEXV?$basic_string@DU?$char_traits@D@std@@V?$allocator@D@2@@std@@@Z 00427a70 f   pushbutton.obj
 0001:00026ae0       ?setToolTip@CEccImportButton@@UAEXV?$basic_string@DU?$char_traits@D@std@@V?$allocator@D@2@@std@@@Z 00427ae0 f   pushbutton.obj
 0001:00026ae0       ?setToolTip@CEccButton@@UAEXV?$basic_string@DU?$char_traits@D@std@@V?$allocator@D@2@@std@@@Z 00427ae0 f   pushbutton.obj
 0001:00026b60       ??0CEccImportButton@@QAE@V?$basic_string@DU?$char_traits@D@std@@V?$allocator@D@2@@std@@00PAVWContainerWidget@@@Z 00427b60 f   pushbutton.obj
 0001:00026ef0       ?buildSlotMap@CEccButton@@MAEXAAV?$map@V?$basic_string@DU?$char_traits@D@std@@V?$allocator@D@2@@std@@PAVWSlotInstance_@@U?$less@V?$basic_string@DU?$char_traits@D@std@@V?$allocator@D@2@@std@@@2@V?$allocator@U?$pair@$$CBV?$basic_string@DU?$char_traits@D@std@@V?$allocator@D@2@@std@@PAVWSlotInstance_@@@std@@@2@@std@@@Z 00427ef0 f   pushbuttonwt.obj
 0001:00026fe0       ?buildSlotMap@CEccImportButton@@MAEXAAV?$map@V?$basic_string@DU?$char_traits@D@std@@V?$allocator@D@2@@std@@PAVWSlotInstance_@@U?$less@V?$basic_string@DU?$char_traits@D@std@@V?$allocator@D@2@@std@@@2@V?$allocator@U?$pair@$$CBV?$basic_string@DU?$char_traits@D@std@@V?$allocator@D@2@@std@@PAVWSlotInstance_@@@std@@@2@@std@@@Z 00427fe0 f   pushbuttonwt.obj
 0001:000270d0       ?triggerSlot@WTableRow@@MAE_NPAVWObject@@PBVWSlot_@@PAPAX@Z 004280d0 f   libwt:WTable.obj
 0001:000270d0       ?triggerSlot@CEccButton@@MAE_NPAVWObject@@PBVWSlot_@@PAPAX@Z 004280d0 f   pushbuttonwt.obj
 0001:000270d0       ?triggerSlot@CEccSVSEView@@MAE_NPAVWObject@@PBVWSlot_@@PAPAX@Z 004280d0 f   svseviewwt.obj
 0001:000270d0       ?triggerSlot@CEccMonitorView@@MAE_NPAVWObject@@PBVWSlot_@@PAPAX@Z 004280d0 f   monitorviewwt.obj
 0001:000270d0       ?triggerSlot@CEccRightView@@MAE_NPAVWObject@@PBVWSlot_@@PAPAX@Z 004280d0 f   rightviewwt.obj
 0001:000270d0       ?triggerSlot@CEccGenTitle@@MAE_NPAVWObject@@PBVWSlot_@@PAPAX@Z 004280d0 f   gentitlewt.obj
 0001:000270d0       ?triggerSlot@CEccImportButton@@MAE_NPAVWObject@@PBVWSlot_@@PAPAX@Z 004280d0 f   pushbuttonwt.obj
 0001:000270d0       ?triggerSlot@WTableCell@@MAE_NPAVWObject@@PBVWSlot_@@PAPAX@Z 004280d0 f   libwt:WTableCell.obj
 0001:000270d0       ?triggerSlot@CEccStateDesc@@MAE_NPAVWObject@@PBVWSlot_@@PAPAX@Z 004280d0 f   statedescwt.obj
 0001:000270d0       ?triggerSlot@CEccGroupView@@MAE_NPAVWObject@@PBVWSlot_@@PAPAX@Z 004280d0 f   groupviewwt.obj
 0001:000270e0       ?buildSignalMap@CEccButton@@MAEXAAV?$map@V?$basic_string@DU?$char_traits@D@std@@V?$allocator@D@2@@std@@PAVWSignalInstance_@@U?$less@V?$basic_string@DU?$char_traits@D@std@@V?$allocator@D@2@@std@@@2@V?$allocator@U?$pair@$$CBV?$basic_string@DU?$char_traits@D@std@@V?$allocator@D@2@@std@@PAVWSignalInstance_@@@std@@@2@@std@@@Z 004280e0 f   pushbuttonwt.obj
 0001:000271a0       ?buildSignalMap@CEccImportButton@@MAEXAAV?$map@V?$basic_string@DU?$char_traits@D@std@@V?$allocator@D@2@@std@@PAVWSignalInstance_@@U?$less@V?$basic_string@DU?$char_traits@D@std@@V?$allocator@D@2@@std@@@2@V?$allocator@U?$pair@$$CBV?$basic_string@DU?$char_traits@D@std@@V?$allocator@D@2@@std@@PAVWSignalInstance_@@@std@@@2@@std@@@Z 004281a0 f   pushbuttonwt.obj
 0001:00027260       ??_FWStackedWidget@@QAEXXZ 00428260 f i rightview.obj
 0001:000274f0       ?initForm@CEccRightView@@AAEXXZ 004284f0 f   rightview.obj
 0001:00027760       ?changeActive@CEccRightView@@QAEXPBVCEccTreeNode@@@Z 00428760 f   rightview.obj
 0001:000278e0       ?showSVSEView@CEccRightView@@QAEXXZ 004288e0 f   rightview.obj
 0001:00027990       ?showAddGroupForm@CEccRightView@@SAXV?$basic_string@DU?$char_traits@D@std@@V?$allocator@D@2@@std@@@Z 00428990 f   rightview.obj
 0001:00027ac0       ?UpdateData@CEccRightView@@SAXPBVCEccTreeNode@@@Z 00428ac0 f   rightview.obj
 0001:00027b00       ?showAddDevice1st@CEccRightView@@SAXV?$basic_string@DU?$char_traits@D@std@@V?$allocator@D@2@@std@@@Z 00428b00 f   rightview.obj
 0001:00027c30       ?showAddDevice2nd@CEccRightView@@SAXV?$basic_string@DU?$char_traits@D@std@@V?$allocator@D@2@@std@@0@Z 00428c30 f   rightview.obj
 0001:00027d60       ?showAddDevice3rd@CEccRightView@@SAXV?$basic_string@DU?$char_traits@D@std@@V?$allocator@D@2@@std@@00000@Z 00428d60 f   rightview.obj
 0001:00027f60       ?showAddMonitor1st@CEccRightView@@SAXV?$basic_string@DU?$char_traits@D@std@@V?$allocator@D@2@@std@@00@Z 00428f60 f   rightview.obj
 0001:000280b0       ?showAddMonitor2nd@CEccRightView@@SAXHV?$basic_string@DU?$char_traits@D@std@@V?$allocator@D@2@@std@@0@Z 004290b0 f   rightview.obj
 0001:000281c0       ?showEditMonitor@CEccRightView@@QAEXABV?$basic_string@DU?$char_traits@D@std@@V?$allocator@D@2@@std@@@Z 004291c0 f   rightview.obj
 0001:00028290       ?showBatchAddForm@CEccRightView@@SAXAAV?$list@Uecc_value_list@@V?$allocator@Uecc_value_list@@@std@@@std@@V?$basic_string@DU?$char_traits@D@std@@V?$allocator@D@2@@3@@Z 00429290 f   rightview.obj
 0001:000283a0       ?AddMonitorBySel@CEccRightView@@SA?AV?$basic_string@DU?$char_traits@D@std@@V?$allocator@D@2@@std@@AAV?$list@Uecc_value_list@@V?$allocator@Uecc_value_list@@@std@@@3@@Z 004293a0 f   rightview.obj
 0001:000283e0       ?showSortForm@CEccRightView@@SAXV?$basic_string@DU?$char_traits@D@std@@V?$allocator@D@2@@std@@H@Z 004293e0 f   rightview.obj
 0001:00028510       ?refreshCurrentNode@CEccRightView@@QAEXPBVCEccTreeNode@@@Z 00429510 f   rightview.obj
 0001:00028530       ?showEditForm@CEccRightView@@QAEXABV?$basic_string@DU?$char_traits@D@std@@V?$allocator@D@2@@std@@AA_N@Z 00429530 f   rightview.obj
 0001:000288f0       ?isNewMonitorListEmpty@CEccRightView@@QAE_NXZ 004298f0 f   rightview.obj
 0001:00028910       ??1WStackedWidget@@UAE@XZ  00429910 f i rightview.obj
 0001:00028970       ??4WStackedWidget@@QAEAAV0@ABV0@@Z 00429970 f i rightview.obj
 0001:000289b0       ?InsertNewMonitorList@CEccRightView@@SAXABV?$basic_string@DU?$char_traits@D@std@@V?$allocator@D@2@@std@@@Z 004299b0 f   rightview.obj
 0001:000289f0       ?refreshNewMonitors@CEccRightView@@QAE?AV?$basic_string@DU?$char_traits@D@std@@V?$allocator@D@2@@std@@XZ 004299f0 f   rightview.obj
 0001:00029000       ?clearNewMonitorList@CEccRightView@@QAEXXZ 0042a000 f   rightview.obj
 0001:00029020       ??0CEccRightView@@QAE@PAVWContainerWidget@@@Z 0042a020 f   rightview.obj
 0001:000290e0       ?showMainForm@CEccRightView@@SAXXZ 0042a0e0 f   rightview.obj
 0001:00029230       ?showNewDevice@CEccRightView@@SAXV?$basic_string@DU?$char_traits@D@std@@V?$allocator@D@2@@std@@@Z 0042a230 f   rightview.obj
 0001:00029440       ??_GCEccRightView@@UAEPAXI@Z 0042a440 f i rightview.obj
 0001:00029440       ??_ECEccRightView@@UAEPAXI@Z 0042a440 f i rightview.obj
 0001:00029460       ??1CEccRightView@@UAE@XZ   0042a460 f i rightview.obj
 0001:000294d0       ?buildSlotMap@CEccRightView@@MAEXAAV?$map@V?$basic_string@DU?$char_traits@D@std@@V?$allocator@D@2@@std@@PAVWSlotInstance_@@U?$less@V?$basic_string@DU?$char_traits@D@std@@V?$allocator@D@2@@std@@@2@V?$allocator@U?$pair@$$CBV?$basic_string@DU?$char_traits@D@std@@V?$allocator@D@2@@std@@PAVWSlotInstance_@@@std@@@2@@std@@@Z 0042a4d0 f   rightviewwt.obj
 0001:000295c0       ?buildSignalMap@CEccRightView@@MAEXAAV?$map@V?$basic_string@DU?$char_traits@D@std@@V?$allocator@D@2@@std@@PAVWSignalInstance_@@U?$less@V?$basic_string@DU?$char_traits@D@std@@V?$allocator@D@2@@std@@@2@V?$allocator@U?$pair@$$CBV?$basic_string@DU?$char_traits@D@std@@V?$allocator@D@2@@std@@PAVWSignalInstance_@@@std@@@2@@std@@@Z 0042a5c0 f   rightviewwt.obj
 0001:00029680       ?createListTitle@CEccSortTable@@AAEXXZ 0042a680 f   sortlist.obj
 0001:00029920       ?createOperate@CEccSortTable@@AAEXXZ 0042a920 f   sortlist.obj
 0001:00029bb0       ?initForm@CEccSortTable@@EAEX_N@Z 0042abb0 f   sortlist.obj
 0001:00029dc0       ?_Min@?$_Tree@V?$_Tmap_traits@PAVWObject@@HU?$less@PAVWObject@@@std@@V?$allocator@U?$pair@QAVWObject@@H@std@@@3@$0A@@std@@@std@@KAPAU_Node@?$_Tree_nod@V?$_Tmap_traits@PAVWObject@@HU?$less@PAVWObject@@@std@@V?$allocator@U?$pair@QAVWObject@@H@std@@@3@$0A@@std@@@2@PAU342@@Z 0042adc0 f i libwt:WSignalMapper.obj
 0001:00029dc0       ?_Min@?$_Tree@V?$_Tmap_traits@HPAVWLineEdit@@U?$less@H@std@@V?$allocator@U?$pair@$$CBHPAVWLineEdit@@@std@@@3@$0A@@std@@@std@@KAPAU_Node@?$_Tree_nod@V?$_Tmap_traits@HPAVWLineEdit@@U?$less@H@std@@V?$allocator@U?$pair@$$CBHPAVWLineEdit@@@std@@@3@$0A@@std@@@2@PAU342@@Z 0042adc0 f i sortlist.obj
 0001:00029dc0       ?_Min@?$_Tree@V?$_Tmap_traits@KViterator@?$list@U?$pair@V?$shared_ptr@V?$w32_regex_traits_implementation@D@re_detail@boost@@@boost@@PBK@std@@V?$allocator@U?$pair@V?$shared_ptr@V?$w32_regex_traits_implementation@D@re_detail@boost@@@boost@@PBK@std@@@2@@std@@U?$less@K@3@V?$allocator@U?$pair@$$CBKViterator@?$list@U?$pair@V?$shared_ptr@V?$w32_regex_traits_implementation@D@re_detail@boost@@@boost@@PBK@std@@V?$allocator@U?$pair@V?$shared_ptr@V?$w32_regex_traits_implementation@D@re_detail@boost@@@boost@@PBK@std@@@2@@std@@@std@@@3@$0A@@std@@@std@@KAPAU_Node@?$_Tree_nod@V?$_Tmap_traits@KViterator@?$list@U?$pair@V?$shared_ptr@V?$w32_regex_traits_implementation@D@re_detail@boost@@@boost@@PBK@std@@V?$allocator@U?$pair@V?$shared_ptr@V?$w32_regex_traits_implementation@D@re_detail@boost@@@boost@@PBK@std@@@2@@std@@U?$less@K@3@V?$allocator@U?$pair@$$CBKViterator@?$list@U?$pair@V?$shared_ptr@V?$w32_regex_traits_implementation@D@re_detail@boost@@@boost@@PBK@std@@V?$allocator@U?$pair@V?$shared_ptr@V?$w32_regex_traits_implementation@D@re_detail@boost@@@boost@@PBK@std@@@2@@std@@@std@@@3@$0A@@std@@@2@PAU342@@Z 0042adc0 f i libboost_regex-vc71-mt-1_33_1:instances.obj
 0001:00029dc0       ?_Min@?$_Tree@V?$_Tmap_traits@PAVWObject@@PAVWWidget@@U?$less@PAVWObject@@@std@@V?$allocator@U?$pair@QAVWObject@@PAVWWidget@@@std@@@4@$0A@@std@@@std@@KAPAU_Node@?$_Tree_nod@V?$_Tmap_traits@PAVWObject@@PAVWWidget@@U?$less@PAVWObject@@@std@@V?$allocator@U?$pair@QAVWObject@@PAVWWidget@@@std@@@4@$0A@@std@@@2@PAU342@@Z 0042adc0 f i libwt:WSignalMapper.obj
 0001:00029dc0       ?_Min@?$_Tree@V?$_Tmap_traits@HPAVCEccButton@@U?$less@H@std@@V?$allocator@U?$pair@$$CBHPAVCEccButton@@@std@@@3@$0A@@std@@@std@@KAPAU_Node@?$_Tree_nod@V?$_Tmap_traits@HPAVCEccButton@@U?$less@H@std@@V?$allocator@U?$pair@$$CBHPAVCEccButton@@@std@@@3@$0A@@std@@@2@PAU342@@Z 0042adc0 f i listtable.obj
 0001:00029de0       ?_Max@?$_Tree@V?$_Tmap_traits@V?$basic_string@DU?$char_traits@D@std@@V?$allocator@D@2@@std@@PAVWCssRule@@U?$less@V?$basic_string@DU?$char_traits@D@std@@V?$allocator@D@2@@std@@@2@V?$allocator@U?$pair@$$CBV?$basic_string@DU?$char_traits@D@std@@V?$allocator@D@2@@std@@PAVWCssRule@@@std@@@2@$0A@@std@@@std@@KAPAU_Node@?$_Tree_nod@V?$_Tmap_traits@V?$basic_string@DU?$char_traits@D@std@@V?$allocator@D@2@@std@@PAVWCssRule@@U?$less@V?$basic_string@DU?$char_traits@D@std@@V?$allocator@D@2@@std@@@2@V?$allocator@U?$pair@$$CBV?$basic_string@DU?$char_traits@D@std@@V?$allocator@D@2@@std@@PAVWCssRule@@@std@@@2@$0A@@std@@@2@PAU342@@Z 0042ade0 f i main.obj
 0001:00029de0       ?_Max@?$_Tree@V?$_Tmap_traits@PAVWObject@@V?$basic_string@DU?$char_traits@D@std@@V?$allocator@D@2@@std@@U?$less@PAVWObject@@@3@V?$allocator@U?$pair@QAVWObject@@V?$basic_string@DU?$char_traits@D@std@@V?$allocator@D@2@@std@@@std@@@3@$0A@@std@@@std@@KAPAU_Node@?$_Tree_nod@V?$_Tmap_traits@PAVWObject@@V?$basic_string@DU?$char_traits@D@std@@V?$allocator@D@2@@std@@U?$less@PAVWObject@@@3@V?$allocator@U?$pair@QAVWObject@@V?$basic_string@DU?$char_traits@D@std@@V?$allocator@D@2@@std@@@std@@@3@$0A@@std@@@2@PAU342@@Z 0042ade0 f i libwt:WSignalMapper.obj
 0001:00029de0       ?_Max@?$_Tree@V?$_Tmap_traits@V?$basic_string@DU?$char_traits@D@std@@V?$allocator@D@2@@std@@PAUScopeFunc@@U?$less@V?$basic_string@DU?$char_traits@D@std@@V?$allocator@D@2@@std@@@2@V?$allocator@U?$pair@$$CBV?$basic_string@DU?$char_traits@D@std@@V?$allocator@D@2@@std@@PAUScopeFunc@@@std@@@2@$0A@@std@@@std@@KAPAU_Node@?$_Tree_nod@V?$_Tmap_traits@V?$basic_string@DU?$char_traits@D@std@@V?$allocator@D@2@@std@@PAUScopeFunc@@U?$less@V?$basic_string@DU?$char_traits@D@std@@V?$allocator@D@2@@std@@@2@V?$allocator@U?$pair@$$CBV?$basic_string@DU?$char_traits@D@std@@V?$allocator@D@2@@std@@PAUScopeFunc@@@std@@@2@$0A@@std@@@2@PAU342@@Z 0042ade0 f i User.obj
 0001:00029de0       ?_Max@?$_Tree@V?$_Tmap_traits@V?$basic_string@DU?$char_traits@D@std@@V?$allocator@D@2@@std@@KU?$less@V?$basic_string@DU?$char_traits@D@std@@V?$allocator@D@2@@std@@@2@V?$allocator@U?$pair@$$CBV?$basic_string@DU?$char_traits@D@std@@V?$allocator@D@2@@std@@K@std@@@2@$0A@@std@@@std@@KAPAU_Node@?$_Tree_nod@V?$_Tmap_traits@V?$basic_string@DU?$char_traits@D@std@@V?$allocator@D@2@@std@@KU?$less@V?$basic_string@DU?$char_traits@D@std@@V?$allocator@D@2@@std@@@2@V?$allocator@U?$pair@$$CBV?$basic_string@DU?$char_traits@D@std@@V?$allocator@D@2@@std@@K@std@@@2@$0A@@std@@@2@PAU342@@Z 0042ade0 f i libboost_regex-vc71-mt-1_33_1:instances.obj
 0001:00029de0       ?_Max@?$_Tree@V?$_Tmap_traits@V?$basic_string@DU?$char_traits@D@std@@V?$allocator@D@2@@std@@PAVWSignalInstance_@@U?$less@V?$basic_string@DU?$char_traits@D@std@@V?$allocator@D@2@@std@@@2@V?$allocator@U?$pair@$$CBV?$basic_string@DU?$char_traits@D@std@@V?$allocator@D@2@@std@@PAVWSignalInstance_@@@std@@@2@$0A@@std@@@std@@KAPAU_Node@?$_Tree_nod@V?$_Tmap_traits@V?$basic_string@DU?$char_traits@D@std@@V?$allocator@D@2@@std@@PAVWSignalInstance_@@U?$less@V?$basic_string@DU?$char_traits@D@std@@V?$allocator@D@2@@std@@@2@V?$allocator@U?$pair@$$CBV?$basic_string@DU?$char_traits@D@std@@V?$allocator@D@2@@std@@PAVWSignalInstance_@@@std@@@2@$0A@@std@@@2@PAU342@@Z 0042ade0 f i mainviewwt.obj
 0001:00029de0       ?_Max@?$_Tree@V?$_Tmap_traits@V?$basic_string@DU?$char_traits@D@std@@V?$allocator@D@2@@std@@_NU?$less@V?$basic_string@DU?$char_traits@D@std@@V?$allocator@D@2@@std@@@2@V?$allocator@U?$pair@$$CBV?$basic_string@DU?$char_traits@D@std@@V?$allocator@D@2@@std@@_N@std@@@2@$0A@@std@@@std@@KAPAU_Node@?$_Tree_nod@V?$_Tmap_traits@V?$basic_string@DU?$char_traits@D@std@@V?$allocator@D@2@@std@@_NU?$less@V?$basic_string@DU?$char_traits@D@std@@V?$allocator@D@2@@std@@@2@V?$allocator@U?$pair@$$CBV?$basic_string@DU?$char_traits@D@std@@V?$allocator@D@2@@std@@_N@std@@@2@$0A@@std@@@2@PAU342@@Z 0042ade0 f i User.obj
 0001:00029de0       ?_Max@?$_Tree@V?$_Tmap_traits@PAVWLineEdit@@V?$basic_string@DU?$char_traits@D@std@@V?$allocator@D@2@@std@@U?$less@PAVWLineEdit@@@3@V?$allocator@U?$pair@QAVWLineEdit@@V?$basic_string@DU?$char_traits@D@std@@V?$allocator@D@2@@std@@@std@@@3@$0A@@std@@@std@@KAPAU_Node@?$_Tree_nod@V?$_Tmap_traits@PAVWLineEdit@@V?$basic_string@DU?$char_traits@D@std@@V?$allocator@D@2@@std@@U?$less@PAVWLineEdit@@@3@V?$allocator@U?$pair@QAVWLineEdit@@V?$basic_string@DU?$char_traits@D@std@@V?$allocator@D@2@@std@@@std@@@3@$0A@@std@@@2@PAU342@@Z 0042ade0 f i sortlist.obj
 0001:00029de0       ?_Max@?$_Tree@V?$_Tmap_traits@HV?$basic_string@DU?$char_traits@D@std@@V?$allocator@D@2@@std@@U?$less@H@2@V?$allocator@U?$pair@$$CBHV?$basic_string@DU?$char_traits@D@std@@V?$allocator@D@2@@std@@@std@@@2@$0A@@std@@@std@@KAPAU_Node@?$_Tree_nod@V?$_Tmap_traits@HV?$basic_string@DU?$char_traits@D@std@@V?$allocator@D@2@@std@@U?$less@H@2@V?$allocator@U?$pair@$$CBHV?$basic_string@DU?$char_traits@D@std@@V?$allocator@D@2@@std@@@std@@@2@$0A@@std@@@2@PAU342@@Z 0042ade0 f i sortlist.obj
 0001:00029de0       ?_Max@?$_Tree@V?$_Tmap_traits@V?$basic_string@DU?$char_traits@D@std@@V?$allocator@D@2@@std@@PAVWSlotInstance_@@U?$less@V?$basic_string@DU?$char_traits@D@std@@V?$allocator@D@2@@std@@@2@V?$allocator@U?$pair@$$CBV?$basic_string@DU?$char_traits@D@std@@V?$allocator@D@2@@std@@PAVWSlotInstance_@@@std@@@2@$0A@@std@@@std@@KAPAU_Node@?$_Tree_nod@V?$_Tmap_traits@V?$basic_string@DU?$char_traits@D@std@@V?$allocator@D@2@@std@@PAVWSlotInstance_@@U?$less@V?$basic_string@DU?$char_traits@D@std@@V?$allocator@D@2@@std@@@2@V?$allocator@U?$pair@$$CBV?$basic_string@DU?$char_traits@D@std@@V?$allocator@D@2@@std@@PAVWSlotInstance_@@@std@@@2@$0A@@std@@@2@PAU342@@Z 0042ade0 f i libwt:WWebWidget.obj
 0001:00029de0       ?_Max@?$_Tree@V?$_Tmap_traits@V?$basic_string@DU?$char_traits@D@std@@V?$allocator@D@2@@std@@PAVWCheckBox@@U?$less@V?$basic_string@DU?$char_traits@D@std@@V?$allocator@D@2@@std@@@2@V?$allocator@U?$pair@$$CBV?$basic_string@DU?$char_traits@D@std@@V?$allocator@D@2@@std@@PAVWCheckBox@@@std@@@2@$0A@@std@@@std@@KAPAU_Node@?$_Tree_nod@V?$_Tmap_traits@V?$basic_string@DU?$char_traits@D@std@@V?$allocator@D@2@@std@@PAVWCheckBox@@U?$less@V?$basic_string@DU?$char_traits@D@std@@V?$allocator@D@2@@std@@@2@V?$allocator@U?$pair@$$CBV?$basic_string@DU?$char_traits@D@std@@V?$allocator@D@2@@std@@PAVWCheckBox@@@std@@@2@$0A@@std@@@2@PAU342@@Z 0042ade0 f i listtable.obj
 0001:00029de0       ?_Max@?$_Tree@V?$_Tmap_traits@W4Property@Wt@@V?$basic_string@DU?$char_traits@D@std@@V?$allocator@D@2@@std@@U?$less@W4Property@Wt@@@4@V?$allocator@U?$pair@$$CBW4Property@Wt@@V?$basic_string@DU?$char_traits@D@std@@V?$allocator@D@2@@std@@@std@@@4@$0A@@std@@@std@@KAPAU_Node@?$_Tree_nod@V?$_Tmap_traits@W4Property@Wt@@V?$basic_string@DU?$char_traits@D@std@@V?$allocator@D@2@@std@@U?$less@W4Property@Wt@@@4@V?$allocator@U?$pair@$$CBW4Property@Wt@@V?$basic_string@DU?$char_traits@D@std@@V?$allocator@D@2@@std@@@std@@@4@$0A@@std@@@2@PAU342@@Z 0042ade0 f i libwt:WWebWidget.obj
 0001:00029e00       ?_Min@?$_Tree@V?$_Tmap_traits@HVCEccTreeGroup@@U?$less@H@std@@V?$allocator@U?$pair@$$CBHVCEccTreeGroup@@@std@@@3@$0A@@std@@@std@@KAPAU_Node@?$_Tree_nod@V?$_Tmap_traits@HVCEccTreeGroup@@U?$less@H@std@@V?$allocator@U?$pair@$$CBHVCEccTreeGroup@@@std@@@3@$0A@@std@@@2@PAU342@@Z 0042ae00 f i sortlist.obj
 0001:00029e20       ?_Min@?$_Tree@V?$_Tmap_traits@HVCEccTreeDevice@@U?$less@H@std@@V?$allocator@U?$pair@$$CBHVCEccTreeDevice@@@std@@@3@$0A@@std@@@std@@KAPAU_Node@?$_Tree_nod@V?$_Tmap_traits@HVCEccTreeDevice@@U?$less@H@std@@V?$allocator@U?$pair@$$CBHVCEccTreeDevice@@@std@@@3@$0A@@std@@@2@PAU342@@Z 0042ae20 f i sortlist.obj
 0001:00029e40       ?_Inc@const_iterator@?$_Tree@V?$_Tmap_traits@HVCEccTreeDevice@@U?$less@H@std@@V?$allocator@U?$pair@$$CBHVCEccTreeDevice@@@std@@@3@$0A@@std@@@std@@QAEXXZ 0042ae40 f i sortlist.obj
 0001:00029ea0       ?_Inc@const_iterator@?$_Tree@V?$_Tmap_traits@HVCEccTreeGroup@@U?$less@H@std@@V?$allocator@U?$pair@$$CBHVCEccTreeGroup@@@std@@@3@$0A@@std@@@std@@QAEXXZ 0042aea0 f i sortlist.obj
 0001:00029f00       ?_Inc@const_iterator@?$_Tree@V?$_Tmap_traits@PAVWObject@@HU?$less@PAVWObject@@@std@@V?$allocator@U?$pair@QAVWObject@@H@std@@@3@$0A@@std@@@std@@QAEXXZ 0042af00 f i libwt:WSignalMapper.obj
 0001:00029f00       ?_Inc@const_iterator@?$_Tree@V?$_Tmap_traits@HPAVWLineEdit@@U?$less@H@std@@V?$allocator@U?$pair@$$CBHPAVWLineEdit@@@std@@@3@$0A@@std@@@std@@QAEXXZ 0042af00 f i sortlist.obj
 0001:00029f00       ?_Inc@const_iterator@?$_Tree@V?$_Tmap_traits@PAVWObject@@PAVWWidget@@U?$less@PAVWObject@@@std@@V?$allocator@U?$pair@QAVWObject@@PAVWWidget@@@std@@@4@$0A@@std@@@std@@QAEXXZ 0042af00 f i libwt:WSignalMapper.obj
 0001:00029f00       ?_Inc@const_iterator@?$_Tree@V?$_Tmap_traits@KViterator@?$list@U?$pair@V?$shared_ptr@V?$w32_regex_traits_implementation@D@re_detail@boost@@@boost@@PBK@std@@V?$allocator@U?$pair@V?$shared_ptr@V?$w32_regex_traits_implementation@D@re_detail@boost@@@boost@@PBK@std@@@2@@std@@U?$less@K@3@V?$allocator@U?$pair@$$CBKViterator@?$list@U?$pair@V?$shared_ptr@V?$w32_regex_traits_implementation@D@re_detail@boost@@@boost@@PBK@std@@V?$allocator@U?$pair@V?$shared_ptr@V?$w32_regex_traits_implementation@D@re_detail@boost@@@boost@@PBK@std@@@2@@std@@@std@@@3@$0A@@std@@@std@@QAEXXZ 0042af00 f i libboost_regex-vc71-mt-1_33_1:instances.obj
 0001:00029f00       ?_Inc@const_iterator@?$_Tree@V?$_Tmap_traits@HPAVCEccButton@@U?$less@H@std@@V?$allocator@U?$pair@$$CBHPAVCEccButton@@@std@@@3@$0A@@std@@@std@@QAEXXZ 0042af00 f i listtable.obj
 0001:00029f60       ?_Inc@const_iterator@?$_Tree@V?$_Tmap_traits@HV?$basic_string@DU?$char_traits@D@std@@V?$allocator@D@2@@std@@U?$less@H@2@V?$allocator@U?$pair@$$CBHV?$basic_string@DU?$char_traits@D@std@@V?$allocator@D@2@@std@@@std@@@2@$0A@@std@@@std@@QAEXXZ 0042af60 f i sortlist.obj
 0001:00029f60       ?_Inc@const_iterator@?$_Tree@V?$_Tmap_traits@V?$basic_string@DU?$char_traits@D@std@@V?$allocator@D@2@@std@@_NU?$less@V?$basic_string@DU?$char_traits@D@std@@V?$allocator@D@2@@std@@@2@V?$allocator@U?$pair@$$CBV?$basic_string@DU?$char_traits@D@std@@V?$allocator@D@2@@std@@_N@std@@@2@$0A@@std@@@std@@QAEXXZ 0042af60 f i User.obj
 0001:00029f60       ?_Inc@const_iterator@?$_Tree@V?$_Tmap_traits@PAVWObject@@V?$basic_string@DU?$char_traits@D@std@@V?$allocator@D@2@@std@@U?$less@PAVWObject@@@3@V?$allocator@U?$pair@QAVWObject@@V?$basic_string@DU?$char_traits@D@std@@V?$allocator@D@2@@std@@@std@@@3@$0A@@std@@@std@@QAEXXZ 0042af60 f i libwt:WSignalMapper.obj
 0001:00029f60       ?_Inc@const_iterator@?$_Tree@V?$_Tmap_traits@V?$basic_string@DU?$char_traits@D@std@@V?$allocator@D@2@@std@@PAVWSlotInstance_@@U?$less@V?$basic_string@DU?$char_traits@D@std@@V?$allocator@D@2@@std@@@2@V?$allocator@U?$pair@$$CBV?$basic_string@DU?$char_traits@D@std@@V?$allocator@D@2@@std@@PAVWSlotInstance_@@@std@@@2@$0A@@std@@@std@@QAEXXZ 0042af60 f i libwt:WWebWidget.obj
 0001:00029f60       ?_Inc@const_iterator@?$_Tree@V?$_Tmap_traits@PAVWLineEdit@@V?$basic_string@DU?$char_traits@D@std@@V?$allocator@D@2@@std@@U?$less@PAVWLineEdit@@@3@V?$allocator@U?$pair@QAVWLineEdit@@V?$basic_string@DU?$char_traits@D@std@@V?$allocator@D@2@@std@@@std@@@3@$0A@@std@@@std@@QAEXXZ 0042af60 f i sortlist.obj
 0001:00029f60       ?_Inc@const_iterator@?$_Tree@V?$_Tmap_traits@V?$basic_string@DU?$char_traits@D@std@@V?$allocator@D@2@@std@@PAVWCheckBox@@U?$less@V?$basic_string@DU?$char_traits@D@std@@V?$allocator@D@2@@std@@@2@V?$allocator@U?$pair@$$CBV?$basic_string@DU?$char_traits@D@std@@V?$allocator@D@2@@std@@PAVWCheckBox@@@std@@@2@$0A@@std@@@std@@QAEXXZ 0042af60 f i listtable.obj
 0001:00029f60       ?_Inc@const_iterator@?$_Tree@V?$_Tmap_traits@V?$basic_string@DU?$char_traits@D@std@@V?$allocator@D@2@@std@@PAUScopeFunc@@U?$less@V?$basic_string@DU?$char_traits@D@std@@V?$allocator@D@2@@std@@@2@V?$allocator@U?$pair@$$CBV?$basic_string@DU?$char_traits@D@std@@V?$allocator@D@2@@std@@PAUScopeFunc@@@std@@@2@$0A@@std@@@std@@QAEXXZ 0042af60 f i User.obj
 0001:00029f60       ?_Inc@const_iterator@?$_Tree@V?$_Tmap_traits@V?$basic_string@DU?$char_traits@D@std@@V?$allocator@D@2@@std@@PAVWCssRule@@U?$less@V?$basic_string@DU?$char_traits@D@std@@V?$allocator@D@2@@std@@@2@V?$allocator@U?$pair@$$CBV?$basic_string@DU?$char_traits@D@std@@V?$allocator@D@2@@std@@PAVWCssRule@@@std@@@2@$0A@@std@@@std@@QAEXXZ 0042af60 f i main.obj
 0001:00029f60       ?_Inc@const_iterator@?$_Tree@V?$_Tmap_traits@V?$basic_string@DU?$char_traits@D@std@@V?$allocator@D@2@@std@@KU?$less@V?$basic_string@DU?$char_traits@D@std@@V?$allocator@D@2@@std@@@2@V?$allocator@U?$pair@$$CBV?$basic_string@DU?$char_traits@D@std@@V?$allocator@D@2@@std@@K@std@@@2@$0A@@std@@@std@@QAEXXZ 0042af60 f i libboost_regex-vc71-mt-1_33_1:instances.obj
 0001:00029f60       ?_Inc@const_iterator@?$_Tree@V?$_Tmap_traits@V?$basic_string@DU?$char_traits@D@std@@V?$allocator@D@2@@std@@PAVWSignalInstance_@@U?$less@V?$basic_string@DU?$char_traits@D@std@@V?$allocator@D@2@@std@@@2@V?$allocator@U?$pair@$$CBV?$basic_string@DU?$char_traits@D@std@@V?$allocator@D@2@@std@@PAVWSignalInstance_@@@std@@@2@$0A@@std@@@std@@QAEXXZ 0042af60 f i mainviewwt.obj
 0001:00029f60       ?_Inc@const_iterator@?$_Tree@V?$_Tmap_traits@W4Property@Wt@@V?$basic_string@DU?$char_traits@D@std@@V?$allocator@D@2@@std@@U?$less@W4Property@Wt@@@4@V?$allocator@U?$pair@$$CBW4Property@Wt@@V?$basic_string@DU?$char_traits@D@std@@V?$allocator@D@2@@std@@@std@@@4@$0A@@std@@@std@@QAEXXZ 0042af60 f i libwt:WWebWidget.obj
 0001:00029fc0       ?_Erase@?$_Tree@V?$_Tmap_traits@HPAVWLineEdit@@U?$less@H@std@@V?$allocator@U?$pair@$$CBHPAVWLineEdit@@@std@@@3@$0A@@std@@@std@@IAEXPAU_Node@?$_Tree_nod@V?$_Tmap_traits@HPAVWLineEdit@@U?$less@H@std@@V?$allocator@U?$pair@$$CBHPAVWLineEdit@@@std@@@3@$0A@@std@@@2@@Z 0042afc0 f i sortlist.obj
 0001:0002a000       ?_Buynode@?$_Tree@V?$_Tmap_traits@PAVWLineEdit@@V?$basic_string@DU?$char_traits@D@std@@V?$allocator@D@2@@std@@U?$less@PAVWLineEdit@@@3@V?$allocator@U?$pair@QAVWLineEdit@@V?$basic_string@DU?$char_traits@D@std@@V?$allocator@D@2@@std@@@std@@@3@$0A@@std@@@std@@IAEPAU_Node@?$_Tree_nod@V?$_Tmap_traits@PAVWLineEdit@@V?$basic_string@DU?$char_traits@D@std@@V?$allocator@D@2@@std@@U?$less@PAVWLineEdit@@@3@V?$allocator@U?$pair@QAVWLineEdit@@V?$basic_string@DU?$char_traits@D@std@@V?$allocator@D@2@@std@@@std@@@3@$0A@@std@@@2@PAU342@00ABU?$pair@QAVWLineEdit@@V?$basic_string@DU?$char_traits@D@std@@V?$allocator@D@2@@std@@@2@D@Z 0042b000 f i sortlist.obj
 0001:0002a000       ?_Buynode@?$_Tree@V?$_Tmap_traits@HV?$basic_string@DU?$char_traits@D@std@@V?$allocator@D@2@@std@@U?$less@H@2@V?$allocator@U?$pair@$$CBHV?$basic_string@DU?$char_traits@D@std@@V?$allocator@D@2@@std@@@std@@@2@$0A@@std@@@std@@IAEPAU_Node@?$_Tree_nod@V?$_Tmap_traits@HV?$basic_string@DU?$char_traits@D@std@@V?$allocator@D@2@@std@@U?$less@H@2@V?$allocator@U?$pair@$$CBHV?$basic_string@DU?$char_traits@D@std@@V?$allocator@D@2@@std@@@std@@@2@$0A@@std@@@2@PAU342@00ABU?$pair@$$CBHV?$basic_string@DU?$char_traits@D@std@@V?$allocator@D@2@@std@@@2@D@Z 0042b000 f i sortlist.obj
 0001:0002a0a0       ?find@?$_Tree@V?$_Tmap_traits@PAVWLineEdit@@V?$basic_string@DU?$char_traits@D@std@@V?$allocator@D@2@@std@@U?$less@PAVWLineEdit@@@3@V?$allocator@U?$pair@QAVWLineEdit@@V?$basic_string@DU?$char_traits@D@std@@V?$allocator@D@2@@std@@@std@@@3@$0A@@std@@@std@@QAE?AViterator@12@ABQAVWLineEdit@@@Z 0042b0a0 f i sortlist.obj
 0001:0002a0a0       ?find@?$_Tree@V?$_Tmap_traits@PAVWObject@@V?$basic_string@DU?$char_traits@D@std@@V?$allocator@D@2@@std@@U?$less@PAVWObject@@@3@V?$allocator@U?$pair@QAVWObject@@V?$basic_string@DU?$char_traits@D@std@@V?$allocator@D@2@@std@@@std@@@3@$0A@@std@@@std@@QAE?AViterator@12@ABQAVWObject@@@Z 0042b0a0 f i libwt:WSignalMapper.obj
 0001:0002a110       ?_Insert@?$_Tree@V?$_Tmap_traits@HPAVWLineEdit@@U?$less@H@std@@V?$allocator@U?$pair@$$CBHPAVWLineEdit@@@std@@@3@$0A@@std@@@std@@IAE?AViterator@12@_NPAU_Node@?$_Tree_nod@V?$_Tmap_traits@HPAVWLineEdit@@U?$less@H@std@@V?$allocator@U?$pair@$$CBHPAVWLineEdit@@@std@@@3@$0A@@std@@@2@ABU?$pair@$$CBHPAVWLineEdit@@@2@@Z 0042b110 f i sortlist.obj
 0001:0002a2d0       ?_Insert@?$_Tree@V?$_Tmap_traits@HV?$basic_string@DU?$char_traits@D@std@@V?$allocator@D@2@@std@@U?$less@H@2@V?$allocator@U?$pair@$$CBHV?$basic_string@DU?$char_traits@D@std@@V?$allocator@D@2@@std@@@std@@@2@$0A@@std@@@std@@IAE?AViterator@12@_NPAU_Node@?$_Tree_nod@V?$_Tmap_traits@HV?$basic_string@DU?$char_traits@D@std@@V?$allocator@D@2@@std@@U?$less@H@2@V?$allocator@U?$pair@$$CBHV?$basic_string@DU?$char_traits@D@std@@V?$allocator@D@2@@std@@@std@@@2@$0A@@std@@@2@ABU?$pair@$$CBHV?$basic_string@DU?$char_traits@D@std@@V?$allocator@D@2@@std@@@2@@Z 0042b2d0 f i sortlist.obj
 0001:0002a2d0       ?_Insert@?$_Tree@V?$_Tmap_traits@PAVWLineEdit@@V?$basic_string@DU?$char_traits@D@std@@V?$allocator@D@2@@std@@U?$less@PAVWLineEdit@@@3@V?$allocator@U?$pair@QAVWLineEdit@@V?$basic_string@DU?$char_traits@D@std@@V?$allocator@D@2@@std@@@std@@@3@$0A@@std@@@std@@IAE?AViterator@12@_NPAU_Node@?$_Tree_nod@V?$_Tmap_traits@PAVWLineEdit@@V?$basic_string@DU?$char_traits@D@std@@V?$allocator@D@2@@std@@U?$less@PAVWLineEdit@@@3@V?$allocator@U?$pair@QAVWLineEdit@@V?$basic_string@DU?$char_traits@D@std@@V?$allocator@D@2@@std@@@std@@@3@$0A@@std@@@2@ABU?$pair@QAVWLineEdit@@V?$basic_string@DU?$char_traits@D@std@@V?$allocator@D@2@@std@@@2@@Z 0042b2d0 f i sortlist.obj
 0001:0002a490       ?erase@?$_Tree@V?$_Tmap_traits@HPAVWLineEdit@@U?$less@H@std@@V?$allocator@U?$pair@$$CBHPAVWLineEdit@@@std@@@3@$0A@@std@@@std@@QAE?AViterator@12@V312@@Z 0042b490 f i sortlist.obj
 0001:0002a760       ?erase@?$_Tree@V?$_Tmap_traits@HV?$basic_string@DU?$char_traits@D@std@@V?$allocator@D@2@@std@@U?$less@H@2@V?$allocator@U?$pair@$$CBHV?$basic_string@DU?$char_traits@D@std@@V?$allocator@D@2@@std@@@std@@@2@$0A@@std@@@std@@QAE?AViterator@12@V312@@Z 0042b760 f i sortlist.obj
 0001:0002a760       ?erase@?$_Tree@V?$_Tmap_traits@PAVWLineEdit@@V?$basic_string@DU?$char_traits@D@std@@V?$allocator@D@2@@std@@U?$less@PAVWLineEdit@@@3@V?$allocator@U?$pair@QAVWLineEdit@@V?$basic_string@DU?$char_traits@D@std@@V?$allocator@D@2@@std@@@std@@@3@$0A@@std@@@std@@QAE?AViterator@12@V312@@Z 0042b760 f i sortlist.obj
 0001:0002aa40       ?_Erase@?$_Tree@V?$_Tmap_traits@PAVWLineEdit@@V?$basic_string@DU?$char_traits@D@std@@V?$allocator@D@2@@std@@U?$less@PAVWLineEdit@@@3@V?$allocator@U?$pair@QAVWLineEdit@@V?$basic_string@DU?$char_traits@D@std@@V?$allocator@D@2@@std@@@std@@@3@$0A@@std@@@std@@IAEXPAU_Node@?$_Tree_nod@V?$_Tmap_traits@PAVWLineEdit@@V?$basic_string@DU?$char_traits@D@std@@V?$allocator@D@2@@std@@U?$less@PAVWLineEdit@@@3@V?$allocator@U?$pair@QAVWLineEdit@@V?$basic_string@DU?$char_traits@D@std@@V?$allocator@D@2@@std@@@std@@@3@$0A@@std@@@2@@Z 0042ba40 f i sortlist.obj
 0001:0002aa80       ?insert@?$_Tree@V?$_Tmap_traits@HPAVWLineEdit@@U?$less@H@std@@V?$allocator@U?$pair@$$CBHPAVWLineEdit@@@std@@@3@$0A@@std@@@std@@QAE?AU?$pair@Viterator@?$_Tree@V?$_Tmap_traits@HPAVWLineEdit@@U?$less@H@std@@V?$allocator@U?$pair@$$CBHPAVWLineEdit@@@std@@@3@$0A@@std@@@std@@_N@2@ABU?$pair@$$CBHPAVWLineEdit@@@2@@Z 0042ba80 f i sortlist.obj
 0001:0002ab40       ?erase@?$_Tree@V?$_Tmap_traits@HPAVWLineEdit@@U?$less@H@std@@V?$allocator@U?$pair@$$CBHPAVWLineEdit@@@std@@@3@$0A@@std@@@std@@QAE?AViterator@12@V312@0@Z 0042bb40 f i sortlist.obj
 0001:0002ac00       ?insert@?$_Tree@V?$_Tmap_traits@PAVWLineEdit@@V?$basic_string@DU?$char_traits@D@std@@V?$allocator@D@2@@std@@U?$less@PAVWLineEdit@@@3@V?$allocator@U?$pair@QAVWLineEdit@@V?$basic_string@DU?$char_traits@D@std@@V?$allocator@D@2@@std@@@std@@@3@$0A@@std@@@std@@QAE?AU?$pair@Viterator@?$_Tree@V?$_Tmap_traits@PAVWLineEdit@@V?$basic_string@DU?$char_traits@D@std@@V?$allocator@D@2@@std@@U?$less@PAVWLineEdit@@@3@V?$allocator@U?$pair@QAVWLineEdit@@V?$basic_string@DU?$char_traits@D@std@@V?$allocator@D@2@@std@@@std@@@3@$0A@@std@@@std@@_N@2@ABU?$pair@QAVWLineEdit@@V?$basic_string@DU?$char_traits@D@std@@V?$allocator@D@2@@std@@@2@@Z 0042bc00 f i sortlist.obj
 0001:0002acc0       ?insert@?$_Tree@V?$_Tmap_traits@HV?$basic_string@DU?$char_traits@D@std@@V?$allocator@D@2@@std@@U?$less@H@2@V?$allocator@U?$pair@$$CBHV?$basic_string@DU?$char_traits@D@std@@V?$allocator@D@2@@std@@@std@@@2@$0A@@std@@@std@@QAE?AU?$pair@Viterator@?$_Tree@V?$_Tmap_traits@HV?$basic_string@DU?$char_traits@D@std@@V?$allocator@D@2@@std@@U?$less@H@2@V?$allocator@U?$pair@$$CBHV?$basic_string@DU?$char_traits@D@std@@V?$allocator@D@2@@std@@@std@@@2@$0A@@std@@@std@@_N@2@ABU?$pair@$$CBHV?$basic_string@DU?$char_traits@D@std@@V?$allocator@D@2@@std@@@2@@Z 0042bcc0 f i sortlist.obj
 0001:0002ad80       ?_Erase@?$_Tree@V?$_Tmap_traits@HV?$basic_string@DU?$char_traits@D@std@@V?$allocator@D@2@@std@@U?$less@H@2@V?$allocator@U?$pair@$$CBHV?$basic_string@DU?$char_traits@D@std@@V?$allocator@D@2@@std@@@std@@@2@$0A@@std@@@std@@IAEXPAU_Node@?$_Tree_nod@V?$_Tmap_traits@HV?$basic_string@DU?$char_traits@D@std@@V?$allocator@D@2@@std@@U?$less@H@2@V?$allocator@U?$pair@$$CBHV?$basic_string@DU?$char_traits@D@std@@V?$allocator@D@2@@std@@@std@@@2@$0A@@std@@@2@@Z 0042bd80 f i sortlist.obj
 0001:0002adc0       ?saveGroup@CEccSortTable@@AAEXAAV?$map@HV?$basic_string@DU?$char_traits@D@std@@V?$allocator@D@2@@std@@U?$less@H@2@V?$allocator@U?$pair@$$CBHV?$basic_string@DU?$char_traits@D@std@@V?$allocator@D@2@@std@@@std@@@2@@std@@@Z 0042bdc0 f   sortlist.obj
 0001:0002afa0       ?saveDevice@CEccSortTable@@AAEXAAV?$map@HV?$basic_string@DU?$char_traits@D@std@@V?$allocator@D@2@@std@@U?$less@H@2@V?$allocator@U?$pair@$$CBHV?$basic_string@DU?$char_traits@D@std@@V?$allocator@D@2@@std@@@std@@@2@@std@@@Z 0042bfa0 f   sortlist.obj
 0001:0002b180       ?saveMonitor@CEccSortTable@@AAEXAAV?$map@HV?$basic_string@DU?$char_traits@D@std@@V?$allocator@D@2@@std@@U?$less@H@2@V?$allocator@U?$pair@$$CBHV?$basic_string@DU?$char_traits@D@std@@V?$allocator@D@2@@std@@@std@@@2@@std@@@Z 0042c180 f   sortlist.obj
 0001:0002b360       ?insert@?$_Tree@V?$_Tmap_traits@HPAVWLineEdit@@U?$less@H@std@@V?$allocator@U?$pair@$$CBHPAVWLineEdit@@@std@@@3@$0A@@std@@@std@@QAE?AViterator@12@V312@ABU?$pair@$$CBHPAVWLineEdit@@@2@@Z 0042c360 f i sortlist.obj
 0001:0002b4d0       ?insert@?$_Tree@V?$_Tmap_traits@PAVWLineEdit@@V?$basic_string@DU?$char_traits@D@std@@V?$allocator@D@2@@std@@U?$less@PAVWLineEdit@@@3@V?$allocator@U?$pair@QAVWLineEdit@@V?$basic_string@DU?$char_traits@D@std@@V?$allocator@D@2@@std@@@std@@@3@$0A@@std@@@std@@QAE?AViterator@12@V312@ABU?$pair@QAVWLineEdit@@V?$basic_string@DU?$char_traits@D@std@@V?$allocator@D@2@@std@@@2@@Z 0042c4d0 f i sortlist.obj
 0001:0002b640       ?insert@?$_Tree@V?$_Tmap_traits@HV?$basic_string@DU?$char_traits@D@std@@V?$allocator@D@2@@std@@U?$less@H@2@V?$allocator@U?$pair@$$CBHV?$basic_string@DU?$char_traits@D@std@@V?$allocator@D@2@@std@@@std@@@2@$0A@@std@@@std@@QAE?AViterator@12@V312@ABU?$pair@$$CBHV?$basic_string@DU?$char_traits@D@std@@V?$allocator@D@2@@std@@@2@@Z 0042c640 f i sortlist.obj
 0001:0002b7b0       ?erase@?$_Tree@V?$_Tmap_traits@PAVWLineEdit@@V?$basic_string@DU?$char_traits@D@std@@V?$allocator@D@2@@std@@U?$less@PAVWLineEdit@@@3@V?$allocator@U?$pair@QAVWLineEdit@@V?$basic_string@DU?$char_traits@D@std@@V?$allocator@D@2@@std@@@std@@@3@$0A@@std@@@std@@QAE?AViterator@12@V312@0@Z 0042c7b0 f i sortlist.obj
 0001:0002b870       ??A?$map@HPAVWLineEdit@@U?$less@H@std@@V?$allocator@U?$pair@$$CBHPAVWLineEdit@@@std@@@3@@std@@QAEAAPAVWLineEdit@@ABH@Z 0042c870 f i sortlist.obj
 0001:0002b8f0       ??A?$map@PAVWLineEdit@@V?$basic_string@DU?$char_traits@D@std@@V?$allocator@D@2@@std@@U?$less@PAVWLineEdit@@@3@V?$allocator@U?$pair@QAVWLineEdit@@V?$basic_string@DU?$char_traits@D@std@@V?$allocator@D@2@@std@@@std@@@3@@std@@QAEAAV?$basic_string@DU?$char_traits@D@std@@V?$allocator@D@2@@1@ABQAVWLineEdit@@@Z 0042c8f0 f i sortlist.obj
 0001:0002b9c0       ??A?$map@HV?$basic_string@DU?$char_traits@D@std@@V?$allocator@D@2@@std@@U?$less@H@2@V?$allocator@U?$pair@$$CBHV?$basic_string@DU?$char_traits@D@std@@V?$allocator@D@2@@std@@@std@@@2@@std@@QAEAAV?$basic_string@DU?$char_traits@D@std@@V?$allocator@D@2@@1@ABH@Z 0042c9c0 f i sortlist.obj
 0001:0002ba90       ?erase@?$_Tree@V?$_Tmap_traits@HV?$basic_string@DU?$char_traits@D@std@@V?$allocator@D@2@@std@@U?$less@H@2@V?$allocator@U?$pair@$$CBHV?$basic_string@DU?$char_traits@D@std@@V?$allocator@D@2@@std@@@std@@@2@$0A@@std@@@std@@QAE?AViterator@12@V312@0@Z 0042ca90 f i sortlist.obj
 0001:0002bb50       ??1?$map@HPAVWLineEdit@@U?$less@H@std@@V?$allocator@U?$pair@$$CBHPAVWLineEdit@@@std@@@3@@std@@QAE@XZ 0042cb50 f i sortlist.obj
 0001:0002bb80       ?enumDevice@CEccSortTable@@AAEXPBVCEccTreeNode@@@Z 0042cb80 f   sortlist.obj
 0001:0002bdf0       ?enumGroup@CEccSortTable@@AAEXPBVCEccTreeNode@@@Z 0042cdf0 f   sortlist.obj
 0001:0002c060       ?enumMonitor@CEccSortTable@@AAEXPBVCEccTreeNode@@@Z 0042d060 f   sortlist.obj
 0001:0002c2c0       ??1?$map@PAVWLineEdit@@V?$basic_string@DU?$char_traits@D@std@@V?$allocator@D@2@@std@@U?$less@PAVWLineEdit@@@3@V?$allocator@U?$pair@QAVWLineEdit@@V?$basic_string@DU?$char_traits@D@std@@V?$allocator@D@2@@std@@@std@@@3@@std@@QAE@XZ 0042d2c0 f i sortlist.obj
 0001:0002c2f0       ?setSortNode@CEccSortTable@@QAEXPBVCEccTreeNode@@H@Z 0042d2f0 f   sortlist.obj
 0001:0002c450       ??0CEccSortTable@@QAE@PAVWContainerWidget@@@Z 0042d450 f   sortlist.obj
 0001:0002c540       ??_GCEccSortTable@@UAEPAXI@Z 0042d540 f i sortlist.obj
 0001:0002c540       ??_ECEccSortTable@@UAEPAXI@Z 0042d540 f i sortlist.obj
 0001:0002c560       ??1CEccSortTable@@UAE@XZ   0042d560 f i sortlist.obj
 0001:0002c640       ??1?$map@HV?$basic_string@DU?$char_traits@D@std@@V?$allocator@D@2@@std@@U?$less@H@2@V?$allocator@U?$pair@$$CBHV?$basic_string@DU?$char_traits@D@std@@V?$allocator@D@2@@std@@@std@@@2@@std@@QAE@XZ 0042d640 f i sortlist.obj
 0001:0002c670       ?checkDisplayIndex@CEccSortTable@@AAEXXZ 0042d670 f   sortlist.obj
 0001:0002c870       ?Save@CEccSortTable@@AAEXXZ 0042d870 f   sortlist.obj
 0001:0002c890       ?buildSlotMap@CEccSortTable@@MAEXAAV?$map@V?$basic_string@DU?$char_traits@D@std@@V?$allocator@D@2@@std@@PAVWSlotInstance_@@U?$less@V?$basic_string@DU?$char_traits@D@std@@V?$allocator@D@2@@std@@@2@V?$allocator@U?$pair@$$CBV?$basic_string@DU?$char_traits@D@std@@V?$allocator@D@2@@std@@PAVWSlotInstance_@@@std@@@2@@std@@@Z 0042d890 f   sortlistwt.obj
 0001:0002c980       ?triggerSlot@CEccSortTable@@MAE_NPAVWObject@@PBVWSlot_@@PAPAX@Z 0042d980 f   sortlistwt.obj
 0001:0002c9c0       ?buildSignalMap@CEccSortTable@@MAEXAAV?$map@V?$basic_string@DU?$char_traits@D@std@@V?$allocator@D@2@@std@@PAVWSignalInstance_@@U?$less@V?$basic_string@DU?$char_traits@D@std@@V?$allocator@D@2@@std@@@2@V?$allocator@U?$pair@$$CBV?$basic_string@DU?$char_traits@D@std@@V?$allocator@D@2@@std@@PAVWSignalInstance_@@@std@@@2@@std@@@Z 0042d9c0 f   sortlistwt.obj
 0001:0002ca80       ?initForm@CEccStateDesc@@AAEXXZ 0042da80 f   statedesc.obj
 0001:0002cef0       ??0CEccStateDesc@@QAE@PAVWContainerWidget@@@Z 0042def0 f   statedesc.obj
 0001:0002cf40       ??_GCEccImportButton@@UAEPAXI@Z 0042df40 f i pushbutton.obj
 0001:0002cf40       ??_GCEccSVSEView@@UAEPAXI@Z 0042df40 f i svseview.obj
 0001:0002cf40       ??_ECEccGroupView@@UAEPAXI@Z 0042df40 f i groupview.obj
 0001:0002cf40       ??_ECEccGenTitle@@UAEPAXI@Z 0042df40 f i gentitle.obj
 0001:0002cf40       ??_GCEccGenTitle@@UAEPAXI@Z 0042df40 f i gentitle.obj
 0001:0002cf40       ??_GCEccStateDesc@@UAEPAXI@Z 0042df40 f i statedesc.obj
 0001:0002cf40       ??_ECEccButton@@UAEPAXI@Z  0042df40 f i pushbutton.obj
 0001:0002cf40       ??_ECEccImportButton@@UAEPAXI@Z 0042df40 f i pushbutton.obj
 0001:0002cf40       ??_GCEccGroupView@@UAEPAXI@Z 0042df40 f i groupview.obj
 0001:0002cf40       ??_ECEccStateDesc@@UAEPAXI@Z 0042df40 f i statedesc.obj
 0001:0002cf40       ??_GCEccButton@@UAEPAXI@Z  0042df40 f i pushbutton.obj
 0001:0002cf40       ??_ECEccSVSEView@@UAEPAXI@Z 0042df40 f i svseview.obj
 0001:0002cf60       ??1CEccGroupView@@UAE@XZ   0042df60 f i groupview.obj
 0001:0002cf60       ??1CEccStateDesc@@UAE@XZ   0042df60 f i statedesc.obj
 0001:0002cf60       ??1CEccButton@@UAE@XZ      0042df60 f i pushbutton.obj
 0001:0002cf60       ??1CEccImportButton@@UAE@XZ 0042df60 f i pushbutton.obj
 0001:0002cf60       ??1CEccSVSEView@@UAE@XZ    0042df60 f i svseview.obj
 0001:0002cf60       ??1CEccGenTitle@@UAE@XZ    0042df60 f i gentitle.obj
 0001:0002cf70       ?buildSlotMap@CEccStateDesc@@MAEXAAV?$map@V?$basic_string@DU?$char_traits@D@std@@V?$allocator@D@2@@std@@PAVWSlotInstance_@@U?$less@V?$basic_string@DU?$char_traits@D@std@@V?$allocator@D@2@@std@@@2@V?$allocator@U?$pair@$$CBV?$basic_string@DU?$char_traits@D@std@@V?$allocator@D@2@@std@@PAVWSlotInstance_@@@std@@@2@@std@@@Z 0042df70 f   statedescwt.obj
 0001:0002d060       ?buildSignalMap@CEccStateDesc@@MAEXAAV?$map@V?$basic_string@DU?$char_traits@D@std@@V?$allocator@D@2@@std@@PAVWSignalInstance_@@U?$less@V?$basic_string@DU?$char_traits@D@std@@V?$allocator@D@2@@std@@@2@V?$allocator@U?$pair@$$CBV?$basic_string@DU?$char_traits@D@std@@V?$allocator@D@2@@std@@PAVWSignalInstance_@@@std@@@2@@std@@@Z 0042e060 f   statedescwt.obj
 0001:0002d120       ?createStateDesc@CEccGroupView@@AAEXXZ 0042e120 f   groupview.obj
 0001:0002d190       ?createTitle@CEccGroupView@@AAEXXZ 0042e190 f   groupview.obj
 0001:0002d210       ?createGeneral@CEccGroupView@@AAEXXZ 0042e210 f   groupview.obj
 0001:0002d830       ?UpdataGeneralData@CEccGroupView@@QAEXPBVCEccTreeGroup@@@Z 0042e830 f   groupview.obj
 0001:0002d930       ?clearDeviceList@CEccGroupView@@AAEXXZ 0042e930 f   groupview.obj
 0001:0002d970       ?_Incsize@?$list@HV?$allocator@H@std@@@std@@IAEXI@Z 0042e970 f i groupview.obj
 0001:0002da10       ?_Tidy@?$list@HV?$allocator@H@std@@@std@@IAEXXZ 0042ea10 f i groupview.obj
 0001:0002da10       ??1?$list@PAVCEccParamItem@@V?$allocator@PAVCEccParamItem@@@std@@@std@@QAE@XZ 0042ea10 f i adddevice2nd.obj
 0001:0002da10       ??1?$list@HV?$allocator@H@std@@@std@@QAE@XZ 0042ea10 f i groupview.obj
 0001:0002da10       ??1?$list@PAVWCheckBox@@V?$allocator@PAVWCheckBox@@@std@@@std@@QAE@XZ 0042ea10 f i adddevice3rd.obj
 0001:0002da10       ??1?$list@PAVSVReturnItem@@V?$allocator@PAVSVReturnItem@@@std@@@std@@QAE@XZ 0042ea10 f i conditionparam.obj
 0001:0002da10       ??1?$list@PAVWText@@V?$allocator@PAVWText@@@std@@@std@@QAE@XZ 0042ea10 f i advanceparam.obj
 0001:0002da30       ?EnumGroup@CEccGroupView@@AAEXPBVCEccTreeGroup@@@Z 0042ea30 f   groupview.obj
 0001:0002e360       ?EnumDevice@CEccGroupView@@AAEXPBVCEccTreeGroup@@@Z 0042f360 f   groupview.obj
 0001:0002edf0       ?createDeviceList@CEccGroupView@@AAEXXZ 0042fdf0 f   groupview.obj
 0001:0002f390       ?createGroupList@CEccGroupView@@AAEXXZ 00430390 f   groupview.obj
 0001:0002f890       ?changePath@CEccGroupView@@AAEXABV?$basic_string@DU?$char_traits@D@std@@V?$allocator@D@2@@std@@@Z 00430890 f   groupview.obj
 0001:0002fcb0       ?initForm@CEccGroupView@@AAEXXZ 00430cb0 f   groupview.obj
 0001:0002fe70       ?setCurrentObj@CEccGroupView@@QAEXPBVCEccTreeGroup@@@Z 00430e70 f   groupview.obj
 0001:00030040       ??0CEccGroupView@@QAE@PAVWContainerWidget@@@Z 00431040 f   groupview.obj
 0001:000300e0       ?buildSlotMap@CEccGroupView@@MAEXAAV?$map@V?$basic_string@DU?$char_traits@D@std@@V?$allocator@D@2@@std@@PAVWSlotInstance_@@U?$less@V?$basic_string@DU?$char_traits@D@std@@V?$allocator@D@2@@std@@@2@V?$allocator@U?$pair@$$CBV?$basic_string@DU?$char_traits@D@std@@V?$allocator@D@2@@std@@PAVWSlotInstance_@@@std@@@2@@std@@@Z 004310e0 f   groupviewwt.obj
 0001:000301d0       ?buildSignalMap@CEccGroupView@@MAEXAAV?$map@V?$basic_string@DU?$char_traits@D@std@@V?$allocator@D@2@@std@@PAVWSignalInstance_@@U?$less@V?$basic_string@DU?$char_traits@D@std@@V?$allocator@D@2@@std@@@2@V?$allocator@U?$pair@$$CBV?$basic_string@DU?$char_traits@D@std@@V?$allocator@D@2@@std@@PAVWSignalInstance_@@@std@@@2@@std@@@Z 004311d0 f   groupviewwt.obj
 0001:00030290       ?createStateDesc@CEccMonitorView@@AAEXXZ 00431290 f   monitorview.obj
 0001:00030300       ?createTitle@CEccMonitorView@@AAEXXZ 00431300 f   monitorview.obj
 0001:00030380       ?createGeneral@CEccMonitorView@@AAEXXZ 00431380 f   monitorview.obj
 0001:00030aa0       ?UpdataGeneralData@CEccMonitorView@@QAEXPBVCEccTreeDevice@@@Z 00431aa0 f   monitorview.obj
 0001:00030ba0       ?clearMonitorList@CEccMonitorView@@AAEXXZ 00431ba0 f   monitorview.obj
 0001:00030ba0       ?clearGroupList@CEccGroupView@@AAEXXZ 00431ba0 f   groupview.obj
 0001:00030be0       ?AddNewMonitor@CEccMonitorView@@SAXV?$basic_string@DU?$char_traits@D@std@@V?$allocator@D@2@@std@@@Z 00431be0 f   monitorview.obj
 0001:00030c90       ?createMonitorList@CEccMonitorView@@AAEXXZ 00431c90 f   monitorview.obj
 0001:00031270       ?changePath@CEccMonitorView@@AAEXABV?$basic_string@DU?$char_traits@D@std@@V?$allocator@D@2@@std@@@Z 00432270 f   monitorview.obj
 0001:00031690       ?initForm@CEccMonitorView@@AAEXXZ 00432690 f   monitorview.obj
 0001:00031840       ?setDeviceNode@CEccMonitorView@@QAEXPBVCEccTreeDevice@@@Z 00432840 f   monitorview.obj
 0001:00032660       ??0CEccMonitorView@@QAE@PAVWContainerWidget@@@Z 00433660 f   monitorview.obj
 0001:00032750       ??_ECEccMonitorView@@UAEPAXI@Z 00433750 f i monitorview.obj
 0001:00032750       ??_GCEccMonitorView@@UAEPAXI@Z 00433750 f i monitorview.obj
 0001:00032770       ??1CEccMonitorView@@UAE@XZ 00433770 f i monitorview.obj
 0001:000327f0       ?buildSlotMap@CEccMonitorView@@MAEXAAV?$map@V?$basic_string@DU?$char_traits@D@std@@V?$allocator@D@2@@std@@PAVWSlotInstance_@@U?$less@V?$basic_string@DU?$char_traits@D@std@@V?$allocator@D@2@@std@@@2@V?$allocator@U?$pair@$$CBV?$basic_string@DU?$char_traits@D@std@@V?$allocator@D@2@@std@@PAVWSlotInstance_@@@std@@@2@@std@@@Z 004337f0 f   monitorviewwt.obj
 0001:000328e0       ?buildSignalMap@CEccMonitorView@@MAEXAAV?$map@V?$basic_string@DU?$char_traits@D@std@@V?$allocator@D@2@@std@@PAVWSignalInstance_@@U?$less@V?$basic_string@DU?$char_traits@D@std@@V?$allocator@D@2@@std@@@2@V?$allocator@U?$pair@$$CBV?$basic_string@DU?$char_traits@D@std@@V?$allocator@D@2@@std@@PAVWSignalInstance_@@@std@@@2@@std@@@Z 004338e0 f   monitorviewwt.obj
 0001:000329a0       ?EditSVSE@CEccEidtSVSE@@QAEXABV?$basic_string@DU?$char_traits@D@std@@V?$allocator@D@2@@std@@@Z 004339a0 f   addsvse.obj
 0001:00032ac0       ?checkName@CEccEidtSVSE@@AAE_NAAV?$basic_string@DU?$char_traits@D@std@@V?$allocator@D@2@@std@@@Z 00433ac0 f   addsvse.obj
 0001:00032bd0       ?createOperater@CEccEidtSVSE@@AAEXXZ 00433bd0 f   addsvse.obj
 0001:00032dc0       ?saveSVSE@CEccEidtSVSE@@AAEXXZ 00433dc0 f   addsvse.obj
 0001:00032f80       ?ShowHideHelp@CEccEidtSVSE@@EAEXXZ 00433f80 f   addsvse.obj
 0001:00032fc0       ?createGeneral@CEccEidtSVSE@@AAEXXZ 00433fc0 f   addsvse.obj
 0001:00033380       ?initForm@CEccEidtSVSE@@EAEX_N@Z 00434380 f   addsvse.obj
 0001:000333b0       ??0CEccEidtSVSE@@QAE@PAVWContainerWidget@@@Z 004343b0 f   addsvse.obj
 0001:00033450       ??_ECEccEidtSVSE@@UAEPAXI@Z 00434450 f i addsvse.obj
 0001:00033450       ??_GCEccEidtSVSE@@UAEPAXI@Z 00434450 f i addsvse.obj
 0001:00033470       ??1CEccEidtSVSE@@UAE@XZ    00434470 f i addsvse.obj
 0001:000334f0       ?buildSlotMap@CEccEidtSVSE@@MAEXAAV?$map@V?$basic_string@DU?$char_traits@D@std@@V?$allocator@D@2@@std@@PAVWSlotInstance_@@U?$less@V?$basic_string@DU?$char_traits@D@std@@V?$allocator@D@2@@std@@@2@V?$allocator@U?$pair@$$CBV?$basic_string@DU?$char_traits@D@std@@V?$allocator@D@2@@std@@PAVWSlotInstance_@@@std@@@2@@std@@@Z 004344f0 f   addsvsewt.obj
 0001:000335e0       ?triggerSlot@CEccEidtSVSE@@MAE_NPAVWObject@@PBVWSlot_@@PAPAX@Z 004345e0 f   addsvsewt.obj
 0001:00033620       ?buildSignalMap@CEccEidtSVSE@@MAEXAAV?$map@V?$basic_string@DU?$char_traits@D@std@@V?$allocator@D@2@@std@@PAVWSignalInstance_@@U?$less@V?$basic_string@DU?$char_traits@D@std@@V?$allocator@D@2@@std@@@2@V?$allocator@U?$pair@$$CBV?$basic_string@DU?$char_traits@D@std@@V?$allocator@D@2@@std@@PAVWSignalInstance_@@@std@@@2@@std@@@Z 00434620 f   addsvsewt.obj
 0001:000336e0       ?createStateDesc@CEccSVSEView@@AAEXXZ 004346e0 f   svseview.obj
 0001:00033750       ?createTitle@CEccSVSEView@@AAEXXZ 00434750 f   svseview.obj
 0001:00033810       ?refreshTime@CEccSVSEView@@QAEXXZ 00434810 f   svseview.obj
 0001:00033810       ?refreshTime@CEccGroupView@@QAEXXZ 00434810 f   groupview.obj
 0001:00033810       ?refreshTime@CEccMonitorView@@QAEXXZ 00434810 f   monitorview.obj
 0001:00033820       ?_Min@?$_Tree@V?$_Tmap_traits@V?$basic_string@DU?$char_traits@D@std@@V?$allocator@D@2@@std@@VCEccTreeGroup@@U?$less@V?$basic_string@DU?$char_traits@D@std@@V?$allocator@D@2@@std@@@2@V?$allocator@U?$pair@$$CBV?$basic_string@DU?$char_traits@D@std@@V?$allocator@D@2@@std@@VCEccTreeGroup@@@std@@@2@$0A@@std@@@std@@KAPAU_Node@?$_Tree_nod@V?$_Tmap_traits@V?$basic_string@DU?$char_traits@D@std@@V?$allocator@D@2@@std@@VCEccTreeGroup@@U?$less@V?$basic_string@DU?$char_traits@D@std@@V?$allocator@D@2@@std@@@2@V?$allocator@U?$pair@$$CBV?$basic_string@DU?$char_traits@D@std@@V?$allocator@D@2@@std@@VCEccTreeGroup@@@std@@@2@$0A@@std@@@2@PAU342@@Z 00434820 f i svseview.obj
 0001:00033840       ?_Inc@const_iterator@?$_Tree@V?$_Tmap_traits@V?$basic_string@DU?$char_traits@D@std@@V?$allocator@D@2@@std@@VCEccTreeGroup@@U?$less@V?$basic_string@DU?$char_traits@D@std@@V?$allocator@D@2@@std@@@2@V?$allocator@U?$pair@$$CBV?$basic_string@DU?$char_traits@D@std@@V?$allocator@D@2@@std@@VCEccTreeGroup@@@std@@@2@$0A@@std@@@std@@QAEXXZ 00434840 f i svseview.obj
 0001:000338a0       ?EnumSVSE@CEccSVSEView@@AAEXXZ 004348a0 f   svseview.obj
 0001:00033cb0       ?createSVSEList@CEccSVSEView@@AAEXXZ 00434cb0 f   svseview.obj
 0001:00033ea0       ?initForm@CEccSVSEView@@AAEXXZ 00434ea0 f   svseview.obj
 0001:00034050       ??0CEccSVSEView@@QAE@PAVWContainerWidget@@@Z 00435050 f   svseview.obj
 0001:000340d0       ?buildSlotMap@CEccSVSEView@@MAEXAAV?$map@V?$basic_string@DU?$char_traits@D@std@@V?$allocator@D@2@@std@@PAVWSlotInstance_@@U?$less@V?$basic_string@DU?$char_traits@D@std@@V?$allocator@D@2@@std@@@2@V?$allocator@U?$pair@$$CBV?$basic_string@DU?$char_traits@D@std@@V?$allocator@D@2@@std@@PAVWSlotInstance_@@@std@@@2@@std@@@Z 004350d0 f   svseviewwt.obj
 0001:000341c0       ?buildSignalMap@CEccSVSEView@@MAEXAAV?$map@V?$basic_string@DU?$char_traits@D@std@@V?$allocator@D@2@@std@@PAVWSignalInstance_@@U?$less@V?$basic_string@DU?$char_traits@D@std@@V?$allocator@D@2@@std@@@2@V?$allocator@U?$pair@$$CBV?$basic_string@DU?$char_traits@D@std@@V?$allocator@D@2@@std@@PAVWSignalInstance_@@@std@@@2@@std@@@Z 004351c0 f   svseviewwt.obj
 0001:000343a0       ?createAdvance@CEccGroupOperate@@AAEXXZ 004353a0 f   addgroup.obj
 0001:00034420       ?createOperate@CEccGroupOperate@@AAEXXZ 00435420 f   addgroup.obj
 0001:00034610       ?AddGroup@CEccGroupOperate@@QAEXV?$basic_string@DU?$char_traits@D@std@@V?$allocator@D@2@@std@@@Z 00435610 f   addgroup.obj
 0001:00034730       ?checkName@CEccGroupOperate@@AAE_NAAV?$basic_string@DU?$char_traits@D@std@@V?$allocator@D@2@@std@@@Z 00435730 f   addgroup.obj
 0001:00034840       ?EditGroup@CEccGroupOperate@@QAEXV?$basic_string@DU?$char_traits@D@std@@V?$allocator@D@2@@std@@@Z 00435840 f   addgroup.obj
 0001:00034a30       ?SaveGroup@CEccGroupOperate@@AAEXXZ 00435a30 f   addgroup.obj
 0001:00035140       ?ShowHideHelp@CEccGroupOperate@@EAEXXZ 00436140 f   addgroup.obj
 0001:000351b0       ?createGeneral@CEccGroupOperate@@AAEXXZ 004361b0 f   addgroup.obj
 0001:00035570       ?initForm@CEccGroupOperate@@EAEX_N@Z 00436570 f   addgroup.obj
 0001:000355d0       ??0CEccGroupOperate@@QAE@PAVWContainerWidget@@@Z 004365d0 f   addgroup.obj
 0001:00035670       ??_GCEccGroupOperate@@UAEPAXI@Z 00436670 f i addgroup.obj
 0001:00035670       ??_ECEccGroupOperate@@UAEPAXI@Z 00436670 f i addgroup.obj
 0001:00035690       ??1CEccGroupOperate@@UAE@XZ 00436690 f i addgroup.obj
 0001:00035720       ?buildSlotMap@CEccGroupOperate@@MAEXAAV?$map@V?$basic_string@DU?$char_traits@D@std@@V?$allocator@D@2@@std@@PAVWSlotInstance_@@U?$less@V?$basic_string@DU?$char_traits@D@std@@V?$allocator@D@2@@std@@@2@V?$allocator@U?$pair@$$CBV?$basic_string@DU?$char_traits@D@std@@V?$allocator@D@2@@std@@PAVWSlotInstance_@@@std@@@2@@std@@@Z 00436720 f   addgroupwt.obj
 0001:00035810       ?triggerSlot@CEccGroupOperate@@MAE_NPAVWObject@@PBVWSlot_@@PAPAX@Z 00436810 f   addgroupwt.obj
 0001:00035850       ?buildSignalMap@CEccGroupOperate@@MAEXAAV?$map@V?$basic_string@DU?$char_traits@D@std@@V?$allocator@D@2@@std@@PAVWSignalInstance_@@U?$less@V?$basic_string@DU?$char_traits@D@std@@V?$allocator@D@2@@std@@@2@V?$allocator@U?$pair@$$CBV?$basic_string@DU?$char_traits@D@std@@V?$allocator@D@2@@std@@PAVWSignalInstance_@@@std@@@2@@std@@@Z 00436850 f   addgroupwt.obj
 0001:00035910       ?createOperate@CEccAddDevice1st@@AAEXXZ 00436910 f   adddevice1st.obj
 0001:00035a30       ?AddDeviceByType@CEccAddDevice1st@@AAEXV?$basic_string@DU?$char_traits@D@std@@V?$allocator@D@2@@std@@@Z 00436a30 f   adddevice1st.obj
 0001:00035ac0       ?setParentID@CEccAddDevice1st@@QAEXV?$basic_string@DU?$char_traits@D@std@@V?$allocator@D@2@@std@@@Z 00436ac0 f   adddevice1st.obj
 0001:00035b10       ?removeMapping@CEccAddDevice1st@@AAEXXZ 00436b10 f   adddevice1st.obj
 0001:00035b80       ??1CEccAddDevice1st@@UAE@XZ 00436b80 f   adddevice1st.obj
 0001:00035c40       ??_GCEccAddDevice1st@@UAEPAXI@Z 00436c40 f i adddevice1st.obj
 0001:00035c40       ??_ECEccAddDevice1st@@UAEPAXI@Z 00436c40 f i adddevice1st.obj
 0001:00035c60       ?AddDeviceTemplet@CEccAddDevice1st@@AAEXV?$basic_string@DU?$char_traits@D@std@@V?$allocator@D@2@@std@@PAVWTable@@@Z 00436c60 f   adddevice1st.obj
 0001:000361a0       ?enumDeviceGroup@CEccAddDevice1st@@AAEXXZ 004371a0 f   adddevice1st.obj
 0001:00036b50       ?initForm@CEccAddDevice1st@@EAEX_N@Z 00437b50 f   adddevice1st.obj
 0001:00036bc0       ??0CEccAddDevice1st@@QAE@PAVWContainerWidget@@@Z 00437bc0 f   adddevice1st.obj
 0001:00036c90       ?buildSlotMap@CEccAddDevice1st@@MAEXAAV?$map@V?$basic_string@DU?$char_traits@D@std@@V?$allocator@D@2@@std@@PAVWSlotInstance_@@U?$less@V?$basic_string@DU?$char_traits@D@std@@V?$allocator@D@2@@std@@@2@V?$allocator@U?$pair@$$CBV?$basic_string@DU?$char_traits@D@std@@V?$allocator@D@2@@std@@PAVWSlotInstance_@@@std@@@2@@std@@@Z 00437c90 f   adddevice1stwt.obj
 0001:00036d80       ?triggerSlot@CEccAddDevice1st@@MAE_NPAVWObject@@PBVWSlot_@@PAPAX@Z 00437d80 f   adddevice1stwt.obj
 0001:00036df0       ?undoTriggerSlot@CEccSortTable@@MAE_NPBVWSlot_@@PAPAX@Z 00437df0 f   sortlistwt.obj
 0001:00036df0       ?undoTriggerSlot@CEccGroupOperate@@MAE_NPBVWSlot_@@PAPAX@Z 00437df0 f   addgroupwt.obj
 0001:00036df0       ?undoTriggerSlot@CEccAddDevice3rd@@MAE_NPBVWSlot_@@PAPAX@Z 00437df0 f   adddevice3rdwt.obj
 0001:00036df0       ?undoTriggerSlot@CEccAddDevice2nd@@MAE_NPBVWSlot_@@PAPAX@Z 00437df0 f   adddevice2ndwt.obj
 0001:00036df0       ?undoTriggerSlot@CEccAddMonitor2nd@@MAE_NPBVWSlot_@@PAPAX@Z 00437df0 f   addmonitor2ndwt.obj
 0001:00036df0       ?undoTriggerSlot@CEccAddDevice1st@@MAE_NPBVWSlot_@@PAPAX@Z 00437df0 f   adddevice1stwt.obj
 0001:00036df0       ?undoTriggerSlot@CEccAddMonitor1st@@MAE_NPBVWSlot_@@PAPAX@Z 00437df0 f   addmonitor1stwt.obj
 0001:00036df0       ?undoTriggerSlot@CEccBatchAdd@@MAE_NPBVWSlot_@@PAPAX@Z 00437df0 f   batchaddwt.obj
 0001:00036e00       ?buildSignalMap@CEccAddDevice1st@@MAEXAAV?$map@V?$basic_string@DU?$char_traits@D@std@@V?$allocator@D@2@@std@@PAVWSignalInstance_@@U?$less@V?$basic_string@DU?$char_traits@D@std@@V?$allocator@D@2@@std@@@2@V?$allocator@U?$pair@$$CBV?$basic_string@DU?$char_traits@D@std@@V?$allocator@D@2@@std@@PAVWSignalInstance_@@@std@@@2@@std@@@Z 00437e00 f   adddevice1stwt.obj
 0001:00036fe0       ?Cancel@CEccBatchAdd@@AAEXXZ 00437fe0 f   batchadd.obj
 0001:00036fe0       ?Cancel@CEccAddMonitor2nd@@AAEXXZ 00437fe0 f   addmonitor2nd.obj
 0001:00036fe0       ?Cancel@CEccAddMonitor1st@@AAEXXZ 00437fe0 f   addmonitor1st.obj
 0001:00036fe0       ?Cancel@CEccEidtSVSE@@AAEXXZ 00437fe0 f   addsvse.obj
 0001:00036fe0       ?Cancel@CEccAddDevice2nd@@AAEXXZ 00437fe0 f   adddevice2nd.obj
 0001:00036fe0       ?Cancel@CEccAddDevice1st@@AAEXXZ 00437fe0 f   adddevice1st.obj
 0001:00036fe0       ?Cancel@CEccGroupOperate@@AAEXXZ 00437fe0 f   addgroup.obj
 0001:00036fe0       ?Cancel@CEccSortTable@@AAEXXZ 00437fe0 f   sortlist.obj
 0001:00036ff0       ?createAdvance@CEccAddDevice2nd@@AAEXXZ 00437ff0 f   adddevice2nd.obj
 0001:00037070       ?createGeneral@CEccAddDevice2nd@@AAEXXZ 00438070 f   adddevice2nd.obj
 0001:00037120       ?createOperate@CEccAddDevice2nd@@AAEXXZ 00438120 f   adddevice2nd.obj
 0001:00037560       ?Forward@CEccAddDevice2nd@@AAEXXZ 00438560 f   adddevice2nd.obj
 0001:00037580       ?checkName@CEccAddDevice2nd@@AAE_NAAV?$basic_string@DU?$char_traits@D@std@@V?$allocator@D@2@@std@@@Z 00438580 f   adddevice2nd.obj
 0001:00037690       ?createHideButton@CEccAddDevice2nd@@AAEXXZ 00438690 f   adddevice2nd.obj
 0001:00037750       ?initForm@CEccAddDevice2nd@@EAEX_N@Z 00438750 f   adddevice2nd.obj
 0001:00037840       ?clear@?$list@PAVWText@@V?$allocator@PAVWText@@@std@@@std@@QAEXXZ 00438840 f i advanceparam.obj
 0001:00037840       ?clear@?$list@HV?$allocator@H@std@@@std@@QAEXXZ 00438840 f i groupview.obj
 0001:00037840       ?clear@?$list@PAVCEccParamItem@@V?$allocator@PAVCEccParamItem@@@std@@@std@@QAEXXZ 00438840 f i adddevice2nd.obj
 0001:00037840       ?clear@?$list@PAVWCheckBox@@V?$allocator@PAVWCheckBox@@@std@@@std@@QAEXXZ 00438840 f i adddevice3rd.obj
 0001:00037840       ?clear@?$list@PAVSVReturnItem@@V?$allocator@PAVSVReturnItem@@@std@@@std@@QAEXXZ 00438840 f i conditionparam.obj
 0001:00037880       ?_Buynode@?$list@PAVCEccParamItem@@V?$allocator@PAVCEccParamItem@@@std@@@std@@IAEPAU_Node@?$_List_nod@PAVCEccParamItem@@V?$allocator@PAVCEccParamItem@@@std@@@2@XZ 00438880 f i adddevice2nd.obj
 0001:00037880       ?_Buynode@?$list@HV?$allocator@H@std@@@std@@IAEPAU_Node@?$_List_nod@HV?$allocator@H@std@@@2@XZ 00438880 f i groupview.obj
 0001:00037880       ?_Buynode@?$list@PAVWCheckBox@@V?$allocator@PAVWCheckBox@@@std@@@std@@IAEPAU_Node@?$_List_nod@PAVWCheckBox@@V?$allocator@PAVWCheckBox@@@std@@@2@XZ 00438880 f i adddevice3rd.obj
 0001:00037880       ?_Buynode@?$list@PAVSVReturnItem@@V?$allocator@PAVSVReturnItem@@@std@@@std@@IAEPAU_Node@?$_List_nod@PAVSVReturnItem@@V?$allocator@PAVSVReturnItem@@@std@@@2@XZ 00438880 f i conditionparam.obj
 0001:00037880       ?_Buynode@?$list@PAVWText@@V?$allocator@PAVWText@@@std@@@std@@IAEPAU_Node@?$_List_nod@PAVWText@@V?$allocator@PAVWText@@@std@@@2@XZ 00438880 f i advanceparam.obj
 0001:000378a0       ?_Incsize@?$list@PAVCEccParamItem@@V?$allocator@PAVCEccParamItem@@@std@@@std@@IAEXI@Z 004388a0 f i adddevice2nd.obj
 0001:00037940       ?ShowHideHelp@CEccAddDevice2nd@@EAEXXZ 00438940 f   adddevice2nd.obj
 0001:000379a0       ?EnumDynData@CEccAddDevice2nd@@AAEXXZ 004389a0 f   adddevice2nd.obj
 0001:00037a70       ?MakeRunParamString@CEccAddDevice2nd@@AAEXAAV?$basic_string@DU?$char_traits@D@std@@V?$allocator@D@2@@std@@_N@Z 00438a70 f   adddevice2nd.obj
 0001:00037d70       ?SaveDevice@CEccAddDevice2nd@@AAEXXZ 00438d70 f   adddevice2nd.obj
 0001:00038aa0       ?TestDevice@CEccAddDevice2nd@@AAEXXZ 00439aa0 f   adddevice2nd.obj
 0001:00038d00       ?createDeviceName@CEccAddDevice2nd@@AAEXPAVWTable@@@Z 00439d00 f   adddevice2nd.obj
 0001:00039080       ?enumBaseParam@CEccAddDevice2nd@@AAEXXZ 0043a080 f   adddevice2nd.obj
 0001:000392b0       ?createBaseParam@CEccAddDevice2nd@@AAEXXZ 0043a2b0 f   adddevice2nd.obj
 0001:00039800       ?AddDeviceByType@CEccAddDevice2nd@@QAEXV?$basic_string@DU?$char_traits@D@std@@V?$allocator@D@2@@std@@0@Z 0043a800 f   adddevice2nd.obj
 0001:00039c30       ?EditDevice@CEccAddDevice2nd@@QAEXV?$basic_string@DU?$char_traits@D@std@@V?$allocator@D@2@@std@@@Z 0043ac30 f   adddevice2nd.obj
 0001:0003a410       ??0CEccAddDevice2nd@@QAE@PAVWContainerWidget@@@Z 0043b410 f   adddevice2nd.obj
 0001:0003a5d0       ??_GCEccAddDevice2nd@@UAEPAXI@Z 0043b5d0 f i adddevice2nd.obj
 0001:0003a5d0       ??_ECEccAddDevice2nd@@UAEPAXI@Z 0043b5d0 f i adddevice2nd.obj
 0001:0003a5f0       ??1CEccAddDevice2nd@@UAE@XZ 0043b5f0 f i adddevice2nd.obj
 0001:0003a750       ?buildSlotMap@CEccAddDevice2nd@@MAEXAAV?$map@V?$basic_string@DU?$char_traits@D@std@@V?$allocator@D@2@@std@@PAVWSlotInstance_@@U?$less@V?$basic_string@DU?$char_traits@D@std@@V?$allocator@D@2@@std@@@2@V?$allocator@U?$pair@$$CBV?$basic_string@DU?$char_traits@D@std@@V?$allocator@D@2@@std@@PAVWSlotInstance_@@@std@@@2@@std@@@Z 0043b750 f   adddevice2ndwt.obj
 0001:0003a840       ?triggerSlot@CEccAddDevice2nd@@MAE_NPAVWObject@@PBVWSlot_@@PAPAX@Z 0043b840 f   adddevice2ndwt.obj
 0001:0003a8d0       ?buildSignalMap@CEccAddDevice2nd@@MAEXAAV?$map@V?$basic_string@DU?$char_traits@D@std@@V?$allocator@D@2@@std@@PAVWSignalInstance_@@U?$less@V?$basic_string@DU?$char_traits@D@std@@V?$allocator@D@2@@std@@@2@V?$allocator@U?$pair@$$CBV?$basic_string@DU?$char_traits@D@std@@V?$allocator@D@2@@std@@PAVWSignalInstance_@@@std@@@2@@std@@@Z 0043b8d0 f   adddevice2ndwt.obj
 0001:0003a990       ??0monitor_templet@CEccAddDevice3rd@@QAE@XZ 0043b990 f i adddevice3rd.obj
 0001:0003aa70       ?label@WFormWidget@@QBEPAVWLabel@@XZ 0043ba70 f i eccobjfunc.obj
 0001:0003aa70       ?contentAlignment@WContainerWidget@@QBE?AW4HorizontalAlignment@WWidget@@XZ 0043ba70 f i main.obj
 0001:0003aa70       ?buddy@WLabel@@QBEPAVWFormWidget@@XZ 0043ba70 f i adddevice3rd.obj
 0001:0003aa80       ?image@WLabel@@QBEPAVWImage@@XZ 0043ba80 f i adddevice3rd.obj
 0001:0003aa90       ??_FWLabel@@QAEXXZ         0043ba90 f i adddevice3rd.obj
 0001:0003aaa0       ?createOperate@CEccAddDevice3rd@@AAEXXZ 0043baa0 f   adddevice3rd.obj
 0001:0003ad40       ?createHideButton@CEccAddDevice3rd@@AAEXXZ 0043bd40 f   adddevice3rd.obj
 0001:0003ae00       ?Cancel@CEccAddDevice3rd@@AAEXXZ 0043be00 f   adddevice3rd.obj
 0001:0003ae20       ??1monitor_templet@CEccAddDevice3rd@@QAE@XZ 0043be20 f i adddevice3rd.obj
 0001:0003aea0       ?saveAlertNodeValue@CEccAddDevice3rd@@AAE_NAAPAX0@Z 0043bea0 f   adddevice3rd.obj
 0001:0003b4a0       ??0monitor_templet@CEccAddDevice3rd@@QAE@ABU01@@Z 0043c4a0 f i adddevice3rd.obj
 0001:0003b550       ??1_Node@?$_List_nod@Umonitor_templet@CEccAddDevice3rd@@V?$allocator@Umonitor_templet@CEccAddDevice3rd@@@std@@@std@@QAE@XZ 0043c550 f i adddevice3rd.obj
 0001:0003b560       ?initForm@CEccAddDevice3rd@@EAEX_N@Z 0043c560 f   adddevice3rd.obj
 0001:0003b770       ?saveMonitorBaseParam@CEccAddDevice3rd@@AAE_NAAPAXPAXPBD2@Z 0043c770 f   adddevice3rd.obj
 0001:0003bc20       ?saveMonitorCondition@CEccAddDevice3rd@@AAE_NAAPAXPAX@Z 0043cc20 f   adddevice3rd.obj
 0001:0003bce0       ?saveMonitorAdvParam@CEccAddDevice3rd@@AAE_NAAPAXPAXPBD2@Z 0043cce0 f   adddevice3rd.obj
 0001:0003c000       ?saveMonitor@CEccAddDevice3rd@@AAE_NHPBD00@Z 0043d000 f   adddevice3rd.obj
 0001:0003cb00       ?_Buynode@?$list@Umonitor_templet@CEccAddDevice3rd@@V?$allocator@Umonitor_templet@CEccAddDevice3rd@@@std@@@std@@IAEPAU_Node@?$_List_nod@Umonitor_templet@CEccAddDevice3rd@@V?$allocator@Umonitor_templet@CEccAddDevice3rd@@@std@@@2@XZ 0043db00 f i adddevice3rd.obj
 0001:0003cb20       ?_Incsize@?$list@PAVWCheckBox@@V?$allocator@PAVWCheckBox@@@std@@@std@@IAEXI@Z 0043db20 f i adddevice3rd.obj
 0001:0003cbc0       ?_Buynode@?$list@Umonitor_templet@CEccAddDevice3rd@@V?$allocator@Umonitor_templet@CEccAddDevice3rd@@@std@@@std@@IAEPAU_Node@?$_List_nod@Umonitor_templet@CEccAddDevice3rd@@V?$allocator@Umonitor_templet@CEccAddDevice3rd@@@std@@@2@PAU342@0ABUmonitor_templet@CEccAddDevice3rd@@@Z 0043dbc0 f i adddevice3rd.obj
 0001:0003cc50       ?_Incsize@?$list@Umonitor_templet@CEccAddDevice3rd@@V?$allocator@Umonitor_templet@CEccAddDevice3rd@@@std@@@std@@IAEXI@Z 0043dc50 f i adddevice3rd.obj
 0001:0003ccf0       ?removeMapping@CEccAddDevice3rd@@AAEXXZ 0043dcf0 f   adddevice3rd.obj
 0001:0003cd60       ?push_back@?$list@PAVWCheckBox@@V?$allocator@PAVWCheckBox@@@std@@@std@@QAEXABQAVWCheckBox@@@Z 0043dd60 f i adddevice3rd.obj
 0001:0003cda0       ?clear@?$list@Umonitor_templet@CEccAddDevice3rd@@V?$allocator@Umonitor_templet@CEccAddDevice3rd@@@std@@@std@@QAEXXZ 0043dda0 f i adddevice3rd.obj
 0001:0003cde0       ??4WLabel@@QAEAAV0@ABV0@@Z 0043dde0 f i adddevice3rd.obj
 0001:0003ce30       ?saveAllSelMonitors@CEccAddDevice3rd@@AAEXXZ 0043de30 f   adddevice3rd.obj
 0001:0003d1a0       ?selAllByMonitorType@CEccAddDevice3rd@@AAEXH@Z 0043e1a0 f   adddevice3rd.obj
 0001:0003d250       ??1?$list@Umonitor_templet@CEccAddDevice3rd@@V?$allocator@Umonitor_templet@CEccAddDevice3rd@@@std@@@std@@QAE@XZ 0043e250 f i adddevice3rd.obj
 0001:0003d270       ??0CEccAddDevice3rd@@QAE@PAVWContainerWidget@@@Z 0043e270 f   adddevice3rd.obj
 0001:0003d3a0       ??1CEccAddDevice3rd@@UAE@XZ 0043e3a0 f   adddevice3rd.obj
 0001:0003d4c0       ??_GCEccAddDevice3rd@@UAEPAXI@Z 0043e4c0 f i adddevice3rd.obj
 0001:0003d4c0       ??_ECEccAddDevice3rd@@UAEPAXI@Z 0043e4c0 f i adddevice3rd.obj
 0001:0003d4e0       ?QuickAdd@CEccAddDevice3rd@@QAEXV?$basic_string@DU?$char_traits@D@std@@V?$allocator@D@2@@std@@00000@Z 0043e4e0 f   adddevice3rd.obj
 0001:0003e150       ?AddDynData@CEccAddDevice3rd@@AAEXPAVWTable@@PBDABH2ABV?$basic_string@DU?$char_traits@D@std@@V?$allocator@D@2@@std@@33AB_N@Z 0043f150 f   adddevice3rd.obj
 0001:0003e620       ?EnumDynData@CEccAddDevice3rd@@AAEXXZ 0043f620 f   adddevice3rd.obj
 0001:0003e7e0       ?buildSlotMap@CEccAddDevice3rd@@MAEXAAV?$map@V?$basic_string@DU?$char_traits@D@std@@V?$allocator@D@2@@std@@PAVWSlotInstance_@@U?$less@V?$basic_string@DU?$char_traits@D@std@@V?$allocator@D@2@@std@@@2@V?$allocator@U?$pair@$$CBV?$basic_string@DU?$char_traits@D@std@@V?$allocator@D@2@@std@@PAVWSlotInstance_@@@std@@@2@@std@@@Z 0043f7e0 f   adddevice3rdwt.obj
 0001:0003e8d0       ?triggerSlot@CEccAddDevice3rd@@MAE_NPAVWObject@@PBVWSlot_@@PAPAX@Z 0043f8d0 f   adddevice3rdwt.obj
 0001:0003e950       ?buildSignalMap@CEccAddDevice3rd@@MAEXAAV?$map@V?$basic_string@DU?$char_traits@D@std@@V?$allocator@D@2@@std@@PAVWSignalInstance_@@U?$less@V?$basic_string@DU?$char_traits@D@std@@V?$allocator@D@2@@std@@@2@V?$allocator@U?$pair@$$CBV?$basic_string@DU?$char_traits@D@std@@V?$allocator@D@2@@std@@PAVWSignalInstance_@@@std@@@2@@std@@@Z 0043f950 f   adddevice3rdwt.obj
 0001:0003ea10       ?createOperate@CEccAddMonitor1st@@AAEXXZ 0043fa10 f   addmonitor1st.obj
 0001:0003eba0       ?AddMonitorByType@CEccAddMonitor1st@@AAEXH@Z 0043fba0 f   addmonitor1st.obj
 0001:0003ec20       ?initForm@CEccAddMonitor1st@@EAEX_N@Z 0043fc20 f   addmonitor1st.obj
 0001:0003ee20       ?removeMapping@CEccAddMonitor1st@@AAEXXZ 0043fe20 f   addmonitor1st.obj
 0001:0003ee90       ??1CEccAddMonitor1st@@UAE@XZ 0043fe90 f   addmonitor1st.obj
 0001:0003ef70       ??0CEccAddMonitor1st@@QAE@PAVWContainerWidget@@@Z 0043ff70 f   addmonitor1st.obj
 0001:0003f060       ??_ECEccAddMonitor1st@@UAEPAXI@Z 00440060 f i addmonitor1st.obj
 0001:0003f060       ??_GCEccAddMonitor1st@@UAEPAXI@Z 00440060 f i addmonitor1st.obj
 0001:0003f080       ?EnumMT@CEccAddMonitor1st@@QAEXABV?$basic_string@DU?$char_traits@D@std@@V?$allocator@D@2@@std@@00@Z 00440080 f   addmonitor1st.obj
 0001:0003f5d0       ?buildSlotMap@CEccAddMonitor1st@@MAEXAAV?$map@V?$basic_string@DU?$char_traits@D@std@@V?$allocator@D@2@@std@@PAVWSlotInstance_@@U?$less@V?$basic_string@DU?$char_traits@D@std@@V?$allocator@D@2@@std@@@2@V?$allocator@U?$pair@$$CBV?$basic_string@DU?$char_traits@D@std@@V?$allocator@D@2@@std@@PAVWSlotInstance_@@@std@@@2@@std@@@Z 004405d0 f   addmonitor1stwt.obj
 0001:0003f6c0       ?triggerSlot@CEccAddMonitor1st@@MAE_NPAVWObject@@PBVWSlot_@@PAPAX@Z 004406c0 f   addmonitor1stwt.obj
 0001:0003f710       ?buildSignalMap@CEccAddMonitor1st@@MAEXAAV?$map@V?$basic_string@DU?$char_traits@D@std@@V?$allocator@D@2@@std@@PAVWSignalInstance_@@U?$less@V?$basic_string@DU?$char_traits@D@std@@V?$allocator@D@2@@std@@@2@V?$allocator@U?$pair@$$CBV?$basic_string@DU?$char_traits@D@std@@V?$allocator@D@2@@std@@PAVWSignalInstance_@@@std@@@2@@std@@@Z 00440710 f   addmonitor1stwt.obj
 0001:0003f7d0       ?getAccount@CEccParamItem@@QAE?AV?$basic_string@DU?$char_traits@D@std@@V?$allocator@D@2@@std@@XZ 004407d0 f i addmonitor2nd.obj
 0001:0003f820       ?getExpress@CEccParamItem@@QAE?AV?$basic_string@DU?$char_traits@D@std@@V?$allocator@D@2@@std@@XZ 00440820 f i addmonitor2nd.obj
 0001:0003f850       ??1SVReturnItem@@QAE@XZ    00440850 f i addmonitor2nd.obj
 0001:0003f8c0       ?enumAttrib@SVReturnItem@@AAEXPAX@Z 004408c0 f i addmonitor2nd.obj
 0001:0003f9c0       ?ResetData@BASE_ADV_PARAM@CEccAddMonitor2nd@@QAEXXZ 004409c0 f   addmonitor2nd.obj
 0001:0003fa60       ?checkCondition@CEccAddMonitor2nd@@AAE_NXZ 00440a60 f   addmonitor2nd.obj
 0001:0003fb80       ?checkMonitorFreq@CEccAddMonitor2nd@@AAE_NAAV?$basic_string@DU?$char_traits@D@std@@V?$allocator@D@2@@std@@@Z 00440b80 f   addmonitor2nd.obj
 0001:0003fce0       ?checkName@CEccAddMonitor2nd@@AAE_NAAV?$basic_string@DU?$char_traits@D@std@@V?$allocator@D@2@@std@@@Z 00440ce0 f   addmonitor2nd.obj
 0001:0003fe30       ?createCondition@CEccAddMonitor2nd@@AAEXXZ 00440e30 f   addmonitor2nd.obj
 0001:0003ffd0       ?createHidebutton@CEccAddMonitor2nd@@AAEXXZ 00440fd0 f   addmonitor2nd.obj
 0001:00040090       ?createOperate@CEccAddMonitor2nd@@AAEXXZ 00441090 f   addmonitor2nd.obj
 0001:000406f0       ?enumAlert@CEccAddMonitor2nd@@AAEXAAPAX@Z 004416f0 f   addmonitor2nd.obj
 0001:000407c0       ?Forward@CEccAddMonitor2nd@@AAEXXZ 004417c0 f   addmonitor2nd.obj
 0001:00040850       ?saveAdvBaseParam@CEccAddMonitor2nd@@AAE_NAAPAX@Z 00441850 f   addmonitor2nd.obj
 0001:00040df0       ?saveCondition@CEccAddMonitor2nd@@AAE_NAAPAX@Z 00441df0 f   addmonitor2nd.obj
 0001:00040e90       ?SetBaseAdvParam@CEccAddMonitor2nd@@AAEXAAPAX@Z 00441e90 f   addmonitor2nd.obj
 0001:000411f0       ?SetConditionParam@CEccAddMonitor2nd@@AAEXAAPAX@Z 004421f0 f   addmonitor2nd.obj
 0001:00041280       ??0SVReturnItem@@QAE@PAX@Z 00442280 f i addmonitor2nd.obj
 0001:00041320       ?SetAlertCondition@CEccAddMonitor2nd@@AAEXXZ 00442320 f   addmonitor2nd.obj
 0001:000415e0       ??1_Node@?$_List_nod@Uecc_value_list@@V?$allocator@Uecc_value_list@@@std@@@std@@QAE@XZ 004425e0 f i addmonitor2nd.obj
 0001:000415f0       ?_Buynode@?$list@Usv_pair@@V?$allocator@Usv_pair@@@std@@@std@@IAEPAU_Node@?$_List_nod@Usv_pair@@V?$allocator@Usv_pair@@@std@@@2@XZ 004425f0 f i eccobjfunc.obj
 0001:000415f0       ?_Buynode@?$list@Uecc_value_list@@V?$allocator@Uecc_value_list@@@std@@@std@@IAEPAU_Node@?$_List_nod@Uecc_value_list@@V?$allocator@Uecc_value_list@@@std@@@2@XZ 004425f0 f i addmonitor2nd.obj
 0001:00041610       ?checkAdvParam@CEccAddMonitor2nd@@AAE_NXZ 00442610 f   addmonitor2nd.obj
 0001:00041650       ?checkBaseParam@CEccAddMonitor2nd@@AAE_NXZ 00442650 f   addmonitor2nd.obj
 0001:00041690       ?EnumDynData@CEccAddMonitor2nd@@AAEXXZ 00442690 f   addmonitor2nd.obj
 0001:00041810       ?clearData@CEccAddMonitor2nd@@AAEXXZ 00442810 f   addmonitor2nd.obj
 0001:00041a80       ?resetData@CEccAddMonitor2nd@@AAEXXZ 00442a80 f   addmonitor2nd.obj
 0001:00041bd0       ?saveAdvParam@CEccAddMonitor2nd@@AAE_NAAPAXPBD@Z 00442bd0 f   addmonitor2nd.obj
 0001:00042210       ?saveBaseParam@CEccAddMonitor2nd@@AAE_NAAPAXPBD@Z 00443210 f   addmonitor2nd.obj
 0001:00042870       ?SaveMonitor@CEccAddMonitor2nd@@AAEXXZ 00443870 f   addmonitor2nd.obj
 0001:000431d0       ?ShowHideHelp@CEccAddMonitor2nd@@EAEXXZ 004441d0 f   addmonitor2nd.obj
 0001:00043260       ?SetAdvParam@CEccAddMonitor2nd@@AAEXAAPAX@Z 00444260 f   addmonitor2nd.obj
 0001:00043480       ?SetBaseParam@CEccAddMonitor2nd@@AAEXAAPAX@Z 00444480 f   addmonitor2nd.obj
 0001:000436b0       ?BatchAddMonitor@CEccAddMonitor2nd@@QAE?AV?$basic_string@DU?$char_traits@D@std@@V?$allocator@D@2@@std@@AAV?$list@Uecc_value_list@@V?$allocator@Uecc_value_list@@@std@@@3@@Z 004446b0 f   addmonitor2nd.obj
 0001:00043f30       ?ContinueAdd@CEccAddMonitor2nd@@AAEXXZ 00444f30 f   addmonitor2nd.obj
 0001:00043f40       ?createAdvBaseParam@CEccAddMonitor2nd@@AAEXPAVWTable@@@Z 00444f40 f   addmonitor2nd.obj
 0001:00044c30       ?createAdvParam@CEccAddMonitor2nd@@AAEXXZ 00445c30 f   addmonitor2nd.obj
 0001:00044df0       ?createDevName@CEccAddMonitor2nd@@AAEXXZ 00445df0 f   addmonitor2nd.obj
 0001:00045060       ?createMonitorName@CEccAddMonitor2nd@@AAEXXZ 00446060 f   addmonitor2nd.obj
 0001:000453a0       ?enumAdvParam@CEccAddMonitor2nd@@AAEXAAPAX@Z 004463a0 f   addmonitor2nd.obj
 0001:00045490       ?enumBaseParam@CEccAddMonitor2nd@@AAEXAAPAX@Z 00446490 f   addmonitor2nd.obj
 0001:00045580       ?enumReturnItem@CEccAddMonitor2nd@@AAEXAAPAX@Z 00446580 f   addmonitor2nd.obj
 0001:00045660       ?initForm@CEccAddMonitor2nd@@EAEX_N@Z 00446660 f   addmonitor2nd.obj
 0001:000457e0       ?clear@?$list@Uecc_value_list@@V?$allocator@Uecc_value_list@@@std@@@std@@QAEXXZ 004467e0 f i addmonitor2nd.obj
 0001:00045820       ??0CEccAddMonitor2nd@@QAE@PAVWContainerWidget@@@Z 00446820 f   addmonitor2nd.obj
 0001:00045a00       ??_ECEccAddMonitor2nd@@UAEPAXI@Z 00446a00 f i addmonitor2nd.obj
 0001:00045a00       ??_GCEccAddMonitor2nd@@UAEPAXI@Z 00446a00 f i addmonitor2nd.obj
 0001:00045a20       ??1CEccAddMonitor2nd@@UAE@XZ 00446a20 f i addmonitor2nd.obj
 0001:00045b60       ?createBaseParam@CEccAddMonitor2nd@@AAEXXZ 00446b60 f   addmonitor2nd.obj
 0001:00045d10       ?EditMonitorByID@CEccAddMonitor2nd@@QAEXABV?$basic_string@DU?$char_traits@D@std@@V?$allocator@D@2@@std@@@Z 00446d10 f   addmonitor2nd.obj
 0001:00046500       ?AddMonitorByMTID@CEccAddMonitor2nd@@QAEXHABV?$basic_string@DU?$char_traits@D@std@@V?$allocator@D@2@@std@@0@Z 00447500 f   addmonitor2nd.obj
 0001:00046b60       ??1?$list@Uecc_value_list@@V?$allocator@Uecc_value_list@@@std@@@std@@QAE@XZ 00447b60 f i addmonitor2nd.obj
 0001:00046b80       ?BatchAdd@CEccAddMonitor2nd@@AAEXXZ 00447b80 f   addmonitor2nd.obj
 0001:00046c60       ?buildSlotMap@CEccAddMonitor2nd@@MAEXAAV?$map@V?$basic_string@DU?$char_traits@D@std@@V?$allocator@D@2@@std@@PAVWSlotInstance_@@U?$less@V?$basic_string@DU?$char_traits@D@std@@V?$allocator@D@2@@std@@@2@V?$allocator@U?$pair@$$CBV?$basic_string@DU?$char_traits@D@std@@V?$allocator@D@2@@std@@PAVWSlotInstance_@@@std@@@2@@std@@@Z 00447c60 f   addmonitor2ndwt.obj
 0001:00046d50       ?triggerSlot@CEccAddMonitor2nd@@MAE_NPAVWObject@@PBVWSlot_@@PAPAX@Z 00447d50 f   addmonitor2ndwt.obj
 0001:00046e10       ?buildSignalMap@CEccAddMonitor2nd@@MAEXAAV?$map@V?$basic_string@DU?$char_traits@D@std@@V?$allocator@D@2@@std@@PAVWSignalInstance_@@U?$less@V?$basic_string@DU?$char_traits@D@std@@V?$allocator@D@2@@std@@@2@V?$allocator@U?$pair@$$CBV?$basic_string@DU?$char_traits@D@std@@V?$allocator@D@2@@std@@PAVWSignalInstance_@@@std@@@2@@std@@@Z 00447e10 f   addmonitor2ndwt.obj
 0001:00046ed0       ?createListTitle@CEccBatchAdd@@AAEXXZ 00447ed0 f   batchadd.obj
 0001:000471a0       ?createOperate@CEccBatchAdd@@AAEXXZ 004481a0 f   batchadd.obj
 0001:00047430       ?initForm@CEccBatchAdd@@EAEX_N@Z 00448430 f   batchadd.obj
 0001:00047640       ?SelAll@CEccBatchAdd@@AAEXXZ 00448640 f   batchadd.obj
 0001:000476a0       ?SaveSelMonitor@CEccBatchAdd@@AAEXXZ 004486a0 f   batchadd.obj
 0001:000479c0       ?setListValue@CEccBatchAdd@@QAEXAAV?$list@Uecc_value_list@@V?$allocator@Uecc_value_list@@@std@@@std@@V?$basic_string@DU?$char_traits@D@std@@V?$allocator@D@2@@3@@Z 004489c0 f   batchadd.obj
 0001:00047cb0       ??0CEccBatchAdd@@QAE@PAVWContainerWidget@@@Z 00448cb0 f   batchadd.obj
 0001:00047d80       ??_ECEccBatchAdd@@UAEPAXI@Z 00448d80 f i batchadd.obj
 0001:00047d80       ??_GCEccBatchAdd@@UAEPAXI@Z 00448d80 f i batchadd.obj
 0001:00047da0       ??1CEccBatchAdd@@UAE@XZ    00448da0 f i batchadd.obj
 0001:00047e70       ?buildSlotMap@CEccBatchAdd@@MAEXAAV?$map@V?$basic_string@DU?$char_traits@D@std@@V?$allocator@D@2@@std@@PAVWSlotInstance_@@U?$less@V?$basic_string@DU?$char_traits@D@std@@V?$allocator@D@2@@std@@@2@V?$allocator@U?$pair@$$CBV?$basic_string@DU?$char_traits@D@std@@V?$allocator@D@2@@std@@PAVWSlotInstance_@@@std@@@2@@std@@@Z 00448e70 f   batchaddwt.obj
 0001:00047f60       ?triggerSlot@CEccBatchAdd@@MAE_NPAVWObject@@PBVWSlot_@@PAPAX@Z 00448f60 f   batchaddwt.obj
 0001:00047fc0       ?buildSignalMap@CEccBatchAdd@@MAEXAAV?$map@V?$basic_string@DU?$char_traits@D@std@@V?$allocator@D@2@@std@@PAVWSignalInstance_@@U?$less@V?$basic_string@DU?$char_traits@D@std@@V?$allocator@D@2@@std@@@2@V?$allocator@U?$pair@$$CBV?$basic_string@DU?$char_traits@D@std@@V?$allocator@D@2@@std@@PAVWSignalInstance_@@@std@@@2@@std@@@Z 00448fc0 f   batchaddwt.obj
 0001:00048080       ?name@WSlot_@@QBE?BV?$basic_string@DU?$char_traits@D@std@@V?$allocator@D@2@@std@@XZ 00449080 f   mainviewwt.obj
 0001:00048080       ?path@WMessageResources@@QBE?BV?$basic_string@DU?$char_traits@D@std@@V?$allocator@D@2@@std@@XZ 00449080 f   libwt:WMessageResourceBundle.obj
 0001:00048080       ?ShowMenu@CEccPopMenu@@QAE?BV?$basic_string@DU?$char_traits@D@std@@V?$allocator@D@2@@std@@XZ 00449080 f   popmenu.obj
 0001:00048080       ?name@WSignal_@@QBE?BV?$basic_string@DU?$char_traits@D@std@@V?$allocator@D@2@@std@@XZ 00449080 f   mainviewwt.obj
 0001:00048080       ?key@WMessage@@QBE?BV?$basic_string@DU?$char_traits@D@std@@V?$allocator@D@2@@std@@XZ 00449080 f   main.obj
 0001:00048080       ?getName@SVReturnItem@@QAE?BV?$basic_string@DU?$char_traits@D@std@@V?$allocator@D@2@@std@@XZ 00449080 f   conditionparam.obj
 0001:00048080       ?name@JSVar@@QAE?BV?$basic_string@DU?$char_traits@D@std@@V?$allocator@D@2@@std@@XZ 00449080 f   libwt:DomElement.obj
 0001:000480a0       ??0CEccPopMenu@@QAE@XZ     004490a0 f   popmenu.obj
 0001:000485e0       ??0sv_pair@@QAE@ABU0@@Z    004495e0 f i treeview.obj
 0001:00048650       ??1sv_dyn@@QAE@XZ          00449650 f i treeview.obj
 0001:00048660       ?getUserID@CUser@@QAE?BV?$basic_string@DU?$char_traits@D@std@@V?$allocator@D@2@@std@@XZ 00449660 f i treeview.obj
 0001:00048690       ?createContent@CEccTreeView@@AAEXXZ 00449690 f   treeview.obj
 0001:00048850       ?createTitle@CEccTreeView@@AAEXXZ 00449850 f   treeview.obj
 0001:00048aa0       ??1CEccTreeNode@@QAE@XZ    00449aa0 f   treeview.obj
 0001:00048b50       ?blue@WColor@@QBEHXZ       00449b50 f   main.obj
 0001:00048b50       ?getMointorCount@CEccTreeNode@@QBEHXZ 00449b50 f   treeview.obj
 0001:00048b60       ?getName@CEccTreeNode@@QBE?AV?$basic_string@DU?$char_traits@D@std@@V?$allocator@D@2@@std@@XZ 00449b60 f   treeview.obj
 0001:00048b90       ?getPurview@CEccTreeNode@@QBEHXZ 00449b90 f   treeview.obj
 0001:00048ba0       ?getShowText@CEccTreeNode@@QBE?AV?$basic_string@DU?$char_traits@D@std@@V?$allocator@D@2@@std@@XZ 00449ba0 f   treeview.obj
 0001:00048bd0       ?getShowTime@CEccTreeNode@@QBE?AV?$basic_string@DU?$char_traits@D@std@@V?$allocator@D@2@@std@@XZ 00449bd0 f   treeview.obj
 0001:00048c00       ?getDependsID@CEccTreeNode@@QBE?AV?$basic_string@DU?$char_traits@D@std@@V?$allocator@D@2@@std@@XZ 00449c00 f   treeview.obj
 0001:00048c30       ?getCondition@CEccTreeNode@@QBE?AV?$basic_string@DU?$char_traits@D@std@@V?$allocator@D@2@@std@@XZ 00449c30 f   treeview.obj
 0001:00048c60       ?getDescription@CEccTreeNode@@QBE?AV?$basic_string@DU?$char_traits@D@std@@V?$allocator@D@2@@std@@XZ 00449c60 f   treeview.obj
 0001:00048c90       ?positionScheme@WWebWidget@@UBE?AW4PositionScheme@WWidget@@XZ 00449c90 f   main.obj
 0001:00048c90       ?getState@CEccTreeNode@@QBEHXZ 00449c90 f   treeview.obj
 0001:00048ca0       ?type@DomElement@@QBE?AW4ElementType@1@XZ 00449ca0 f   libwt:WWebWidget.obj
 0001:00048ca0       ?floatSide@WWebWidget@@UBE?AW4Side@WWidget@@XZ 00449ca0 f   libwt:WWebWidget.obj
 0001:00048ca0       ?orientation@WScrollBar@@QBE?AW4Orientation@1@XZ 00449ca0 f   libwt:WScrollArea.obj
 0001:00048ca0       ?getType@CEccTreeNode@@QBEHXZ 00449ca0 f   treeview.obj
 0001:00048cb0       ?getDeviceType@CEccTreeDevice@@QBE?AV?$basic_string@DU?$char_traits@D@std@@V?$allocator@D@2@@std@@XZ 00449cb0 f   treeview.obj
 0001:00048ce0       ?getRealDeviceType@CEccTreeDevice@@QBE?AV?$basic_string@DU?$char_traits@D@std@@V?$allocator@D@2@@std@@XZ 00449ce0 f   treeview.obj
 0001:00048d10       ?getOSType@CEccTreeDevice@@QBE?AV?$basic_string@DU?$char_traits@D@std@@V?$allocator@D@2@@std@@XZ 00449d10 f   treeview.obj
 0001:00048d40       ?isNetworkSet@CEccTreeDevice@@QBE?AV?$basic_string@DU?$char_traits@D@std@@V?$allocator@D@2@@std@@XZ 00449d40 f   treeview.obj
 0001:00048d70       ?makeMenuText@CEccTreeView@@AAE?AV?$basic_string@DU?$char_traits@D@std@@V?$allocator@D@2@@std@@HV23@AAH@Z 00449d70 f   treeview.obj
 0001:00049600       ?isObjectDisable@CEccTreeView@@AAE_NAAPAXAAV?$basic_string@DU?$char_traits@D@std@@V?$allocator@D@2@@std@@H@Z 0044a600 f   treeview.obj
 0001:00049a80       ?isCurrentChildEdit@CEccTreeView@@AAE_NABV?$basic_string@DU?$char_traits@D@std@@V?$allocator@D@2@@std@@@Z 0044aa80 f   treeview.obj
 0001:00049bd0       ?isCurrentPathEdit@CEccTreeView@@AAE_NABV?$basic_string@DU?$char_traits@D@std@@V?$allocator@D@2@@std@@@Z 0044abd0 f   treeview.obj
 0001:00049d20       ?getSEList@CEccTreeView@@SAABV?$map@V?$basic_string@DU?$char_traits@D@std@@V?$allocator@D@2@@std@@VCEccTreeGroup@@U?$less@V?$basic_string@DU?$char_traits@D@std@@V?$allocator@D@2@@std@@@2@V?$allocator@U?$pair@$$CBV?$basic_string@DU?$char_traits@D@std@@V?$allocator@D@2@@std@@VCEccTreeGroup@@@std@@@2@@std@@XZ 0044ad20 f   treeview.obj
 0001:00049d30       ??1CECCMonitor@@QAE@XZ     0044ad30 f   treeview.obj
 0001:00049d90       ?getECCIndex@CECCMonitor@@QBE?AV?$basic_string@DU?$char_traits@D@std@@V?$allocator@D@2@@std@@XZ 0044ad90 f   treeview.obj
 0001:00049dc0       ?getName@CECCMonitor@@QBE?AV?$basic_string@DU?$char_traits@D@std@@V?$allocator@D@2@@std@@XZ 0044adc0 f   treeview.obj
 0001:00049df0       ?getShowText@CECCMonitor@@QBE?AV?$basic_string@DU?$char_traits@D@std@@V?$allocator@D@2@@std@@XZ 0044adf0 f   treeview.obj
 0001:00049e20       ?getShowTime@CECCMonitor@@QBE?AV?$basic_string@DU?$char_traits@D@std@@V?$allocator@D@2@@std@@XZ 0044ae20 f   treeview.obj
 0001:00049e40       ?object@WSignalInstance_@@QBEPAVWObject@@XZ 0044ae40 f   mainviewwt.obj
 0001:00049e40       ?slot@WConnection_@@QBEPAVWSlotInstance_@@XZ 0044ae40 f   libwt:WebSession.obj
 0001:00049e40       ?cursor@WCssDecorationStyle@@QBE?AW4Cursor@1@XZ 0044ae40 f   main.obj
 0001:00049e40       ?unit@WLength@@QBE?AW4Unit@1@XZ 0044ae40 f   main.obj
 0001:00049e40       ?red@WColor@@QBEHXZ        0044ae40 f   main.obj
 0001:00049e40       ?getState@CECCMonitor@@QBEHXZ 0044ae40 f   treeview.obj
 0001:00049e40       ?sender@WObject@@ABEPAV1@XZ 0044ae40 f   main.obj
 0001:00049e40       ?genericFamily@WFont@@QBE?AW4GenericFamily@1@XZ 0044ae40 f   main.obj
 0001:00049e50       ?setLeftResizeName@CEccTreeView@@QAEXABV?$basic_string@DU?$char_traits@D@std@@V?$allocator@D@2@@std@@@Z 0044ae50 f   treeview.obj
 0001:00049e90       ?AddOperaterLog@CEccTreeView@@SAXHHABV?$basic_string@DU?$char_traits@D@std@@V?$allocator@D@2@@std@@@Z 0044ae90 f   treeview.obj
 0001:0004a240       ??1?$pair@$$CBHVCEccTreeGroup@@@std@@QAE@XZ 0044b240 f i treeview.obj
 0001:0004a250       ?_Max@?$_Tree@V?$_Tmap_traits@HVCEccTreeGroup@@U?$less@H@std@@V?$allocator@U?$pair@$$CBHVCEccTreeGroup@@@std@@@3@$0A@@std@@@std@@KAPAU_Node@?$_Tree_nod@V?$_Tmap_traits@HVCEccTreeGroup@@U?$less@H@std@@V?$allocator@U?$pair@$$CBHVCEccTreeGroup@@@std@@@3@$0A@@std@@@2@PAU342@@Z 0044b250 f i treeview.obj
 0001:0004a280       ?_Rrotate@?$_Tree@V?$_Tmap_traits@HVCEccTreeGroup@@U?$less@H@std@@V?$allocator@U?$pair@$$CBHVCEccTreeGroup@@@std@@@3@$0A@@std@@@std@@IAEXPAU_Node@?$_Tree_nod@V?$_Tmap_traits@HVCEccTreeGroup@@U?$less@H@std@@V?$allocator@U?$pair@$$CBHVCEccTreeGroup@@@std@@@3@$0A@@std@@@2@@Z 0044b280 f i treeview.obj
 0001:0004a2e0       ?_Max@?$_Tree@V?$_Tmap_traits@HVCEccTreeDevice@@U?$less@H@std@@V?$allocator@U?$pair@$$CBHVCEccTreeDevice@@@std@@@3@$0A@@std@@@std@@KAPAU_Node@?$_Tree_nod@V?$_Tmap_traits@HVCEccTreeDevice@@U?$less@H@std@@V?$allocator@U?$pair@$$CBHVCEccTreeDevice@@@std@@@3@$0A@@std@@@2@PAU342@@Z 0044b2e0 f i treeview.obj
 0001:0004a310       ?_Rrotate@?$_Tree@V?$_Tmap_traits@HVCEccTreeDevice@@U?$less@H@std@@V?$allocator@U?$pair@$$CBHVCEccTreeDevice@@@std@@@3@$0A@@std@@@std@@IAEXPAU_Node@?$_Tree_nod@V?$_Tmap_traits@HVCEccTreeDevice@@U?$less@H@std@@V?$allocator@U?$pair@$$CBHVCEccTreeDevice@@@std@@@3@$0A@@std@@@2@@Z 0044b310 f i treeview.obj
 0001:0004a370       ??0CECCMonitor@@QAE@ABV0@@Z 0044b370 f i treeview.obj
 0001:0004a400       ??0CEccTreeNode@@QAE@ABV0@@Z 0044b400 f i treeview.obj
 0001:0004a520       ?_Rrotate@?$_Tree@V?$_Tmap_traits@V?$basic_string@DU?$char_traits@D@std@@V?$allocator@D@2@@std@@V?$list@HV?$allocator@H@std@@@2@U?$less@V?$basic_string@DU?$char_traits@D@std@@V?$allocator@D@2@@std@@@2@V?$allocator@U?$pair@$$CBV?$basic_string@DU?$char_traits@D@std@@V?$allocator@D@2@@std@@V?$list@HV?$allocator@H@std@@@2@@std@@@2@$0A@@std@@@std@@IAEXPAU_Node@?$_Tree_nod@V?$_Tmap_traits@V?$basic_string@DU?$char_traits@D@std@@V?$allocator@D@2@@std@@V?$list@HV?$allocator@H@std@@@2@U?$less@V?$basic_string@DU?$char_traits@D@std@@V?$allocator@D@2@@std@@@2@V?$allocator@U?$pair@$$CBV?$basic_string@DU?$char_traits@D@std@@V?$allocator@D@2@@std@@V?$list@HV?$allocator@H@std@@@2@@std@@@2@$0A@@std@@@2@@Z 0044b520 f i treeview.obj
 0001:0004a580       ?_Xlen@?$deque@V?$basic_string@DU?$char_traits@D@std@@V?$allocator@D@2@@std@@V?$allocator@V?$basic_string@DU?$char_traits@D@std@@V?$allocator@D@2@@std@@@2@@std@@IBEXXZ 0044b580 f i treeview.obj
 0001:0004a600       ?_Max@?$_Tree@V?$_Tmap_traits@V?$basic_string@DU?$char_traits@D@std@@V?$allocator@D@2@@std@@V?$list@HV?$allocator@H@std@@@2@U?$less@V?$basic_string@DU?$char_traits@D@std@@V?$allocator@D@2@@std@@@2@V?$allocator@U?$pair@$$CBV?$basic_string@DU?$char_traits@D@std@@V?$allocator@D@2@@std@@V?$list@HV?$allocator@H@std@@@2@@std@@@2@$0A@@std@@@std@@KAPAU_Node@?$_Tree_nod@V?$_Tmap_traits@V?$basic_string@DU?$char_traits@D@std@@V?$allocator@D@2@@std@@V?$list@HV?$allocator@H@std@@@2@U?$less@V?$basic_string@DU?$char_traits@D@std@@V?$allocator@D@2@@std@@@2@V?$allocator@U?$pair@$$CBV?$basic_string@DU?$char_traits@D@std@@V?$allocator@D@2@@std@@V?$list@HV?$allocator@H@std@@@2@@std@@@2@$0A@@std@@@2@PAU342@@Z 0044b600 f i treeview.obj
 0001:0004a620       ?_Min@?$_Tree@V?$_Tmap_traits@V?$basic_string@DU?$char_traits@D@std@@V?$allocator@D@2@@std@@V?$list@HV?$allocator@H@std@@@2@U?$less@V?$basic_string@DU?$char_traits@D@std@@V?$allocator@D@2@@std@@@2@V?$allocator@U?$pair@$$CBV?$basic_string@DU?$char_traits@D@std@@V?$allocator@D@2@@std@@V?$list@HV?$allocator@H@std@@@2@@std@@@2@$0A@@std@@@std@@KAPAU_Node@?$_Tree_nod@V?$_Tmap_traits@V?$basic_string@DU?$char_traits@D@std@@V?$allocator@D@2@@std@@V?$list@HV?$allocator@H@std@@@2@U?$less@V?$basic_string@DU?$char_traits@D@std@@V?$allocator@D@2@@std@@@2@V?$allocator@U?$pair@$$CBV?$basic_string@DU?$char_traits@D@std@@V?$allocator@D@2@@std@@V?$list@HV?$allocator@H@std@@@2@@std@@@2@$0A@@std@@@2@PAU342@@Z 0044b620 f i treeview.obj
 0001:0004a640       ?_Max@?$_Tree@V?$_Tmap_traits@V?$basic_string@DU?$char_traits@D@std@@V?$allocator@D@2@@std@@VCEccTreeGroup@@U?$less@V?$basic_string@DU?$char_traits@D@std@@V?$allocator@D@2@@std@@@2@V?$allocator@U?$pair@$$CBV?$basic_string@DU?$char_traits@D@std@@V?$allocator@D@2@@std@@VCEccTreeGroup@@@std@@@2@$0A@@std@@@std@@KAPAU_Node@?$_Tree_nod@V?$_Tmap_traits@V?$basic_string@DU?$char_traits@D@std@@V?$allocator@D@2@@std@@VCEccTreeGroup@@U?$less@V?$basic_string@DU?$char_traits@D@std@@V?$allocator@D@2@@std@@@2@V?$allocator@U?$pair@$$CBV?$basic_string@DU?$char_traits@D@std@@V?$allocator@D@2@@std@@VCEccTreeGroup@@@std@@@2@$0A@@std@@@2@PAU342@@Z 0044b640 f i treeview.obj
 0001:0004a670       ?_Dec@const_iterator@?$_Tree@V?$_Tmap_traits@HVCECCMonitor@@U?$less@H@std@@V?$allocator@U?$pair@$$CBHVCECCMonitor@@@std@@@3@$0A@@std@@@std@@QAEXXZ 0044b670 f i treeview.obj
 0001:0004a6d0       ?_Dec@const_iterator@?$_Tree@V?$_Tmap_traits@HVCEccTreeDevice@@U?$less@H@std@@V?$allocator@U?$pair@$$CBHVCEccTreeDevice@@@std@@@3@$0A@@std@@@std@@QAEXXZ 0044b6d0 f i treeview.obj
 0001:0004a750       ?_Dec@const_iterator@?$_Tree@V?$_Tmap_traits@HVCEccTreeGroup@@U?$less@H@std@@V?$allocator@U?$pair@$$CBHVCEccTreeGroup@@@std@@@3@$0A@@std@@@std@@QAEXXZ 0044b750 f i treeview.obj
 0001:0004a7d0       ?_Dec@const_iterator@?$_Tree@V?$_Tmap_traits@V?$basic_string@DU?$char_traits@D@std@@V?$allocator@D@2@@std@@VCEccTreeGroup@@U?$less@V?$basic_string@DU?$char_traits@D@std@@V?$allocator@D@2@@std@@@2@V?$allocator@U?$pair@$$CBV?$basic_string@DU?$char_traits@D@std@@V?$allocator@D@2@@std@@VCEccTreeGroup@@@std@@@2@$0A@@std@@@std@@QAEXXZ 0044b7d0 f i treeview.obj
 0001:0004a850       ?_Dec@const_iterator@?$_Tree@V?$_Tmap_traits@V?$basic_string@DU?$char_traits@D@std@@V?$allocator@D@2@@std@@V?$list@HV?$allocator@H@std@@@2@U?$less@V?$basic_string@DU?$char_traits@D@std@@V?$allocator@D@2@@std@@@2@V?$allocator@U?$pair@$$CBV?$basic_string@DU?$char_traits@D@std@@V?$allocator@D@2@@std@@V?$list@HV?$allocator@H@std@@@2@@std@@@2@$0A@@std@@@std@@QAEXXZ 0044b850 f i treeview.obj
 0001:0004a8b0       ?_Inc@const_iterator@?$_Tree@V?$_Tmap_traits@V?$basic_string@DU?$char_traits@D@std@@V?$allocator@D@2@@std@@V?$list@HV?$allocator@H@std@@@2@U?$less@V?$basic_string@DU?$char_traits@D@std@@V?$allocator@D@2@@std@@@2@V?$allocator@U?$pair@$$CBV?$basic_string@DU?$char_traits@D@std@@V?$allocator@D@2@@std@@V?$list@HV?$allocator@H@std@@@2@@std@@@2@$0A@@std@@@std@@QAEXXZ 0044b8b0 f i treeview.obj
 0001:0004a910       ??1_Node@?$_Tree_nod@V?$_Tmap_traits@HVCEccTreeGroup@@U?$less@H@std@@V?$allocator@U?$pair@$$CBHVCEccTreeGroup@@@std@@@3@$0A@@std@@@std@@QAE@XZ 0044b910 f i treeview.obj
 0001:0004a920       ??0CEccTreeNode@@QAE@XZ    0044b920 f   treeview.obj
 0001:0004aa30       ?Reset@CEccTreeNode@@EAEXXZ 0044ba30 f   treeview.obj
 0001:0004aae0       ??4CEccTreeNode@@QAEAAV0@ABV0@@Z 0044bae0 f i treeview.obj
 0001:0004abb0       ?getSVSECount@CEccTreeView@@SAHXZ 0044bbb0 f   treeview.obj
 0001:0004abc0       ?getMonitorState@CEccTreeView@@AAEXAAVCECCMonitor@@@Z 0044bbc0 f   treeview.obj
 0001:0004acb0       ??0CECCMonitor@@QAE@XZ     0044bcb0 f   treeview.obj
 0001:0004ad40       ?_Lrotate@?$_Tree@V?$_Tmap_traits@HVCEccTreeGroup@@U?$less@H@std@@V?$allocator@U?$pair@$$CBHVCEccTreeGroup@@@std@@@3@$0A@@std@@@std@@IAEXPAU_Node@?$_Tree_nod@V?$_Tmap_traits@HVCEccTreeGroup@@U?$less@H@std@@V?$allocator@U?$pair@$$CBHVCEccTreeGroup@@@std@@@3@$0A@@std@@@2@@Z 0044bd40 f i treeview.obj
 0001:0004ada0       ?_Lrotate@?$_Tree@V?$_Tmap_traits@HVCEccTreeDevice@@U?$less@H@std@@V?$allocator@U?$pair@$$CBHVCEccTreeDevice@@@std@@@3@$0A@@std@@@std@@IAEXPAU_Node@?$_Tree_nod@V?$_Tmap_traits@HVCEccTreeDevice@@U?$less@H@std@@V?$allocator@U?$pair@$$CBHVCEccTreeDevice@@@std@@@3@$0A@@std@@@2@@Z 0044bda0 f i treeview.obj
 0001:0004ae00       ?_Lbound@?$_Tree@V?$_Tmap_traits@V?$basic_string@DU?$char_traits@D@std@@V?$allocator@D@2@@std@@V?$list@HV?$allocator@H@std@@@2@U?$less@V?$basic_string@DU?$char_traits@D@std@@V?$allocator@D@2@@std@@@2@V?$allocator@U?$pair@$$CBV?$basic_string@DU?$char_traits@D@std@@V?$allocator@D@2@@std@@V?$list@HV?$allocator@H@std@@@2@@std@@@2@$0A@@std@@@std@@IBEPAU_Node@?$_Tree_nod@V?$_Tmap_traits@V?$basic_string@DU?$char_traits@D@std@@V?$allocator@D@2@@std@@V?$list@HV?$allocator@H@std@@@2@U?$less@V?$basic_string@DU?$char_traits@D@std@@V?$allocator@D@2@@std@@@2@V?$allocator@U?$pair@$$CBV?$basic_string@DU?$char_traits@D@std@@V?$allocator@D@2@@std@@V?$list@HV?$allocator@H@std@@@2@@std@@@2@$0A@@std@@@2@ABV?$basic_string@DU?$char_traits@D@std@@V?$allocator@D@2@@2@@Z 0044be00 f i treeview.obj
 0001:0004ae50       ?_Lbound@?$_Tree@V?$_Tmap_traits@V?$basic_string@DU?$char_traits@D@std@@V?$allocator@D@2@@std@@VCEccTreeGroup@@U?$less@V?$basic_string@DU?$char_traits@D@std@@V?$allocator@D@2@@std@@@2@V?$allocator@U?$pair@$$CBV?$basic_string@DU?$char_traits@D@std@@V?$allocator@D@2@@std@@VCEccTreeGroup@@@std@@@2@$0A@@std@@@std@@IBEPAU_Node@?$_Tree_nod@V?$_Tmap_traits@V?$basic_string@DU?$char_traits@D@std@@V?$allocator@D@2@@std@@VCEccTreeGroup@@U?$less@V?$basic_string@DU?$char_traits@D@std@@V?$allocator@D@2@@std@@@2@V?$allocator@U?$pair@$$CBV?$basic_string@DU?$char_traits@D@std@@V?$allocator@D@2@@std@@VCEccTreeGroup@@@std@@@2@$0A@@std@@@2@ABV?$basic_string@DU?$char_traits@D@std@@V?$allocator@D@2@@2@@Z 0044be50 f i treeview.obj
 0001:0004aea0       ?_Lrotate@?$_Tree@V?$_Tmap_traits@V?$basic_string@DU?$char_traits@D@std@@V?$allocator@D@2@@std@@V?$list@HV?$allocator@H@std@@@2@U?$less@V?$basic_string@DU?$char_traits@D@std@@V?$allocator@D@2@@std@@@2@V?$allocator@U?$pair@$$CBV?$basic_string@DU?$char_traits@D@std@@V?$allocator@D@2@@std@@V?$list@HV?$allocator@H@std@@@2@@std@@@2@$0A@@std@@@std@@IAEXPAU_Node@?$_Tree_nod@V?$_Tmap_traits@V?$basic_string@DU?$char_traits@D@std@@V?$allocator@D@2@@std@@V?$list@HV?$allocator@H@std@@@2@U?$less@V?$basic_string@DU?$char_traits@D@std@@V?$allocator@D@2@@std@@@2@V?$allocator@U?$pair@$$CBV?$basic_string@DU?$char_traits@D@std@@V?$allocator@D@2@@std@@V?$list@HV?$allocator@H@std@@@2@@std@@@2@$0A@@std@@@2@@Z 0044bea0 f i treeview.obj
 0001:0004af00       ?_Lrotate@?$_Tree@V?$_Tmap_traits@V?$basic_string@DU?$char_traits@D@std@@V?$allocator@D@2@@std@@VCEccTreeGroup@@U?$less@V?$basic_string@DU?$char_traits@D@std@@V?$allocator@D@2@@std@@@2@V?$allocator@U?$pair@$$CBV?$basic_string@DU?$char_traits@D@std@@V?$allocator@D@2@@std@@VCEccTreeGroup@@@std@@@2@$0A@@std@@@std@@IAEXPAU_Node@?$_Tree_nod@V?$_Tmap_traits@V?$basic_string@DU?$char_traits@D@std@@V?$allocator@D@2@@std@@VCEccTreeGroup@@U?$less@V?$basic_string@DU?$char_traits@D@std@@V?$allocator@D@2@@std@@@2@V?$allocator@U?$pair@$$CBV?$basic_string@DU?$char_traits@D@std@@V?$allocator@D@2@@std@@VCEccTreeGroup@@@std@@@2@$0A@@std@@@2@@Z 0044bf00 f i treeview.obj
 0001:0004af60       ?_Rrotate@?$_Tree@V?$_Tmap_traits@V?$basic_string@DU?$char_traits@D@std@@V?$allocator@D@2@@std@@VCEccTreeGroup@@U?$less@V?$basic_string@DU?$char_traits@D@std@@V?$allocator@D@2@@std@@@2@V?$allocator@U?$pair@$$CBV?$basic_string@DU?$char_traits@D@std@@V?$allocator@D@2@@std@@VCEccTreeGroup@@@std@@@2@$0A@@std@@@std@@IAEXPAU_Node@?$_Tree_nod@V?$_Tmap_traits@V?$basic_string@DU?$char_traits@D@std@@V?$allocator@D@2@@std@@VCEccTreeGroup@@U?$less@V?$basic_string@DU?$char_traits@D@std@@V?$allocator@D@2@@std@@@2@V?$allocator@U?$pair@$$CBV?$basic_string@DU?$char_traits@D@std@@V?$allocator@D@2@@std@@VCEccTreeGroup@@@std@@@2@$0A@@std@@@2@@Z 0044bf60 f i treeview.obj
 0001:0004afc0       ?showSubTables@CEccTreeGroup@@QAEXXZ 0044bfc0 f   treeview.obj
 0001:0004b060       ?EnumMonitor@CEccTreeView@@AAEXAAVCECCMonitor@@@Z 0044c060 f   treeview.obj
 0001:0004b250       ?lower_bound@?$_Tree@V?$_Tmap_traits@HVCEccTreeGroup@@U?$less@H@std@@V?$allocator@U?$pair@$$CBHVCEccTreeGroup@@@std@@@3@$0A@@std@@@std@@QAE?AViterator@12@ABH@Z 0044c250 f i treeview.obj
 0001:0004b290       ?lower_bound@?$_Tree@V?$_Tmap_traits@HVCEccTreeDevice@@U?$less@H@std@@V?$allocator@U?$pair@$$CBHVCEccTreeDevice@@@std@@@3@$0A@@std@@@std@@QAE?AViterator@12@ABH@Z 0044c290 f i treeview.obj
 0001:0004b2d0       ?_Buynode@?$list@Usv_pair@@V?$allocator@Usv_pair@@@std@@@std@@IAEPAU_Node@?$_List_nod@Usv_pair@@V?$allocator@Usv_pair@@@std@@@2@PAU342@0ABUsv_pair@@@Z 0044c2d0 f i treeview.obj
 0001:0004b360       ?_Incsize@?$list@Usv_pair@@V?$allocator@Usv_pair@@@std@@@std@@IAEXI@Z 0044c360 f i treeview.obj
 0001:0004b400       ?_Buynode@?$_Tree@V?$_Tmap_traits@HVCEccTreeGroup@@U?$less@H@std@@V?$allocator@U?$pair@$$CBHVCEccTreeGroup@@@std@@@3@$0A@@std@@@std@@IAEPAU_Node@?$_Tree_nod@V?$_Tmap_traits@HVCEccTreeGroup@@U?$less@H@std@@V?$allocator@U?$pair@$$CBHVCEccTreeGroup@@@std@@@3@$0A@@std@@@2@XZ 0044c400 f i treeview.obj
 0001:0004b440       ?_Buynode@?$_Tree@V?$_Tmap_traits@HVCEccTreeDevice@@U?$less@H@std@@V?$allocator@U?$pair@$$CBHVCEccTreeDevice@@@std@@@3@$0A@@std@@@std@@IAEPAU_Node@?$_Tree_nod@V?$_Tmap_traits@HVCEccTreeDevice@@U?$less@H@std@@V?$allocator@U?$pair@$$CBHVCEccTreeDevice@@@std@@@3@$0A@@std@@@2@XZ 0044c440 f i treeview.obj
 0001:0004b480       ?_Buynode@?$_Tree@V?$_Tmap_traits@HVCECCMonitor@@U?$less@H@std@@V?$allocator@U?$pair@$$CBHVCECCMonitor@@@std@@@3@$0A@@std@@@std@@IAEPAU_Node@?$_Tree_nod@V?$_Tmap_traits@HVCECCMonitor@@U?$less@H@std@@V?$allocator@U?$pair@$$CBHVCECCMonitor@@@std@@@3@$0A@@std@@@2@XZ 0044c480 f i treeview.obj
 0001:0004b4c0       ?_Buynode@?$_Tree@V?$_Tmap_traits@HVCECCMonitor@@U?$less@H@std@@V?$allocator@U?$pair@$$CBHVCECCMonitor@@@std@@@3@$0A@@std@@@std@@IAEPAU_Node@?$_Tree_nod@V?$_Tmap_traits@HVCECCMonitor@@U?$less@H@std@@V?$allocator@U?$pair@$$CBHVCECCMonitor@@@std@@@3@$0A@@std@@@2@PAU342@00ABU?$pair@$$CBHVCECCMonitor@@@2@D@Z 0044c4c0 f i treeview.obj
 0001:0004b560       ?_Buynode@?$_Tree@V?$_Tmap_traits@V?$basic_string@DU?$char_traits@D@std@@V?$allocator@D@2@@std@@V?$list@HV?$allocator@H@std@@@2@U?$less@V?$basic_string@DU?$char_traits@D@std@@V?$allocator@D@2@@std@@@2@V?$allocator@U?$pair@$$CBV?$basic_string@DU?$char_traits@D@std@@V?$allocator@D@2@@std@@V?$list@HV?$allocator@H@std@@@2@@std@@@2@$0A@@std@@@std@@IAEPAU_Node@?$_Tree_nod@V?$_Tmap_traits@V?$basic_string@DU?$char_traits@D@std@@V?$allocator@D@2@@std@@V?$list@HV?$allocator@H@std@@@2@U?$less@V?$basic_string@DU?$char_traits@D@std@@V?$allocator@D@2@@std@@@2@V?$allocator@U?$pair@$$CBV?$basic_string@DU?$char_traits@D@std@@V?$allocator@D@2@@std@@V?$list@HV?$allocator@H@std@@@2@@std@@@2@$0A@@std@@@2@XZ 0044c560 f i treeview.obj
 0001:0004b5a0       ?_Buynode@?$_Tree@V?$_Tmap_traits@V?$basic_string@DU?$char_traits@D@std@@V?$allocator@D@2@@std@@VCEccTreeGroup@@U?$less@V?$basic_string@DU?$char_traits@D@std@@V?$allocator@D@2@@std@@@2@V?$allocator@U?$pair@$$CBV?$basic_string@DU?$char_traits@D@std@@V?$allocator@D@2@@std@@VCEccTreeGroup@@@std@@@2@$0A@@std@@@std@@IAEPAU_Node@?$_Tree_nod@V?$_Tmap_traits@V?$basic_string@DU?$char_traits@D@std@@V?$allocator@D@2@@std@@VCEccTreeGroup@@U?$less@V?$basic_string@DU?$char_traits@D@std@@V?$allocator@D@2@@std@@@2@V?$allocator@U?$pair@$$CBV?$basic_string@DU?$char_traits@D@std@@V?$allocator@D@2@@std@@VCEccTreeGroup@@@std@@@2@$0A@@std@@@2@XZ 0044c5a0 f i treeview.obj
 0001:0004b5e0       ?erase@?$list@HV?$allocator@H@std@@@std@@QAE?AViterator@12@V312@@Z 0044c5e0 f i treeview.obj
 0001:0004b620       ?find@?$_Tree@V?$_Tmap_traits@HVCECCMonitor@@U?$less@H@std@@V?$allocator@U?$pair@$$CBHVCECCMonitor@@@std@@@3@$0A@@std@@@std@@QAE?AViterator@12@ABH@Z 0044c620 f i treeview.obj
 0001:0004b690       ?find@?$_Tree@V?$_Tmap_traits@V?$basic_string@DU?$char_traits@D@std@@V?$allocator@D@2@@std@@V?$list@HV?$allocator@H@std@@@2@U?$less@V?$basic_string@DU?$char_traits@D@std@@V?$allocator@D@2@@std@@@2@V?$allocator@U?$pair@$$CBV?$basic_string@DU?$char_traits@D@std@@V?$allocator@D@2@@std@@V?$list@HV?$allocator@H@std@@@2@@std@@@2@$0A@@std@@@std@@QAE?AViterator@12@ABV?$basic_string@DU?$char_traits@D@std@@V?$allocator@D@2@@2@@Z 0044c690 f i treeview.obj
 0001:0004b6f0       ?find@?$_Tree@V?$_Tmap_traits@V?$basic_string@DU?$char_traits@D@std@@V?$allocator@D@2@@std@@VCEccTreeGroup@@U?$less@V?$basic_string@DU?$char_traits@D@std@@V?$allocator@D@2@@std@@@2@V?$allocator@U?$pair@$$CBV?$basic_string@DU?$char_traits@D@std@@V?$allocator@D@2@@std@@VCEccTreeGroup@@@std@@@2@$0A@@std@@@std@@QAE?AViterator@12@ABV?$basic_string@DU?$char_traits@D@std@@V?$allocator@D@2@@2@@Z 0044c6f0 f i treeview.obj
 0001:0004b750       ?_Tidy@?$deque@V?$basic_string@DU?$char_traits@D@std@@V?$allocator@D@2@@std@@V?$allocator@V?$basic_string@DU?$char_traits@D@std@@V?$allocator@D@2@@std@@@2@@std@@IAEXXZ 0044c750 f i treeview.obj
 0001:0004b7d0       ?_Insert@?$_Tree@V?$_Tmap_traits@HVCECCMonitor@@U?$less@H@std@@V?$allocator@U?$pair@$$CBHVCECCMonitor@@@std@@@3@$0A@@std@@@std@@IAE?AViterator@12@_NPAU_Node@?$_Tree_nod@V?$_Tmap_traits@HVCECCMonitor@@U?$less@H@std@@V?$allocator@U?$pair@$$CBHVCECCMonitor@@@std@@@3@$0A@@std@@@2@ABU?$pair@$$CBHVCECCMonitor@@@2@@Z 0044c7d0 f i treeview.obj
 0001:0004b990       ?_Growmap@?$deque@V?$basic_string@DU?$char_traits@D@std@@V?$allocator@D@2@@std@@V?$allocator@V?$basic_string@DU?$char_traits@D@std@@V?$allocator@D@2@@std@@@2@@std@@IAEXI@Z 0044c990 f i treeview.obj
 0001:0004bae0       ??$_Insert@Vconst_iterator@?$list@HV?$allocator@H@std@@@std@@@?$list@HV?$allocator@H@std@@@std@@QAEXViterator@01@Vconst_iterator@01@1Uforward_iterator_tag@1@@Z 0044cae0 f i treeview.obj
 0001:0004bb90       ?UpdateGroupData@CEccTreeView@@AAEXAAVCEccTreeGroup@@@Z 0044cb90 f   treeview.obj
 0001:0004c430       ?CreateSubGroups@CEccTreeView@@AAEXAAVCEccTreeGroup@@PAVWTable@@@Z 0044d430 f   treeview.obj
 0001:0004ce70       ?erase@?$_Tree@V?$_Tmap_traits@HVCEccTreeGroup@@U?$less@H@std@@V?$allocator@U?$pair@$$CBHVCEccTreeGroup@@@std@@@3@$0A@@std@@@std@@QAE?AViterator@12@V312@@Z 0044de70 f i treeview.obj
 0001:0004d1d0       ?pop@?$stack@V?$basic_string@DU?$char_traits@D@std@@V?$allocator@D@2@@std@@V?$deque@V?$basic_string@DU?$char_traits@D@std@@V?$allocator@D@2@@std@@V?$allocator@V?$basic_string@DU?$char_traits@D@std@@V?$allocator@D@2@@std@@@2@@2@@std@@QAEXXZ 0044e1d0 f i treeview.obj
 0001:0004d210       ??1?$pair@$$CBV?$basic_string@DU?$char_traits@D@std@@V?$allocator@D@2@@std@@V?$list@HV?$allocator@H@std@@@2@@std@@QAE@XZ 0044e210 f i treeview.obj
 0001:0004d240       ?_Erase@?$_Tree@V?$_Tmap_traits@HVCEccTreeGroup@@U?$less@H@std@@V?$allocator@U?$pair@$$CBHVCEccTreeGroup@@@std@@@3@$0A@@std@@@std@@IAEXPAU_Node@?$_Tree_nod@V?$_Tmap_traits@HVCEccTreeGroup@@U?$less@H@std@@V?$allocator@U?$pair@$$CBHVCEccTreeGroup@@@std@@@3@$0A@@std@@@2@@Z 0044e240 f i treeview.obj
 0001:0004d290       ?_Erase@?$_Tree@V?$_Tmap_traits@HVCECCMonitor@@U?$less@H@std@@V?$allocator@U?$pair@$$CBHVCECCMonitor@@@std@@@3@$0A@@std@@@std@@IAEXPAU_Node@?$_Tree_nod@V?$_Tmap_traits@HVCECCMonitor@@U?$less@H@std@@V?$allocator@U?$pair@$$CBHVCECCMonitor@@@std@@@3@$0A@@std@@@2@@Z 0044e290 f i treeview.obj
 0001:0004d2d0       ?insert@?$_Tree@V?$_Tmap_traits@HVCECCMonitor@@U?$less@H@std@@V?$allocator@U?$pair@$$CBHVCECCMonitor@@@std@@@3@$0A@@std@@@std@@QAE?AU?$pair@Viterator@?$_Tree@V?$_Tmap_traits@HVCECCMonitor@@U?$less@H@std@@V?$allocator@U?$pair@$$CBHVCECCMonitor@@@std@@@3@$0A@@std@@@std@@_N@2@ABU?$pair@$$CBHVCECCMonitor@@@2@@Z 0044e2d0 f i treeview.obj
 0001:0004d390       ?_Copy@?$_Tree@V?$_Tmap_traits@HVCECCMonitor@@U?$less@H@std@@V?$allocator@U?$pair@$$CBHVCECCMonitor@@@std@@@3@$0A@@std@@@std@@IAEPAU_Node@?$_Tree_nod@V?$_Tmap_traits@HVCECCMonitor@@U?$less@H@std@@V?$allocator@U?$pair@$$CBHVCECCMonitor@@@std@@@3@$0A@@std@@@2@PAU342@0@Z 0044e390 f i treeview.obj
 0001:0004d440       ??1_Node@?$_Tree_nod@V?$_Tmap_traits@V?$basic_string@DU?$char_traits@D@std@@V?$allocator@D@2@@std@@V?$list@HV?$allocator@H@std@@@2@U?$less@V?$basic_string@DU?$char_traits@D@std@@V?$allocator@D@2@@std@@@2@V?$allocator@U?$pair@$$CBV?$basic_string@DU?$char_traits@D@std@@V?$allocator@D@2@@std@@V?$list@HV?$allocator@H@std@@@2@@std@@@2@$0A@@std@@@std@@QAE@XZ 0044e440 f i treeview.obj
 0001:0004d470       ?EditMonitor@CEccTreeDevice@@QAEXABV?$basic_string@DU?$char_traits@D@std@@V?$allocator@D@2@@std@@0@Z 0044e470 f   treeview.obj
 0001:0004dbc0       ?BuildSEShowText@CEccTreeView@@QAEXV?$basic_string@DU?$char_traits@D@std@@V?$allocator@D@2@@std@@@Z 0044ebc0 f   treeview.obj
 0001:0004dc70       ??1?$stack@V?$basic_string@DU?$char_traits@D@std@@V?$allocator@D@2@@std@@V?$deque@V?$basic_string@DU?$char_traits@D@std@@V?$allocator@D@2@@std@@V?$allocator@V?$basic_string@DU?$char_traits@D@std@@V?$allocator@D@2@@std@@@2@@2@@std@@QAE@XZ 0044ec70 f i treeview.obj
 0001:0004dc80       ?CreateTree@CEccTreeView@@AAEXXZ 0044ec80 f   treeview.obj
 0001:0004e040       ?GetDevMTList@CEccTreeView@@QAEXABV?$basic_string@DU?$char_traits@D@std@@V?$allocator@D@2@@std@@AAV?$list@HV?$allocator@H@std@@@3@@Z 0044f040 f   treeview.obj
 0001:0004e0b0       ?erase@?$_Tree@V?$_Tmap_traits@HVCEccTreeGroup@@U?$less@H@std@@V?$allocator@U?$pair@$$CBHVCEccTreeGroup@@@std@@@3@$0A@@std@@@std@@QAE?AViterator@12@V312@0@Z 0044f0b0 f i treeview.obj
 0001:0004e130       ?insert@?$_Tree@V?$_Tmap_traits@HVCECCMonitor@@U?$less@H@std@@V?$allocator@U?$pair@$$CBHVCECCMonitor@@@std@@@3@$0A@@std@@@std@@QAE?AViterator@12@V312@ABU?$pair@$$CBHVCECCMonitor@@@2@@Z 0044f130 f i treeview.obj
 0001:0004e2a0       ?erase@?$_Tree@V?$_Tmap_traits@HVCECCMonitor@@U?$less@H@std@@V?$allocator@U?$pair@$$CBHVCECCMonitor@@@std@@@3@$0A@@std@@@std@@QAE?AViterator@12@V312@0@Z 0044f2a0 f i treeview.obj
 0001:0004e360       ?_Copy@?$_Tree@V?$_Tmap_traits@HVCECCMonitor@@U?$less@H@std@@V?$allocator@U?$pair@$$CBHVCECCMonitor@@@std@@@3@$0A@@std@@@std@@IAEXABV12@@Z 0044f360 f i treeview.obj
 0001:0004e3f0       ??1?$map@HVCECCMonitor@@U?$less@H@std@@V?$allocator@U?$pair@$$CBHVCECCMonitor@@@std@@@3@@std@@QAE@XZ 0044f3f0 f i treeview.obj
 0001:0004e3f0       ?_Tidy@?$_Tree@V?$_Tmap_traits@HVCECCMonitor@@U?$less@H@std@@V?$allocator@U?$pair@$$CBHVCECCMonitor@@@std@@@3@$0A@@std@@@std@@IAEXXZ 0044f3f0 f i treeview.obj
 0001:0004e420       ??0?$_Tree@V?$_Tmap_traits@HVCECCMonitor@@U?$less@H@std@@V?$allocator@U?$pair@$$CBHVCECCMonitor@@@std@@@3@$0A@@std@@@std@@QAE@ABV01@@Z 0044f420 f i treeview.obj
 0001:0004e4b0       ??0?$list@HV?$allocator@H@std@@@std@@QAE@ABV01@@Z 0044f4b0 f i treeview.obj
 0001:0004e530       ??0?$pair@$$CBV?$basic_string@DU?$char_traits@D@std@@V?$allocator@D@2@@std@@V?$list@HV?$allocator@H@std@@@2@@std@@QAE@ABU01@@Z 0044f530 f i treeview.obj
 0001:0004e590       ?Reset@CEccTreeDevice@@EAEXXZ 0044f590 f   treeview.obj
 0001:0004e610       ?MTCanUsing@CEccTreeDevice@@QAE_NH@Z 0044f610 f   treeview.obj
 0001:0004e6f0       ?getECCObject@CEccTreeView@@SAPBVCEccTreeNode@@ABV?$basic_string@DU?$char_traits@D@std@@V?$allocator@D@2@@std@@@Z 0044f6f0 f   treeview.obj
 0001:0004eb70       ??A?$map@HVCECCMonitor@@U?$less@H@std@@V?$allocator@U?$pair@$$CBHVCECCMonitor@@@std@@@3@@std@@QAEAAVCECCMonitor@@ABH@Z 0044fb70 f i treeview.obj
 0001:0004ec60       ??4?$list@HV?$allocator@H@std@@@std@@QAEAAV01@ABV01@@Z 0044fc60 f i treeview.obj
 0001:0004eca0       ??0?$pair@$$CBV?$basic_string@DU?$char_traits@D@std@@V?$allocator@D@2@@std@@V?$list@HV?$allocator@H@std@@@2@@std@@QAE@ABV?$basic_string@DU?$char_traits@D@std@@V?$allocator@D@2@@1@ABV?$list@HV?$allocator@H@std@@@1@@Z 0044fca0 f i treeview.obj
 0001:0004ed00       ??1CEccTreeDevice@@QAE@XZ  0044fd00 f   treeview.obj
 0001:0004edf0       ?AppendMonitor@CEccTreeDevice@@QAEHABV?$basic_string@DU?$char_traits@D@std@@V?$allocator@D@2@@std@@0H@Z 0044fdf0 f   treeview.obj
 0001:0004fa50       ?_Tidy@?$_Tree@V?$_Tmap_traits@HVCEccTreeGroup@@U?$less@H@std@@V?$allocator@U?$pair@$$CBHVCEccTreeGroup@@@std@@@3@$0A@@std@@@std@@IAEXXZ 00450a50 f i treeview.obj
 0001:0004fa50       ??1?$map@HVCEccTreeGroup@@U?$less@H@std@@V?$allocator@U?$pair@$$CBHVCEccTreeGroup@@@std@@@3@@std@@QAE@XZ 00450a50 f i treeview.obj
 0001:0004fa80       ?EditSVSE@CEccTreeView@@SAXABV?$basic_string@DU?$char_traits@D@std@@V?$allocator@D@2@@std@@0@Z 00450a80 f   treeview.obj
 0001:0004fe50       ?EditDevice@CEccTreeView@@SAXABV?$basic_string@DU?$char_traits@D@std@@V?$allocator@D@2@@std@@0000@Z 00450e50 f   treeview.obj
 0001:00050440       ?EditGroup@CEccTreeView@@SAXABV?$basic_string@DU?$char_traits@D@std@@V?$allocator@D@2@@std@@0000@Z 00451440 f   treeview.obj
 0001:00050a30       ?MakePath@CEccTreeView@@SAXABV?$basic_string@DU?$char_traits@D@std@@V?$allocator@D@2@@std@@AAV?$list@Usv_pair@@V?$allocator@Usv_pair@@@std@@@3@@Z 00451a30 f   treeview.obj
 0001:00051320       ??1?$pair@$$CBHVCEccTreeDevice@@@std@@QAE@XZ 00452320 f i treeview.obj
 0001:00051330       ??0CEccTreeDevice@@QAE@ABV0@@Z 00452330 f i treeview.obj
 0001:000513f0       ?_Buynode@?$_Tree@V?$_Tmap_traits@V?$basic_string@DU?$char_traits@D@std@@V?$allocator@D@2@@std@@V?$list@HV?$allocator@H@std@@@2@U?$less@V?$basic_string@DU?$char_traits@D@std@@V?$allocator@D@2@@std@@@2@V?$allocator@U?$pair@$$CBV?$basic_string@DU?$char_traits@D@std@@V?$allocator@D@2@@std@@V?$list@HV?$allocator@H@std@@@2@@std@@@2@$0A@@std@@@std@@IAEPAU_Node@?$_Tree_nod@V?$_Tmap_traits@V?$basic_string@DU?$char_traits@D@std@@V?$allocator@D@2@@std@@V?$list@HV?$allocator@H@std@@@2@U?$less@V?$basic_string@DU?$char_traits@D@std@@V?$allocator@D@2@@std@@@2@V?$allocator@U?$pair@$$CBV?$basic_string@DU?$char_traits@D@std@@V?$allocator@D@2@@std@@V?$list@HV?$allocator@H@std@@@2@@std@@@2@$0A@@std@@@2@PAU342@00ABU?$pair@$$CBV?$basic_string@DU?$char_traits@D@std@@V?$allocator@D@2@@std@@V?$list@HV?$allocator@H@std@@@2@@2@D@Z 004523f0 f i treeview.obj
 0001:00051490       ??1_Node@?$_Tree_nod@V?$_Tmap_traits@HVCEccTreeDevice@@U?$less@H@std@@V?$allocator@U?$pair@$$CBHVCEccTreeDevice@@@std@@@3@$0A@@std@@@std@@QAE@XZ 00452490 f i treeview.obj
 0001:000514a0       ??0CEccTreeDevice@@QAE@XZ  004524a0 f   treeview.obj
 0001:00051570       ??4CEccTreeDevice@@QAEAAV0@ABV0@@Z 00452570 f i treeview.obj
 0001:00051600       ?_Insert@?$_Tree@V?$_Tmap_traits@V?$basic_string@DU?$char_traits@D@std@@V?$allocator@D@2@@std@@V?$list@HV?$allocator@H@std@@@2@U?$less@V?$basic_string@DU?$char_traits@D@std@@V?$allocator@D@2@@std@@@2@V?$allocator@U?$pair@$$CBV?$basic_string@DU?$char_traits@D@std@@V?$allocator@D@2@@std@@V?$list@HV?$allocator@H@std@@@2@@std@@@2@$0A@@std@@@std@@IAE?AViterator@12@_NPAU_Node@?$_Tree_nod@V?$_Tmap_traits@V?$basic_string@DU?$char_traits@D@std@@V?$allocator@D@2@@std@@V?$list@HV?$allocator@H@std@@@2@U?$less@V?$basic_string@DU?$char_traits@D@std@@V?$allocator@D@2@@std@@@2@V?$allocator@U?$pair@$$CBV?$basic_string@DU?$char_traits@D@std@@V?$allocator@D@2@@std@@V?$list@HV?$allocator@H@std@@@2@@std@@@2@$0A@@std@@@2@ABU?$pair@$$CBV?$basic_string@DU?$char_traits@D@std@@V?$allocator@D@2@@std@@V?$list@HV?$allocator@H@std@@@2@@2@@Z 00452600 f i treeview.obj
 0001:000517c0       ?erase@?$_Tree@V?$_Tmap_traits@V?$basic_string@DU?$char_traits@D@std@@V?$allocator@D@2@@std@@V?$list@HV?$allocator@H@std@@@2@U?$less@V?$basic_string@DU?$char_traits@D@std@@V?$allocator@D@2@@std@@@2@V?$allocator@U?$pair@$$CBV?$basic_string@DU?$char_traits@D@std@@V?$allocator@D@2@@std@@V?$list@HV?$allocator@H@std@@@2@@std@@@2@$0A@@std@@@std@@QAE?AViterator@12@V312@@Z 004527c0 f i treeview.obj
 0001:00051ae0       ?_Erase@?$_Tree@V?$_Tmap_traits@V?$basic_string@DU?$char_traits@D@std@@V?$allocator@D@2@@std@@V?$list@HV?$allocator@H@std@@@2@U?$less@V?$basic_string@DU?$char_traits@D@std@@V?$allocator@D@2@@std@@@2@V?$allocator@U?$pair@$$CBV?$basic_string@DU?$char_traits@D@std@@V?$allocator@D@2@@std@@V?$list@HV?$allocator@H@std@@@2@@std@@@2@$0A@@std@@@std@@IAEXPAU_Node@?$_Tree_nod@V?$_Tmap_traits@V?$basic_string@DU?$char_traits@D@std@@V?$allocator@D@2@@std@@V?$list@HV?$allocator@H@std@@@2@U?$less@V?$basic_string@DU?$char_traits@D@std@@V?$allocator@D@2@@std@@@2@V?$allocator@U?$pair@$$CBV?$basic_string@DU?$char_traits@D@std@@V?$allocator@D@2@@std@@V?$list@HV?$allocator@H@std@@@2@@std@@@2@$0A@@std@@@2@@Z 00452ae0 f i treeview.obj
 0001:00051b20       ?insert@?$_Tree@V?$_Tmap_traits@V?$basic_string@DU?$char_traits@D@std@@V?$allocator@D@2@@std@@V?$list@HV?$allocator@H@std@@@2@U?$less@V?$basic_string@DU?$char_traits@D@std@@V?$allocator@D@2@@std@@@2@V?$allocator@U?$pair@$$CBV?$basic_string@DU?$char_traits@D@std@@V?$allocator@D@2@@std@@V?$list@HV?$allocator@H@std@@@2@@std@@@2@$0A@@std@@@std@@QAE?AU?$pair@Viterator@?$_Tree@V?$_Tmap_traits@V?$basic_string@DU?$char_traits@D@std@@V?$allocator@D@2@@std@@V?$list@HV?$allocator@H@std@@@2@U?$less@V?$basic_string@DU?$char_traits@D@std@@V?$allocator@D@2@@std@@@2@V?$allocator@U?$pair@$$CBV?$basic_string@DU?$char_traits@D@std@@V?$allocator@D@2@@std@@V?$list@HV?$allocator@H@std@@@2@@std@@@2@$0A@@std@@@std@@_N@2@ABU?$pair@$$CBV?$basic_string@DU?$char_traits@D@std@@V?$allocator@D@2@@std@@V?$list@HV?$allocator@H@std@@@2@@2@@Z 00452b20 f i treeview.obj
 0001:00051c00       ?_Buynode@?$_Tree@V?$_Tmap_traits@HVCEccTreeDevice@@U?$less@H@std@@V?$allocator@U?$pair@$$CBHVCEccTreeDevice@@@std@@@3@$0A@@std@@@std@@IAEPAU_Node@?$_Tree_nod@V?$_Tmap_traits@HVCEccTreeDevice@@U?$less@H@std@@V?$allocator@U?$pair@$$CBHVCEccTreeDevice@@@std@@@3@$0A@@std@@@2@PAU342@00ABU?$pair@$$CBHVCEccTreeDevice@@@2@D@Z 00452c00 f i treeview.obj
 0001:00051cb0       ?insert@?$_Tree@V?$_Tmap_traits@V?$basic_string@DU?$char_traits@D@std@@V?$allocator@D@2@@std@@V?$list@HV?$allocator@H@std@@@2@U?$less@V?$basic_string@DU?$char_traits@D@std@@V?$allocator@D@2@@std@@@2@V?$allocator@U?$pair@$$CBV?$basic_string@DU?$char_traits@D@std@@V?$allocator@D@2@@std@@V?$list@HV?$allocator@H@std@@@2@@std@@@2@$0A@@std@@@std@@QAE?AViterator@12@V312@ABU?$pair@$$CBV?$basic_string@DU?$char_traits@D@std@@V?$allocator@D@2@@std@@V?$list@HV?$allocator@H@std@@@2@@2@@Z 00452cb0 f i treeview.obj
 0001:00051e70       ?_Insert@?$_Tree@V?$_Tmap_traits@HVCEccTreeDevice@@U?$less@H@std@@V?$allocator@U?$pair@$$CBHVCEccTreeDevice@@@std@@@3@$0A@@std@@@std@@IAE?AViterator@12@_NPAU_Node@?$_Tree_nod@V?$_Tmap_traits@HVCEccTreeDevice@@U?$less@H@std@@V?$allocator@U?$pair@$$CBHVCEccTreeDevice@@@std@@@3@$0A@@std@@@2@ABU?$pair@$$CBHVCEccTreeDevice@@@2@@Z 00452e70 f i treeview.obj
 0001:00052050       ?erase@?$_Tree@V?$_Tmap_traits@V?$basic_string@DU?$char_traits@D@std@@V?$allocator@D@2@@std@@V?$list@HV?$allocator@H@std@@@2@U?$less@V?$basic_string@DU?$char_traits@D@std@@V?$allocator@D@2@@std@@@2@V?$allocator@U?$pair@$$CBV?$basic_string@DU?$char_traits@D@std@@V?$allocator@D@2@@std@@V?$list@HV?$allocator@H@std@@@2@@std@@@2@$0A@@std@@@std@@QAE?AViterator@12@V312@0@Z 00453050 f i treeview.obj
 0001:00052110       ?erase@?$_Tree@V?$_Tmap_traits@HVCEccTreeDevice@@U?$less@H@std@@V?$allocator@U?$pair@$$CBHVCEccTreeDevice@@@std@@@3@$0A@@std@@@std@@QAE?AViterator@12@V312@@Z 00453110 f i treeview.obj
 0001:00052470       ??A?$map@V?$basic_string@DU?$char_traits@D@std@@V?$allocator@D@2@@std@@V?$list@HV?$allocator@H@std@@@2@U?$less@V?$basic_string@DU?$char_traits@D@std@@V?$allocator@D@2@@std@@@2@V?$allocator@U?$pair@$$CBV?$basic_string@DU?$char_traits@D@std@@V?$allocator@D@2@@std@@V?$list@HV?$allocator@H@std@@@2@@std@@@2@@std@@QAEAAV?$list@HV?$allocator@H@std@@@1@ABV?$basic_string@DU?$char_traits@D@std@@V?$allocator@D@2@@1@@Z 00453470 f i treeview.obj
 0001:00052580       ?_Erase@?$_Tree@V?$_Tmap_traits@HVCEccTreeDevice@@U?$less@H@std@@V?$allocator@U?$pair@$$CBHVCEccTreeDevice@@@std@@@3@$0A@@std@@@std@@IAEXPAU_Node@?$_Tree_nod@V?$_Tmap_traits@HVCEccTreeDevice@@U?$less@H@std@@V?$allocator@U?$pair@$$CBHVCEccTreeDevice@@@std@@@3@$0A@@std@@@2@@Z 00453580 f i treeview.obj
 0001:000525d0       ?insert@?$_Tree@V?$_Tmap_traits@HVCEccTreeDevice@@U?$less@H@std@@V?$allocator@U?$pair@$$CBHVCEccTreeDevice@@@std@@@3@$0A@@std@@@std@@QAE?AU?$pair@Viterator@?$_Tree@V?$_Tmap_traits@HVCEccTreeDevice@@U?$less@H@std@@V?$allocator@U?$pair@$$CBHVCEccTreeDevice@@@std@@@3@$0A@@std@@@std@@_N@2@ABU?$pair@$$CBHVCEccTreeDevice@@@2@@Z 004535d0 f i treeview.obj
 0001:00052690       ?_Copy@?$_Tree@V?$_Tmap_traits@HVCEccTreeDevice@@U?$less@H@std@@V?$allocator@U?$pair@$$CBHVCEccTreeDevice@@@std@@@3@$0A@@std@@@std@@IAEPAU_Node@?$_Tree_nod@V?$_Tmap_traits@HVCEccTreeDevice@@U?$less@H@std@@V?$allocator@U?$pair@$$CBHVCEccTreeDevice@@@std@@@3@$0A@@std@@@2@PAU342@0@Z 00453690 f i treeview.obj
 0001:00052750       ?DeleteDeviceByID@CEccTreeView@@SAXABV?$basic_string@DU?$char_traits@D@std@@V?$allocator@D@2@@std@@@Z 00453750 f   treeview.obj
 0001:00053030       ?DeleteGroupByID@CEccTreeView@@SAXABV?$basic_string@DU?$char_traits@D@std@@V?$allocator@D@2@@std@@@Z 00454030 f   treeview.obj
 0001:00053900       ?getDeviceShowType@CEccTreeView@@AAE?AV?$basic_string@DU?$char_traits@D@std@@V?$allocator@D@2@@std@@ABV23@@Z 00454900 f   treeview.obj
 0001:00053b80       ?InsertDevMTList@CEccTreeView@@QAEXABV?$basic_string@DU?$char_traits@D@std@@V?$allocator@D@2@@std@@ABV?$list@HV?$allocator@H@std@@@3@@Z 00454b80 f   treeview.obj
 0001:00053bd0       ?insert@?$_Tree@V?$_Tmap_traits@HVCEccTreeDevice@@U?$less@H@std@@V?$allocator@U?$pair@$$CBHVCEccTreeDevice@@@std@@@3@$0A@@std@@@std@@QAE?AViterator@12@V312@ABU?$pair@$$CBHVCEccTreeDevice@@@2@@Z 00454bd0 f i treeview.obj
 0001:00053d40       ?erase@?$_Tree@V?$_Tmap_traits@HVCEccTreeDevice@@U?$less@H@std@@V?$allocator@U?$pair@$$CBHVCEccTreeDevice@@@std@@@3@$0A@@std@@@std@@QAE?AViterator@12@V312@0@Z 00454d40 f i treeview.obj
 0001:00053dc0       ?_Copy@?$_Tree@V?$_Tmap_traits@HVCEccTreeDevice@@U?$less@H@std@@V?$allocator@U?$pair@$$CBHVCEccTreeDevice@@@std@@@3@$0A@@std@@@std@@IAEXABV12@@Z 00454dc0 f i treeview.obj
 0001:00053e50       ??1?$map@HVCEccTreeDevice@@U?$less@H@std@@V?$allocator@U?$pair@$$CBHVCEccTreeDevice@@@std@@@3@@std@@QAE@XZ 00454e50 f i treeview.obj
 0001:00053e50       ?_Tidy@?$_Tree@V?$_Tmap_traits@HVCEccTreeDevice@@U?$less@H@std@@V?$allocator@U?$pair@$$CBHVCEccTreeDevice@@@std@@@3@$0A@@std@@@std@@IAEXXZ 00454e50 f i treeview.obj
 0001:00053e80       ??0?$_Tree@V?$_Tmap_traits@HVCEccTreeDevice@@U?$less@H@std@@V?$allocator@U?$pair@$$CBHVCEccTreeDevice@@@std@@@3@$0A@@std@@@std@@QAE@ABV01@@Z 00454e80 f i treeview.obj
 0001:00053f10       ??1?$map@V?$basic_string@DU?$char_traits@D@std@@V?$allocator@D@2@@std@@V?$list@HV?$allocator@H@std@@@2@U?$less@V?$basic_string@DU?$char_traits@D@std@@V?$allocator@D@2@@std@@@2@V?$allocator@U?$pair@$$CBV?$basic_string@DU?$char_traits@D@std@@V?$allocator@D@2@@std@@V?$list@HV?$allocator@H@std@@@2@@std@@@2@@std@@QAE@XZ 00454f10 f i treeview.obj
 0001:00053f40       ?Reset@CEccTreeGroup@@EAEXXZ 00454f40 f   treeview.obj
 0001:00053fc0       ?EnumDevice@CEccTreeView@@AAEXAAVCEccTreeDevice@@@Z 00454fc0 f   treeview.obj
 0001:00054b10       ??A?$map@HVCEccTreeDevice@@U?$less@H@std@@V?$allocator@U?$pair@$$CBHVCEccTreeDevice@@@std@@@3@@std@@QAEAAVCEccTreeDevice@@ABH@Z 00455b10 f i treeview.obj
 0001:00054bf0       ??1CEccTreeGroup@@QAE@XZ   00455bf0 f   treeview.obj
 0001:00054cf0       ?AppendDevice@CEccTreeGroup@@QAEHABV?$basic_string@DU?$char_traits@D@std@@V?$allocator@D@2@@std@@00000000H@Z 00455cf0 f   treeview.obj
 0001:00055930       ?AppendDevice@CEccTreeView@@SAHABV?$basic_string@DU?$char_traits@D@std@@V?$allocator@D@2@@std@@0000000@Z 00456930 f   treeview.obj
 0001:00055fc0       ??1?$pair@$$CBV?$basic_string@DU?$char_traits@D@std@@V?$allocator@D@2@@std@@VCEccTreeGroup@@@std@@QAE@XZ 00456fc0 f i treeview.obj
 0001:00056010       ??1_Node@?$_Tree_nod@V?$_Tmap_traits@V?$basic_string@DU?$char_traits@D@std@@V?$allocator@D@2@@std@@VCEccTreeGroup@@U?$less@V?$basic_string@DU?$char_traits@D@std@@V?$allocator@D@2@@std@@@2@V?$allocator@U?$pair@$$CBV?$basic_string@DU?$char_traits@D@std@@V?$allocator@D@2@@std@@VCEccTreeGroup@@@std@@@2@$0A@@std@@@std@@QAE@XZ 00457010 f i treeview.obj
 0001:00056020       ??0CEccTreeGroup@@QAE@XZ   00457020 f   treeview.obj
 0001:00056130       ?_Buynode@?$_Tree@V?$_Tmap_traits@HVCEccTreeGroup@@U?$less@H@std@@V?$allocator@U?$pair@$$CBHVCEccTreeGroup@@@std@@@3@$0A@@std@@@std@@IAEPAU_Node@?$_Tree_nod@V?$_Tmap_traits@HVCEccTreeGroup@@U?$less@H@std@@V?$allocator@U?$pair@$$CBHVCEccTreeGroup@@@std@@@3@$0A@@std@@@2@PAU342@00ABU?$pair@$$CBHVCEccTreeGroup@@@2@D@Z 00457130 f i treeview.obj
 0001:000561e0       ?_Copy@?$_Tree@V?$_Tmap_traits@HVCEccTreeGroup@@U?$less@H@std@@V?$allocator@U?$pair@$$CBHVCEccTreeGroup@@@std@@@3@$0A@@std@@@std@@IAEPAU_Node@?$_Tree_nod@V?$_Tmap_traits@HVCEccTreeGroup@@U?$less@H@std@@V?$allocator@U?$pair@$$CBHVCEccTreeGroup@@@std@@@3@$0A@@std@@@2@PAU342@0@Z 004571e0 f i treeview.obj
 0001:000562a0       ?_Insert@?$_Tree@V?$_Tmap_traits@HVCEccTreeGroup@@U?$less@H@std@@V?$allocator@U?$pair@$$CBHVCEccTreeGroup@@@std@@@3@$0A@@std@@@std@@IAE?AViterator@12@_NPAU_Node@?$_Tree_nod@V?$_Tmap_traits@HVCEccTreeGroup@@U?$less@H@std@@V?$allocator@U?$pair@$$CBHVCEccTreeGroup@@@std@@@3@$0A@@std@@@2@ABU?$pair@$$CBHVCEccTreeGroup@@@2@@Z 004572a0 f i treeview.obj
 0001:00056480       ?erase@?$_Tree@V?$_Tmap_traits@V?$basic_string@DU?$char_traits@D@std@@V?$allocator@D@2@@std@@VCEccTreeGroup@@U?$less@V?$basic_string@DU?$char_traits@D@std@@V?$allocator@D@2@@std@@@2@V?$allocator@U?$pair@$$CBV?$basic_string@DU?$char_traits@D@std@@V?$allocator@D@2@@std@@VCEccTreeGroup@@@std@@@2@$0A@@std@@@std@@QAE?AViterator@12@V312@@Z 00457480 f i treeview.obj
 0001:00056800       ?_Copy@?$_Tree@V?$_Tmap_traits@HVCEccTreeGroup@@U?$less@H@std@@V?$allocator@U?$pair@$$CBHVCEccTreeGroup@@@std@@@3@$0A@@std@@@std@@IAEXABV12@@Z 00457800 f i treeview.obj
 0001:00056890       ?_Erase@?$_Tree@V?$_Tmap_traits@V?$basic_string@DU?$char_traits@D@std@@V?$allocator@D@2@@std@@VCEccTreeGroup@@U?$less@V?$basic_string@DU?$char_traits@D@std@@V?$allocator@D@2@@std@@@2@V?$allocator@U?$pair@$$CBV?$basic_string@DU?$char_traits@D@std@@V?$allocator@D@2@@std@@VCEccTreeGroup@@@std@@@2@$0A@@std@@@std@@IAEXPAU_Node@?$_Tree_nod@V?$_Tmap_traits@V?$basic_string@DU?$char_traits@D@std@@V?$allocator@D@2@@std@@VCEccTreeGroup@@U?$less@V?$basic_string@DU?$char_traits@D@std@@V?$allocator@D@2@@std@@@2@V?$allocator@U?$pair@$$CBV?$basic_string@DU?$char_traits@D@std@@V?$allocator@D@2@@std@@VCEccTreeGroup@@@std@@@2@$0A@@std@@@2@@Z 00457890 f i treeview.obj
 0001:000568e0       ??0?$_Tree@V?$_Tmap_traits@HVCEccTreeGroup@@U?$less@H@std@@V?$allocator@U?$pair@$$CBHVCEccTreeGroup@@@std@@@3@$0A@@std@@@std@@QAE@ABV01@@Z 004578e0 f i treeview.obj
 0001:00056970       ?insert@?$_Tree@V?$_Tmap_traits@HVCEccTreeGroup@@U?$less@H@std@@V?$allocator@U?$pair@$$CBHVCEccTreeGroup@@@std@@@3@$0A@@std@@@std@@QAE?AU?$pair@Viterator@?$_Tree@V?$_Tmap_traits@HVCEccTreeGroup@@U?$less@H@std@@V?$allocator@U?$pair@$$CBHVCEccTreeGroup@@@std@@@3@$0A@@std@@@std@@_N@2@ABU?$pair@$$CBHVCEccTreeGroup@@@2@@Z 00457970 f i treeview.obj
 0001:00056a30       ?insert@?$_Tree@V?$_Tmap_traits@HVCEccTreeGroup@@U?$less@H@std@@V?$allocator@U?$pair@$$CBHVCEccTreeGroup@@@std@@@3@$0A@@std@@@std@@QAE?AViterator@12@V312@ABU?$pair@$$CBHVCEccTreeGroup@@@2@@Z 00457a30 f i treeview.obj
 0001:00056ba0       ?erase@?$_Tree@V?$_Tmap_traits@V?$basic_string@DU?$char_traits@D@std@@V?$allocator@D@2@@std@@VCEccTreeGroup@@U?$less@V?$basic_string@DU?$char_traits@D@std@@V?$allocator@D@2@@std@@@2@V?$allocator@U?$pair@$$CBV?$basic_string@DU?$char_traits@D@std@@V?$allocator@D@2@@std@@VCEccTreeGroup@@@std@@@2@$0A@@std@@@std@@QAE?AViterator@12@V312@0@Z 00457ba0 f i treeview.obj
 0001:00056c20       ??0CEccTreeGroup@@QAE@ABV0@@Z 00457c20 f i treeview.obj
 0001:00056cd0       ??0?$pair@$$CBV?$basic_string@DU?$char_traits@D@std@@V?$allocator@D@2@@std@@VCEccTreeGroup@@@std@@QAE@ABU01@@Z 00457cd0 f i treeview.obj
 0001:00056d30       ??4CEccTreeGroup@@QAEAAV0@ABV0@@Z 00457d30 f i treeview.obj
 0001:00056dd0       ??0?$pair@$$CBV?$basic_string@DU?$char_traits@D@std@@V?$allocator@D@2@@std@@VCEccTreeGroup@@@std@@QAE@ABV?$basic_string@DU?$char_traits@D@std@@V?$allocator@D@2@@1@ABVCEccTreeGroup@@@Z 00457dd0 f i treeview.obj
 0001:00056e30       ??1?$map@V?$basic_string@DU?$char_traits@D@std@@V?$allocator@D@2@@std@@VCEccTreeGroup@@U?$less@V?$basic_string@DU?$char_traits@D@std@@V?$allocator@D@2@@std@@@2@V?$allocator@U?$pair@$$CBV?$basic_string@DU?$char_traits@D@std@@V?$allocator@D@2@@std@@VCEccTreeGroup@@@std@@@2@@std@@QAE@XZ 00457e30 f i treeview.obj
 0001:00056e60       ??A?$map@HVCEccTreeGroup@@U?$less@H@std@@V?$allocator@U?$pair@$$CBHVCEccTreeGroup@@@std@@@3@@std@@QAEAAVCEccTreeGroup@@ABH@Z 00457e60 f i treeview.obj
 0001:00056f40       ?_Buynode@?$_Tree@V?$_Tmap_traits@V?$basic_string@DU?$char_traits@D@std@@V?$allocator@D@2@@std@@VCEccTreeGroup@@U?$less@V?$basic_string@DU?$char_traits@D@std@@V?$allocator@D@2@@std@@@2@V?$allocator@U?$pair@$$CBV?$basic_string@DU?$char_traits@D@std@@V?$allocator@D@2@@std@@VCEccTreeGroup@@@std@@@2@$0A@@std@@@std@@IAEPAU_Node@?$_Tree_nod@V?$_Tmap_traits@V?$basic_string@DU?$char_traits@D@std@@V?$allocator@D@2@@std@@VCEccTreeGroup@@U?$less@V?$basic_string@DU?$char_traits@D@std@@V?$allocator@D@2@@std@@@2@V?$allocator@U?$pair@$$CBV?$basic_string@DU?$char_traits@D@std@@V?$allocator@D@2@@std@@VCEccTreeGroup@@@std@@@2@$0A@@std@@@2@PAU342@00ABU?$pair@$$CBV?$basic_string@DU?$char_traits@D@std@@V?$allocator@D@2@@std@@VCEccTreeGroup@@@2@D@Z 00457f40 f i treeview.obj
 0001:00056fe0       ?AppendGroup@CEccTreeGroup@@QAEHABV?$basic_string@DU?$char_traits@D@std@@V?$allocator@D@2@@std@@00000H@Z 00457fe0 f   treeview.obj
 0001:00057a60       ?EnumGroups@CEccTreeView@@AAEXAAVCEccTreeGroup@@@Z 00458a60 f   treeview.obj
 0001:00058610       ?AppendGroup@CEccTreeView@@SAHABV?$basic_string@DU?$char_traits@D@std@@V?$allocator@D@2@@std@@0000@Z 00459610 f   treeview.obj
 0001:00058c80       ?ReCreateTreeNode@CEccTreeView@@SAXABV?$basic_string@DU?$char_traits@D@std@@V?$allocator@D@2@@std@@@Z 00459c80 f   treeview.obj
 0001:00059310       ?_Insert@?$_Tree@V?$_Tmap_traits@V?$basic_string@DU?$char_traits@D@std@@V?$allocator@D@2@@std@@VCEccTreeGroup@@U?$less@V?$basic_string@DU?$char_traits@D@std@@V?$allocator@D@2@@std@@@2@V?$allocator@U?$pair@$$CBV?$basic_string@DU?$char_traits@D@std@@V?$allocator@D@2@@std@@VCEccTreeGroup@@@std@@@2@$0A@@std@@@std@@IAE?AViterator@12@_NPAU_Node@?$_Tree_nod@V?$_Tmap_traits@V?$basic_string@DU?$char_traits@D@std@@V?$allocator@D@2@@std@@VCEccTreeGroup@@U?$less@V?$basic_string@DU?$char_traits@D@std@@V?$allocator@D@2@@std@@@2@V?$allocator@U?$pair@$$CBV?$basic_string@DU?$char_traits@D@std@@V?$allocator@D@2@@std@@VCEccTreeGroup@@@std@@@2@$0A@@std@@@2@ABU?$pair@$$CBV?$basic_string@DU?$char_traits@D@std@@V?$allocator@D@2@@std@@VCEccTreeGroup@@@2@@Z 0045a310 f i treeview.obj
 0001:000594f0       ?insert@?$_Tree@V?$_Tmap_traits@V?$basic_string@DU?$char_traits@D@std@@V?$allocator@D@2@@std@@VCEccTreeGroup@@U?$less@V?$basic_string@DU?$char_traits@D@std@@V?$allocator@D@2@@std@@@2@V?$allocator@U?$pair@$$CBV?$basic_string@DU?$char_traits@D@std@@V?$allocator@D@2@@std@@VCEccTreeGroup@@@std@@@2@$0A@@std@@@std@@QAE?AU?$pair@Viterator@?$_Tree@V?$_Tmap_traits@V?$basic_string@DU?$char_traits@D@std@@V?$allocator@D@2@@std@@VCEccTreeGroup@@U?$less@V?$basic_string@DU?$char_traits@D@std@@V?$allocator@D@2@@std@@@2@V?$allocator@U?$pair@$$CBV?$basic_string@DU?$char_traits@D@std@@V?$allocator@D@2@@std@@VCEccTreeGroup@@@std@@@2@$0A@@std@@@std@@_N@2@ABU?$pair@$$CBV?$basic_string@DU?$char_traits@D@std@@V?$allocator@D@2@@std@@VCEccTreeGroup@@@2@@Z 0045a4f0 f i treeview.obj
 0001:000595d0       ?insert@?$_Tree@V?$_Tmap_traits@V?$basic_string@DU?$char_traits@D@std@@V?$allocator@D@2@@std@@VCEccTreeGroup@@U?$less@V?$basic_string@DU?$char_traits@D@std@@V?$allocator@D@2@@std@@@2@V?$allocator@U?$pair@$$CBV?$basic_string@DU?$char_traits@D@std@@V?$allocator@D@2@@std@@VCEccTreeGroup@@@std@@@2@$0A@@std@@@std@@QAE?AViterator@12@V312@ABU?$pair@$$CBV?$basic_string@DU?$char_traits@D@std@@V?$allocator@D@2@@std@@VCEccTreeGroup@@@2@@Z 0045a5d0 f i treeview.obj
 0001:00059790       ??A?$map@V?$basic_string@DU?$char_traits@D@std@@V?$allocator@D@2@@std@@VCEccTreeGroup@@U?$less@V?$basic_string@DU?$char_traits@D@std@@V?$allocator@D@2@@std@@@2@V?$allocator@U?$pair@$$CBV?$basic_string@DU?$char_traits@D@std@@V?$allocator@D@2@@std@@VCEccTreeGroup@@@std@@@2@@std@@QAEAAVCEccTreeGroup@@ABV?$basic_string@DU?$char_traits@D@std@@V?$allocator@D@2@@1@@Z 0045a790 f i treeview.obj
 0001:00059860       ?EnumSVSE@CEccTreeView@@AAEXXZ 0045a860 f   treeview.obj
 0001:00059c50       ??0CEccTreeView@@QAE@PAVWContainerWidget@@V?$basic_string@DU?$char_traits@D@std@@V?$allocator@D@2@@std@@@Z 0045ac50 f   treeview.obj
 0001:00059dd0       ??_GCEccTreeView@@UAEPAXI@Z 0045add0 f i treeview.obj
 0001:00059dd0       ??_ECEccTreeView@@UAEPAXI@Z 0045add0 f i treeview.obj
 0001:00059df0       ??1CEccTreeView@@UAE@XZ    0045adf0 f i treeview.obj
 0001:00059ef0       ?reloadTree@CEccTreeView@@QAEXXZ 0045aef0 f   treeview.obj
 0001:0005a000       ?resetUserID@CEccTreeView@@QAEXABV?$basic_string@DU?$char_traits@D@std@@V?$allocator@D@2@@std@@@Z 0045b000 f   treeview.obj
 0001:0005a110       ?ReloadTreeView@CEccTreeView@@AAEXXZ 0045b110 f   treeview.obj
 0001:0005a130       ?buildSlotMap@CEccTreeView@@MAEXAAV?$map@V?$basic_string@DU?$char_traits@D@std@@V?$allocator@D@2@@std@@PAVWSlotInstance_@@U?$less@V?$basic_string@DU?$char_traits@D@std@@V?$allocator@D@2@@std@@@2@V?$allocator@U?$pair@$$CBV?$basic_string@DU?$char_traits@D@std@@V?$allocator@D@2@@std@@PAVWSlotInstance_@@@std@@@2@@std@@@Z 0045b130 f   treeviewwt.obj
 0001:0005a220       ?triggerSlot@CEccTreeView@@MAE_NPAVWObject@@PBVWSlot_@@PAPAX@Z 0045b220 f   treeviewwt.obj
 0001:0005a250       ?buildSignalMap@CEccTreeView@@MAEXAAV?$map@V?$basic_string@DU?$char_traits@D@std@@V?$allocator@D@2@@std@@PAVWSignalInstance_@@U?$less@V?$basic_string@DU?$char_traits@D@std@@V?$allocator@D@2@@std@@@2@V?$allocator@U?$pair@$$CBV?$basic_string@DU?$char_traits@D@std@@V?$allocator@D@2@@std@@PAVWSignalInstance_@@@std@@@2@@std@@@Z 0045b250 f   treeviewwt.obj
 0001:0005a310       ??0WCssRule@@QAE@V?$basic_string@DU?$char_traits@D@std@@V?$allocator@D@2@@std@@@Z 0045b310 f   libwt:WCssStyleSheet.obj
 0001:0005a370       ??1WCssRule@@UAE@XZ        0045b370 f   libwt:WCssStyleSheet.obj
 0001:0005a380       ?cssText@WCssStyleSheet@@QBE?AV?$basic_string@DU?$char_traits@D@std@@V?$allocator@D@2@@std@@XZ 0045b380 f   libwt:WCssStyleSheet.obj
 0001:0005a510       ??1?$map@V?$basic_string@DU?$char_traits@D@std@@V?$allocator@D@2@@std@@PAVWCssRule@@U?$less@V?$basic_string@DU?$char_traits@D@std@@V?$allocator@D@2@@std@@@2@V?$allocator@U?$pair@$$CBV?$basic_string@DU?$char_traits@D@std@@V?$allocator@D@2@@std@@PAVWCssRule@@@std@@@2@@std@@QAE@XZ 0045b510 f i libwt:WCssStyleSheet.obj
 0001:0005a540       ??1WCssStyleSheet@@QAE@XZ  0045b540 f   libwt:WCssStyleSheet.obj
 0001:0005a600       ??0WCssStyleSheet@@QAE@XZ  0045b600 f   libwt:WCssStyleSheet.obj
 0001:0005a630       ?what@bad_lexical_cast@boost@@UBEPBDXZ 0045b630 f i libwt:WWebWidget.obj
 0001:0005a640       ??1bad_lexical_cast@boost@@UAE@XZ 0045b640 f i libwt:WWebWidget.obj
 0001:0005a650       ??_Gbad_lexical_cast@boost@@UAEPAXI@Z 0045b650 f i libwt:WWebWidget.obj
 0001:0005a650       ??_Ebad_lexical_cast@boost@@UAEPAXI@Z 0045b650 f i libwt:WWebWidget.obj
 0001:0005a670       ??1?$pair@V?$basic_string@DU?$char_traits@D@std@@V?$allocator@D@2@@std@@V12@@std@@QAE@XZ 0045b670 f i libwt:WWebWidget.obj
 0001:0005a670       ??1JavaScript@@QAE@XZ      0045b670 f i libwt:WWebWidget.obj
 0001:0005a6c0       ??4JavaScript@@QAEAAV0@ABV0@@Z 0045b6c0 f i libwt:WWebWidget.obj
 0001:0005a6f0       ?triggerSlot@WWebWidget@@MAE_NPAVWObject@@PBVWSlot_@@PAPAX@Z 0045b6f0 f   libwt:WWebWidget.obj
 0001:0005a700       ?undoTriggerSlot@WWebWidget@@MAE_NPBVWSlot_@@PAPAX@Z 0045b700 f   libwt:WWebWidget.obj
 0001:0005a710       ?setFormObject@WWebWidget@@IAEX_N@Z 0045b710 f   libwt:WWebWidget.obj
 0001:0005a720       ?repaint@WWebWidget@@IAEXXZ 0045b720 f   libwt:WWebWidget.obj
 0001:0005a720       ?signalConnectionsChanged@WWebWidget@@EAEXXZ 0045b720 f   libwt:WWebWidget.obj
 0001:0005a730       ?renderOk@WWebWidget@@IAEXXZ 0045b730 f   libwt:WWebWidget.obj
 0001:0005a740       ?setParent@WWebWidget@@MAEXPAVWWidget@@@Z 0045b740 f   libwt:WWebWidget.obj
 0001:0005a770       ?parent@WWebWidget@@UBEPAVWWidget@@XZ 0045b770 f   libwt:WWebWidget.obj
 0001:0005a780       ?setPositionScheme@WWebWidget@@UAEXW4PositionScheme@WWidget@@@Z 0045b780 f   libwt:WWebWidget.obj
 0001:0005a7b0       ?resize@WWebWidget@@UAEXVWLength@@0@Z 0045b7b0 f   libwt:WWebWidget.obj
 0001:0005a800       ?setMinimumSize@WWebWidget@@UAEXVWLength@@0@Z 0045b800 f   libwt:WWebWidget.obj
 0001:0005a860       ?setMaximumSize@WWebWidget@@UAEXVWLength@@0@Z 0045b860 f   libwt:WWebWidget.obj
 0001:0005a8c0       ?setFloatSide@WWebWidget@@UAEXW4Side@WWidget@@@Z 0045b8c0 f   libwt:WWebWidget.obj
 0001:0005a8e0       ?setClearSides@WWebWidget@@UAEXH@Z 0045b8e0 f   libwt:WWebWidget.obj
 0001:0005a900       ?clearSides@WWebWidget@@UBEHXZ 0045b900 f   libwt:WWebWidget.obj
 0001:0005a910       ?setVerticalAlignment@WWebWidget@@UAEXW4VerticalAlignment@WWidget@@VWLength@@@Z 0045b910 f   libwt:WWebWidget.obj
 0001:0005a950       ?setOffset@WWebWidget@@UAEXW4Side@WWidget@@VWLength@@@Z 0045b950 f   libwt:WWebWidget.obj
 0001:0005a9d0       ?offset@WWebWidget@@UBE?AVWLength@@W4Side@WWidget@@@Z 0045b9d0 f   libwt:WWebWidget.obj
 0001:0005aa80       ?zIndex@WWebWidget@@ABEHXZ 0045ba80 f   libwt:WWebWidget.obj
 0001:0005aac0       ?setInline@WWebWidget@@UAEX_N@Z 0045bac0 f   libwt:WWebWidget.obj
 0001:0005aae0       ?setPopup@WWebWidget@@UAEX_N@Z 0045bae0 f   libwt:WWebWidget.obj
 0001:0005ab00       ?setMargin@WWebWidget@@UAEXVWLength@@H@Z 0045bb00 f   libwt:WWebWidget.obj
 0001:0005ab90       ?margin@WWebWidget@@UBE?AVWLength@@W4Side@WWidget@@@Z 0045bb90 f   libwt:WWebWidget.obj
 0001:0005ac40       ?setStyleClass@WWebWidget@@UAEXV?$basic_string@DU?$char_traits@D@std@@V?$allocator@D@2@@std@@@Z 0045bc40 f   libwt:WWebWidget.obj
 0001:0005acb0       ?setToolTip@WWebWidget@@UAEXV?$basic_string@DU?$char_traits@D@std@@V?$allocator@D@2@@std@@@Z 0045bcb0 f   libwt:WWebWidget.obj
 0001:0005ad50       ?setToolTipMessage@WWebWidget@@UAEXABVWMessage@@@Z 0045bd50 f   libwt:WWebWidget.obj
 0001:0005ad90       ?setHidden@WWebWidget@@UAEX_N@Z 0045bd90 f   libwt:WWebWidget.obj
 0001:0005adb0       ?hide@WWebWidget@@UAEXXZ   0045bdb0 f   libwt:WWebWidget.obj
 0001:0005add0       ?show@WWebWidget@@UAEXXZ   0045bdd0 f   libwt:WWebWidget.obj
 0001:0005adf0       ?undoHide@WWebWidget@@EAEXXZ 0045bdf0 f   libwt:WWebWidget.obj
 0001:0005ae00       ?undoShow@WWebWidget@@EAEXXZ 0045be00 f   libwt:WWebWidget.obj
 0001:0005ae10       ?isLoaded@WWebWidget@@IBE_NXZ 0045be10 f   libwt:WWebWidget.obj
 0001:0005ae50       ?getSFormObjects@WWebWidget@@AAEXAAV?$vector@PAVWObject@@V?$allocator@PAVWObject@@@std@@@std@@@Z 0045be50 f   libwt:WWebWidget.obj
 0001:0005ae70       ?createSDomElement@WWebWidget@@AAEPAVDomElement@@XZ 0045be70 f   libwt:WWebWidget.obj
 0001:0005aef0       ?getEncodeCmd@WWebWidget@@QAE?AV?$basic_string@DU?$char_traits@D@std@@V?$allocator@D@2@@std@@PBD@Z 0045bef0 f   libwt:WWebWidget.obj
 0001:0005af50       ?updateSignalConnection@WWebWidget@@IAEXAAVDomElement@@PBDV?$basic_string@DU?$char_traits@D@std@@V?$allocator@D@2@@std@@1_N1@Z 0045bf50 f   libwt:WWebWidget.obj
 0001:0005b030       ?setNoFormData@WWebWidget@@EAEXXZ 0045c030 f   libwt:WWebWidget.obj
 0001:0005b050       ?_Max@?$_Tree@V?$_Tmap_traits@V?$basic_string@DU?$char_traits@D@std@@V?$allocator@D@2@@std@@U?$pair@V?$basic_string@DU?$char_traits@D@std@@V?$allocator@D@2@@std@@V12@@2@U?$less@V?$basic_string@DU?$char_traits@D@std@@V?$allocator@D@2@@std@@@2@V?$allocator@U?$pair@$$CBV?$basic_string@DU?$char_traits@D@std@@V?$allocator@D@2@@std@@U?$pair@V?$basic_string@DU?$char_traits@D@std@@V?$allocator@D@2@@std@@V12@@2@@std@@@2@$0A@@std@@@std@@KAPAU_Node@?$_Tree_nod@V?$_Tmap_traits@V?$basic_string@DU?$char_traits@D@std@@V?$allocator@D@2@@std@@U?$pair@V?$basic_string@DU?$char_traits@D@std@@V?$allocator@D@2@@std@@V12@@2@U?$less@V?$basic_string@DU?$char_traits@D@std@@V?$allocator@D@2@@std@@@2@V?$allocator@U?$pair@$$CBV?$basic_string@DU?$char_traits@D@std@@V?$allocator@D@2@@std@@U?$pair@V?$basic_string@DU?$char_traits@D@std@@V?$allocator@D@2@@std@@V12@@2@@std@@@2@$0A@@std@@@2@PAU342@@Z 0045c050 f i libwt:WWebWidget.obj
 0001:0005b070       ?_Min@?$_Tree@V?$_Tmap_traits@V?$basic_string@DU?$char_traits@D@std@@V?$allocator@D@2@@std@@U?$pair@V?$basic_string@DU?$char_traits@D@std@@V?$allocator@D@2@@std@@V12@@2@U?$less@V?$basic_string@DU?$char_traits@D@std@@V?$allocator@D@2@@std@@@2@V?$allocator@U?$pair@$$CBV?$basic_string@DU?$char_traits@D@std@@V?$allocator@D@2@@std@@U?$pair@V?$basic_string@DU?$char_traits@D@std@@V?$allocator@D@2@@std@@V12@@2@@std@@@2@$0A@@std@@@std@@KAPAU_Node@?$_Tree_nod@V?$_Tmap_traits@V?$basic_string@DU?$char_traits@D@std@@V?$allocator@D@2@@std@@U?$pair@V?$basic_string@DU?$char_traits@D@std@@V?$allocator@D@2@@std@@V12@@2@U?$less@V?$basic_string@DU?$char_traits@D@std@@V?$allocator@D@2@@std@@@2@V?$allocator@U?$pair@$$CBV?$basic_string@DU?$char_traits@D@std@@V?$allocator@D@2@@std@@U?$pair@V?$basic_string@DU?$char_traits@D@std@@V?$allocator@D@2@@std@@V12@@2@@std@@@2@$0A@@std@@@2@PAU342@@Z 0045c070 f i libwt:WWebWidget.obj
 0001:0005b090       ?_Xlen@?$vector@U?$pair@V?$basic_string@DU?$char_traits@D@std@@V?$allocator@D@2@@std@@PAVDomElement@@@std@@V?$allocator@U?$pair@V?$basic_string@DU?$char_traits@D@std@@V?$allocator@D@2@@std@@PAVDomElement@@@std@@@2@@std@@IBEXXZ 0045c090 f i libwt:WWebWidget.obj
 0001:0005b110       ?_Lrotate@?$_Tree@V?$_Tmap_traits@V?$basic_string@DU?$char_traits@D@std@@V?$allocator@D@2@@std@@U?$pair@V?$basic_string@DU?$char_traits@D@std@@V?$allocator@D@2@@std@@V12@@2@U?$less@V?$basic_string@DU?$char_traits@D@std@@V?$allocator@D@2@@std@@@2@V?$allocator@U?$pair@$$CBV?$basic_string@DU?$char_traits@D@std@@V?$allocator@D@2@@std@@U?$pair@V?$basic_string@DU?$char_traits@D@std@@V?$allocator@D@2@@std@@V12@@2@@std@@@2@$0A@@std@@@std@@IAEXPAU_Node@?$_Tree_nod@V?$_Tmap_traits@V?$basic_string@DU?$char_traits@D@std@@V?$allocator@D@2@@std@@U?$pair@V?$basic_string@DU?$char_traits@D@std@@V?$allocator@D@2@@std@@V12@@2@U?$less@V?$basic_string@DU?$char_traits@D@std@@V?$allocator@D@2@@std@@@2@V?$allocator@U?$pair@$$CBV?$basic_string@DU?$char_traits@D@std@@V?$allocator@D@2@@std@@U?$pair@V?$basic_string@DU?$char_traits@D@std@@V?$allocator@D@2@@std@@V12@@2@@std@@@2@$0A@@std@@@2@@Z 0045c110 f i libwt:WWebWidget.obj
 0001:0005b170       ?_Rrotate@?$_Tree@V?$_Tmap_traits@V?$basic_string@DU?$char_traits@D@std@@V?$allocator@D@2@@std@@U?$pair@V?$basic_string@DU?$char_traits@D@std@@V?$allocator@D@2@@std@@V12@@2@U?$less@V?$basic_string@DU?$char_traits@D@std@@V?$allocator@D@2@@std@@@2@V?$allocator@U?$pair@$$CBV?$basic_string@DU?$char_traits@D@std@@V?$allocator@D@2@@std@@U?$pair@V?$basic_string@DU?$char_traits@D@std@@V?$allocator@D@2@@std@@V12@@2@@std@@@2@$0A@@std@@@std@@IAEXPAU_Node@?$_Tree_nod@V?$_Tmap_traits@V?$basic_string@DU?$char_traits@D@std@@V?$allocator@D@2@@std@@U?$pair@V?$basic_string@DU?$char_traits@D@std@@V?$allocator@D@2@@std@@V12@@2@U?$less@V?$basic_string@DU?$char_traits@D@std@@V?$allocator@D@2@@std@@@2@V?$allocator@U?$pair@$$CBV?$basic_string@DU?$char_traits@D@std@@V?$allocator@D@2@@std@@U?$pair@V?$basic_string@DU?$char_traits@D@std@@V?$allocator@D@2@@std@@V12@@2@@std@@@2@$0A@@std@@@2@@Z 0045c170 f i libwt:WWebWidget.obj
 0001:0005b1d0       ??1?$pair@$$CBHV?$basic_string@DU?$char_traits@D@std@@V?$allocator@D@2@@std@@@std@@QAE@XZ 0045c1d0 f i sortlist.obj
 0001:0005b1d0       ??1?$pair@QAVWObject@@V?$basic_string@DU?$char_traits@D@std@@V?$allocator@D@2@@std@@@std@@QAE@XZ 0045c1d0 f i libwt:WSignalMapper.obj
 0001:0005b1d0       ??1?$pair@$$CBW4Property@Wt@@V?$basic_string@DU?$char_traits@D@std@@V?$allocator@D@2@@std@@@std@@QAE@XZ 0045c1d0 f i libwt:WWebWidget.obj
 0001:0005b1d0       ??1?$pair@QAVWLineEdit@@V?$basic_string@DU?$char_traits@D@std@@V?$allocator@D@2@@std@@@std@@QAE@XZ 0045c1d0 f i sortlist.obj
 0001:0005b1e0       ??0?$pair@V?$basic_string@DU?$char_traits@D@std@@V?$allocator@D@2@@std@@V12@@std@@QAE@ABU01@@Z 0045c1e0 f i libwt:WWebWidget.obj
 0001:0005b1e0       ??0JavaScript@@QAE@ABV0@@Z 0045c1e0 f i libwt:WWebWidget.obj
 0001:0005b240       ?_Inc@const_iterator@?$_Tree@V?$_Tmap_traits@V?$basic_string@DU?$char_traits@D@std@@V?$allocator@D@2@@std@@U?$pair@V?$basic_string@DU?$char_traits@D@std@@V?$allocator@D@2@@std@@V12@@2@U?$less@V?$basic_string@DU?$char_traits@D@std@@V?$allocator@D@2@@std@@@2@V?$allocator@U?$pair@$$CBV?$basic_string@DU?$char_traits@D@std@@V?$allocator@D@2@@std@@U?$pair@V?$basic_string@DU?$char_traits@D@std@@V?$allocator@D@2@@std@@V12@@2@@std@@@2@$0A@@std@@@std@@QAEXXZ 0045c240 f i libwt:WWebWidget.obj
 0001:0005b2a0       ??1_Node@?$_Tree_nod@V?$_Tmap_traits@W4Property@Wt@@V?$basic_string@DU?$char_traits@D@std@@V?$allocator@D@2@@std@@U?$less@W4Property@Wt@@@4@V?$allocator@U?$pair@$$CBW4Property@Wt@@V?$basic_string@DU?$char_traits@D@std@@V?$allocator@D@2@@std@@@std@@@4@$0A@@std@@@std@@QAE@XZ 0045c2a0 f i libwt:WWebWidget.obj
 0001:0005b2a0       ??1_Node@?$_Tree_nod@V?$_Tmap_traits@PAVWLineEdit@@V?$basic_string@DU?$char_traits@D@std@@V?$allocator@D@2@@std@@U?$less@PAVWLineEdit@@@3@V?$allocator@U?$pair@QAVWLineEdit@@V?$basic_string@DU?$char_traits@D@std@@V?$allocator@D@2@@std@@@std@@@3@$0A@@std@@@std@@QAE@XZ 0045c2a0 f i sortlist.obj
 0001:0005b2a0       ??1_Node@?$_Tree_nod@V?$_Tmap_traits@HV?$basic_string@DU?$char_traits@D@std@@V?$allocator@D@2@@std@@U?$less@H@2@V?$allocator@U?$pair@$$CBHV?$basic_string@DU?$char_traits@D@std@@V?$allocator@D@2@@std@@@std@@@2@$0A@@std@@@std@@QAE@XZ 0045c2a0 f i sortlist.obj
 0001:0005b2a0       ??1WColor@@QAE@XZ          0045c2a0 f i main.obj
 0001:0005b2a0       ??1_Node@?$_Tree_nod@V?$_Tmap_traits@PAVWObject@@V?$basic_string@DU?$char_traits@D@std@@V?$allocator@D@2@@std@@U?$less@PAVWObject@@@3@V?$allocator@U?$pair@QAVWObject@@V?$basic_string@DU?$char_traits@D@std@@V?$allocator@D@2@@std@@@std@@@3@$0A@@std@@@std@@QAE@XZ 0045c2a0 f i libwt:WSignalMapper.obj
 0001:0005b2b0       ??1?$lexical_stream@V?$basic_string@DU?$char_traits@D@std@@V?$allocator@D@2@@std@@H@detail@boost@@QAE@XZ 0045c2b0 f i libwt:WWebWidget.obj
 0001:0005b2b0       ??1?$lexical_stream@V?$basic_string@DU?$char_traits@D@std@@V?$allocator@D@2@@std@@I@detail@boost@@QAE@XZ 0045c2b0 f i libwt:WComboBox.obj
 0001:0005b2b0       ??1?$lexical_stream@HV?$basic_string@DU?$char_traits@D@std@@V?$allocator@D@2@@std@@@detail@boost@@QAE@XZ 0045c2b0 f i libwt:WComboBox.obj
 0001:0005b2b0       ??1?$lexical_stream@V?$basic_string@DU?$char_traits@D@std@@V?$allocator@D@2@@std@@N@detail@boost@@QAE@XZ 0045c2b0 f i libwt:WLength.obj
 0001:0005b2c0       ??5?$lexical_stream@V?$basic_string@DU?$char_traits@D@std@@V?$allocator@D@2@@std@@H@detail@boost@@QAE_NAAV?$basic_string@DU?$char_traits@D@std@@V?$allocator@D@2@@std@@@Z 0045c2c0 f i libwt:WWebWidget.obj
 0001:0005b320       ??0bad_lexical_cast@boost@@QAE@ABV01@@Z 0045c320 f i libwt:WWebWidget.obj
 0001:0005b350       ?updateSignalConnection@WWebWidget@@IAEXAAVDomElement@@PBDV?$basic_string@DU?$char_traits@D@std@@V?$allocator@D@2@@std@@_N1@Z 0045c350 f   libwt:WWebWidget.obj
 0001:0005b3d0       ?_Lbound@?$_Tree@V?$_Tmap_traits@V?$basic_string@DU?$char_traits@D@std@@V?$allocator@D@2@@std@@PAVWCheckBox@@U?$less@V?$basic_string@DU?$char_traits@D@std@@V?$allocator@D@2@@std@@@2@V?$allocator@U?$pair@$$CBV?$basic_string@DU?$char_traits@D@std@@V?$allocator@D@2@@std@@PAVWCheckBox@@@std@@@2@$0A@@std@@@std@@IBEPAU_Node@?$_Tree_nod@V?$_Tmap_traits@V?$basic_string@DU?$char_traits@D@std@@V?$allocator@D@2@@std@@PAVWCheckBox@@U?$less@V?$basic_string@DU?$char_traits@D@std@@V?$allocator@D@2@@std@@@2@V?$allocator@U?$pair@$$CBV?$basic_string@DU?$char_traits@D@std@@V?$allocator@D@2@@std@@PAVWCheckBox@@@std@@@2@$0A@@std@@@2@ABV?$basic_string@DU?$char_traits@D@std@@V?$allocator@D@2@@2@@Z 0045c3d0 f i listtable.obj
 0001:0005b3d0       ?_Lbound@?$_Tree@V?$_Tmap_traits@V?$basic_string@DU?$char_traits@D@std@@V?$allocator@D@2@@std@@PAVWSlotInstance_@@U?$less@V?$basic_string@DU?$char_traits@D@std@@V?$allocator@D@2@@std@@@2@V?$allocator@U?$pair@$$CBV?$basic_string@DU?$char_traits@D@std@@V?$allocator@D@2@@std@@PAVWSlotInstance_@@@std@@@2@$0A@@std@@@std@@IBEPAU_Node@?$_Tree_nod@V?$_Tmap_traits@V?$basic_string@DU?$char_traits@D@std@@V?$allocator@D@2@@std@@PAVWSlotInstance_@@U?$less@V?$basic_string@DU?$char_traits@D@std@@V?$allocator@D@2@@std@@@2@V?$allocator@U?$pair@$$CBV?$basic_string@DU?$char_traits@D@std@@V?$allocator@D@2@@std@@PAVWSlotInstance_@@@std@@@2@$0A@@std@@@2@ABV?$basic_string@DU?$char_traits@D@std@@V?$allocator@D@2@@2@@Z 0045c3d0 f i libwt:WWebWidget.obj
 0001:0005b3d0       ?_Lbound@?$_Tree@V?$_Tmap_traits@V?$basic_string@DU?$char_traits@D@std@@V?$allocator@D@2@@std@@_NU?$less@V?$basic_string@DU?$char_traits@D@std@@V?$allocator@D@2@@std@@@2@V?$allocator@U?$pair@$$CBV?$basic_string@DU?$char_traits@D@std@@V?$allocator@D@2@@std@@_N@std@@@2@$0A@@std@@@std@@IBEPAU_Node@?$_Tree_nod@V?$_Tmap_traits@V?$basic_string@DU?$char_traits@D@std@@V?$allocator@D@2@@std@@_NU?$less@V?$basic_string@DU?$char_traits@D@std@@V?$allocator@D@2@@std@@@2@V?$allocator@U?$pair@$$CBV?$basic_string@DU?$char_traits@D@std@@V?$allocator@D@2@@std@@_N@std@@@2@$0A@@std@@@2@ABV?$basic_string@DU?$char_traits@D@std@@V?$allocator@D@2@@2@@Z 0045c3d0 f i User.obj
 0001:0005b3d0       ?_Lbound@?$_Tree@V?$_Tmap_traits@V?$basic_string@DU?$char_traits@D@std@@V?$allocator@D@2@@std@@PAUScopeFunc@@U?$less@V?$basic_string@DU?$char_traits@D@std@@V?$allocator@D@2@@std@@@2@V?$allocator@U?$pair@$$CBV?$basic_string@DU?$char_traits@D@std@@V?$allocator@D@2@@std@@PAUScopeFunc@@@std@@@2@$0A@@std@@@std@@IBEPAU_Node@?$_Tree_nod@V?$_Tmap_traits@V?$basic_string@DU?$char_traits@D@std@@V?$allocator@D@2@@std@@PAUScopeFunc@@U?$less@V?$basic_string@DU?$char_traits@D@std@@V?$allocator@D@2@@std@@@2@V?$allocator@U?$pair@$$CBV?$basic_string@DU?$char_traits@D@std@@V?$allocator@D@2@@std@@PAUScopeFunc@@@std@@@2@$0A@@std@@@2@ABV?$basic_string@DU?$char_traits@D@std@@V?$allocator@D@2@@2@@Z 0045c3d0 f i User.obj
 0001:0005b3d0       ?_Lbound@?$_Tree@V?$_Tmap_traits@V?$basic_string@DU?$char_traits@D@std@@V?$allocator@D@2@@std@@PAVWSignalInstance_@@U?$less@V?$basic_string@DU?$char_traits@D@std@@V?$allocator@D@2@@std@@@2@V?$allocator@U?$pair@$$CBV?$basic_string@DU?$char_traits@D@std@@V?$allocator@D@2@@std@@PAVWSignalInstance_@@@std@@@2@$0A@@std@@@std@@IBEPAU_Node@?$_Tree_nod@V?$_Tmap_traits@V?$basic_string@DU?$char_traits@D@std@@V?$allocator@D@2@@std@@PAVWSignalInstance_@@U?$less@V?$basic_string@DU?$char_traits@D@std@@V?$allocator@D@2@@std@@@2@V?$allocator@U?$pair@$$CBV?$basic_string@DU?$char_traits@D@std@@V?$allocator@D@2@@std@@PAVWSignalInstance_@@@std@@@2@$0A@@std@@@2@ABV?$basic_string@DU?$char_traits@D@std@@V?$allocator@D@2@@2@@Z 0045c3d0 f i mainviewwt.obj
 0001:0005b3d0       ?_Lbound@?$_Tree@V?$_Tmap_traits@V?$basic_string@DU?$char_traits@D@std@@V?$allocator@D@2@@std@@KU?$less@V?$basic_string@DU?$char_traits@D@std@@V?$allocator@D@2@@std@@@2@V?$allocator@U?$pair@$$CBV?$basic_string@DU?$char_traits@D@std@@V?$allocator@D@2@@std@@K@std@@@2@$0A@@std@@@std@@IBEPAU_Node@?$_Tree_nod@V?$_Tmap_traits@V?$basic_string@DU?$char_traits@D@std@@V?$allocator@D@2@@std@@KU?$less@V?$basic_string@DU?$char_traits@D@std@@V?$allocator@D@2@@std@@@2@V?$allocator@U?$pair@$$CBV?$basic_string@DU?$char_traits@D@std@@V?$allocator@D@2@@std@@K@std@@@2@$0A@@std@@@2@ABV?$basic_string@DU?$char_traits@D@std@@V?$allocator@D@2@@2@@Z 0045c3d0 f i libboost_regex-vc71-mt-1_33_1:instances.obj
 0001:0005b420       ??0?$pair@$$CBV?$basic_string@DU?$char_traits@D@std@@V?$allocator@D@2@@std@@U?$pair@V?$basic_string@DU?$char_traits@D@std@@V?$allocator@D@2@@std@@V12@@2@@std@@QAE@ABU01@@Z 0045c420 f i libwt:WWebWidget.obj
 0001:0005b480       ??1?$pair@$$CBV?$basic_string@DU?$char_traits@D@std@@V?$allocator@D@2@@std@@U?$pair@V?$basic_string@DU?$char_traits@D@std@@V?$allocator@D@2@@std@@V12@@2@@std@@QAE@XZ 0045c480 f i libwt:WWebWidget.obj
 0001:0005b4d0       ??1_Node@?$_Tree_nod@V?$_Tmap_traits@V?$basic_string@DU?$char_traits@D@std@@V?$allocator@D@2@@std@@U?$pair@V?$basic_string@DU?$char_traits@D@std@@V?$allocator@D@2@@std@@V12@@2@U?$less@V?$basic_string@DU?$char_traits@D@std@@V?$allocator@D@2@@std@@@2@V?$allocator@U?$pair@$$CBV?$basic_string@DU?$char_traits@D@std@@V?$allocator@D@2@@std@@U?$pair@V?$basic_string@DU?$char_traits@D@std@@V?$allocator@D@2@@std@@V12@@2@@std@@@2@$0A@@std@@@std@@QAE@XZ 0045c4d0 f i libwt:WWebWidget.obj
 0001:0005b4e0       ??$throw_exception@Vbad_lexical_cast@boost@@@boost@@YAXABVbad_lexical_cast@0@@Z 0045c4e0 f i libwt:WWebWidget.obj
 0001:0005b510       ??$_Copy_opt@PAU?$pair@V?$basic_string@DU?$char_traits@D@std@@V?$allocator@D@2@@std@@PAVDomElement@@@std@@PAU12@@std@@YAPAU?$pair@V?$basic_string@DU?$char_traits@D@std@@V?$allocator@D@2@@std@@PAVDomElement@@@0@PAU10@00U_Nonscalar_ptr_iterator_tag@0@@Z 0045c510 f i libwt:WWebWidget.obj
 0001:0005b550       ?_Buy@?$vector@U?$pair@V?$basic_string@DU?$char_traits@D@std@@V?$allocator@D@2@@std@@PAVDomElement@@@std@@V?$allocator@U?$pair@V?$basic_string@DU?$char_traits@D@std@@V?$allocator@D@2@@std@@PAVDomElement@@@std@@@2@@std@@IAE_NI@Z 0045c550 f i libwt:WWebWidget.obj
 0001:0005b5a0       ?_Buynode@?$_Tree@V?$_Tmap_traits@V?$basic_string@DU?$char_traits@D@std@@V?$allocator@D@2@@std@@U?$pair@V?$basic_string@DU?$char_traits@D@std@@V?$allocator@D@2@@std@@V12@@2@U?$less@V?$basic_string@DU?$char_traits@D@std@@V?$allocator@D@2@@std@@@2@V?$allocator@U?$pair@$$CBV?$basic_string@DU?$char_traits@D@std@@V?$allocator@D@2@@std@@U?$pair@V?$basic_string@DU?$char_traits@D@std@@V?$allocator@D@2@@std@@V12@@2@@std@@@2@$0A@@std@@@std@@IAEPAU_Node@?$_Tree_nod@V?$_Tmap_traits@V?$basic_string@DU?$char_traits@D@std@@V?$allocator@D@2@@std@@U?$pair@V?$basic_string@DU?$char_traits@D@std@@V?$allocator@D@2@@std@@V12@@2@U?$less@V?$basic_string@DU?$char_traits@D@std@@V?$allocator@D@2@@std@@@2@V?$allocator@U?$pair@$$CBV?$basic_string@DU?$char_traits@D@std@@V?$allocator@D@2@@std@@U?$pair@V?$basic_string@DU?$char_traits@D@std@@V?$allocator@D@2@@std@@V12@@2@@std@@@2@$0A@@std@@@2@XZ 0045c5a0 f i libwt:WWebWidget.obj
 0001:0005b5e0       ?_Buynode@?$_Tree@V?$_Tmap_traits@W4Property@Wt@@V?$basic_string@DU?$char_traits@D@std@@V?$allocator@D@2@@std@@U?$less@W4Property@Wt@@@4@V?$allocator@U?$pair@$$CBW4Property@Wt@@V?$basic_string@DU?$char_traits@D@std@@V?$allocator@D@2@@std@@@std@@@4@$0A@@std@@@std@@IAEPAU_Node@?$_Tree_nod@V?$_Tmap_traits@W4Property@Wt@@V?$basic_string@DU?$char_traits@D@std@@V?$allocator@D@2@@std@@U?$less@W4Property@Wt@@@4@V?$allocator@U?$pair@$$CBW4Property@Wt@@V?$basic_string@DU?$char_traits@D@std@@V?$allocator@D@2@@std@@@std@@@4@$0A@@std@@@2@PAU342@00ABU?$pair@$$CBW4Property@Wt@@V?$basic_string@DU?$char_traits@D@std@@V?$allocator@D@2@@std@@@2@D@Z 0045c5e0 f i libwt:WWebWidget.obj
 0001:0005b680       ?_Buynode@?$_Tree@V?$_Tmap_traits@V?$basic_string@DU?$char_traits@D@std@@V?$allocator@D@2@@std@@PAVWSlotInstance_@@U?$less@V?$basic_string@DU?$char_traits@D@std@@V?$allocator@D@2@@std@@@2@V?$allocator@U?$pair@$$CBV?$basic_string@DU?$char_traits@D@std@@V?$allocator@D@2@@std@@PAVWSlotInstance_@@@std@@@2@$0A@@std@@@std@@IAEPAU_Node@?$_Tree_nod@V?$_Tmap_traits@V?$basic_string@DU?$char_traits@D@std@@V?$allocator@D@2@@std@@PAVWSlotInstance_@@U?$less@V?$basic_string@DU?$char_traits@D@std@@V?$allocator@D@2@@std@@@2@V?$allocator@U?$pair@$$CBV?$basic_string@DU?$char_traits@D@std@@V?$allocator@D@2@@std@@PAVWSlotInstance_@@@std@@@2@$0A@@std@@@2@PAU342@00ABU?$pair@$$CBV?$basic_string@DU?$char_traits@D@std@@V?$allocator@D@2@@std@@PAVWSlotInstance_@@@2@D@Z 0045c680 f i libwt:WWebWidget.obj
 0001:0005b720       ??$lexical_cast@V?$basic_string@DU?$char_traits@D@std@@V?$allocator@D@2@@std@@H@boost@@YA?AV?$basic_string@DU?$char_traits@D@std@@V?$allocator@D@2@@std@@ABH@Z 0045c720 f i libwt:WWebWidget.obj
 0001:0005b880       ?refresh@WWebWidget@@UAEXXZ 0045c880 f   libwt:WWebWidget.obj
 0001:0005b970       ?_Ufill@?$vector@JV?$allocator@J@std@@@std@@IAEPAJPAJIABJ@Z 0045c970 f i libboost_regex-vc71-mt-1_33_1:instances.obj
 0001:0005b970       ?_Ufill@?$vector@PAVWWidget@@V?$allocator@PAVWWidget@@@std@@@std@@IAEPAPAVWWidget@@PAPAV3@IABQAV3@@Z 0045c970 f i libwt:WWebWidget.obj
 0001:0005b970       ?_Ufill@?$vector@PAVWConnection_@@V?$allocator@PAVWConnection_@@@std@@@std@@IAEPAPAVWConnection_@@PAPAV3@IABQAV3@@Z 0045c970 f i libwt:WSlotInstance_.obj
 0001:0005b970       ?_Ufill@?$vector@PAVWMessageResources@@V?$allocator@PAVWMessageResources@@@std@@@std@@IAEPAPAVWMessageResources@@PAPAV3@IABQAV3@@Z 0045c970 f i libwt:WMessageResourceBundle.obj
 0001:0005b970       ?_Ufill@?$vector@PAVWTableRow@@V?$allocator@PAVWTableRow@@@std@@@std@@IAEPAPAVWTableRow@@PAPAV3@IABQAV3@@Z 0045c970 f i libwt:WTable.obj
 0001:0005b970       ?_Ufill@?$vector@PAVWObject@@V?$allocator@PAVWObject@@@std@@@std@@IAEPAPAVWObject@@PAPAV3@IABQAV3@@Z 0045c970 f i libwt:WWebWidget.obj
 0001:0005b970       ?_Ufill@?$vector@PAVWRadioButton@@V?$allocator@PAVWRadioButton@@@std@@@std@@IAEPAPAVWRadioButton@@PAPAV3@IABQAV3@@Z 0045c970 f i libwt:WButtonGroup.obj
 0001:0005b970       ?_Ufill@?$vector@PAVDomElement@@V?$allocator@PAVDomElement@@@std@@@std@@IAEPAPAVDomElement@@PAPAV3@IABQAV3@@Z 0045c970 f i libwt:WWebWidget.obj
 0001:0005b970       ?_Ufill@?$vector@PAVWScrollBar@@V?$allocator@PAVWScrollBar@@@std@@@std@@IAEPAPAVWScrollBar@@PAPAV3@IABQAV3@@Z 0045c970 f i libwt:WScrollBar.obj
 0001:0005b9a0       ?_Insert@?$_Tree@V?$_Tmap_traits@V?$basic_string@DU?$char_traits@D@std@@V?$allocator@D@2@@std@@PAVWSlotInstance_@@U?$less@V?$basic_string@DU?$char_traits@D@std@@V?$allocator@D@2@@std@@@2@V?$allocator@U?$pair@$$CBV?$basic_string@DU?$char_traits@D@std@@V?$allocator@D@2@@std@@PAVWSlotInstance_@@@std@@@2@$0A@@std@@@std@@IAE?AViterator@12@_NPAU_Node@?$_Tree_nod@V?$_Tmap_traits@V?$basic_string@DU?$char_traits@D@std@@V?$allocator@D@2@@std@@PAVWSlotInstance_@@U?$less@V?$basic_string@DU?$char_traits@D@std@@V?$allocator@D@2@@std@@@2@V?$allocator@U?$pair@$$CBV?$basic_string@DU?$char_traits@D@std@@V?$allocator@D@2@@std@@PAVWSlotInstance_@@@std@@@2@$0A@@std@@@2@ABU?$pair@$$CBV?$basic_string@DU?$char_traits@D@std@@V?$allocator@D@2@@std@@PAVWSlotInstance_@@@2@@Z 0045c9a0 f i libwt:WWebWidget.obj
 0001:0005bb60       ?_Insert_n@?$vector@PAVWWidget@@V?$allocator@PAVWWidget@@@std@@@std@@IAEXViterator@12@IABQAVWWidget@@@Z 0045cb60 f i libwt:WWebWidget.obj
 0001:0005bb60       ?_Insert_n@?$vector@PAVWMessageResources@@V?$allocator@PAVWMessageResources@@@std@@@std@@IAEXViterator@12@IABQAVWMessageResources@@@Z 0045cb60 f i libwt:WMessageResourceBundle.obj
 0001:0005bb60       ?_Insert_n@?$vector@PAVWObject@@V?$allocator@PAVWObject@@@std@@@std@@IAEXViterator@12@IABQAVWObject@@@Z 0045cb60 f i libwt:WWebWidget.obj
 0001:0005bb60       ?_Insert_n@?$vector@PAVDomElement@@V?$allocator@PAVDomElement@@@std@@@std@@IAEXViterator@12@IABQAVDomElement@@@Z 0045cb60 f i libwt:WWebWidget.obj
 0001:0005bb60       ?_Insert_n@?$vector@PAVWTableRow@@V?$allocator@PAVWTableRow@@@std@@@std@@IAEXViterator@12@IABQAVWTableRow@@@Z 0045cb60 f i libwt:WTable.obj
 0001:0005bd50       ?_Buynode@?$_Tree@V?$_Tmap_traits@V?$basic_string@DU?$char_traits@D@std@@V?$allocator@D@2@@std@@U?$pair@V?$basic_string@DU?$char_traits@D@std@@V?$allocator@D@2@@std@@V12@@2@U?$less@V?$basic_string@DU?$char_traits@D@std@@V?$allocator@D@2@@std@@@2@V?$allocator@U?$pair@$$CBV?$basic_string@DU?$char_traits@D@std@@V?$allocator@D@2@@std@@U?$pair@V?$basic_string@DU?$char_traits@D@std@@V?$allocator@D@2@@std@@V12@@2@@std@@@2@$0A@@std@@@std@@IAEPAU_Node@?$_Tree_nod@V?$_Tmap_traits@V?$basic_string@DU?$char_traits@D@std@@V?$allocator@D@2@@std@@U?$pair@V?$basic_string@DU?$char_traits@D@std@@V?$allocator@D@2@@std@@V12@@2@U?$less@V?$basic_string@DU?$char_traits@D@std@@V?$allocator@D@2@@std@@@2@V?$allocator@U?$pair@$$CBV?$basic_string@DU?$char_traits@D@std@@V?$allocator@D@2@@std@@U?$pair@V?$basic_string@DU?$char_traits@D@std@@V?$allocator@D@2@@std@@V12@@2@@std@@@2@$0A@@std@@@2@PAU342@00ABU?$pair@$$CBV?$basic_string@DU?$char_traits@D@std@@V?$allocator@D@2@@std@@U?$pair@V?$basic_string@DU?$char_traits@D@std@@V?$allocator@D@2@@std@@V12@@2@@2@D@Z 0045cd50 f i libwt:WWebWidget.obj
 0001:0005bdf0       ??$_Uninit_copy@Vconst_iterator@?$vector@U?$pair@V?$basic_string@DU?$char_traits@D@std@@V?$allocator@D@2@@std@@PAVDomElement@@@std@@V?$allocator@U?$pair@V?$basic_string@DU?$char_traits@D@std@@V?$allocator@D@2@@std@@PAVDomElement@@@std@@@2@@std@@PAU?$pair@V?$basic_string@DU?$char_traits@D@std@@V?$allocator@D@2@@std@@PAVDomElement@@@3@V?$allocator@U?$pair@V?$basic_string@DU?$char_traits@D@std@@V?$allocator@D@2@@std@@PAVDomElement@@@std@@@3@@std@@YAPAU?$pair@V?$basic_string@DU?$char_traits@D@std@@V?$allocator@D@2@@std@@PAVDomElement@@@0@Vconst_iterator@?$vector@U?$pair@V?$basic_string@DU?$char_traits@D@std@@V?$allocator@D@2@@std@@PAVDomElement@@@std@@V?$allocator@U?$pair@V?$basic_string@DU?$char_traits@D@std@@V?$allocator@D@2@@std@@PAVDomElement@@@std@@@2@@0@0PAU10@AAV?$allocator@U?$pair@V?$basic_string@DU?$char_traits@D@std@@V?$allocator@D@2@@std@@PAVDomElement@@@std@@@0@U_Nonscalar_ptr_iterator_tag@0@@Z 0045cdf0 f i libwt:WWebWidget.obj
 0001:0005bdf0       ??$_Uninit_copy@PAU?$pair@V?$basic_string@DU?$char_traits@D@std@@V?$allocator@D@2@@std@@PAVDomElement@@@std@@PAU12@V?$allocator@U?$pair@V?$basic_string@DU?$char_traits@D@std@@V?$allocator@D@2@@std@@PAVDomElement@@@std@@@2@@std@@YAPAU?$pair@V?$basic_string@DU?$char_traits@D@std@@V?$allocator@D@2@@std@@PAVDomElement@@@0@PAU10@00AAV?$allocator@U?$pair@V?$basic_string@DU?$char_traits@D@std@@V?$allocator@D@2@@std@@PAVDomElement@@@std@@@0@U_Nonscalar_ptr_iterator_tag@0@@Z 0045cdf0 f i libwt:WWebWidget.obj
 0001:0005be90       ??0WWebWidget@@QAE@PAVWContainerWidget@@@Z 0045ce90 f   libwt:WWebWidget.obj
 0001:0005c0a0       ??1WWebWidget@@UAE@XZ      0045d0a0 f   libwt:WWebWidget.obj
 0001:0005c200       ?updateDom@WWebWidget@@MAEXAAVDomElement@@_N@Z 0045d200 f   libwt:WWebWidget.obj
 0001:0005c960       ?erase@?$_Tree@V?$_Tmap_traits@W4Property@Wt@@V?$basic_string@DU?$char_traits@D@std@@V?$allocator@D@2@@std@@U?$less@W4Property@Wt@@@4@V?$allocator@U?$pair@$$CBW4Property@Wt@@V?$basic_string@DU?$char_traits@D@std@@V?$allocator@D@2@@std@@@std@@@4@$0A@@std@@@std@@QAE?AViterator@12@V312@@Z 0045d960 f i libwt:WWebWidget.obj
 0001:0005cc40       ?insert@?$_Tree@V?$_Tmap_traits@V?$basic_string@DU?$char_traits@D@std@@V?$allocator@D@2@@std@@PAVWSlotInstance_@@U?$less@V?$basic_string@DU?$char_traits@D@std@@V?$allocator@D@2@@std@@@2@V?$allocator@U?$pair@$$CBV?$basic_string@DU?$char_traits@D@std@@V?$allocator@D@2@@std@@PAVWSlotInstance_@@@std@@@2@$0A@@std@@@std@@QAE?AU?$pair@Viterator@?$_Tree@V?$_Tmap_traits@V?$basic_string@DU?$char_traits@D@std@@V?$allocator@D@2@@std@@PAVWSlotInstance_@@U?$less@V?$basic_string@DU?$char_traits@D@std@@V?$allocator@D@2@@std@@@2@V?$allocator@U?$pair@$$CBV?$basic_string@DU?$char_traits@D@std@@V?$allocator@D@2@@std@@PAVWSlotInstance_@@@std@@@2@$0A@@std@@@std@@_N@2@ABU?$pair@$$CBV?$basic_string@DU?$char_traits@D@std@@V?$allocator@D@2@@std@@PAVWSlotInstance_@@@2@@Z 0045dc40 f i libwt:WWebWidget.obj
 0001:0005cd20       ?_Erase@?$_Tree@V?$_Tmap_traits@W4Property@Wt@@V?$basic_string@DU?$char_traits@D@std@@V?$allocator@D@2@@std@@U?$less@W4Property@Wt@@@4@V?$allocator@U?$pair@$$CBW4Property@Wt@@V?$basic_string@DU?$char_traits@D@std@@V?$allocator@D@2@@std@@@std@@@4@$0A@@std@@@std@@IAEXPAU_Node@?$_Tree_nod@V?$_Tmap_traits@W4Property@Wt@@V?$basic_string@DU?$char_traits@D@std@@V?$allocator@D@2@@std@@U?$less@W4Property@Wt@@@4@V?$allocator@U?$pair@$$CBW4Property@Wt@@V?$basic_string@DU?$char_traits@D@std@@V?$allocator@D@2@@std@@@std@@@4@$0A@@std@@@2@@Z 0045dd20 f i libwt:WWebWidget.obj
 0001:0005cd60       ??_EWWebWidget@@UAEPAXI@Z  0045dd60 f i libwt:WWebWidget.obj
 0001:0005cdc0       ?push_back@?$vector@PAVDomElement@@V?$allocator@PAVDomElement@@@std@@@std@@QAEXABQAVDomElement@@@Z 0045ddc0 f i libwt:WWebWidget.obj
 0001:0005cdc0       ?push_back@?$vector@PAVWWidget@@V?$allocator@PAVWWidget@@@std@@@std@@QAEXABQAVWWidget@@@Z 0045ddc0 f i libwt:WWebWidget.obj
 0001:0005cdc0       ?push_back@?$vector@PAVWObject@@V?$allocator@PAVWObject@@@std@@@std@@QAEXABQAVWObject@@@Z 0045ddc0 f i libwt:WWebWidget.obj
 0001:0005ce10       ?insert@?$_Tree@V?$_Tmap_traits@V?$basic_string@DU?$char_traits@D@std@@V?$allocator@D@2@@std@@PAVWSlotInstance_@@U?$less@V?$basic_string@DU?$char_traits@D@std@@V?$allocator@D@2@@std@@@2@V?$allocator@U?$pair@$$CBV?$basic_string@DU?$char_traits@D@std@@V?$allocator@D@2@@std@@PAVWSlotInstance_@@@std@@@2@$0A@@std@@@std@@QAE?AViterator@12@V312@ABU?$pair@$$CBV?$basic_string@DU?$char_traits@D@std@@V?$allocator@D@2@@std@@PAVWSlotInstance_@@@2@@Z 0045de10 f i libwt:WWebWidget.obj
 0001:0005cfd0       ?_Copy@?$_Tree@V?$_Tmap_traits@V?$basic_string@DU?$char_traits@D@std@@V?$allocator@D@2@@std@@V12@U?$less@V?$basic_string@DU?$char_traits@D@std@@V?$allocator@D@2@@std@@@2@V?$allocator@U?$pair@$$CBV?$basic_string@DU?$char_traits@D@std@@V?$allocator@D@2@@std@@V12@@std@@@2@$0A@@std@@@std@@IAEPAU_Node@?$_Tree_nod@V?$_Tmap_traits@V?$basic_string@DU?$char_traits@D@std@@V?$allocator@D@2@@std@@V12@U?$less@V?$basic_string@DU?$char_traits@D@std@@V?$allocator@D@2@@std@@@2@V?$allocator@U?$pair@$$CBV?$basic_string@DU?$char_traits@D@std@@V?$allocator@D@2@@std@@V12@@std@@@2@$0A@@std@@@2@PAU342@0@Z 0045dfd0 f i libwt:WWebWidget.obj
 0001:0005d080       ?_Copy@?$_Tree@V?$_Tmap_traits@W4Property@Wt@@V?$basic_string@DU?$char_traits@D@std@@V?$allocator@D@2@@std@@U?$less@W4Property@Wt@@@4@V?$allocator@U?$pair@$$CBW4Property@Wt@@V?$basic_string@DU?$char_traits@D@std@@V?$allocator@D@2@@std@@@std@@@4@$0A@@std@@@std@@IAEPAU_Node@?$_Tree_nod@V?$_Tmap_traits@W4Property@Wt@@V?$basic_string@DU?$char_traits@D@std@@V?$allocator@D@2@@std@@U?$less@W4Property@Wt@@@4@V?$allocator@U?$pair@$$CBW4Property@Wt@@V?$basic_string@DU?$char_traits@D@std@@V?$allocator@D@2@@std@@@std@@@4@$0A@@std@@@2@PAU342@0@Z 0045e080 f i libwt:WWebWidget.obj
 0001:0005d130       ?erase@?$_Tree@V?$_Tmap_traits@V?$basic_string@DU?$char_traits@D@std@@V?$allocator@D@2@@std@@U?$pair@V?$basic_string@DU?$char_traits@D@std@@V?$allocator@D@2@@std@@V12@@2@U?$less@V?$basic_string@DU?$char_traits@D@std@@V?$allocator@D@2@@std@@@2@V?$allocator@U?$pair@$$CBV?$basic_string@DU?$char_traits@D@std@@V?$allocator@D@2@@std@@U?$pair@V?$basic_string@DU?$char_traits@D@std@@V?$allocator@D@2@@std@@V12@@2@@std@@@2@$0A@@std@@@std@@QAE?AViterator@12@V312@@Z 0045e130 f i libwt:WWebWidget.obj
 0001:0005d440       ?_Erase@?$_Tree@V?$_Tmap_traits@V?$basic_string@DU?$char_traits@D@std@@V?$allocator@D@2@@std@@U?$pair@V?$basic_string@DU?$char_traits@D@std@@V?$allocator@D@2@@std@@V12@@2@U?$less@V?$basic_string@DU?$char_traits@D@std@@V?$allocator@D@2@@std@@@2@V?$allocator@U?$pair@$$CBV?$basic_string@DU?$char_traits@D@std@@V?$allocator@D@2@@std@@U?$pair@V?$basic_string@DU?$char_traits@D@std@@V?$allocator@D@2@@std@@V12@@2@@std@@@2@$0A@@std@@@std@@IAEXPAU_Node@?$_Tree_nod@V?$_Tmap_traits@V?$basic_string@DU?$char_traits@D@std@@V?$allocator@D@2@@std@@U?$pair@V?$basic_string@DU?$char_traits@D@std@@V?$allocator@D@2@@std@@V12@@2@U?$less@V?$basic_string@DU?$char_traits@D@std@@V?$allocator@D@2@@std@@@2@V?$allocator@U?$pair@$$CBV?$basic_string@DU?$char_traits@D@std@@V?$allocator@D@2@@std@@U?$pair@V?$basic_string@DU?$char_traits@D@std@@V?$allocator@D@2@@std@@V12@@2@@std@@@2@$0A@@std@@@2@@Z 0045e440 f i libwt:WWebWidget.obj
 0001:0005d480       ??$_Ucopy@PAU?$pair@V?$basic_string@DU?$char_traits@D@std@@V?$allocator@D@2@@std@@PAVDomElement@@@std@@@?$vector@U?$pair@V?$basic_string@DU?$char_traits@D@std@@V?$allocator@D@2@@std@@PAVDomElement@@@std@@V?$allocator@U?$pair@V?$basic_string@DU?$char_traits@D@std@@V?$allocator@D@2@@std@@PAVDomElement@@@std@@@2@@std@@IAEPAU?$pair@V?$basic_string@DU?$char_traits@D@std@@V?$allocator@D@2@@std@@PAVDomElement@@@1@PAU21@00@Z 0045e480 f i libwt:WWebWidget.obj
 0001:0005d4a0       ?removeChild@WWebWidget@@MAEXPAVWWidget@@@Z 0045e4a0 f   libwt:WWebWidget.obj
 0001:0005d570       ?addChild@WWebWidget@@MAEXPAVWWidget@@@Z 0045e570 f   libwt:WWebWidget.obj
 0001:0005d5d0       ?getFormObjects@WWebWidget@@EAEXAAV?$vector@PAVWObject@@V?$allocator@PAVWObject@@@std@@@std@@@Z 0045e5d0 f   libwt:WWebWidget.obj
 0001:0005d640       ?getSDomChanges@WWebWidget@@AAEXAAV?$vector@PAVDomElement@@V?$allocator@PAVDomElement@@@std@@@std@@@Z 0045e640 f   libwt:WWebWidget.obj
 0001:0005d760       ??A?$map@V?$basic_string@DU?$char_traits@D@std@@V?$allocator@D@2@@std@@PAVWSlotInstance_@@U?$less@V?$basic_string@DU?$char_traits@D@std@@V?$allocator@D@2@@std@@@2@V?$allocator@U?$pair@$$CBV?$basic_string@DU?$char_traits@D@std@@V?$allocator@D@2@@std@@PAVWSlotInstance_@@@std@@@2@@std@@QAEAAPAVWSlotInstance_@@ABV?$basic_string@DU?$char_traits@D@std@@V?$allocator@D@2@@1@@Z 0045e760 f i libwt:WWebWidget.obj
 0001:0005d800       ?_Copy@?$_Tree@V?$_Tmap_traits@V?$basic_string@DU?$char_traits@D@std@@V?$allocator@D@2@@std@@V12@U?$less@V?$basic_string@DU?$char_traits@D@std@@V?$allocator@D@2@@std@@@2@V?$allocator@U?$pair@$$CBV?$basic_string@DU?$char_traits@D@std@@V?$allocator@D@2@@std@@V12@@std@@@2@$0A@@std@@@std@@IAEXABV12@@Z 0045e800 f i libwt:WWebWidget.obj
 0001:0005d890       ?erase@?$_Tree@V?$_Tmap_traits@W4Property@Wt@@V?$basic_string@DU?$char_traits@D@std@@V?$allocator@D@2@@std@@U?$less@W4Property@Wt@@@4@V?$allocator@U?$pair@$$CBW4Property@Wt@@V?$basic_string@DU?$char_traits@D@std@@V?$allocator@D@2@@std@@@std@@@4@$0A@@std@@@std@@QAE?AViterator@12@V312@0@Z 0045e890 f i libwt:WWebWidget.obj
 0001:0005d950       ?_Copy@?$_Tree@V?$_Tmap_traits@W4Property@Wt@@V?$basic_string@DU?$char_traits@D@std@@V?$allocator@D@2@@std@@U?$less@W4Property@Wt@@@4@V?$allocator@U?$pair@$$CBW4Property@Wt@@V?$basic_string@DU?$char_traits@D@std@@V?$allocator@D@2@@std@@@std@@@4@$0A@@std@@@std@@IAEXABV12@@Z 0045e950 f i libwt:WWebWidget.obj
 0001:0005d9e0       ??1?$map@W4Property@Wt@@V?$basic_string@DU?$char_traits@D@std@@V?$allocator@D@2@@std@@U?$less@W4Property@Wt@@@4@V?$allocator@U?$pair@$$CBW4Property@Wt@@V?$basic_string@DU?$char_traits@D@std@@V?$allocator@D@2@@std@@@std@@@4@@std@@QAE@XZ 0045e9e0 f i libwt:WWebWidget.obj
 0001:0005d9e0       ?_Tidy@?$_Tree@V?$_Tmap_traits@W4Property@Wt@@V?$basic_string@DU?$char_traits@D@std@@V?$allocator@D@2@@std@@U?$less@W4Property@Wt@@@4@V?$allocator@U?$pair@$$CBW4Property@Wt@@V?$basic_string@DU?$char_traits@D@std@@V?$allocator@D@2@@std@@@std@@@4@$0A@@std@@@std@@IAEXXZ 0045e9e0 f i libwt:WWebWidget.obj
 0001:0005da10       ?_Destroy@?$vector@U?$pair@V?$basic_string@DU?$char_traits@D@std@@V?$allocator@D@2@@std@@PAVDomElement@@@std@@V?$allocator@U?$pair@V?$basic_string@DU?$char_traits@D@std@@V?$allocator@D@2@@std@@PAVDomElement@@@std@@@2@@std@@IAEXPAU?$pair@V?$basic_string@DU?$char_traits@D@std@@V?$allocator@D@2@@std@@PAVDomElement@@@2@0@Z 0045ea10 f i libwt:WWebWidget.obj
 0001:0005da40       ?_Tidy@?$vector@U?$pair@V?$basic_string@DU?$char_traits@D@std@@V?$allocator@D@2@@std@@PAVDomElement@@@std@@V?$allocator@U?$pair@V?$basic_string@DU?$char_traits@D@std@@V?$allocator@D@2@@std@@PAVDomElement@@@std@@@2@@std@@IAEXXZ 0045ea40 f i libwt:WWebWidget.obj
 0001:0005da90       ?_Copy@?$_Tree@V?$_Tmap_traits@V?$basic_string@DU?$char_traits@D@std@@V?$allocator@D@2@@std@@U?$pair@V?$basic_string@DU?$char_traits@D@std@@V?$allocator@D@2@@std@@V12@@2@U?$less@V?$basic_string@DU?$char_traits@D@std@@V?$allocator@D@2@@std@@@2@V?$allocator@U?$pair@$$CBV?$basic_string@DU?$char_traits@D@std@@V?$allocator@D@2@@std@@U?$pair@V?$basic_string@DU?$char_traits@D@std@@V?$allocator@D@2@@std@@V12@@2@@std@@@2@$0A@@std@@@std@@IAEPAU_Node@?$_Tree_nod@V?$_Tmap_traits@V?$basic_string@DU?$char_traits@D@std@@V?$allocator@D@2@@std@@U?$pair@V?$basic_string@DU?$char_traits@D@std@@V?$allocator@D@2@@std@@V12@@2@U?$less@V?$basic_string@DU?$char_traits@D@std@@V?$allocator@D@2@@std@@@2@V?$allocator@U?$pair@$$CBV?$basic_string@DU?$char_traits@D@std@@V?$allocator@D@2@@std@@U?$pair@V?$basic_string@DU?$char_traits@D@std@@V?$allocator@D@2@@std@@V12@@2@@std@@@2@$0A@@std@@@2@PAU342@0@Z 0045ea90 f i libwt:WWebWidget.obj
 0001:0005db40       ?buildSlotMap@WWebWidget@@MAEXAAV?$map@V?$basic_string@DU?$char_traits@D@std@@V?$allocator@D@2@@std@@PAVWSlotInstance_@@U?$less@V?$basic_string@DU?$char_traits@D@std@@V?$allocator@D@2@@std@@@2@V?$allocator@U?$pair@$$CBV?$basic_string@DU?$char_traits@D@std@@V?$allocator@D@2@@std@@PAVWSlotInstance_@@@std@@@2@@std@@@Z 0045eb40 f   libwt:WWebWidget.obj
 0001:0005dc00       ?buildSignalMap@WWebWidget@@MAEXAAV?$map@V?$basic_string@DU?$char_traits@D@std@@V?$allocator@D@2@@std@@PAVWSignalInstance_@@U?$less@V?$basic_string@DU?$char_traits@D@std@@V?$allocator@D@2@@std@@@2@V?$allocator@U?$pair@$$CBV?$basic_string@DU?$char_traits@D@std@@V?$allocator@D@2@@std@@PAVWSignalInstance_@@@std@@@2@@std@@@Z 0045ec00 f   libwt:WWebWidget.obj
 0001:0005dcc0       ??0?$_Tree@V?$_Tmap_traits@V?$basic_string@DU?$char_traits@D@std@@V?$allocator@D@2@@std@@V12@U?$less@V?$basic_string@DU?$char_traits@D@std@@V?$allocator@D@2@@std@@@2@V?$allocator@U?$pair@$$CBV?$basic_string@DU?$char_traits@D@std@@V?$allocator@D@2@@std@@V12@@std@@@2@$0A@@std@@@std@@QAE@ABV01@@Z 0045ecc0 f i libwt:WWebWidget.obj
 0001:0005dd50       ??0?$_Tree@V?$_Tmap_traits@W4Property@Wt@@V?$basic_string@DU?$char_traits@D@std@@V?$allocator@D@2@@std@@U?$less@W4Property@Wt@@@4@V?$allocator@U?$pair@$$CBW4Property@Wt@@V?$basic_string@DU?$char_traits@D@std@@V?$allocator@D@2@@std@@@std@@@4@$0A@@std@@@std@@QAE@ABV01@@Z 0045ed50 f i libwt:WWebWidget.obj
 0001:0005dde0       ??0?$vector@U?$pair@V?$basic_string@DU?$char_traits@D@std@@V?$allocator@D@2@@std@@PAVDomElement@@@std@@V?$allocator@U?$pair@V?$basic_string@DU?$char_traits@D@std@@V?$allocator@D@2@@std@@PAVDomElement@@@std@@@2@@std@@QAE@ABV01@@Z 0045ede0 f i libwt:WWebWidget.obj
 0001:0005dea0       ??1?$vector@U?$pair@V?$basic_string@DU?$char_traits@D@std@@V?$allocator@D@2@@std@@PAVDomElement@@@std@@V?$allocator@U?$pair@V?$basic_string@DU?$char_traits@D@std@@V?$allocator@D@2@@std@@PAVDomElement@@@std@@@2@@std@@QAE@XZ 0045eea0 f i libwt:WWebWidget.obj
 0001:0005deb0       ?erase@?$_Tree@V?$_Tmap_traits@V?$basic_string@DU?$char_traits@D@std@@V?$allocator@D@2@@std@@U?$pair@V?$basic_string@DU?$char_traits@D@std@@V?$allocator@D@2@@std@@V12@@2@U?$less@V?$basic_string@DU?$char_traits@D@std@@V?$allocator@D@2@@std@@@2@V?$allocator@U?$pair@$$CBV?$basic_string@DU?$char_traits@D@std@@V?$allocator@D@2@@std@@U?$pair@V?$basic_string@DU?$char_traits@D@std@@V?$allocator@D@2@@std@@V12@@2@@std@@@2@$0A@@std@@@std@@QAE?AViterator@12@V312@0@Z 0045eeb0 f i libwt:WWebWidget.obj
 0001:0005df70       ?_Copy@?$_Tree@V?$_Tmap_traits@V?$basic_string@DU?$char_traits@D@std@@V?$allocator@D@2@@std@@U?$pair@V?$basic_string@DU?$char_traits@D@std@@V?$allocator@D@2@@std@@V12@@2@U?$less@V?$basic_string@DU?$char_traits@D@std@@V?$allocator@D@2@@std@@@2@V?$allocator@U?$pair@$$CBV?$basic_string@DU?$char_traits@D@std@@V?$allocator@D@2@@std@@U?$pair@V?$basic_string@DU?$char_traits@D@std@@V?$allocator@D@2@@std@@V12@@2@@std@@@2@$0A@@std@@@std@@IAEXABV12@@Z 0045ef70 f i libwt:WWebWidget.obj
 0001:0005e000       ?_Tidy@?$_Tree@V?$_Tmap_traits@V?$basic_string@DU?$char_traits@D@std@@V?$allocator@D@2@@std@@U?$pair@V?$basic_string@DU?$char_traits@D@std@@V?$allocator@D@2@@std@@V12@@2@U?$less@V?$basic_string@DU?$char_traits@D@std@@V?$allocator@D@2@@std@@@2@V?$allocator@U?$pair@$$CBV?$basic_string@DU?$char_traits@D@std@@V?$allocator@D@2@@std@@U?$pair@V?$basic_string@DU?$char_traits@D@std@@V?$allocator@D@2@@std@@V12@@2@@std@@@2@$0A@@std@@@std@@IAEXXZ 0045f000 f i libwt:WWebWidget.obj
 0001:0005e000       ??1?$map@V?$basic_string@DU?$char_traits@D@std@@V?$allocator@D@2@@std@@U?$pair@V?$basic_string@DU?$char_traits@D@std@@V?$allocator@D@2@@std@@V12@@2@U?$less@V?$basic_string@DU?$char_traits@D@std@@V?$allocator@D@2@@std@@@2@V?$allocator@U?$pair@$$CBV?$basic_string@DU?$char_traits@D@std@@V?$allocator@D@2@@std@@U?$pair@V?$basic_string@DU?$char_traits@D@std@@V?$allocator@D@2@@std@@V12@@2@@std@@@2@@std@@QAE@XZ 0045f000 f i libwt:WWebWidget.obj
 0001:0005e030       ??0?$_Tree@V?$_Tmap_traits@V?$basic_string@DU?$char_traits@D@std@@V?$allocator@D@2@@std@@U?$pair@V?$basic_string@DU?$char_traits@D@std@@V?$allocator@D@2@@std@@V12@@2@U?$less@V?$basic_string@DU?$char_traits@D@std@@V?$allocator@D@2@@std@@@2@V?$allocator@U?$pair@$$CBV?$basic_string@DU?$char_traits@D@std@@V?$allocator@D@2@@std@@U?$pair@V?$basic_string@DU?$char_traits@D@std@@V?$allocator@D@2@@std@@V12@@2@@std@@@2@$0A@@std@@@std@@QAE@ABV01@@Z 0045f030 f i libwt:WWebWidget.obj
 0001:0005e0c0       ??4?$vector@U?$pair@V?$basic_string@DU?$char_traits@D@std@@V?$allocator@D@2@@std@@PAVDomElement@@@std@@V?$allocator@U?$pair@V?$basic_string@DU?$char_traits@D@std@@V?$allocator@D@2@@std@@PAVDomElement@@@std@@@2@@std@@QAEAAV01@ABV01@@Z 0045f0c0 f i libwt:WWebWidget.obj
 0001:0005e220       ??0DomElement@@QAE@ABV0@@Z 0045f220 f i libwt:WWebWidget.obj
 0001:0005e2e0       ??4DomElement@@QAEAAV0@ABV0@@Z 0045f2e0 f i libwt:WWebWidget.obj
 0001:0005e3b0       ??_EWInteractWidget@@UAEPAXI@Z 0045f3b0 f i libwt:WInteractWidget.obj
 0001:0005e410       ?keyWentDown@WInteractWidget@@QAEXH@Z 0045f410 f   libwt:WInteractWidget.obj
 0001:0005e430       ?keyPressed@WInteractWidget@@QAEXH@Z 0045f430 f   libwt:WInteractWidget.obj
 0001:0005e450       ?keyWentUp@WInteractWidget@@QAEXH@Z 0045f450 f   libwt:WInteractWidget.obj
 0001:0005e470       ?clicked@WInteractWidget@@QAEXXZ 0045f470 f   libwt:WInteractWidget.obj
 0001:0005e480       ?doubleClicked@WInteractWidget@@QAEXXZ 0045f480 f   libwt:WInteractWidget.obj
 0001:0005e490       ?mouseWentDown@WInteractWidget@@QAEXXZ 0045f490 f   libwt:WInteractWidget.obj
 0001:0005e4a0       ?mouseWentUp@WInteractWidget@@QAEXXZ 0045f4a0 f   libwt:WInteractWidget.obj
 0001:0005e4b0       ?mouseWentOut@WInteractWidget@@QAEXXZ 0045f4b0 f   libwt:WInteractWidget.obj
 0001:0005e4c0       ?mouseWentOver@WInteractWidget@@QAEXXZ 0045f4c0 f   libwt:WInteractWidget.obj
 0001:0005e4d0       ?mouseMoved@WInteractWidget@@QAEXXZ 0045f4d0 f   libwt:WInteractWidget.obj
 0001:0005e4e0       ?clicked@WInteractWidget@@QAEXPAX@Z 0045f4e0 f   libwt:WInteractWidget.obj
 0001:0005e500       ?contextmenu@WInteractWidget@@QAEXXZ 0045f500 f   libwt:WInteractWidget.obj
 0001:0005e510       ??0WInteractWidget@@QAE@PAVWContainerWidget@@@Z 0045f510 f   libwt:WInteractWidget.obj
 0001:0005e550       ?setData@WInteractWidget@@QAEXPAX@Z 0045f550 f   libwt:WInteractWidget.obj
 0001:0005e560       ?updateDom@WInteractWidget@@MAEXAAVDomElement@@_N@Z 0045f560 f   libwt:WInteractWidget.obj
 0001:0005e7d0       ?gotClick@WInteractWidget@@AAEXXZ 0045f7d0 f   libwt:WInteractWidget.obj
 0001:0005e800       ?triggerSlot@WInteractWidget@@MAE_NPAVWObject@@PBVWSlot_@@PAPAX@Z 0045f800 f   libwt:WInteractWidget.obj
 0001:0005e850       ?buildSlotMap@WInteractWidget@@MAEXAAV?$map@V?$basic_string@DU?$char_traits@D@std@@V?$allocator@D@2@@std@@PAVWSlotInstance_@@U?$less@V?$basic_string@DU?$char_traits@D@std@@V?$allocator@D@2@@std@@@2@V?$allocator@U?$pair@$$CBV?$basic_string@DU?$char_traits@D@std@@V?$allocator@D@2@@std@@PAVWSlotInstance_@@@std@@@2@@std@@@Z 0045f850 f   libwt:WInteractWidget.obj
 0001:0005e910       ?buildSignalMap@WInteractWidget@@MAEXAAV?$map@V?$basic_string@DU?$char_traits@D@std@@V?$allocator@D@2@@std@@PAVWSignalInstance_@@U?$less@V?$basic_string@DU?$char_traits@D@std@@V?$allocator@D@2@@std@@@2@V?$allocator@U?$pair@$$CBV?$basic_string@DU?$char_traits@D@std@@V?$allocator@D@2@@std@@PAVWSignalInstance_@@@std@@@2@@std@@@Z 0045f910 f   libwt:WInteractWidget.obj
 0001:0005e9d0       ??_EWText@@UAEPAXI@Z       0045f9d0 f i libwt:WText.obj
 0001:0005ea30       ??0WText@@QAE@PAVWContainerWidget@@@Z 0045fa30 f   libwt:WText.obj
 0001:0005ead0       ??0WText@@QAE@V?$basic_string@DU?$char_traits@D@std@@V?$allocator@D@2@@std@@PAVWContainerWidget@@@Z 0045fad0 f   libwt:WText.obj
 0001:0005eb90       ??0WText@@QAE@ABVWMessage@@PAVWContainerWidget@@@Z 0045fb90 f   libwt:WText.obj
 0001:0005ec50       ?hintedWidth@WText@@QBE?AVWLength@@XZ 0045fc50 f   libwt:WText.obj
 0001:0005ec90       ?setText@WText@@QAEXV?$basic_string@DU?$char_traits@D@std@@V?$allocator@D@2@@std@@@Z 0045fc90 f   libwt:WText.obj
 0001:0005ed20       ?setMessage@WText@@QAEXABVWMessage@@@Z 0045fd20 f   libwt:WText.obj
 0001:0005ee00       ?setFormatting@WText@@QAEXW4Formatting@1@@Z 0045fe00 f   libwt:WText.obj
 0001:0005ee10       ?formattedText@WText@@QBE?AV?$basic_string@DU?$char_traits@D@std@@V?$allocator@D@2@@std@@XZ 0045fe10 f   libwt:WText.obj
 0001:0005ef80       ?createDomElement@WText@@MAEPAVDomElement@@XZ 0045ff80 f   libwt:WText.obj
 0001:0005efc0       ?refresh@WText@@UAEXXZ     0045ffc0 f   libwt:WText.obj
 0001:0005f0c0       ?updateDom@WText@@MAEXAAVDomElement@@_N@Z 004600c0 f   libwt:WText.obj
 0001:0005f120       ?getDomChanges@WText@@MAEXAAV?$vector@PAVDomElement@@V?$allocator@PAVDomElement@@@std@@@std@@@Z 00460120 f   libwt:WText.obj
 0001:0005f160       ?buildSlotMap@WText@@MAEXAAV?$map@V?$basic_string@DU?$char_traits@D@std@@V?$allocator@D@2@@std@@PAVWSlotInstance_@@U?$less@V?$basic_string@DU?$char_traits@D@std@@V?$allocator@D@2@@std@@@2@V?$allocator@U?$pair@$$CBV?$basic_string@DU?$char_traits@D@std@@V?$allocator@D@2@@std@@PAVWSlotInstance_@@@std@@@2@@std@@@Z 00460160 f   libwt:WText.obj
 0001:0005f220       ?buildSignalMap@WText@@MAEXAAV?$map@V?$basic_string@DU?$char_traits@D@std@@V?$allocator@D@2@@std@@PAVWSignalInstance_@@U?$less@V?$basic_string@DU?$char_traits@D@std@@V?$allocator@D@2@@std@@@2@V?$allocator@U?$pair@$$CBV?$basic_string@DU?$char_traits@D@std@@V?$allocator@D@2@@std@@PAVWSignalInstance_@@@std@@@2@@std@@@Z 00460220 f   libwt:WText.obj
 0001:0005f2e0       ?removeWidget@WContainerWidget@@UAEXPAVWWidget@@@Z 004602e0 f   libwt:WContainerWidget.obj
 0001:0005f300       ?setContentAlignment@WContainerWidget@@QAEXW4HorizontalAlignment@WWidget@@@Z 00460300 f   libwt:WContainerWidget.obj
 0001:0005f320       ?setPadding@WContainerWidget@@QAEXVWLength@@H@Z 00460320 f   libwt:WContainerWidget.obj
 0001:0005f3b0       ?padding@WContainerWidget@@QBE?AVWLength@@W4Side@WWidget@@@Z 004603b0 f   libwt:WContainerWidget.obj
 0001:0005f460       ?clear@WContainerWidget@@QAEXXZ 00460460 f   libwt:WContainerWidget.obj
 0001:0005f4a0       ??_EWContainerWidget@@UAEPAXI@Z 004604a0 f i libwt:WContainerWidget.obj
 0001:0005f500       ??0WContainerWidget@@QAE@PAV0@@Z 00460500 f   libwt:WContainerWidget.obj
 0001:0005f5a0       ?removeChild@WContainerWidget@@MAEXPAVWWidget@@@Z 004605a0 f   libwt:WContainerWidget.obj
 0001:0005f600       ?updateDom@WContainerWidget@@MAEXAAVDomElement@@_N@Z 00460600 f   libwt:WContainerWidget.obj
 0001:0005faf0       ?createDomChildren@WContainerWidget@@IAEXAAVDomElement@@@Z 00460af0 f   libwt:WContainerWidget.obj
 0001:0005fb90       ?createDomElement@WContainerWidget@@MAEPAVDomElement@@XZ 00460b90 f   libwt:WContainerWidget.obj
 0001:0005fc10       ?addWidget@WContainerWidget@@UAEXPAVWWidget@@@Z 00460c10 f   libwt:WContainerWidget.obj
 0001:0005fc80       ?getDomChanges@WContainerWidget@@MAEXAAV?$vector@PAVDomElement@@V?$allocator@PAVDomElement@@@std@@@std@@@Z 00460c80 f   libwt:WContainerWidget.obj
 0001:0005fd20       ?buildSlotMap@WContainerWidget@@MAEXAAV?$map@V?$basic_string@DU?$char_traits@D@std@@V?$allocator@D@2@@std@@PAVWSlotInstance_@@U?$less@V?$basic_string@DU?$char_traits@D@std@@V?$allocator@D@2@@std@@@2@V?$allocator@U?$pair@$$CBV?$basic_string@DU?$char_traits@D@std@@V?$allocator@D@2@@std@@PAVWSlotInstance_@@@std@@@2@@std@@@Z 00460d20 f   libwt:WContainerWidget.obj
 0001:0005fde0       ?buildSignalMap@WContainerWidget@@MAEXAAV?$map@V?$basic_string@DU?$char_traits@D@std@@V?$allocator@D@2@@std@@PAVWSignalInstance_@@U?$less@V?$basic_string@DU?$char_traits@D@std@@V?$allocator@D@2@@std@@@2@V?$allocator@U?$pair@$$CBV?$basic_string@DU?$char_traits@D@std@@V?$allocator@D@2@@std@@PAVWSignalInstance_@@@std@@@2@@std@@@Z 00460de0 f   libwt:WContainerWidget.obj
 0001:0005fea0       ?createDomElement@WTableRow@@MAEPAVDomElement@@XZ 00460ea0 f   libwt:WTable.obj
 0001:0005fee0       ?updateDom@WTableCell@@MAEXAAVDomElement@@_N@Z 00460ee0 f   libwt:WTableCell.obj
 0001:0005fee0       ?updateDom@WTableRow@@MAEXAAVDomElement@@_N@Z 00460ee0 f   libwt:WTable.obj
 0001:0005fef0       ?setCellPadding@WTable@@QAEXH@Z 00460ef0 f   libwt:WTable.obj
 0001:0005ff00       ?SetLine@WTable@@QAEX_N@Z  00460f00 f   libwt:WTable.obj
 0001:0005ff10       ?updateDom@WTable@@MAEXAAVDomElement@@_N@Z 00460f10 f   libwt:WTable.obj
 0001:0005ff30       ?setCellSpaceing@WTable@@QAEXH@Z 00460f30 f   libwt:WTable.obj
 0001:0005ff40       ??$fill@PAUTableData@WTableRow@@U12@@std@@YAXPAUTableData@WTableRow@@0ABU12@@Z 00460f40 f i libwt:WTable.obj
 0001:0005ff40       ??$fill@PAU?$pair@_NPAUre_syntax_base@re_detail@boost@@@std@@U12@@std@@YAXPAU?$pair@_NPAUre_syntax_base@re_detail@boost@@@0@0ABU10@@Z 00460f40 f i libboost_regex-vc71-mt-1_33_1:instances.obj
 0001:0005ff70       ?numRows@WTable@@QBEHXZ    00460f70 f   libwt:WTable.obj
 0001:0005ff90       ??$_Uninit_fill_n@PAU?$pair@_NPAUre_syntax_base@re_detail@boost@@@std@@IU12@V?$allocator@U?$pair@_NPAUre_syntax_base@re_detail@boost@@@std@@@2@@std@@YAXPAU?$pair@_NPAUre_syntax_base@re_detail@boost@@@0@IABU10@AAV?$allocator@U?$pair@_NPAUre_syntax_base@re_detail@boost@@@std@@@0@U_Nonscalar_ptr_iterator_tag@0@@Z 00460f90 f i libboost_regex-vc71-mt-1_33_1:instances.obj
 0001:0005ff90       ??$_Uninit_fill_n@PAUTableData@WTableRow@@IU12@V?$allocator@UTableData@WTableRow@@@std@@@std@@YAXPAUTableData@WTableRow@@IABU12@AAV?$allocator@UTableData@WTableRow@@@0@U_Nonscalar_ptr_iterator_tag@0@@Z 00460f90 f i libwt:WTable.obj
 0001:0005ffc0       ?rowNum@WTableRow@@QBEHXZ  00460fc0 f   libwt:WTable.obj
 0001:00060000       ?numColumns@WTable@@QBEHXZ 00461000 f   libwt:WTable.obj
 0001:00060040       ?itemAt@WTable@@AAEAAUTableData@WTableRow@@HH@Z 00461040 f   libwt:WTable.obj
 0001:00060060       ?GetRow@WTable@@QAEPAVWTableRow@@H@Z 00461060 f   libwt:WTable.obj
 0001:00060080       ?adjustRowStyle@WTable@@QAEXV?$basic_string@DU?$char_traits@D@std@@V?$allocator@D@2@@std@@0@Z 00461080 f   libwt:WTable.obj
 0001:00060160       ??0WTable@@QAE@PAVWContainerWidget@@@Z 00461160 f   libwt:WTable.obj
 0001:000601f0       ??1WTable@@UAE@XZ          004611f0 f   libwt:WTable.obj
 0001:000602a0       ?printDebug@WTable@@QAEXXZ 004612a0 f   libwt:WTable.obj
 0001:00060480       ?removeCell@WTable@@QAEXHH@Z 00461480 f   libwt:WTable.obj
 0001:00060520       ?deleteRow@WTable@@QAEXH@Z 00461520 f   libwt:WTable.obj
 0001:000605f0       ?clear@WTable@@QAEXXZ      004615f0 f   libwt:WTable.obj
 0001:00060640       ?createDomElement@WTable@@MAEPAVDomElement@@XZ 00461640 f   libwt:WTable.obj
 0001:00060ac0       ??_EWTable@@UAEPAXI@Z      00461ac0 f i libwt:WTable.obj
 0001:00060b20       ?removeCell@WTable@@QAEXPAVWTableCell@@@Z 00461b20 f   libwt:WTable.obj
 0001:00060b40       ?_Insert_n@?$vector@UTableData@WTableRow@@V?$allocator@UTableData@WTableRow@@@std@@@std@@IAEXViterator@12@IABUTableData@WTableRow@@@Z 00461b40 f i libwt:WTable.obj
 0001:00060d90       ??_EWTableRow@@UAEPAXI@Z   00461d90 f i libwt:WTable.obj
 0001:00060df0       ?getDomChanges@WTable@@MAEXAAV?$vector@PAVDomElement@@V?$allocator@PAVDomElement@@@std@@@std@@@Z 00461df0 f   libwt:WTable.obj
 0001:00060f10       ?buildSlotMap@WTableRow@@MAEXAAV?$map@V?$basic_string@DU?$char_traits@D@std@@V?$allocator@D@2@@std@@PAVWSlotInstance_@@U?$less@V?$basic_string@DU?$char_traits@D@std@@V?$allocator@D@2@@std@@@2@V?$allocator@U?$pair@$$CBV?$basic_string@DU?$char_traits@D@std@@V?$allocator@D@2@@std@@PAVWSlotInstance_@@@std@@@2@@std@@@Z 00461f10 f   libwt:WTable.obj
 0001:00060fd0       ?buildSignalMap@WTableRow@@MAEXAAV?$map@V?$basic_string@DU?$char_traits@D@std@@V?$allocator@D@2@@std@@PAVWSignalInstance_@@U?$less@V?$basic_string@DU?$char_traits@D@std@@V?$allocator@D@2@@std@@@2@V?$allocator@U?$pair@$$CBV?$basic_string@DU?$char_traits@D@std@@V?$allocator@D@2@@std@@PAVWSignalInstance_@@@std@@@2@@std@@@Z 00461fd0 f   libwt:WTable.obj
 0001:00061090       ?buildSlotMap@WTable@@MAEXAAV?$map@V?$basic_string@DU?$char_traits@D@std@@V?$allocator@D@2@@std@@PAVWSlotInstance_@@U?$less@V?$basic_string@DU?$char_traits@D@std@@V?$allocator@D@2@@std@@@2@V?$allocator@U?$pair@$$CBV?$basic_string@DU?$char_traits@D@std@@V?$allocator@D@2@@std@@PAVWSlotInstance_@@@std@@@2@@std@@@Z 00462090 f   libwt:WTable.obj
 0001:00061150       ?buildSignalMap@WTable@@MAEXAAV?$map@V?$basic_string@DU?$char_traits@D@std@@V?$allocator@D@2@@std@@PAVWSignalInstance_@@U?$less@V?$basic_string@DU?$char_traits@D@std@@V?$allocator@D@2@@std@@@2@V?$allocator@U?$pair@$$CBV?$basic_string@DU?$char_traits@D@std@@V?$allocator@D@2@@std@@PAVWSignalInstance_@@@std@@@2@@std@@@Z 00462150 f   libwt:WTable.obj
 0001:00061210       ?insertColumn@WTableRow@@QAEXH@Z 00462210 f   libwt:WTable.obj
 0001:000612e0       ?insertColumn@WTable@@QAEXH@Z 004622e0 f   libwt:WTable.obj
 0001:00061330       ?expand@WTableRow@@AAEXH@Z 00462330 f   libwt:WTable.obj
 0001:00061450       ??0WTableRow@@QAE@PAVWTable@@H@Z 00462450 f   libwt:WTable.obj
 0001:000614d0       ?expand@WTable@@AAEXHHHH@Z 004624d0 f   libwt:WTable.obj
 0001:00061680       ?insertRow@WTable@@QAEXH@Z 00462680 f   libwt:WTable.obj
 0001:00061750       ?insertRow@WTable@@QAEXHV?$basic_string@DU?$char_traits@D@std@@V?$allocator@D@2@@std@@@Z 00462750 f   libwt:WTable.obj
 0001:00061850       ?elementAt@WTable@@QAEPAVWTableCell@@HH@Z 00462850 f   libwt:WTable.obj
 0001:00061890       ?exec@WApplication@@QAEHXZ 00462890 f   libwt:WApplication.obj
 0001:000618a0       ?instance@WApplication@@SAPAV1@XZ 004628a0 f   libwt:WApplication.obj
 0001:000618b0       ?setTitle@WApplication@@QAEXV?$basic_string@DU?$char_traits@D@std@@V?$allocator@D@2@@std@@@Z 004628b0 f   libwt:WApplication.obj
 0001:00061900       ?url@WApplication@@QBE?AV?$basic_string@DU?$char_traits@D@std@@V?$allocator@D@2@@std@@XZ 00462900 f   libwt:WApplication.obj
 0001:00061930       ?submiturl@WApplication@@QBE?AV?$basic_string@DU?$char_traits@D@std@@V?$allocator@D@2@@std@@XZ 00462930 f   libwt:WApplication.obj
 0001:00061960       ?quit@WApplication@@QAEXXZ 00462960 f   libwt:WApplication.obj
 0001:00061970       ?scheduleUploadFiles@WApplication@@QAEXXZ 00462970 f   libwt:WApplication.obj
 0001:00061980       ?setOAPLDownloadPath@WApplication@@QAEXV?$basic_string@DU?$char_traits@D@std@@V?$allocator@D@2@@std@@@Z 00462980 f   libwt:WApplication.obj
 0001:000619d0       ?haveJavaScript@WApplication@@QBE_NXZ 004629d0 f   libwt:WApplication.obj
 0001:000619e0       ?refresh@WApplication@@UAEXXZ 004629e0 f   libwt:WApplication.obj
 0001:00061a00       ?setBodyAttribute@WApplication@@QAEXV?$basic_string@DU?$char_traits@D@std@@V?$allocator@D@2@@std@@@Z 00462a00 f   libwt:WApplication.obj
 0001:00061a50       ?setRefreshTime@WApplication@@QAEXHV?$basic_string@DU?$char_traits@D@std@@V?$allocator@D@2@@std@@@Z 00462a50 f   libwt:WApplication.obj
 0001:00061ab0       ?_Dec@const_iterator@?$_Tree@V?$_Tset_traits@PBVWResource@@U?$less@PBVWResource@@@std@@V?$allocator@PBVWResource@@@3@$0A@@std@@@std@@QAEXXZ 00462ab0 f i libwt:WApplication.obj
 0001:00061ab0       ?_Dec@const_iterator@?$_Tree@V?$_Tset_traits@PBVWSignalInstance_@@U?$less@PBVWSignalInstance_@@@std@@V?$allocator@PBVWSignalInstance_@@@3@$0A@@std@@@std@@QAEXXZ 00462ab0 f i libwt:WApplication.obj
 0001:00061b10       ?triggerSlot@WApplication@@MAE_NPAVWObject@@PBVWSlot_@@PAPAX@Z 00462b10 f   libwt:WApplication.obj
 0001:00061b50       ?_Buynode@?$_Tree@V?$_Tset_traits@PBVWSignalInstance_@@U?$less@PBVWSignalInstance_@@@std@@V?$allocator@PBVWSignalInstance_@@@3@$0A@@std@@@std@@IAEPAU_Node@?$_Tree_nod@V?$_Tset_traits@PBVWSignalInstance_@@U?$less@PBVWSignalInstance_@@@std@@V?$allocator@PBVWSignalInstance_@@@3@$0A@@std@@@2@XZ 00462b50 f i libwt:WApplication.obj
 0001:00061b50       ?_Buynode@?$_Tree@V?$_Tset_traits@PBVWResource@@U?$less@PBVWResource@@@std@@V?$allocator@PBVWResource@@@3@$0A@@std@@@std@@IAEPAU_Node@?$_Tree_nod@V?$_Tset_traits@PBVWResource@@U?$less@PBVWResource@@@std@@V?$allocator@PBVWResource@@@3@$0A@@std@@@2@XZ 00462b50 f i libwt:WApplication.obj
 0001:00061b90       ?find@?$_Tree@V?$_Tset_traits@PBVWSignalInstance_@@U?$less@PBVWSignalInstance_@@@std@@V?$allocator@PBVWSignalInstance_@@@3@$0A@@std@@@std@@QAE?AViterator@12@ABQBVWSignalInstance_@@@Z 00462b90 f i libwt:WApplication.obj
 0001:00061b90       ?find@?$_Tree@V?$_Tset_traits@PBVWResource@@U?$less@PBVWResource@@@std@@V?$allocator@PBVWResource@@@3@$0A@@std@@@std@@QAE?AViterator@12@ABQBVWResource@@@Z 00462b90 f i libwt:WApplication.obj
 0001:00061b90       ?find@?$_Tree@V?$_Tset_traits@PBVWSignalInstance_@@U?$less@PBVWSignalInstance_@@@std@@V?$allocator@PBVWSignalInstance_@@@3@$0A@@std@@@std@@QBE?AVconst_iterator@12@ABQBVWSignalInstance_@@@Z 00462b90 f i libwt:WApplication.obj
 0001:00061b90       ?find@?$_Tree@V?$_Tset_traits@PBVWResource@@U?$less@PBVWResource@@@std@@V?$allocator@PBVWResource@@@3@$0A@@std@@@std@@QBE?AVconst_iterator@12@ABQBVWResource@@@Z 00462b90 f i libwt:WApplication.obj
 0001:00061c00       ?equal_range@?$_Tree@V?$_Tset_traits@PBVWResource@@U?$less@PBVWResource@@@std@@V?$allocator@PBVWResource@@@3@$0A@@std@@@std@@QAE?AU?$pair@Viterator@?$_Tree@V?$_Tset_traits@PBVWResource@@U?$less@PBVWResource@@@std@@V?$allocator@PBVWResource@@@3@$0A@@std@@@std@@V123@@2@ABQBVWResource@@@Z 00462c00 f i libwt:WApplication.obj
 0001:00061c00       ?equal_range@?$_Tree@V?$_Tset_traits@PBVWSignalInstance_@@U?$less@PBVWSignalInstance_@@@std@@V?$allocator@PBVWSignalInstance_@@@3@$0A@@std@@@std@@QAE?AU?$pair@Viterator@?$_Tree@V?$_Tset_traits@PBVWSignalInstance_@@U?$less@PBVWSignalInstance_@@@std@@V?$allocator@PBVWSignalInstance_@@@3@$0A@@std@@@std@@V123@@2@ABQBVWSignalInstance_@@@Z 00462c00 f i libwt:WApplication.obj
 0001:00061c70       ?_Insert@?$_Tree@V?$_Tset_traits@PBVWResource@@U?$less@PBVWResource@@@std@@V?$allocator@PBVWResource@@@3@$0A@@std@@@std@@IAE?AViterator@12@_NPAU_Node@?$_Tree_nod@V?$_Tset_traits@PBVWResource@@U?$less@PBVWResource@@@std@@V?$allocator@PBVWResource@@@3@$0A@@std@@@2@ABQBVWResource@@@Z 00462c70 f i libwt:WApplication.obj
 0001:00061c70       ?_Insert@?$_Tree@V?$_Tset_traits@PBVWSignalInstance_@@U?$less@PBVWSignalInstance_@@@std@@V?$allocator@PBVWSignalInstance_@@@3@$0A@@std@@@std@@IAE?AViterator@12@_NPAU_Node@?$_Tree_nod@V?$_Tset_traits@PBVWSignalInstance_@@U?$less@PBVWSignalInstance_@@@std@@V?$allocator@PBVWSignalInstance_@@@3@$0A@@std@@@2@ABQBVWSignalInstance_@@@Z 00462c70 f i libwt:WApplication.obj
 0001:00061e30       ??$_Distance@Viterator@?$_Tree@V?$_Tset_traits@PBVWResource@@U?$less@PBVWResource@@@std@@V?$allocator@PBVWResource@@@3@$0A@@std@@@std@@I@std@@YAXViterator@?$_Tree@V?$_Tset_traits@PBVWResource@@U?$less@PBVWResource@@@std@@V?$allocator@PBVWResource@@@3@$0A@@std@@@0@0AAI@Z 00462e30 f i libwt:WApplication.obj
 0001:00061e30       ??$_Distance@Viterator@?$_Tree@V?$_Tset_traits@PBVWSignalInstance_@@U?$less@PBVWSignalInstance_@@@std@@V?$allocator@PBVWSignalInstance_@@@3@$0A@@std@@@std@@I@std@@YAXViterator@?$_Tree@V?$_Tset_traits@PBVWSignalInstance_@@U?$less@PBVWSignalInstance_@@@std@@V?$allocator@PBVWSignalInstance_@@@3@$0A@@std@@@0@0AAI@Z 00462e30 f i libwt:WApplication.obj
 0001:00061e70       ?isExposedSignal@WApplication@@ABE_NPBVWSignalInstance_@@@Z 00462e70 f   libwt:WApplication.obj
 0001:00061ea0       ?isExposedResource@WApplication@@ABE_NPBVWResource@@@Z 00462ea0 f   libwt:WApplication.obj
 0001:00061ed0       ?insert@?$_Tree@V?$_Tset_traits@PBVWResource@@U?$less@PBVWResource@@@std@@V?$allocator@PBVWResource@@@3@$0A@@std@@@std@@QAE?AU?$pair@Viterator@?$_Tree@V?$_Tset_traits@PBVWResource@@U?$less@PBVWResource@@@std@@V?$allocator@PBVWResource@@@3@$0A@@std@@@std@@_N@2@ABQBVWResource@@@Z 00462ed0 f i libwt:WApplication.obj
 0001:00061ed0       ?insert@?$_Tree@V?$_Tset_traits@PBVWSignalInstance_@@U?$less@PBVWSignalInstance_@@@std@@V?$allocator@PBVWSignalInstance_@@@3@$0A@@std@@@std@@QAE?AU?$pair@Viterator@?$_Tree@V?$_Tset_traits@PBVWSignalInstance_@@U?$less@PBVWSignalInstance_@@@std@@V?$allocator@PBVWSignalInstance_@@@3@$0A@@std@@@std@@_N@2@ABQBVWSignalInstance_@@@Z 00462ed0 f i libwt:WApplication.obj
 0001:00061f90       ?addExposedSignal@WApplication@@AAEXPBVWSignalInstance_@@@Z 00462f90 f   libwt:WApplication.obj
 0001:00061fb0       ?addExposedResource@WApplication@@AAEXPBVWResource@@@Z 00462fb0 f   libwt:WApplication.obj
 0001:00062000       ?erase@?$_Tree@V?$_Tset_traits@PBVWSignalInstance_@@U?$less@PBVWSignalInstance_@@@std@@V?$allocator@PBVWSignalInstance_@@@3@$0A@@std@@@std@@QAEIABQBVWSignalInstance_@@@Z 00463000 f i libwt:WApplication.obj
 0001:00062060       ?erase@?$_Tree@V?$_Tset_traits@PBVWResource@@U?$less@PBVWResource@@@std@@V?$allocator@PBVWResource@@@3@$0A@@std@@@std@@QAEIABQBVWResource@@@Z 00463060 f i libwt:WApplication.obj
 0001:000620c0       ??1?$set@PBVWSignalInstance_@@U?$less@PBVWSignalInstance_@@@std@@V?$allocator@PBVWSignalInstance_@@@3@@std@@QAE@XZ 004630c0 f i libwt:WApplication.obj
 0001:000620f0       ??1?$set@PBVWResource@@U?$less@PBVWResource@@@std@@V?$allocator@PBVWResource@@@3@@std@@QAE@XZ 004630f0 f i libwt:WApplication.obj
 0001:00062120       ??1WApplication@@UAE@XZ    00463120 f   libwt:WApplication.obj
 0001:00062280       ?removeExposedSignal@WApplication@@AAEXPBVWSignalInstance_@@@Z 00463280 f   libwt:WApplication.obj
 0001:000622f0       ?removeExposedResource@WApplication@@AAEXPBVWResource@@@Z 004632f0 f   libwt:WApplication.obj
 0001:00062380       ??_EWApplication@@UAEPAXI@Z 00463380 f i libwt:WApplication.obj
 0001:000623e0       ?buildSlotMap@WApplication@@MAEXAAV?$map@V?$basic_string@DU?$char_traits@D@std@@V?$allocator@D@2@@std@@PAVWSlotInstance_@@U?$less@V?$basic_string@DU?$char_traits@D@std@@V?$allocator@D@2@@std@@@2@V?$allocator@U?$pair@$$CBV?$basic_string@DU?$char_traits@D@std@@V?$allocator@D@2@@std@@PAVWSlotInstance_@@@std@@@2@@std@@@Z 004633e0 f   libwt:WApplication.obj
 0001:000624a0       ?buildSignalMap@WApplication@@MAEXAAV?$map@V?$basic_string@DU?$char_traits@D@std@@V?$allocator@D@2@@std@@PAVWSignalInstance_@@U?$less@V?$basic_string@DU?$char_traits@D@std@@V?$allocator@D@2@@std@@@2@V?$allocator@U?$pair@$$CBV?$basic_string@DU?$char_traits@D@std@@V?$allocator@D@2@@std@@PAVWSignalInstance_@@@std@@@2@@std@@@Z 004634a0 f   libwt:WApplication.obj
 0001:00062560       ??0WApplication@@QAE@HQAPAD@Z 00463560 f   libwt:WApplication.obj
 0001:000626d0       ?signal@WConnection_@@QBEPAVWSignalInstance_@@XZ 004636d0 f i libwt:WebSession.obj
 0001:000626d0       ?width@WBorder@@QBE?AW4Width@1@XZ 004636d0 f i main.obj
 0001:000626e0       ??4WConnection_@@QAEAAV0@ABV0@@Z 004636e0 f i libwt:WebSession.obj
 0001:00062700       ?WriteLog@WebSession@@QAEXPAD0@Z 00463700 f   libwt:WebSession.obj
 0001:00062730       ?WriteLog1@WebSession@@QAEXPAD0@Z 00463730 f   libwt:WebSession.obj
 0001:00062760       ?accept@WebSession@@QAE_NXZ 00463760 f   libwt:WebSession.obj
 0001:00062850       ?GetWebUserID@@YA?AV?$basic_string@DU?$char_traits@D@std@@V?$allocator@D@2@@std@@XZ 00463850 f   libwt:WebSession.obj
 0001:000629c0       ?serveResource@WebSession@@AAEXPAVWResource@@@Z 004639c0 f   libwt:WebSession.obj
 0001:00062a20       ?setCurrentWidget@WebSession@@AAEXPAVWWidget@@@Z 00463a20 f   libwt:WebSession.obj
 0001:00062a90       ?UnicodeToGB@@YAPADPBG@Z   00463a90 f   libwt:WebSession.obj
 0001:00062b00       ?unescape_url@@YAXPAD@Z    00463b00 f   libwt:WebSession.obj
 0001:00062c10       ?lineread@@YAHPAU_iobuf@@PADH@Z 00463c10 f   libwt:WebSession.obj
 0001:00062d00       ?cgi_quit1@WebSession@@QAEXXZ 00463d00 f   libwt:WebSession.obj
 0001:00062e40       ?cgi_quit@WebSession@@QAEXXZ 00463e40 f   libwt:WebSession.obj
 0001:00062f80       ?cgi_getcookie@WebSession@@QAEPBDPBD@Z 00463f80 f   libwt:WebSession.obj
 0001:00063010       ?cgi_getnumentries@WebSession@@QAEHPBD@Z 00464010 f   libwt:WebSession.obj
 0001:00063090       ?cgi_getnentrystr@WebSession@@QAEPBDPBDHPAH@Z 00464090 f   libwt:WebSession.obj
 0001:00063180       ?cgi_getnentrytype@WebSession@@QAEPBDPBDH@Z 00464180 f   libwt:WebSession.obj
 0001:00063270       ?cgi_getnentryfilename@WebSession@@QAEPBDPBDH@Z 00464270 f   libwt:WebSession.obj
 0001:00063360       ?cgi_getnentrybool@WebSession@@QAEHPBDHH@Z 00464360 f   libwt:WebSession.obj
 0001:00063420       ?cgi_dump_no_abort@WebSession@@QAEHPBD@Z 00464420 f   libwt:WebSession.obj
 0001:000634d0       ?cgi_dump@WebSession@@QAEXPBD@Z 004644d0 f   libwt:WebSession.obj
 0001:00063510       ?cgi_error@WebSession@@QAEXPBD@Z 00464510 f   libwt:WebSession.obj
 0001:00063540       ?cgi_goodemailaddress@WebSession@@QAEHPBD@Z 00464540 f   libwt:WebSession.obj
 0001:00063640       ?cgi_strerror@WebSession@@QAEPBDH@Z 00464640 f   libwt:WebSession.obj
 0001:00063660       ?GetWtEnv@WebSession@@AAEPADPBD@Z 00464660 f   libwt:WebSession.obj
 0001:000636b0       ?GetSessionIdbyCookie@WebSession@@QAEHXZ 004646b0 f   libwt:WebSession.obj
 0001:000636d0       ?GetUserIdbyCookie@WebSession@@QAEHXZ 004646d0 f   libwt:WebSession.obj
 0001:000636f0       ?cgi_parse_cookies@WebSession@@QAEHXZ 004646f0 f   libwt:WebSession.obj
 0001:00063890       ?cgi_getentrystr@WebSession@@QAEPBDPBDPAH@Z 00464890 f   libwt:WebSession.obj
 0001:000638b0       ?cgi_getentrytype@WebSession@@QAEPBDPBD@Z 004648b0 f   libwt:WebSession.obj
 0001:000638c0       ?cgi_getentryfilename@WebSession@@QAEPBDPBD@Z 004648c0 f   libwt:WebSession.obj
 0001:000638d0       ?cgi_getnentryint@WebSession@@QAEHPBDH@Z 004648d0 f   libwt:WebSession.obj
 0001:00063940       ?cgi_getnentrydouble@WebSession@@QAENPBDH@Z 00464940 f   libwt:WebSession.obj
 0001:000639c0       ?cgi_getentrybool@WebSession@@QAEHPBDH@Z 004649c0 f   libwt:WebSession.obj
 0001:000639e0       ?cgi_init@WebSession@@QAEHXZ 004649e0 f   libwt:WebSession.obj
 0001:000642d0       ?cgi_getentryint@WebSession@@QAEHPBD@Z 004652d0 f   libwt:WebSession.obj
 0001:000642e0       ?cgi_getentrydouble@WebSession@@QAENPBD@Z 004652e0 f   libwt:WebSession.obj
 0001:000642f0       ?handleRequestData@WebSession@@AAEPAVWResource@@XZ 004652f0 f   libwt:WebSession.obj
 0001:00064700       ?createFormsVar@WebSession@@AAE?AV?$basic_string@DU?$char_traits@D@std@@V?$allocator@D@2@@std@@ABV?$vector@PAVWObject@@V?$allocator@PAVWObject@@@std@@@3@@Z 00465700 f   libwt:WebSession.obj
 0001:00064860       ??0WebSession@@QAE@V?$basic_string@DU?$char_traits@D@std@@V?$allocator@D@2@@std@@_N1V12@2@Z 00465860 f   libwt:WebSession.obj
 0001:00064aa0       ?serveMainpage@WebSession@@AAEXPAVWWidget@@@Z 00465aa0 f   libwt:WebSession.obj
 0001:00065890       ?serveJavascriptUpdate@WebSession@@AAEXPAVWWidget@@@Z 00466890 f   libwt:WebSession.obj
 0001:00065e40       ?generateResponse@WebSession@@AAEXPAVWResource@@@Z 00466e40 f   libwt:WebSession.obj
 0001:00066040       ?start@WebSession@@QAEXP6AXHPAPAD@ZH0@Z 00467040 f   libwt:WebSession.obj
 0001:00066170       ?eventLoop@WebSession@@AAEHXZ 00467170 f   libwt:WebSession.obj
 0001:000661f0       ?eventLoop@WebSession@@AAEHPAVWApplication@@@Z 004671f0 f   libwt:WebSession.obj
 0001:00066210       ?WApplicationExecCallback@WebSession@@SAHPAVWApplication@@@Z 00467210 f   libwt:WebSession.obj
 0001:00066240       ?changed@WFormWidget@@QAEXXZ 00467240 f   libwt:WFormWidget.obj
 0001:00066250       ?selected@WFormWidget@@QAEXXZ 00467250 f   libwt:WFormWidget.obj
 0001:00066260       ?blurred@WFormWidget@@QAEXXZ 00467260 f   libwt:WFormWidget.obj
 0001:00066270       ?focussed@WFormWidget@@QAEXXZ 00467270 f   libwt:WFormWidget.obj
 0001:00066280       ??0WFormWidget@@QAE@PAVWContainerWidget@@@Z 00467280 f   libwt:WFormWidget.obj
 0001:000662b0       ??1WFormWidget@@UAE@XZ     004672b0 f   libwt:WFormWidget.obj
 0001:00066310       ?setEnabled@WFormWidget@@QAEX_N@Z 00467310 f   libwt:WFormWidget.obj
 0001:00066330       ?updateDom@WFormWidget@@MAEXAAVDomElement@@_N@Z 00467330 f   libwt:WFormWidget.obj
 0001:00066420       ?setLabel@WFormWidget@@AAEXPAVWLabel@@@Z 00467420 f   libwt:WFormWidget.obj
 0001:00066430       ?setHidden@WFormWidget@@UAEX_N@Z 00467430 f   libwt:WFormWidget.obj
 0001:00066460       ??_EWFormWidget@@UAEPAXI@Z 00467460 f i libwt:WFormWidget.obj
 0001:000664c0       ?enable@WFormWidget@@QAEXXZ 004674c0 f   libwt:WFormWidget.obj
 0001:000664e0       ?disable@WFormWidget@@QAEXXZ 004674e0 f   libwt:WFormWidget.obj
 0001:00066500       ?undoDisable@WFormWidget@@AAEXXZ 00467500 f   libwt:WFormWidget.obj
 0001:00066500       ?undoEnable@WFormWidget@@AAEXXZ 00467500 f   libwt:WFormWidget.obj
 0001:00066520       ?triggerSlot@WFormWidget@@MAE_NPAVWObject@@PBVWSlot_@@PAPAX@Z 00467520 f   libwt:WFormWidget.obj
 0001:000665c0       ?undoTriggerSlot@WFormWidget@@MAE_NPBVWSlot_@@PAPAX@Z 004675c0 f   libwt:WFormWidget.obj
 0001:00066620       ?buildSlotMap@WFormWidget@@MAEXAAV?$map@V?$basic_string@DU?$char_traits@D@std@@V?$allocator@D@2@@std@@PAVWSlotInstance_@@U?$less@V?$basic_string@DU?$char_traits@D@std@@V?$allocator@D@2@@std@@@2@V?$allocator@U?$pair@$$CBV?$basic_string@DU?$char_traits@D@std@@V?$allocator@D@2@@std@@PAVWSlotInstance_@@@std@@@2@@std@@@Z 00467620 f   libwt:WFormWidget.obj
 0001:000666e0       ?buildSignalMap@WFormWidget@@MAEXAAV?$map@V?$basic_string@DU?$char_traits@D@std@@V?$allocator@D@2@@std@@PAVWSignalInstance_@@U?$less@V?$basic_string@DU?$char_traits@D@std@@V?$allocator@D@2@@std@@@2@V?$allocator@U?$pair@$$CBV?$basic_string@DU?$char_traits@D@std@@V?$allocator@D@2@@std@@PAVWSignalInstance_@@@std@@@2@@std@@@Z 004676e0 f   libwt:WFormWidget.obj
 0001:000667a0       ?activated@WComboBox@@QAEXH@Z 004677a0 f   libwt:WComboBox.obj
 0001:000667c0       ?activated@WComboBox@@QAEXV?$basic_string@DU?$char_traits@D@std@@V?$allocator@D@2@@std@@@Z 004677c0 f   libwt:WComboBox.obj
 0001:00066820       ?currentIndex@WComboBox@@QBEHXZ 00467820 f   libwt:WComboBox.obj
 0001:00066830       ?createDomElement@WComboBox@@MAEPAVDomElement@@XZ 00467830 f   libwt:WComboBox.obj
 0001:00066860       ??5?$lexical_stream@V?$basic_string@DU?$char_traits@D@std@@V?$allocator@D@2@@std@@I@detail@boost@@QAE_NAAV?$basic_string@DU?$char_traits@D@std@@V?$allocator@D@2@@std@@@Z 00467860 f i libwt:WComboBox.obj
 0001:000668c0       ?count@WComboBox@@QBEHXZ   004678c0 f   libwt:WComboBox.obj
 0001:000668f0       ?setCurrentIndex@WComboBox@@QAEXH@Z 004678f0 f   libwt:WComboBox.obj
 0001:00066960       ??$lexical_cast@V?$basic_string@DU?$char_traits@D@std@@V?$allocator@D@2@@std@@I@boost@@YA?AV?$basic_string@DU?$char_traits@D@std@@V?$allocator@D@2@@std@@ABI@Z 00467960 f i libwt:WComboBox.obj
 0001:00066ac0       ??$lexical_cast@HV?$basic_string@DU?$char_traits@D@std@@V?$allocator@D@2@@std@@@boost@@YAHABV?$basic_string@DU?$char_traits@D@std@@V?$allocator@D@2@@std@@@Z 00467ac0 f i libwt:WComboBox.obj
 0001:00066bf0       ?currentText@WComboBox@@QBE?BV?$basic_string@DU?$char_traits@D@std@@V?$allocator@D@2@@std@@XZ 00467bf0 f   libwt:WComboBox.obj
 0001:00066c40       ?itemText@WComboBox@@QBE?BV?$basic_string@DU?$char_traits@D@std@@V?$allocator@D@2@@std@@H@Z 00467c40 f   libwt:WComboBox.obj
 0001:00066c70       ?setCurrentIndexByStr@WComboBox@@QAEXV?$basic_string@DU?$char_traits@D@std@@V?$allocator@D@2@@std@@@Z 00467c70 f   libwt:WComboBox.obj
 0001:00066d90       ?setItemText@WComboBox@@QAEXHV?$basic_string@DU?$char_traits@D@std@@V?$allocator@D@2@@std@@@Z 00467d90 f   libwt:WComboBox.obj
 0001:00066e00       ?propagateChange@WComboBox@@AAEXXZ 00467e00 f   libwt:WComboBox.obj
 0001:00066e60       ?updateDom@WComboBox@@MAEXAAVDomElement@@_N@Z 00467e60 f   libwt:WComboBox.obj
 0001:00067050       ?setFormData@WComboBox@@MAEXPBDH0@Z 00468050 f   libwt:WComboBox.obj
 0001:000670f0       ?getDomChanges@WComboBox@@MAEXAAV?$vector@PAVDomElement@@V?$allocator@PAVDomElement@@@std@@@std@@@Z 004680f0 f   libwt:WComboBox.obj
 0001:00067130       ?erase@?$vector@V?$basic_string@DU?$char_traits@D@std@@V?$allocator@D@2@@std@@V?$allocator@V?$basic_string@DU?$char_traits@D@std@@V?$allocator@D@2@@std@@@2@@std@@QAE?AViterator@12@V312@@Z 00468130 f i libwt:WComboBox.obj
 0001:00067180       ??_EWComboBox@@UAEPAXI@Z   00468180 f i libwt:WComboBox.obj
 0001:000671e0       ?buildSlotMap@WComboBox@@MAEXAAV?$map@V?$basic_string@DU?$char_traits@D@std@@V?$allocator@D@2@@std@@PAVWSlotInstance_@@U?$less@V?$basic_string@DU?$char_traits@D@std@@V?$allocator@D@2@@std@@@2@V?$allocator@U?$pair@$$CBV?$basic_string@DU?$char_traits@D@std@@V?$allocator@D@2@@std@@PAVWSlotInstance_@@@std@@@2@@std@@@Z 004681e0 f   libwt:WComboBox.obj
 0001:000672a0       ?buildSignalMap@WComboBox@@MAEXAAV?$map@V?$basic_string@DU?$char_traits@D@std@@V?$allocator@D@2@@std@@PAVWSignalInstance_@@U?$less@V?$basic_string@DU?$char_traits@D@std@@V?$allocator@D@2@@std@@@2@V?$allocator@U?$pair@$$CBV?$basic_string@DU?$char_traits@D@std@@V?$allocator@D@2@@std@@PAVWSignalInstance_@@@std@@@2@@std@@@Z 004682a0 f   libwt:WComboBox.obj
 0001:00067360       ??0WComboBox@@QAE@PAVWContainerWidget@@@Z 00468360 f   libwt:WComboBox.obj
 0001:000673f0       ?removeItem@WComboBox@@QAEXH@Z 004683f0 f   libwt:WComboBox.obj
 0001:00067470       ?clear@WComboBox@@QAEXXZ   00468470 f   libwt:WComboBox.obj
 0001:00067490       ?triggerSlot@WComboBox@@MAE_NPAVWObject@@PBVWSlot_@@PAPAX@Z 00468490 f   libwt:WComboBox.obj
 0001:00067500       ?insertItem@WComboBox@@QAEXHV?$basic_string@DU?$char_traits@D@std@@V?$allocator@D@2@@std@@@Z 00468500 f   libwt:WComboBox.obj
 0001:00067580       ?addItem@WComboBox@@QAEXV?$basic_string@DU?$char_traits@D@std@@V?$allocator@D@2@@std@@@Z 00468580 f   libwt:WComboBox.obj
 0001:00067610       ??_EWImage@@UAEPAXI@Z      00468610 f i libwt:WImage.obj
 0001:00067670       ??0WImage@@QAE@PAVWContainerWidget@@@Z 00468670 f   libwt:WImage.obj
 0001:000676f0       ??0WImage@@QAE@V?$basic_string@DU?$char_traits@D@std@@V?$allocator@D@2@@std@@PAVWContainerWidget@@@Z 004686f0 f   libwt:WImage.obj
 0001:00067790       ??0WImage@@QAE@V?$basic_string@DU?$char_traits@D@std@@V?$allocator@D@2@@std@@0PAVWContainerWidget@@@Z 00468790 f   libwt:WImage.obj
 0001:00067840       ??0WImage@@QAE@PAVWResource@@V?$basic_string@DU?$char_traits@D@std@@V?$allocator@D@2@@std@@PAVWContainerWidget@@@Z 00468840 f   libwt:WImage.obj
 0001:00067930       ?setAlternateText@WImage@@QAEXV?$basic_string@DU?$char_traits@D@std@@V?$allocator@D@2@@std@@@Z 00468930 f   libwt:WImage.obj
 0001:000679a0       ?setImageRef@WImage@@QAEXV?$basic_string@DU?$char_traits@D@std@@V?$allocator@D@2@@std@@@Z 004689a0 f   libwt:WImage.obj
 0001:00067a10       ?resourceChanged@WImage@@AAEXXZ 00468a10 f   libwt:WImage.obj
 0001:00067a40       ?updateDom@WImage@@MAEXAAVDomElement@@_N@Z 00468a40 f   libwt:WImage.obj
 0001:00067ab0       ?createDomElement@WImage@@MAEPAVDomElement@@XZ 00468ab0 f   libwt:WImage.obj
 0001:00067ae0       ?triggerSlot@WImage@@MAE_NPAVWObject@@PBVWSlot_@@PAPAX@Z 00468ae0 f   libwt:WImage.obj
 0001:00067b10       ?getDomChanges@WImage@@MAEXAAV?$vector@PAVDomElement@@V?$allocator@PAVDomElement@@@std@@@std@@@Z 00468b10 f   libwt:WImage.obj
 0001:00067b50       ?buildSlotMap@WImage@@MAEXAAV?$map@V?$basic_string@DU?$char_traits@D@std@@V?$allocator@D@2@@std@@PAVWSlotInstance_@@U?$less@V?$basic_string@DU?$char_traits@D@std@@V?$allocator@D@2@@std@@@2@V?$allocator@U?$pair@$$CBV?$basic_string@DU?$char_traits@D@std@@V?$allocator@D@2@@std@@PAVWSlotInstance_@@@std@@@2@@std@@@Z 00468b50 f   libwt:WImage.obj
 0001:00067c10       ?buildSignalMap@WImage@@MAEXAAV?$map@V?$basic_string@DU?$char_traits@D@std@@V?$allocator@D@2@@std@@PAVWSignalInstance_@@U?$less@V?$basic_string@DU?$char_traits@D@std@@V?$allocator@D@2@@std@@@2@V?$allocator@U?$pair@$$CBV?$basic_string@DU?$char_traits@D@std@@V?$allocator@D@2@@std@@PAVWSignalInstance_@@@std@@@2@@std@@@Z 00468c10 f   libwt:WImage.obj
 0001:00067cd0       ??_EWLineEdit@@UAEPAXI@Z   00468cd0 f i libwt:WLineEdit.obj
 0001:00067d30       ?undoTriggerSlot@WComboBox@@MAE_NPBVWSlot_@@PAPAX@Z 00468d30 f   libwt:WComboBox.obj
 0001:00067d30       ?undoTriggerSlot@WLineEdit@@MAE_NPBVWSlot_@@PAPAX@Z 00468d30 f   libwt:WLineEdit.obj
 0001:00067d30       ?undoTriggerSlot@WPushButton@@MAE_NPBVWSlot_@@PAPAX@Z 00468d30 f   libwt:WPushButton.obj
 0001:00067d40       ??0WLineEdit@@QAE@PAVWContainerWidget@@@Z 00468d40 f   libwt:WLineEdit.obj
 0001:00067dd0       ??0WLineEdit@@QAE@V?$basic_string@DU?$char_traits@D@std@@V?$allocator@D@2@@std@@PAVWContainerWidget@@@Z 00468dd0 f   libwt:WLineEdit.obj
 0001:00067e80       ?setText@WLineEdit@@QAEXV?$basic_string@DU?$char_traits@D@std@@V?$allocator@D@2@@std@@@Z 00468e80 f   libwt:WLineEdit.obj
 0001:00067ef0       ?setTextSize@WLineEdit@@QAEXH@Z 00468ef0 f   libwt:WLineEdit.obj
 0001:00067f10       ?setEchoMode@WLineEdit@@QAEXW4EchoMode@1@@Z 00468f10 f   libwt:WLineEdit.obj
 0001:00067f30       ?createDomElement@WLineEdit@@MAEPAVDomElement@@XZ 00468f30 f   libwt:WLineEdit.obj
 0001:00067fe0       ?setFormData@WLineEdit@@MAEXPBDH0@Z 00468fe0 f   libwt:WLineEdit.obj
 0001:00067fe0       ?setFormData@WTextArea@@MAEXPBDH0@Z 00468fe0 f   libwt:WTextArea.obj
 0001:00068000       ?triggerSlot@WLineEdit@@MAE_NPAVWObject@@PBVWSlot_@@PAPAX@Z 00469000 f   libwt:WLineEdit.obj
 0001:00068050       ?updateDom@WLineEdit@@MAEXAAVDomElement@@_N@Z 00469050 f   libwt:WLineEdit.obj
 0001:000681b0       ?buildSlotMap@WLineEdit@@MAEXAAV?$map@V?$basic_string@DU?$char_traits@D@std@@V?$allocator@D@2@@std@@PAVWSlotInstance_@@U?$less@V?$basic_string@DU?$char_traits@D@std@@V?$allocator@D@2@@std@@@2@V?$allocator@U?$pair@$$CBV?$basic_string@DU?$char_traits@D@std@@V?$allocator@D@2@@std@@PAVWSlotInstance_@@@std@@@2@@std@@@Z 004691b0 f   libwt:WLineEdit.obj
 0001:00068270       ?buildSignalMap@WLineEdit@@MAEXAAV?$map@V?$basic_string@DU?$char_traits@D@std@@V?$allocator@D@2@@std@@PAVWSignalInstance_@@U?$less@V?$basic_string@DU?$char_traits@D@std@@V?$allocator@D@2@@std@@@2@V?$allocator@U?$pair@$$CBV?$basic_string@DU?$char_traits@D@std@@V?$allocator@D@2@@std@@PAVWSignalInstance_@@@std@@@2@@std@@@Z 00469270 f   libwt:WLineEdit.obj
 0001:00068330       ??_EWPushButton@@UAEPAXI@Z 00469330 f i libwt:WPushButton.obj
 0001:00068390       ?triggerSlot@WPushButton@@MAE_NPAVWObject@@PBVWSlot_@@PAPAX@Z 00469390 f   libwt:WPushButton.obj
 0001:000683a0       ??0WPushButton@@QAE@PAVWContainerWidget@@@Z 004693a0 f   libwt:WPushButton.obj
 0001:00068420       ??0WPushButton@@QAE@V?$basic_string@DU?$char_traits@D@std@@V?$allocator@D@2@@std@@PAVWContainerWidget@@@Z 00469420 f   libwt:WPushButton.obj
 0001:000684c0       ??0WPushButton@@QAE@ABVWMessage@@PAVWContainerWidget@@@Z 004694c0 f   libwt:WPushButton.obj
 0001:00068580       ?setText@WPushButton@@QAEXV?$basic_string@DU?$char_traits@D@std@@V?$allocator@D@2@@std@@@Z 00469580 f   libwt:WPushButton.obj
 0001:00068610       ?setMessage@WPushButton@@QAEXABVWMessage@@@Z 00469610 f   libwt:WPushButton.obj
 0001:00068650       ?updateDom@WPushButton@@MAEXAAVDomElement@@_N@Z 00469650 f   libwt:WPushButton.obj
 0001:000686b0       ?createDomElement@WPushButton@@MAEPAVDomElement@@XZ 004696b0 f   libwt:WPushButton.obj
 0001:00068750       ?refresh@WPushButton@@UAEXXZ 00469750 f   libwt:WPushButton.obj
 0001:00068850       ?buildSlotMap@WPushButton@@MAEXAAV?$map@V?$basic_string@DU?$char_traits@D@std@@V?$allocator@D@2@@std@@PAVWSlotInstance_@@U?$less@V?$basic_string@DU?$char_traits@D@std@@V?$allocator@D@2@@std@@@2@V?$allocator@U?$pair@$$CBV?$basic_string@DU?$char_traits@D@std@@V?$allocator@D@2@@std@@PAVWSlotInstance_@@@std@@@2@@std@@@Z 00469850 f   libwt:WPushButton.obj
 0001:00068910       ?buildSignalMap@WPushButton@@MAEXAAV?$map@V?$basic_string@DU?$char_traits@D@std@@V?$allocator@D@2@@std@@PAVWSignalInstance_@@U?$less@V?$basic_string@DU?$char_traits@D@std@@V?$allocator@D@2@@std@@@2@V?$allocator@U?$pair@$$CBV?$basic_string@DU?$char_traits@D@std@@V?$allocator@D@2@@std@@PAVWSignalInstance_@@@std@@@2@@std@@@Z 00469910 f   libwt:WPushButton.obj
 0001:000689d0       ??0WObject@@QAE@XZ         004699d0 f   libwt:WObject.obj
 0001:000689f0       ?formName@WObject@@QBE?BV?$basic_string@DU?$char_traits@D@std@@V?$allocator@D@2@@std@@XZ 004699f0 f   libwt:WObject.obj
 0001:00068a40       ?setFormData@WObject@@UAEXPBDH0@Z 00469a40 f   libwt:WObject.obj
 0001:00068a70       ?setNoFormData@WObject@@UAEXXZ 00469a70 f   libwt:WObject.obj
 0001:00068aa0       ?triggerSlot@WObject@@MAE_NPAV1@PBVWSlot_@@PAPAX@Z 00469aa0 f   libwt:WObject.obj
 0001:00068b20       ?undoTriggerSlot@WObject@@MAE_NPBVWSlot_@@PAPAX@Z 00469b20 f   libwt:WObject.obj
 0001:00068ba0       ?isConnected@WObject@@IBE_NPBVWSignalInstance_@@@Z 00469ba0 f   libwt:WObject.obj
 0001:00068be0       ?findConnectedNeedTriggerStaticSlot@WObject@@IAEPAVWSlotInstance_@@XZ 00469be0 f   libwt:WObject.obj
 0001:00068c20       ?erase@?$_Tree@V?$_Tmap_traits@V?$basic_string@DU?$char_traits@D@std@@V?$allocator@D@2@@std@@PAVWSignalInstance_@@U?$less@V?$basic_string@DU?$char_traits@D@std@@V?$allocator@D@2@@std@@@2@V?$allocator@U?$pair@$$CBV?$basic_string@DU?$char_traits@D@std@@V?$allocator@D@2@@std@@PAVWSignalInstance_@@@std@@@2@$0A@@std@@@std@@QAE?AViterator@12@V312@@Z 00469c20 f i libwt:WObject.obj
 0001:00068c20       ?erase@?$_Tree@V?$_Tmap_traits@V?$basic_string@DU?$char_traits@D@std@@V?$allocator@D@2@@std@@PAVWSlotInstance_@@U?$less@V?$basic_string@DU?$char_traits@D@std@@V?$allocator@D@2@@std@@@2@V?$allocator@U?$pair@$$CBV?$basic_string@DU?$char_traits@D@std@@V?$allocator@D@2@@std@@PAVWSlotInstance_@@@std@@@2@$0A@@std@@@std@@QAE?AViterator@12@V312@@Z 00469c20 f i libwt:WObject.obj
 0001:00068f00       ?_Erase@?$_Tree@V?$_Tmap_traits@V?$basic_string@DU?$char_traits@D@std@@V?$allocator@D@2@@std@@PAVWSlotInstance_@@U?$less@V?$basic_string@DU?$char_traits@D@std@@V?$allocator@D@2@@std@@@2@V?$allocator@U?$pair@$$CBV?$basic_string@DU?$char_traits@D@std@@V?$allocator@D@2@@std@@PAVWSlotInstance_@@@std@@@2@$0A@@std@@@std@@IAEXPAU_Node@?$_Tree_nod@V?$_Tmap_traits@V?$basic_string@DU?$char_traits@D@std@@V?$allocator@D@2@@std@@PAVWSlotInstance_@@U?$less@V?$basic_string@DU?$char_traits@D@std@@V?$allocator@D@2@@std@@@2@V?$allocator@U?$pair@$$CBV?$basic_string@DU?$char_traits@D@std@@V?$allocator@D@2@@std@@PAVWSlotInstance_@@@std@@@2@$0A@@std@@@2@@Z 00469f00 f i libwt:WObject.obj
 0001:00068f40       ?_Erase@?$_Tree@V?$_Tmap_traits@V?$basic_string@DU?$char_traits@D@std@@V?$allocator@D@2@@std@@PAVWSignalInstance_@@U?$less@V?$basic_string@DU?$char_traits@D@std@@V?$allocator@D@2@@std@@@2@V?$allocator@U?$pair@$$CBV?$basic_string@DU?$char_traits@D@std@@V?$allocator@D@2@@std@@PAVWSignalInstance_@@@std@@@2@$0A@@std@@@std@@IAEXPAU_Node@?$_Tree_nod@V?$_Tmap_traits@V?$basic_string@DU?$char_traits@D@std@@V?$allocator@D@2@@std@@PAVWSignalInstance_@@U?$less@V?$basic_string@DU?$char_traits@D@std@@V?$allocator@D@2@@std@@@2@V?$allocator@U?$pair@$$CBV?$basic_string@DU?$char_traits@D@std@@V?$allocator@D@2@@std@@PAVWSignalInstance_@@@std@@@2@$0A@@std@@@2@@Z 00469f40 f i libwt:WObject.obj
 0001:00068f80       ?erase@?$_Tree@V?$_Tmap_traits@V?$basic_string@DU?$char_traits@D@std@@V?$allocator@D@2@@std@@PAVWSlotInstance_@@U?$less@V?$basic_string@DU?$char_traits@D@std@@V?$allocator@D@2@@std@@@2@V?$allocator@U?$pair@$$CBV?$basic_string@DU?$char_traits@D@std@@V?$allocator@D@2@@std@@PAVWSlotInstance_@@@std@@@2@$0A@@std@@@std@@QAE?AViterator@12@V312@0@Z 00469f80 f i libwt:WObject.obj
 0001:00069040       ?erase@?$_Tree@V?$_Tmap_traits@V?$basic_string@DU?$char_traits@D@std@@V?$allocator@D@2@@std@@PAVWSignalInstance_@@U?$less@V?$basic_string@DU?$char_traits@D@std@@V?$allocator@D@2@@std@@@2@V?$allocator@U?$pair@$$CBV?$basic_string@DU?$char_traits@D@std@@V?$allocator@D@2@@std@@PAVWSignalInstance_@@@std@@@2@$0A@@std@@@std@@QAE?AViterator@12@V312@0@Z 0046a040 f i libwt:WObject.obj
 0001:00069100       ?buildSlotMap@WObject@@MAEXAAV?$map@V?$basic_string@DU?$char_traits@D@std@@V?$allocator@D@2@@std@@PAVWSlotInstance_@@U?$less@V?$basic_string@DU?$char_traits@D@std@@V?$allocator@D@2@@std@@@2@V?$allocator@U?$pair@$$CBV?$basic_string@DU?$char_traits@D@std@@V?$allocator@D@2@@std@@PAVWSlotInstance_@@@std@@@2@@std@@@Z 0046a100 f   libwt:WObject.obj
 0001:000691b0       ?buildSignalMap@WObject@@MAEXAAV?$map@V?$basic_string@DU?$char_traits@D@std@@V?$allocator@D@2@@std@@PAVWSignalInstance_@@U?$less@V?$basic_string@DU?$char_traits@D@std@@V?$allocator@D@2@@std@@@2@V?$allocator@U?$pair@$$CBV?$basic_string@DU?$char_traits@D@std@@V?$allocator@D@2@@std@@PAVWSignalInstance_@@@std@@@2@@std@@@Z 0046a1b0 f   libwt:WObject.obj
 0001:00069260       ?InsertMap@WObject@@SAXAAV?$map@V?$basic_string@DU?$char_traits@D@std@@V?$allocator@D@2@@std@@PAVWSlotInstance_@@U?$less@V?$basic_string@DU?$char_traits@D@std@@V?$allocator@D@2@@std@@@2@V?$allocator@U?$pair@$$CBV?$basic_string@DU?$char_traits@D@std@@V?$allocator@D@2@@std@@PAVWSlotInstance_@@@std@@@2@@std@@V?$basic_string@DU?$char_traits@D@std@@V?$allocator@D@2@@3@PAVWSlotInstance_@@@Z 0046a260 f   libwt:WObject.obj
 0001:000692c0       ??1?$map@V?$basic_string@DU?$char_traits@D@std@@V?$allocator@D@2@@std@@PAVWSignalInstance_@@U?$less@V?$basic_string@DU?$char_traits@D@std@@V?$allocator@D@2@@std@@@2@V?$allocator@U?$pair@$$CBV?$basic_string@DU?$char_traits@D@std@@V?$allocator@D@2@@std@@PAVWSignalInstance_@@@std@@@2@@std@@QAE@XZ 0046a2c0 f i libwt:WObject.obj
 0001:000692f0       ??1?$map@V?$basic_string@DU?$char_traits@D@std@@V?$allocator@D@2@@std@@PAVWSlotInstance_@@U?$less@V?$basic_string@DU?$char_traits@D@std@@V?$allocator@D@2@@std@@@2@V?$allocator@U?$pair@$$CBV?$basic_string@DU?$char_traits@D@std@@V?$allocator@D@2@@std@@PAVWSlotInstance_@@@std@@@2@@std@@QAE@XZ 0046a2f0 f i libwt:WObject.obj
 0001:00069320       ?getSignal@WObject@@IBEPAVWSignalInstance_@@V?$basic_string@DU?$char_traits@D@std@@V?$allocator@D@2@@std@@@Z 0046a320 f   libwt:WObject.obj
 0001:00069470       ?getSlot@WObject@@IBEPAVWSlotInstance_@@V?$basic_string@DU?$char_traits@D@std@@V?$allocator@D@2@@std@@@Z 0046a470 f   libwt:WObject.obj
 0001:00069580       ?staticSlotChanged@WObject@@QAEXV?$basic_string@DU?$char_traits@D@std@@V?$allocator@D@2@@std@@@Z 0046a580 f   libwt:WObject.obj
 0001:000695f0       ?connect@WObject@@QBE_NPBV1@PBD1W4ConnectionType@1@@Z 0046a5f0 f   libwt:WObject.obj
 0001:000696d0       ?connect@WObject@@QBE_NPBV1@PBD11W4ConnectionType@1@@Z 0046a6d0 f   libwt:WObject.obj
 0001:000697a0       ?connect@WObject@@SA_NPBV1@PBD101W4ConnectionType@1@@Z 0046a7a0 f   libwt:WObject.obj
 0001:000697d0       ?connect@WObject@@SA_NPBV1@PBD01W4ConnectionType@1@@Z 0046a7d0 f   libwt:WObject.obj
 0001:000697f0       ?triggerSignal@WObject@@IAEXPBVWSignal_@@PAPAX@Z 0046a7f0 f   libwt:WObject.obj
 0001:00069880       ?destroyed@WObject@@UAEXPAV1@@Z 0046a880 f   libwt:WObject.obj
 0001:000698a0       ??1WObject@@UAE@XZ         0046a8a0 f   libwt:WObject.obj
 0001:000699d0       ??_EWObject@@UAEPAXI@Z     0046a9d0 f i libwt:WObject.obj
 0001:00069a30       ?triggerSlot@WWidget@@MAE_NPAVWObject@@PBVWSlot_@@PAPAX@Z 0046aa30 f   libwt:WWidget.obj
 0001:00069a80       ?undoTriggerSlot@WWidget@@MAE_NPBVWSlot_@@PAPAX@Z 0046aa80 f   libwt:WWidget.obj
 0001:00069ac0       ??0WWidget@@QAE@XZ         0046aac0 f   libwt:WWidget.obj
 0001:00069ae0       ??1WWidget@@UAE@XZ         0046aae0 f   libwt:WWidget.obj
 0001:00069af0       ?resourceMimeType@WWidget@@MBE?AV?$basic_string@DU?$char_traits@D@std@@V?$allocator@D@2@@std@@XZ 0046aaf0 f   libwt:WWidget.obj
 0001:00069b20       ?streamResourceData@WWidget@@MAEXPAUFCGI_FILE@@@Z 0046ab20 f   libwt:WWidget.obj
 0001:00069bf0       ??_EWWidget@@UAEPAXI@Z     0046abf0 f i libwt:WWidget.obj
 0001:00069c50       ?updateStaticSlotCode@WWidget@@IAEXPAVWWebWidget@@AAVJavaScript@@@Z 0046ac50 f   libwt:WWidget.obj
 0001:00069f10       ?buildSlotMap@WWidget@@MAEXAAV?$map@V?$basic_string@DU?$char_traits@D@std@@V?$allocator@D@2@@std@@PAVWSlotInstance_@@U?$less@V?$basic_string@DU?$char_traits@D@std@@V?$allocator@D@2@@std@@@2@V?$allocator@U?$pair@$$CBV?$basic_string@DU?$char_traits@D@std@@V?$allocator@D@2@@std@@PAVWSlotInstance_@@@std@@@2@@std@@@Z 0046af10 f   libwt:WWidget.obj
 0001:00069fd0       ?buildSignalMap@WWidget@@MAEXAAV?$map@V?$basic_string@DU?$char_traits@D@std@@V?$allocator@D@2@@std@@PAVWSignalInstance_@@U?$less@V?$basic_string@DU?$char_traits@D@std@@V?$allocator@D@2@@std@@@2@V?$allocator@U?$pair@$$CBV?$basic_string@DU?$char_traits@D@std@@V?$allocator@D@2@@std@@PAVWSignalInstance_@@@std@@@2@@std@@@Z 0046afd0 f   libwt:WWidget.obj
 0001:0006a090       ?invalidateStaticCode@WSlotInstance_@@QAEXXZ 0046b090 f   libwt:WSlotInstance_.obj
 0001:0006a0a0       ?trigger@WSlotInstance_@@QAE_NPAVWObject@@PAPAX@Z 0046b0a0 f   libwt:WSlotInstance_.obj
 0001:0006a0c0       ?undoTrigger@WSlotInstance_@@QAEXPAPAX@Z 0046b0c0 f   libwt:WSlotInstance_.obj
 0001:0006a0e0       ?needTriggerStatic@WSlotInstance_@@QBE_NXZ 0046b0e0 f   libwt:WSlotInstance_.obj
 0001:0006a100       ?setStaticCode@WSlotInstance_@@QAEXV?$basic_string@DU?$char_traits@D@std@@V?$allocator@D@2@@std@@@Z 0046b100 f   libwt:WSlotInstance_.obj
 0001:0006a180       ?_Insert_n@?$vector@PAVWConnection_@@V?$allocator@PAVWConnection_@@@std@@@std@@IAEXViterator@12@IABQAVWConnection_@@@Z 0046b180 f i libwt:WSlotInstance_.obj
 0001:0006a370       ??0WSlotInstance_@@QAE@PAVWObject@@PAVWSlot_@@@Z 0046b370 f   libwt:WSlotInstance_.obj
 0001:0006a3e0       ??1WSlotInstance_@@QAE@XZ  0046b3e0 f   libwt:WSlotInstance_.obj
 0001:0006a480       ?removeConnection@WSlotInstance_@@QAEXPAVWConnection_@@@Z 0046b480 f   libwt:WSlotInstance_.obj
 0001:0006a510       ?addConnection@WSlotInstance_@@QAEXPAVWConnection_@@@Z 0046b510 f   libwt:WSlotInstance_.obj
 0001:0006a560       ?SetJsVal@WSignalInstance_@@QAEXPBDW4ConnectionType@WObject@@@Z 0046b560 f   libwt:WSignalInstance_.obj
 0001:0006a580       ?setStaticCodeChanged@WSignalInstance_@@AAEXXZ 0046b580 f   libwt:WSignalInstance_.obj
 0001:0006a590       ?connectivityOk@WSignalInstance_@@QAEXXZ 0046b590 f   libwt:WSignalInstance_.obj
 0001:0006a5a0       ?encodeCmd@WSignalInstance_@@QBE?BV?$basic_string@DU?$char_traits@D@std@@V?$allocator@D@2@@std@@XZ 0046b5a0 f   libwt:WSignalInstance_.obj
 0001:0006a5f0       ?decodeSignal@WSignalInstance_@@SAPAV1@V?$basic_string@DU?$char_traits@D@std@@V?$allocator@D@2@@std@@@Z 0046b5f0 f   libwt:WSignalInstance_.obj
 0001:0006a6a0       ?connect@WSignalInstance_@@AAE_NPAVWSlotInstance_@@W4ConnectionType@WObject@@@Z 0046b6a0 f   libwt:WSignalInstance_.obj
 0001:0006a740       ?trigger@WSignalInstance_@@ABEXW4ConnectionType@WObject@@PAPAX@Z 0046b740 f   libwt:WSignalInstance_.obj
 0001:0006a7f0       ?getStaticCode@WSignalInstance_@@ABEXAAV?$basic_string@DU?$char_traits@D@std@@V?$allocator@D@2@@std@@@Z 0046b7f0 f   libwt:WSignalInstance_.obj
 0001:0006a880       ?findConnectedNeedTriggerStaticSlot@WSignalInstance_@@ABEPAVWSlotInstance_@@XZ 0046b880 f   libwt:WSignalInstance_.obj
 0001:0006a8d0       ??0WSignalInstance_@@QAE@PAVWObject@@PAVWSignal_@@@Z 0046b8d0 f   libwt:WSignalInstance_.obj
 0001:0006a940       ??1WSignalInstance_@@QAE@XZ 0046b940 f   libwt:WSignalInstance_.obj
 0001:0006a9f0       ?removeConnection@WSignalInstance_@@AAEXPAVWConnection_@@@Z 0046b9f0 f   libwt:WSignalInstance_.obj
 0001:0006aaa0       ?addConnection@WSignalInstance_@@AAEXPAVWConnection_@@@Z 0046baa0 f   libwt:WSignalInstance_.obj
 0001:0006ab50       ??0WSlot_@@QAE@V?$basic_string@DU?$char_traits@D@std@@V?$allocator@D@2@@std@@_N@Z 0046bb50 f   libwt:WSlot_.obj
 0001:0006abb0       ??0WSignal_@@QAE@XZ        0046bbb0 f   libwt:WSignal_.obj
 0001:0006abb0       ??0WMessage@@QAE@XZ        0046bbb0 f   libwt:WMessage.obj
 0001:0006abb0       ??0WSlot_@@QAE@XZ          0046bbb0 f   libwt:WSlot_.obj
 0001:0006abc0       ??0WSignal_@@QAE@V?$basic_string@DU?$char_traits@D@std@@V?$allocator@D@2@@std@@_N@Z 0046bbc0 f   libwt:WSignal_.obj
 0001:0006ac20       ?triggerSlot@WScrollArea@@MAE_NPAVWObject@@PBVWSlot_@@PAPAX@Z 0046bc20 f   libwt:WScrollArea.obj
 0001:0006ac30       ?undoTriggerSlot@WScrollArea@@MAE_NPBVWSlot_@@PAPAX@Z 0046bc30 f   libwt:WScrollArea.obj
 0001:0006ac30       ?undoTriggerSlot@WInteractWidget@@MAE_NPBVWSlot_@@PAPAX@Z 0046bc30 f   libwt:WInteractWidget.obj
 0001:0006ac40       ??0WScrollArea@@QAE@PAVWContainerWidget@@@Z 0046bc40 f   libwt:WScrollArea.obj
 0001:0006ad20       ??1WScrollArea@@UAE@XZ     0046bd20 f   libwt:WScrollArea.obj
 0001:0006ad90       ?scrollBarChanged@WScrollArea@@AAEXXZ 0046bd90 f   libwt:WScrollArea.obj
 0001:0006ada0       ?setWidget@WScrollArea@@QAEXPAVWWidget@@@Z 0046bda0 f   libwt:WScrollArea.obj
 0001:0006adf0       ?takeWidget@WScrollArea@@QAEPAVWWidget@@XZ 0046bdf0 f   libwt:WScrollArea.obj
 0001:0006ae30       ?setScrollBarPolicy@WScrollArea@@QAEXW4ScrollBarPolicy@1@@Z 0046be30 f   libwt:WScrollArea.obj
 0001:0006ae50       ?updateDom@WScrollArea@@MAEXAAVDomElement@@_N@Z 0046be50 f   libwt:WScrollArea.obj
 0001:0006af70       ?createDomElement@WScrollArea@@MAEPAVDomElement@@XZ 0046bf70 f   libwt:WScrollArea.obj
 0001:0006afa0       ?_Xlen@?$vector@PAVWScrollBar@@V?$allocator@PAVWScrollBar@@@std@@@std@@IBEXXZ 0046bfa0 f i libwt:WScrollArea.obj
 0001:0006b020       ??_EWScrollArea@@UAEPAXI@Z 0046c020 f i libwt:WScrollArea.obj
 0001:0006b080       ?_Buy@?$vector@PAVWScrollBar@@V?$allocator@PAVWScrollBar@@@std@@@std@@IAE_NI@Z 0046c080 f i libwt:WScrollArea.obj
 0001:0006b0d0       ??4?$vector@PAVWScrollBar@@V?$allocator@PAVWScrollBar@@@std@@@std@@QAEAAV01@ABV01@@Z 0046c0d0 f i libwt:WScrollArea.obj
 0001:0006b220       ??4WScrollBar@@QAEAAV0@ABV0@@Z 0046c220 f i libwt:WScrollArea.obj
 0001:0006b280       ?getDomChanges@WScrollArea@@MAEXAAV?$vector@PAVDomElement@@V?$allocator@PAVDomElement@@@std@@@std@@@Z 0046c280 f   libwt:WScrollArea.obj
 0001:0006b2e0       ?buildSlotMap@WScrollArea@@MAEXAAV?$map@V?$basic_string@DU?$char_traits@D@std@@V?$allocator@D@2@@std@@PAVWSlotInstance_@@U?$less@V?$basic_string@DU?$char_traits@D@std@@V?$allocator@D@2@@std@@@2@V?$allocator@U?$pair@$$CBV?$basic_string@DU?$char_traits@D@std@@V?$allocator@D@2@@std@@PAVWSlotInstance_@@@std@@@2@@std@@@Z 0046c2e0 f   libwt:WScrollArea.obj
 0001:0006b3a0       ?buildSignalMap@WScrollArea@@MAEXAAV?$map@V?$basic_string@DU?$char_traits@D@std@@V?$allocator@D@2@@std@@PAVWSignalInstance_@@U?$less@V?$basic_string@DU?$char_traits@D@std@@V?$allocator@D@2@@std@@@2@V?$allocator@U?$pair@$$CBV?$basic_string@DU?$char_traits@D@std@@V?$allocator@D@2@@std@@PAVWSignalInstance_@@@std@@@2@@std@@@Z 0046c3a0 f   libwt:WScrollArea.obj
 0001:0006b460       ??_EWAbstractToggleButton@@UAEPAXI@Z 0046c460 f i libwt:WAbstractToggleButton.obj
 0001:0006b4c0       ?checked@WAbstractToggleButton@@QAEXXZ 0046c4c0 f   libwt:WAbstractToggleButton.obj
 0001:0006b4d0       ?unChecked@WAbstractToggleButton@@QAEXXZ 0046c4d0 f   libwt:WAbstractToggleButton.obj
 0001:0006b4e0       ??0WAbstractToggleButton@@QAE@PAVWContainerWidget@@@Z 0046c4e0 f   libwt:WAbstractToggleButton.obj
 0001:0006b570       ??0WAbstractToggleButton@@QAE@V?$basic_string@DU?$char_traits@D@std@@V?$allocator@D@2@@std@@PAVWContainerWidget@@@Z 0046c570 f   libwt:WAbstractToggleButton.obj
 0001:0006b630       ??0WAbstractToggleButton@@QAE@ABVWMessage@@PAVWContainerWidget@@@Z 0046c630 f   libwt:WAbstractToggleButton.obj
 0001:0006b6c0       ?setText@WAbstractToggleButton@@QAEXV?$basic_string@DU?$char_traits@D@std@@V?$allocator@D@2@@std@@@Z 0046c6c0 f   libwt:WAbstractToggleButton.obj
 0001:0006b730       ?setChecked@WAbstractToggleButton@@QAEX_N@Z 0046c730 f   libwt:WAbstractToggleButton.obj
 0001:0006b780       ?setChecked@WAbstractToggleButton@@QAEXXZ 0046c780 f   libwt:WAbstractToggleButton.obj
 0001:0006b7c0       ?setUnChecked@WAbstractToggleButton@@QAEXXZ 0046c7c0 f   libwt:WAbstractToggleButton.obj
 0001:0006b800       ?undoSetChecked@WAbstractToggleButton@@AAEXXZ 0046c800 f   libwt:WAbstractToggleButton.obj
 0001:0006b800       ?undoSetUnChecked@WAbstractToggleButton@@AAEXXZ 0046c800 f   libwt:WAbstractToggleButton.obj
 0001:0006b840       ?setFormData@WAbstractToggleButton@@MAEXPBDH0@Z 0046c840 f   libwt:WAbstractToggleButton.obj
 0001:0006b8d0       ?setNoFormData@WAbstractToggleButton@@MAEXXZ 0046c8d0 f   libwt:WAbstractToggleButton.obj
 0001:0006b8f0       ?triggerSlot@WAbstractToggleButton@@MAE_NPAVWObject@@PBVWSlot_@@PAPAX@Z 0046c8f0 f   libwt:WAbstractToggleButton.obj
 0001:0006b9c0       ?undoTriggerSlot@WAbstractToggleButton@@MAE_NPBVWSlot_@@PAPAX@Z 0046c9c0 f   libwt:WAbstractToggleButton.obj
 0001:0006ba40       ?updateDom@WAbstractToggleButton@@MAEXAAVDomElement@@_N@Z 0046ca40 f   libwt:WAbstractToggleButton.obj
 0001:0006bd30       ?buildSlotMap@WAbstractToggleButton@@MAEXAAV?$map@V?$basic_string@DU?$char_traits@D@std@@V?$allocator@D@2@@std@@PAVWSlotInstance_@@U?$less@V?$basic_string@DU?$char_traits@D@std@@V?$allocator@D@2@@std@@@2@V?$allocator@U?$pair@$$CBV?$basic_string@DU?$char_traits@D@std@@V?$allocator@D@2@@std@@PAVWSlotInstance_@@@std@@@2@@std@@@Z 0046cd30 f   libwt:WAbstractToggleButton.obj
 0001:0006bdf0       ?buildSignalMap@WAbstractToggleButton@@MAEXAAV?$map@V?$basic_string@DU?$char_traits@D@std@@V?$allocator@D@2@@std@@PAVWSignalInstance_@@U?$less@V?$basic_string@DU?$char_traits@D@std@@V?$allocator@D@2@@std@@@2@V?$allocator@U?$pair@$$CBV?$basic_string@DU?$char_traits@D@std@@V?$allocator@D@2@@std@@PAVWSignalInstance_@@@std@@@2@@std@@@Z 0046cdf0 f   libwt:WAbstractToggleButton.obj
 0001:0006beb0       ??_EWRadioButton@@UAEPAXI@Z 0046ceb0 f i libwt:WRadioButton.obj
 0001:0006bf10       ?triggerSlot@WCheckBox@@MAE_NPAVWObject@@PBVWSlot_@@PAPAX@Z 0046cf10 f   libwt:WCheckBox.obj
 0001:0006bf10       ?triggerSlot@WRadioButton@@MAE_NPAVWObject@@PBVWSlot_@@PAPAX@Z 0046cf10 f   libwt:WRadioButton.obj
 0001:0006bf20       ??0WRadioButton@@QAE@PAVWContainerWidget@@@Z 0046cf20 f   libwt:WRadioButton.obj
 0001:0006bf80       ??0WRadioButton@@QAE@V?$basic_string@DU?$char_traits@D@std@@V?$allocator@D@2@@std@@PAVWContainerWidget@@@Z 0046cf80 f   libwt:WRadioButton.obj
 0001:0006c010       ?updateDom@WRadioButton@@MAEXAAVDomElement@@_N@Z 0046d010 f   libwt:WRadioButton.obj
 0001:0006c020       ?createDomElement@WRadioButton@@MAEPAVDomElement@@XZ 0046d020 f   libwt:WRadioButton.obj
 0001:0006c110       ?setGroup@WRadioButton@@AAEXPAVWButtonGroup@@@Z 0046d110 f   libwt:WRadioButton.obj
 0001:0006c120       ?getDomChanges@WRadioButton@@MAEXAAV?$vector@PAVDomElement@@V?$allocator@PAVDomElement@@@std@@@std@@@Z 0046d120 f   libwt:WRadioButton.obj
 0001:0006c120       ?getDomChanges@WPushButton@@MAEXAAV?$vector@PAVDomElement@@V?$allocator@PAVDomElement@@@std@@@std@@@Z 0046d120 f   libwt:WPushButton.obj
 0001:0006c120       ?getDomChanges@WLineEdit@@MAEXAAV?$vector@PAVDomElement@@V?$allocator@PAVDomElement@@@std@@@std@@@Z 0046d120 f   libwt:WLineEdit.obj
 0001:0006c120       ?getDomChanges@WCheckBox@@UAEXAAV?$vector@PAVDomElement@@V?$allocator@PAVDomElement@@@std@@@std@@@Z 0046d120 f   libwt:WCheckBox.obj
 0001:0006c160       ?buildSlotMap@WRadioButton@@MAEXAAV?$map@V?$basic_string@DU?$char_traits@D@std@@V?$allocator@D@2@@std@@PAVWSlotInstance_@@U?$less@V?$basic_string@DU?$char_traits@D@std@@V?$allocator@D@2@@std@@@2@V?$allocator@U?$pair@$$CBV?$basic_string@DU?$char_traits@D@std@@V?$allocator@D@2@@std@@PAVWSlotInstance_@@@std@@@2@@std@@@Z 0046d160 f   libwt:WRadioButton.obj
 0001:0006c220       ?buildSignalMap@WRadioButton@@MAEXAAV?$map@V?$basic_string@DU?$char_traits@D@std@@V?$allocator@D@2@@std@@PAVWSignalInstance_@@U?$less@V?$basic_string@DU?$char_traits@D@std@@V?$allocator@D@2@@std@@@2@V?$allocator@U?$pair@$$CBV?$basic_string@DU?$char_traits@D@std@@V?$allocator@D@2@@std@@PAVWSignalInstance_@@@std@@@2@@std@@@Z 0046d220 f   libwt:WRadioButton.obj
 0001:0006c2e0       ?row@WTableCell@@QBEHXZ    0046d2e0 f   libwt:WTableCell.obj
 0001:0006c2f0       ?setRowSpan@WTableCell@@QAEXH@Z 0046d2f0 f   libwt:WTableCell.obj
 0001:0006c340       ?setColumnSpan@WTableCell@@QAEXH@Z 0046d340 f   libwt:WTableCell.obj
 0001:0006c390       ?setContentAlignment@WTableCell@@QAEXH@Z 0046d390 f   libwt:WTableCell.obj
 0001:0006c3e0       ?contentAlignment@WTableCell@@QBEHXZ 0046d3e0 f   libwt:WTableCell.obj
 0001:0006c400       ?SetMouseMove@WTableCell@@QAEXV?$basic_string@DU?$char_traits@D@std@@V?$allocator@D@2@@std@@0@Z 0046d400 f   libwt:WTableCell.obj
 0001:0006c450       ?createDomElement@WTableCell@@MAEPAVDomElement@@XZ 0046d450 f   libwt:WTableCell.obj
 0001:0006c6d0       ??_EWTableCell@@UAEPAXI@Z  0046d6d0 f i libwt:WTableCell.obj
 0001:0006c730       ??0WTableCell@@AAE@PAVWTableRow@@H@Z 0046d730 f   libwt:WTableCell.obj
 0001:0006c7c0       ?buildSlotMap@WTableCell@@MAEXAAV?$map@V?$basic_string@DU?$char_traits@D@std@@V?$allocator@D@2@@std@@PAVWSlotInstance_@@U?$less@V?$basic_string@DU?$char_traits@D@std@@V?$allocator@D@2@@std@@@2@V?$allocator@U?$pair@$$CBV?$basic_string@DU?$char_traits@D@std@@V?$allocator@D@2@@std@@PAVWSlotInstance_@@@std@@@2@@std@@@Z 0046d7c0 f   libwt:WTableCell.obj
 0001:0006c880       ?buildSignalMap@WTableCell@@MAEXAAV?$map@V?$basic_string@DU?$char_traits@D@std@@V?$allocator@D@2@@std@@PAVWSignalInstance_@@U?$less@V?$basic_string@DU?$char_traits@D@std@@V?$allocator@D@2@@std@@@2@V?$allocator@U?$pair@$$CBV?$basic_string@DU?$char_traits@D@std@@V?$allocator@D@2@@std@@PAVWSignalInstance_@@@std@@@2@@std@@@Z 0046d880 f   libwt:WTableCell.obj
 0001:0006c940       ??0WTextArea@@QAE@V?$basic_string@DU?$char_traits@D@std@@V?$allocator@D@2@@std@@PAVWContainerWidget@@@Z 0046d940 f   libwt:WTextArea.obj
 0001:0006c9f0       ?setText@WTextArea@@QAEXV?$basic_string@DU?$char_traits@D@std@@V?$allocator@D@2@@std@@@Z 0046d9f0 f   libwt:WTextArea.obj
 0001:0006ca60       ?setRows@WTextArea@@QAEXH@Z 0046da60 f   libwt:WTextArea.obj
 0001:0006ca80       ?createDomElement@WTextArea@@MAEPAVDomElement@@XZ 0046da80 f   libwt:WTextArea.obj
 0001:0006cab0       ??_EWTextArea@@UAEPAXI@Z   0046dab0 f i libwt:WTextArea.obj
 0001:0006cab0       ??_GWTextArea@@UAEPAXI@Z   0046dab0 f i libwt:WTextArea.obj
 0001:0006cad0       ??1WTextArea@@UAE@XZ       0046dad0 f i libwt:WTextArea.obj
 0001:0006cb20       ?updateDom@WTextArea@@MAEXAAVDomElement@@_N@Z 0046db20 f   libwt:WTextArea.obj
 0001:0006cc70       ?getDomChanges@WTextArea@@MAEXAAV?$vector@PAVDomElement@@V?$allocator@PAVDomElement@@@std@@@std@@@Z 0046dc70 f   libwt:WTextArea.obj
 0001:0006ccb0       ??$copy_backward@PAPAVWMessageResources@@PAPAV1@@std@@YAPAPAVWMessageResources@@PAPAV1@00@Z 0046dcb0 f i libwt:WMessageResourceBundle.obj
 0001:0006ccb0       ??$copy_backward@PAPAVWTableRow@@PAPAV1@@std@@YAPAPAVWTableRow@@PAPAV1@00@Z 0046dcb0 f i libwt:WTable.obj
 0001:0006ccb0       ??$copy_backward@PAPAVWScrollBar@@PAPAV1@@std@@YAPAPAVWScrollBar@@PAPAV1@00@Z 0046dcb0 f i libwt:WScrollBar.obj
 0001:0006ccb0       ??$copy_backward@PAPAVWConnection_@@PAPAV1@@std@@YAPAPAVWConnection_@@PAPAV1@00@Z 0046dcb0 f i libwt:WSlotInstance_.obj
 0001:0006ccb0       ??$copy_backward@PAPAVWRadioButton@@PAPAV1@@std@@YAPAPAVWRadioButton@@PAPAV1@00@Z 0046dcb0 f i libwt:WButtonGroup.obj
 0001:0006ccb0       ??$copy_backward@PAPAVWWidget@@PAPAV1@@std@@YAPAPAVWWidget@@PAPAV1@00@Z 0046dcb0 f i libwt:WWebWidget.obj
 0001:0006ccb0       ??$copy_backward@PAPAVDomElement@@PAPAV1@@std@@YAPAPAVDomElement@@PAPAV1@00@Z 0046dcb0 f i libwt:WWebWidget.obj
 0001:0006ccb0       ??$copy_backward@PAPAVWObject@@PAPAV1@@std@@YAPAPAVWObject@@PAPAV1@00@Z 0046dcb0 f i libwt:WWebWidget.obj
 0001:0006ccb0       ??$copy_backward@PAJPAJ@std@@YAPAJPAJ00@Z 0046dcb0 f i libboost_regex-vc71-mt-1_33_1:instances.obj
 0001:0006cce0       ?_Insert_n@?$vector@PAVWRadioButton@@V?$allocator@PAVWRadioButton@@@std@@@std@@IAEXViterator@12@IABQAVWRadioButton@@@Z 0046dce0 f i libwt:WButtonGroup.obj
 0001:0006ced0       ??0WButtonGroup@@QAE@XZ    0046ded0 f   libwt:WButtonGroup.obj
 0001:0006cf20       ??1WButtonGroup@@UAE@XZ    0046df20 f   libwt:WButtonGroup.obj
 0001:0006cfc0       ?removeButton@WButtonGroup@@QAEXPAVWRadioButton@@@Z 0046dfc0 f   libwt:WButtonGroup.obj
 0001:0006d010       ??_EWButtonGroup@@UAEPAXI@Z 0046e010 f i libwt:WButtonGroup.obj
 0001:0006d070       ?addButton@WButtonGroup@@QAEXPAVWRadioButton@@@Z 0046e070 f   libwt:WButtonGroup.obj
 0001:0006d0e0       ?buildSlotMap@WButtonGroup@@MAEXAAV?$map@V?$basic_string@DU?$char_traits@D@std@@V?$allocator@D@2@@std@@PAVWSlotInstance_@@U?$less@V?$basic_string@DU?$char_traits@D@std@@V?$allocator@D@2@@std@@@2@V?$allocator@U?$pair@$$CBV?$basic_string@DU?$char_traits@D@std@@V?$allocator@D@2@@std@@PAVWSlotInstance_@@@std@@@2@@std@@@Z 0046e0e0 f   libwt:WButtonGroup.obj
 0001:0006d1a0       ?buildSignalMap@WButtonGroup@@MAEXAAV?$map@V?$basic_string@DU?$char_traits@D@std@@V?$allocator@D@2@@std@@PAVWSignalInstance_@@U?$less@V?$basic_string@DU?$char_traits@D@std@@V?$allocator@D@2@@std@@@2@V?$allocator@U?$pair@$$CBV?$basic_string@DU?$char_traits@D@std@@V?$allocator@D@2@@std@@PAVWSignalInstance_@@@std@@@2@@std@@@Z 0046e1a0 f   libwt:WButtonGroup.obj
 0001:0006d260       ??_EWCheckBox@@UAEPAXI@Z   0046e260 f i libwt:WCheckBox.obj
 0001:0006d2c0       ?undoTriggerSlot@WCheckBox@@MAE_NPBVWSlot_@@PAPAX@Z 0046e2c0 f   libwt:WCheckBox.obj
 0001:0006d2c0       ?undoTriggerSlot@WRadioButton@@MAE_NPBVWSlot_@@PAPAX@Z 0046e2c0 f   libwt:WRadioButton.obj
 0001:0006d2d0       ??0WCheckBox@@QAE@PAVWContainerWidget@@@Z 0046e2d0 f   libwt:WCheckBox.obj
 0001:0006d330       ??0WCheckBox@@QAE@V?$basic_string@DU?$char_traits@D@std@@V?$allocator@D@2@@std@@PAVWContainerWidget@@@Z 0046e330 f   libwt:WCheckBox.obj
 0001:0006d3f0       ?setParent@WCheckBox@@MAEXPAVWWidget@@@Z 0046e3f0 f   libwt:WCheckBox.obj
 0001:0006d430       ?SetCheck@WCheckBox@@QAEX_N@Z 0046e430 f   libwt:WCheckBox.obj
 0001:0006d450       ?SetId@WCheckBox@@QAEXPAD@Z 0046e450 f   libwt:WCheckBox.obj
 0001:0006d460       ?updateDom@WCheckBox@@MAEXAAVDomElement@@_N@Z 0046e460 f   libwt:WCheckBox.obj
 0001:0006d490       ?createDomElement@WCheckBox@@MAEPAVDomElement@@XZ 0046e490 f   libwt:WCheckBox.obj
 0001:0006d580       ?buildSlotMap@WCheckBox@@MAEXAAV?$map@V?$basic_string@DU?$char_traits@D@std@@V?$allocator@D@2@@std@@PAVWSlotInstance_@@U?$less@V?$basic_string@DU?$char_traits@D@std@@V?$allocator@D@2@@std@@@2@V?$allocator@U?$pair@$$CBV?$basic_string@DU?$char_traits@D@std@@V?$allocator@D@2@@std@@PAVWSlotInstance_@@@std@@@2@@std@@@Z 0046e580 f   libwt:WCheckBox.obj
 0001:0006d640       ?buildSignalMap@WCheckBox@@MAEXAAV?$map@V?$basic_string@DU?$char_traits@D@std@@V?$allocator@D@2@@std@@PAVWSignalInstance_@@U?$less@V?$basic_string@DU?$char_traits@D@std@@V?$allocator@D@2@@std@@@2@V?$allocator@U?$pair@$$CBV?$basic_string@DU?$char_traits@D@std@@V?$allocator@D@2@@std@@PAVWSignalInstance_@@@std@@@2@@std@@@Z 0046e640 f   libwt:WCheckBox.obj
 0001:0006d700       ?undoTriggerSlot@CEccMonitorView@@MAE_NPBVWSlot_@@PAPAX@Z 0046e700 f   monitorviewwt.obj
 0001:0006d700       ?undoTriggerSlot@CEccEidtSVSE@@MAE_NPBVWSlot_@@PAPAX@Z 0046e700 f   addsvsewt.obj
 0001:0006d700       ?undoTriggerSlot@WStackedWidget@@MAE_NPBVWSlot_@@PAPAX@Z 0046e700 f   libwt:WStackedWidget.obj
 0001:0006d700       ?undoTriggerSlot@CEccMainView@@MAE_NPBVWSlot_@@PAPAX@Z 0046e700 f   mainviewwt.obj
 0001:0006d700       ?undoTriggerSlot@CEccImportButton@@MAE_NPBVWSlot_@@PAPAX@Z 0046e700 f   pushbuttonwt.obj
 0001:0006d700       ?undoTriggerSlot@WTableRow@@MAE_NPBVWSlot_@@PAPAX@Z 0046e700 f   libwt:WTable.obj
 0001:0006d700       ?undoTriggerSlot@CEccRightView@@MAE_NPBVWSlot_@@PAPAX@Z 0046e700 f   rightviewwt.obj
 0001:0006d700       ?undoTriggerSlot@CEccButton@@MAE_NPBVWSlot_@@PAPAX@Z 0046e700 f   pushbuttonwt.obj
 0001:0006d700       ?undoTriggerSlot@CEccGenTitle@@MAE_NPBVWSlot_@@PAPAX@Z 0046e700 f   gentitlewt.obj
 0001:0006d700       ?undoTriggerSlot@CEccTreeView@@MAE_NPBVWSlot_@@PAPAX@Z 0046e700 f   treeviewwt.obj
 0001:0006d700       ?undoTriggerSlot@CEccGroupView@@MAE_NPBVWSlot_@@PAPAX@Z 0046e700 f   groupviewwt.obj
 0001:0006d700       ?undoTriggerSlot@CEccBaseTable@@MAE_NPBVWSlot_@@PAPAX@Z 0046e700 f   ecctablewt.obj
 0001:0006d700       ?undoTriggerSlot@SVConditionParam@@MAE_NPBVWSlot_@@PAPAX@Z 0046e700 f   conditionparamwt.obj
 0001:0006d700       ?undoTriggerSlot@CEccAdvanceTable@@MAE_NPBVWSlot_@@PAPAX@Z 0046e700 f   advanceparamwt.obj
 0001:0006d700       ?undoTriggerSlot@CEccStateDesc@@MAE_NPBVWSlot_@@PAPAX@Z 0046e700 f   statedescwt.obj
 0001:0006d700       ?undoTriggerSlot@WTableCell@@MAE_NPBVWSlot_@@PAPAX@Z 0046e700 f   libwt:WTableCell.obj
 0001:0006d700       ?undoTriggerSlot@CEccListTable@@MAE_NPBVWSlot_@@PAPAX@Z 0046e700 f   listtablewt.obj
 0001:0006d700       ?undoTriggerSlot@CEccSVSEView@@MAE_NPBVWSlot_@@PAPAX@Z 0046e700 f   svseviewwt.obj
 0001:0006d710       ?count@WStackedWidget@@QBEHXZ 0046e710 f   libwt:WStackedWidget.obj
 0001:0006d730       ?currentWidget@WStackedWidget@@QBEPAVWWidget@@XZ 0046e730 f   libwt:WStackedWidget.obj
 0001:0006d750       ?indexOf@WStackedWidget@@QBEHPAVWWidget@@@Z 0046e750 f   libwt:WStackedWidget.obj
 0001:0006d780       ?widget@WStackedWidget@@QBEPAVWWidget@@H@Z 0046e780 f   libwt:WStackedWidget.obj
 0001:0006d7a0       ?setCurrentIndex@WStackedWidget@@QAEXH@Z 0046e7a0 f   libwt:WStackedWidget.obj
 0001:0006d7f0       ?setCurrentWidget@WStackedWidget@@QAEXPAVWWidget@@@Z 0046e7f0 f   libwt:WStackedWidget.obj
 0001:0006d830       ??_EWStackedWidget@@UAEPAXI@Z 0046e830 f i libwt:WStackedWidget.obj
 0001:0006d890       ?triggerSlot@WStackedWidget@@MAE_NPAVWObject@@PBVWSlot_@@PAPAX@Z 0046e890 f   libwt:WStackedWidget.obj
 0001:0006d8e0       ??0WStackedWidget@@QAE@PAVWContainerWidget@@@Z 0046e8e0 f   libwt:WStackedWidget.obj
 0001:0006d940       ?removeWidget@WStackedWidget@@UAEXPAVWWidget@@@Z 0046e940 f   libwt:WStackedWidget.obj
 0001:0006d9f0       ?insertWidget@WStackedWidget@@QAEHHPAVWWidget@@@Z 0046e9f0 f   libwt:WStackedWidget.obj
 0001:0006da50       ?buildSlotMap@WStackedWidget@@MAEXAAV?$map@V?$basic_string@DU?$char_traits@D@std@@V?$allocator@D@2@@std@@PAVWSlotInstance_@@U?$less@V?$basic_string@DU?$char_traits@D@std@@V?$allocator@D@2@@std@@@2@V?$allocator@U?$pair@$$CBV?$basic_string@DU?$char_traits@D@std@@V?$allocator@D@2@@std@@PAVWSlotInstance_@@@std@@@2@@std@@@Z 0046ea50 f   libwt:WStackedWidget.obj
 0001:0006db10       ?buildSignalMap@WStackedWidget@@MAEXAAV?$map@V?$basic_string@DU?$char_traits@D@std@@V?$allocator@D@2@@std@@PAVWSignalInstance_@@U?$less@V?$basic_string@DU?$char_traits@D@std@@V?$allocator@D@2@@std@@@2@V?$allocator@U?$pair@$$CBV?$basic_string@DU?$char_traits@D@std@@V?$allocator@D@2@@std@@PAVWSignalInstance_@@@std@@@2@@std@@@Z 0046eb10 f   libwt:WStackedWidget.obj
 0001:0006dbd0       ?addWidget@WStackedWidget@@UAEXPAVWWidget@@@Z 0046ebd0 f   libwt:WStackedWidget.obj
 0001:0006dc10       ?mapped@WSignalMapper@@QAEXV?$basic_string@DU?$char_traits@D@std@@V?$allocator@D@2@@std@@@Z 0046ec10 f   libwt:WSignalMapper.obj
 0001:0006dc70       ?_Dec@const_iterator@?$_Tree@V?$_Tmap_traits@HPAVCEccButton@@U?$less@H@std@@V?$allocator@U?$pair@$$CBHPAVCEccButton@@@std@@@3@$0A@@std@@@std@@QAEXXZ 0046ec70 f i listtable.obj
 0001:0006dc70       ?_Dec@const_iterator@?$_Tree@V?$_Tmap_traits@HPAVWLineEdit@@U?$less@H@std@@V?$allocator@U?$pair@$$CBHPAVWLineEdit@@@std@@@3@$0A@@std@@@std@@QAEXXZ 0046ec70 f i sortlist.obj
 0001:0006dc70       ?_Dec@const_iterator@?$_Tree@V?$_Tmap_traits@KViterator@?$list@U?$pair@V?$shared_ptr@V?$w32_regex_traits_implementation@D@re_detail@boost@@@boost@@PBK@std@@V?$allocator@U?$pair@V?$shared_ptr@V?$w32_regex_traits_implementation@D@re_detail@boost@@@boost@@PBK@std@@@2@@std@@U?$less@K@3@V?$allocator@U?$pair@$$CBKViterator@?$list@U?$pair@V?$shared_ptr@V?$w32_regex_traits_implementation@D@re_detail@boost@@@boost@@PBK@std@@V?$allocator@U?$pair@V?$shared_ptr@V?$w32_regex_traits_implementation@D@re_detail@boost@@@boost@@PBK@std@@@2@@std@@@std@@@3@$0A@@std@@@std@@QAEXXZ 0046ec70 f i libboost_regex-vc71-mt-1_33_1:instances.obj
 0001:0006dc70       ?_Dec@const_iterator@?$_Tree@V?$_Tmap_traits@PAVWObject@@HU?$less@PAVWObject@@@std@@V?$allocator@U?$pair@QAVWObject@@H@std@@@3@$0A@@std@@@std@@QAEXXZ 0046ec70 f i libwt:WSignalMapper.obj
 0001:0006dcd0       ?_Lrotate@?$_Tree@V?$_Tmap_traits@PAVWObject@@HU?$less@PAVWObject@@@std@@V?$allocator@U?$pair@QAVWObject@@H@std@@@3@$0A@@std@@@std@@IAEXPAU_Node@?$_Tree_nod@V?$_Tmap_traits@PAVWObject@@HU?$less@PAVWObject@@@std@@V?$allocator@U?$pair@QAVWObject@@H@std@@@3@$0A@@std@@@2@@Z 0046ecd0 f i libwt:WSignalMapper.obj
 0001:0006dcd0       ?_Lrotate@?$_Tree@V?$_Tmap_traits@HPAVWLineEdit@@U?$less@H@std@@V?$allocator@U?$pair@$$CBHPAVWLineEdit@@@std@@@3@$0A@@std@@@std@@IAEXPAU_Node@?$_Tree_nod@V?$_Tmap_traits@HPAVWLineEdit@@U?$less@H@std@@V?$allocator@U?$pair@$$CBHPAVWLineEdit@@@std@@@3@$0A@@std@@@2@@Z 0046ecd0 f i sortlist.obj
 0001:0006dcd0       ?_Lrotate@?$_Tree@V?$_Tmap_traits@KViterator@?$list@U?$pair@V?$shared_ptr@V?$w32_regex_traits_implementation@D@re_detail@boost@@@boost@@PBK@std@@V?$allocator@U?$pair@V?$shared_ptr@V?$w32_regex_traits_implementation@D@re_detail@boost@@@boost@@PBK@std@@@2@@std@@U?$less@K@3@V?$allocator@U?$pair@$$CBKViterator@?$list@U?$pair@V?$shared_ptr@V?$w32_regex_traits_implementation@D@re_detail@boost@@@boost@@PBK@std@@V?$allocator@U?$pair@V?$shared_ptr@V?$w32_regex_traits_implementation@D@re_detail@boost@@@boost@@PBK@std@@@2@@std@@@std@@@3@$0A@@std@@@std@@IAEXPAU_Node@?$_Tree_nod@V?$_Tmap_traits@KViterator@?$list@U?$pair@V?$shared_ptr@V?$w32_regex_traits_implementation@D@re_detail@boost@@@boost@@PBK@std@@V?$allocator@U?$pair@V?$shared_ptr@V?$w32_regex_traits_implementation@D@re_detail@boost@@@boost@@PBK@std@@@2@@std@@U?$less@K@3@V?$allocator@U?$pair@$$CBKViterator@?$list@U?$pair@V?$shared_ptr@V?$w32_regex_traits_implementation@D@re_detail@boost@@@boost@@PBK@std@@V?$allocator@U?$pair@V?$shared_ptr@V?$w32_regex_traits_implementation@D@re_detail@boost@@@boost@@PBK@std@@@2@@std@@@std@@@3@$0A@@std@@@2@@Z 0046ecd0 f i libboost_regex-vc71-mt-1_33_1:instances.obj
 0001:0006dcd0       ?_Lrotate@?$_Tree@V?$_Tmap_traits@HPAVCEccButton@@U?$less@H@std@@V?$allocator@U?$pair@$$CBHPAVCEccButton@@@std@@@3@$0A@@std@@@std@@IAEXPAU_Node@?$_Tree_nod@V?$_Tmap_traits@HPAVCEccButton@@U?$less@H@std@@V?$allocator@U?$pair@$$CBHPAVCEccButton@@@std@@@3@$0A@@std@@@2@@Z 0046ecd0 f i listtable.obj
 0001:0006dcd0       ?_Lrotate@?$_Tree@V?$_Tmap_traits@PAVWObject@@PAVWWidget@@U?$less@PAVWObject@@@std@@V?$allocator@U?$pair@QAVWObject@@PAVWWidget@@@std@@@4@$0A@@std@@@std@@IAEXPAU_Node@?$_Tree_nod@V?$_Tmap_traits@PAVWObject@@PAVWWidget@@U?$less@PAVWObject@@@std@@V?$allocator@U?$pair@QAVWObject@@PAVWWidget@@@std@@@4@$0A@@std@@@2@@Z 0046ecd0 f i libwt:WSignalMapper.obj
 0001:0006dd30       ?_Lrotate@?$_Tree@V?$_Tmap_traits@HV?$basic_string@DU?$char_traits@D@std@@V?$allocator@D@2@@std@@U?$less@H@2@V?$allocator@U?$pair@$$CBHV?$basic_string@DU?$char_traits@D@std@@V?$allocator@D@2@@std@@@std@@@2@$0A@@std@@@std@@IAEXPAU_Node@?$_Tree_nod@V?$_Tmap_traits@HV?$basic_string@DU?$char_traits@D@std@@V?$allocator@D@2@@std@@U?$less@H@2@V?$allocator@U?$pair@$$CBHV?$basic_string@DU?$char_traits@D@std@@V?$allocator@D@2@@std@@@std@@@2@$0A@@std@@@2@@Z 0046ed30 f i sortlist.obj
 0001:0006dd30       ?_Lrotate@?$_Tree@V?$_Tmap_traits@V?$basic_string@DU?$char_traits@D@std@@V?$allocator@D@2@@std@@PAUScopeFunc@@U?$less@V?$basic_string@DU?$char_traits@D@std@@V?$allocator@D@2@@std@@@2@V?$allocator@U?$pair@$$CBV?$basic_string@DU?$char_traits@D@std@@V?$allocator@D@2@@std@@PAUScopeFunc@@@std@@@2@$0A@@std@@@std@@IAEXPAU_Node@?$_Tree_nod@V?$_Tmap_traits@V?$basic_string@DU?$char_traits@D@std@@V?$allocator@D@2@@std@@PAUScopeFunc@@U?$less@V?$basic_string@DU?$char_traits@D@std@@V?$allocator@D@2@@std@@@2@V?$allocator@U?$pair@$$CBV?$basic_string@DU?$char_traits@D@std@@V?$allocator@D@2@@std@@PAUScopeFunc@@@std@@@2@$0A@@std@@@2@@Z 0046ed30 f i User.obj
 0001:0006dd30       ?_Lrotate@?$_Tree@V?$_Tmap_traits@V?$basic_string@DU?$char_traits@D@std@@V?$allocator@D@2@@std@@PAVWCheckBox@@U?$less@V?$basic_string@DU?$char_traits@D@std@@V?$allocator@D@2@@std@@@2@V?$allocator@U?$pair@$$CBV?$basic_string@DU?$char_traits@D@std@@V?$allocator@D@2@@std@@PAVWCheckBox@@@std@@@2@$0A@@std@@@std@@IAEXPAU_Node@?$_Tree_nod@V?$_Tmap_traits@V?$basic_string@DU?$char_traits@D@std@@V?$allocator@D@2@@std@@PAVWCheckBox@@U?$less@V?$basic_string@DU?$char_traits@D@std@@V?$allocator@D@2@@std@@@2@V?$allocator@U?$pair@$$CBV?$basic_string@DU?$char_traits@D@std@@V?$allocator@D@2@@std@@PAVWCheckBox@@@std@@@2@$0A@@std@@@2@@Z 0046ed30 f i listtable.obj
 0001:0006dd30       ?_Lrotate@?$_Tree@V?$_Tmap_traits@PAVWObject@@V?$basic_string@DU?$char_traits@D@std@@V?$allocator@D@2@@std@@U?$less@PAVWObject@@@3@V?$allocator@U?$pair@QAVWObject@@V?$basic_string@DU?$char_traits@D@std@@V?$allocator@D@2@@std@@@std@@@3@$0A@@std@@@std@@IAEXPAU_Node@?$_Tree_nod@V?$_Tmap_traits@PAVWObject@@V?$basic_string@DU?$char_traits@D@std@@V?$allocator@D@2@@std@@U?$less@PAVWObject@@@3@V?$allocator@U?$pair@QAVWObject@@V?$basic_string@DU?$char_traits@D@std@@V?$allocator@D@2@@std@@@std@@@3@$0A@@std@@@2@@Z 0046ed30 f i libwt:WSignalMapper.obj
 0001:0006dd30       ?_Lrotate@?$_Tree@V?$_Tmap_traits@V?$basic_string@DU?$char_traits@D@std@@V?$allocator@D@2@@std@@PAVWSlotInstance_@@U?$less@V?$basic_string@DU?$char_traits@D@std@@V?$allocator@D@2@@std@@@2@V?$allocator@U?$pair@$$CBV?$basic_string@DU?$char_traits@D@std@@V?$allocator@D@2@@std@@PAVWSlotInstance_@@@std@@@2@$0A@@std@@@std@@IAEXPAU_Node@?$_Tree_nod@V?$_Tmap_traits@V?$basic_string@DU?$char_traits@D@std@@V?$allocator@D@2@@std@@PAVWSlotInstance_@@U?$less@V?$basic_string@DU?$char_traits@D@std@@V?$allocator@D@2@@std@@@2@V?$allocator@U?$pair@$$CBV?$basic_string@DU?$char_traits@D@std@@V?$allocator@D@2@@std@@PAVWSlotInstance_@@@std@@@2@$0A@@std@@@2@@Z 0046ed30 f i libwt:WWebWidget.obj
 0001:0006dd30       ?_Lrotate@?$_Tree@V?$_Tmap_traits@V?$basic_string@DU?$char_traits@D@std@@V?$allocator@D@2@@std@@PAVWCssRule@@U?$less@V?$basic_string@DU?$char_traits@D@std@@V?$allocator@D@2@@std@@@2@V?$allocator@U?$pair@$$CBV?$basic_string@DU?$char_traits@D@std@@V?$allocator@D@2@@std@@PAVWCssRule@@@std@@@2@$0A@@std@@@std@@IAEXPAU_Node@?$_Tree_nod@V?$_Tmap_traits@V?$basic_string@DU?$char_traits@D@std@@V?$allocator@D@2@@std@@PAVWCssRule@@U?$less@V?$basic_string@DU?$char_traits@D@std@@V?$allocator@D@2@@std@@@2@V?$allocator@U?$pair@$$CBV?$basic_string@DU?$char_traits@D@std@@V?$allocator@D@2@@std@@PAVWCssRule@@@std@@@2@$0A@@std@@@2@@Z 0046ed30 f i main.obj
 0001:0006dd30       ?_Lrotate@?$_Tree@V?$_Tmap_traits@V?$basic_string@DU?$char_traits@D@std@@V?$allocator@D@2@@std@@_NU?$less@V?$basic_string@DU?$char_traits@D@std@@V?$allocator@D@2@@std@@@2@V?$allocator@U?$pair@$$CBV?$basic_string@DU?$char_traits@D@std@@V?$allocator@D@2@@std@@_N@std@@@2@$0A@@std@@@std@@IAEXPAU_Node@?$_Tree_nod@V?$_Tmap_traits@V?$basic_string@DU?$char_traits@D@std@@V?$allocator@D@2@@std@@_NU?$less@V?$basic_string@DU?$char_traits@D@std@@V?$allocator@D@2@@std@@@2@V?$allocator@U?$pair@$$CBV?$basic_string@DU?$char_traits@D@std@@V?$allocator@D@2@@std@@_N@std@@@2@$0A@@std@@@2@@Z 0046ed30 f i User.obj
 0001:0006dd30       ?_Lrotate@?$_Tree@V?$_Tmap_traits@W4Property@Wt@@V?$basic_string@DU?$char_traits@D@std@@V?$allocator@D@2@@std@@U?$less@W4Property@Wt@@@4@V?$allocator@U?$pair@$$CBW4Property@Wt@@V?$basic_string@DU?$char_traits@D@std@@V?$allocator@D@2@@std@@@std@@@4@$0A@@std@@@std@@IAEXPAU_Node@?$_Tree_nod@V?$_Tmap_traits@W4Property@Wt@@V?$basic_string@DU?$char_traits@D@std@@V?$allocator@D@2@@std@@U?$less@W4Property@Wt@@@4@V?$allocator@U?$pair@$$CBW4Property@Wt@@V?$basic_string@DU?$char_traits@D@std@@V?$allocator@D@2@@std@@@std@@@4@$0A@@std@@@2@@Z 0046ed30 f i libwt:WWebWidget.obj
 0001:0006dd30       ?_Lrotate@?$_Tree@V?$_Tmap_traits@PAVWLineEdit@@V?$basic_string@DU?$char_traits@D@std@@V?$allocator@D@2@@std@@U?$less@PAVWLineEdit@@@3@V?$allocator@U?$pair@QAVWLineEdit@@V?$basic_string@DU?$char_traits@D@std@@V?$allocator@D@2@@std@@@std@@@3@$0A@@std@@@std@@IAEXPAU_Node@?$_Tree_nod@V?$_Tmap_traits@PAVWLineEdit@@V?$basic_string@DU?$char_traits@D@std@@V?$allocator@D@2@@std@@U?$less@PAVWLineEdit@@@3@V?$allocator@U?$pair@QAVWLineEdit@@V?$basic_string@DU?$char_traits@D@std@@V?$allocator@D@2@@std@@@std@@@3@$0A@@std@@@2@@Z 0046ed30 f i sortlist.obj
 0001:0006dd30       ?_Lrotate@?$_Tree@V?$_Tmap_traits@V?$basic_string@DU?$char_traits@D@std@@V?$allocator@D@2@@std@@KU?$less@V?$basic_string@DU?$char_traits@D@std@@V?$allocator@D@2@@std@@@2@V?$allocator@U?$pair@$$CBV?$basic_string@DU?$char_traits@D@std@@V?$allocator@D@2@@std@@K@std@@@2@$0A@@std@@@std@@IAEXPAU_Node@?$_Tree_nod@V?$_Tmap_traits@V?$basic_string@DU?$char_traits@D@std@@V?$allocator@D@2@@std@@KU?$less@V?$basic_string@DU?$char_traits@D@std@@V?$allocator@D@2@@std@@@2@V?$allocator@U?$pair@$$CBV?$basic_string@DU?$char_traits@D@std@@V?$allocator@D@2@@std@@K@std@@@2@$0A@@std@@@2@@Z 0046ed30 f i libboost_regex-vc71-mt-1_33_1:instances.obj
 0001:0006dd30       ?_Lrotate@?$_Tree@V?$_Tmap_traits@V?$basic_string@DU?$char_traits@D@std@@V?$allocator@D@2@@std@@PAVWSignalInstance_@@U?$less@V?$basic_string@DU?$char_traits@D@std@@V?$allocator@D@2@@std@@@2@V?$allocator@U?$pair@$$CBV?$basic_string@DU?$char_traits@D@std@@V?$allocator@D@2@@std@@PAVWSignalInstance_@@@std@@@2@$0A@@std@@@std@@IAEXPAU_Node@?$_Tree_nod@V?$_Tmap_traits@V?$basic_string@DU?$char_traits@D@std@@V?$allocator@D@2@@std@@PAVWSignalInstance_@@U?$less@V?$basic_string@DU?$char_traits@D@std@@V?$allocator@D@2@@std@@@2@V?$allocator@U?$pair@$$CBV?$basic_string@DU?$char_traits@D@std@@V?$allocator@D@2@@std@@PAVWSignalInstance_@@@std@@@2@$0A@@std@@@2@@Z 0046ed30 f i mainviewwt.obj
 0001:0006dd90       ?_Erase@?$_Tree@V?$_Tmap_traits@PAVWObject@@HU?$less@PAVWObject@@@std@@V?$allocator@U?$pair@QAVWObject@@H@std@@@3@$0A@@std@@@std@@IAEXPAU_Node@?$_Tree_nod@V?$_Tmap_traits@PAVWObject@@HU?$less@PAVWObject@@@std@@V?$allocator@U?$pair@QAVWObject@@H@std@@@3@$0A@@std@@@2@@Z 0046ed90 f i libwt:WSignalMapper.obj
 0001:0006ddd0       ?_Erase@?$_Tree@V?$_Tmap_traits@PAVWObject@@PAVWWidget@@U?$less@PAVWObject@@@std@@V?$allocator@U?$pair@QAVWObject@@PAVWWidget@@@std@@@4@$0A@@std@@@std@@IAEXPAU_Node@?$_Tree_nod@V?$_Tmap_traits@PAVWObject@@PAVWWidget@@U?$less@PAVWObject@@@std@@V?$allocator@U?$pair@QAVWObject@@PAVWWidget@@@std@@@4@$0A@@std@@@2@@Z 0046edd0 f i libwt:WSignalMapper.obj
 0001:0006de10       ?erase@?$_Tree@V?$_Tmap_traits@PAVWObject@@HU?$less@PAVWObject@@@std@@V?$allocator@U?$pair@QAVWObject@@H@std@@@3@$0A@@std@@@std@@QAE?AViterator@12@V312@@Z 0046ee10 f i libwt:WSignalMapper.obj
 0001:0006de10       ?erase@?$_Tree@V?$_Tmap_traits@PAVWObject@@PAVWWidget@@U?$less@PAVWObject@@@std@@V?$allocator@U?$pair@QAVWObject@@PAVWWidget@@@std@@@4@$0A@@std@@@std@@QAE?AViterator@12@V312@@Z 0046ee10 f i libwt:WSignalMapper.obj
 0001:0006e0e0       ?_Buynode@?$_Tree@V?$_Tmap_traits@PAVWObject@@HU?$less@PAVWObject@@@std@@V?$allocator@U?$pair@QAVWObject@@H@std@@@3@$0A@@std@@@std@@IAEPAU_Node@?$_Tree_nod@V?$_Tmap_traits@PAVWObject@@HU?$less@PAVWObject@@@std@@V?$allocator@U?$pair@QAVWObject@@H@std@@@3@$0A@@std@@@2@XZ 0046f0e0 f i libwt:WSignalMapper.obj
 0001:0006e0e0       ?_Buynode@?$_Tree@V?$_Tmap_traits@HPAVCEccButton@@U?$less@H@std@@V?$allocator@U?$pair@$$CBHPAVCEccButton@@@std@@@3@$0A@@std@@@std@@IAEPAU_Node@?$_Tree_nod@V?$_Tmap_traits@HPAVCEccButton@@U?$less@H@std@@V?$allocator@U?$pair@$$CBHPAVCEccButton@@@std@@@3@$0A@@std@@@2@XZ 0046f0e0 f i listtable.obj
 0001:0006e0e0       ?_Buynode@?$_Tree@V?$_Tmap_traits@KViterator@?$list@U?$pair@V?$shared_ptr@V?$w32_regex_traits_implementation@D@re_detail@boost@@@boost@@PBK@std@@V?$allocator@U?$pair@V?$shared_ptr@V?$w32_regex_traits_implementation@D@re_detail@boost@@@boost@@PBK@std@@@2@@std@@U?$less@K@3@V?$allocator@U?$pair@$$CBKViterator@?$list@U?$pair@V?$shared_ptr@V?$w32_regex_traits_implementation@D@re_detail@boost@@@boost@@PBK@std@@V?$allocator@U?$pair@V?$shared_ptr@V?$w32_regex_traits_implementation@D@re_detail@boost@@@boost@@PBK@std@@@2@@std@@@std@@@3@$0A@@std@@@std@@IAEPAU_Node@?$_Tree_nod@V?$_Tmap_traits@KViterator@?$list@U?$pair@V?$shared_ptr@V?$w32_regex_traits_implementation@D@re_detail@boost@@@boost@@PBK@std@@V?$allocator@U?$pair@V?$shared_ptr@V?$w32_regex_traits_implementation@D@re_detail@boost@@@boost@@PBK@std@@@2@@std@@U?$less@K@3@V?$allocator@U?$pair@$$CBKViterator@?$list@U?$pair@V?$shared_ptr@V?$w32_regex_traits_implementation@D@re_detail@boost@@@boost@@PBK@std@@V?$allocator@U?$pair@V?$shared_ptr@V?$w32_regex_traits_implementation@D@re_detail@boost@@@boost@@PBK@std@@@2@@std@@@std@@@3@$0A@@std@@@2@XZ 0046f0e0 f i libboost_regex-vc71-mt-1_33_1:instances.obj
 0001:0006e0e0       ?_Buynode@?$_Tree@V?$_Tmap_traits@HPAVWLineEdit@@U?$less@H@std@@V?$allocator@U?$pair@$$CBHPAVWLineEdit@@@std@@@3@$0A@@std@@@std@@IAEPAU_Node@?$_Tree_nod@V?$_Tmap_traits@HPAVWLineEdit@@U?$less@H@std@@V?$allocator@U?$pair@$$CBHPAVWLineEdit@@@std@@@3@$0A@@std@@@2@XZ 0046f0e0 f i sortlist.obj
 0001:0006e0e0       ?_Buynode@?$_Tree@V?$_Tmap_traits@PAVWObject@@PAVWWidget@@U?$less@PAVWObject@@@std@@V?$allocator@U?$pair@QAVWObject@@PAVWWidget@@@std@@@4@$0A@@std@@@std@@IAEPAU_Node@?$_Tree_nod@V?$_Tmap_traits@PAVWObject@@PAVWWidget@@U?$less@PAVWObject@@@std@@V?$allocator@U?$pair@QAVWObject@@PAVWWidget@@@std@@@4@$0A@@std@@@2@XZ 0046f0e0 f i libwt:WSignalMapper.obj
 0001:0006e120       ?_Buynode@?$_Tree@V?$_Tmap_traits@PAVWObject@@V?$basic_string@DU?$char_traits@D@std@@V?$allocator@D@2@@std@@U?$less@PAVWObject@@@3@V?$allocator@U?$pair@QAVWObject@@V?$basic_string@DU?$char_traits@D@std@@V?$allocator@D@2@@std@@@std@@@3@$0A@@std@@@std@@IAEPAU_Node@?$_Tree_nod@V?$_Tmap_traits@PAVWObject@@V?$basic_string@DU?$char_traits@D@std@@V?$allocator@D@2@@std@@U?$less@PAVWObject@@@3@V?$allocator@U?$pair@QAVWObject@@V?$basic_string@DU?$char_traits@D@std@@V?$allocator@D@2@@std@@@std@@@3@$0A@@std@@@2@PAU342@00ABU?$pair@QAVWObject@@V?$basic_string@DU?$char_traits@D@std@@V?$allocator@D@2@@std@@@2@D@Z 0046f120 f i libwt:WSignalMapper.obj
 0001:0006e1c0       ?mapping@WSignalMapper@@QBEPAVWObject@@H@Z 0046f1c0 f   libwt:WSignalMapper.obj
 0001:0006e200       ?erase@?$_Tree@V?$_Tmap_traits@PAVWObject@@HU?$less@PAVWObject@@@std@@V?$allocator@U?$pair@QAVWObject@@H@std@@@3@$0A@@std@@@std@@QAE?AViterator@12@V312@0@Z 0046f200 f i libwt:WSignalMapper.obj
 0001:0006e2c0       ?_Insert@?$_Tree@V?$_Tmap_traits@PAVWObject@@HU?$less@PAVWObject@@@std@@V?$allocator@U?$pair@QAVWObject@@H@std@@@3@$0A@@std@@@std@@IAE?AViterator@12@_NPAU_Node@?$_Tree_nod@V?$_Tmap_traits@PAVWObject@@HU?$less@PAVWObject@@@std@@V?$allocator@U?$pair@QAVWObject@@H@std@@@3@$0A@@std@@@2@ABU?$pair@QAVWObject@@H@2@@Z 0046f2c0 f i libwt:WSignalMapper.obj
 0001:0006e480       ?_Insert@?$_Tree@V?$_Tmap_traits@PAVWObject@@V?$basic_string@DU?$char_traits@D@std@@V?$allocator@D@2@@std@@U?$less@PAVWObject@@@3@V?$allocator@U?$pair@QAVWObject@@V?$basic_string@DU?$char_traits@D@std@@V?$allocator@D@2@@std@@@std@@@3@$0A@@std@@@std@@IAE?AViterator@12@_NPAU_Node@?$_Tree_nod@V?$_Tmap_traits@PAVWObject@@V?$basic_string@DU?$char_traits@D@std@@V?$allocator@D@2@@std@@U?$less@PAVWObject@@@3@V?$allocator@U?$pair@QAVWObject@@V?$basic_string@DU?$char_traits@D@std@@V?$allocator@D@2@@std@@@std@@@3@$0A@@std@@@2@ABU?$pair@QAVWObject@@V?$basic_string@DU?$char_traits@D@std@@V?$allocator@D@2@@std@@@2@@Z 0046f480 f i libwt:WSignalMapper.obj
 0001:0006e640       ?erase@?$_Tree@V?$_Tmap_traits@PAVWObject@@PAVWWidget@@U?$less@PAVWObject@@@std@@V?$allocator@U?$pair@QAVWObject@@PAVWWidget@@@std@@@4@$0A@@std@@@std@@QAE?AViterator@12@V312@0@Z 0046f640 f i libwt:WSignalMapper.obj
 0001:0006e700       ?_Erase@?$_Tree@V?$_Tmap_traits@PAVWObject@@V?$basic_string@DU?$char_traits@D@std@@V?$allocator@D@2@@std@@U?$less@PAVWObject@@@3@V?$allocator@U?$pair@QAVWObject@@V?$basic_string@DU?$char_traits@D@std@@V?$allocator@D@2@@std@@@std@@@3@$0A@@std@@@std@@IAEXPAU_Node@?$_Tree_nod@V?$_Tmap_traits@PAVWObject@@V?$basic_string@DU?$char_traits@D@std@@V?$allocator@D@2@@std@@U?$less@PAVWObject@@@3@V?$allocator@U?$pair@QAVWObject@@V?$basic_string@DU?$char_traits@D@std@@V?$allocator@D@2@@std@@@std@@@3@$0A@@std@@@2@@Z 0046f700 f i libwt:WSignalMapper.obj
 0001:0006e740       ?map@WSignalMapper@@QAEXPAVWObject@@@Z 0046f740 f   libwt:WSignalMapper.obj
 0001:0006e800       ?erase@?$_Tree@V?$_Tmap_traits@PAVWObject@@V?$basic_string@DU?$char_traits@D@std@@V?$allocator@D@2@@std@@U?$less@PAVWObject@@@3@V?$allocator@U?$pair@QAVWObject@@V?$basic_string@DU?$char_traits@D@std@@V?$allocator@D@2@@std@@@std@@@3@$0A@@std@@@std@@QAE?AViterator@12@V312@@Z 0046f800 f i libwt:WSignalMapper.obj
 0001:0006eae0       ?insert@?$_Tree@V?$_Tmap_traits@PAVWObject@@HU?$less@PAVWObject@@@std@@V?$allocator@U?$pair@QAVWObject@@H@std@@@3@$0A@@std@@@std@@QAE?AU?$pair@Viterator@?$_Tree@V?$_Tmap_traits@PAVWObject@@HU?$less@PAVWObject@@@std@@V?$allocator@U?$pair@QAVWObject@@H@std@@@3@$0A@@std@@@std@@_N@2@ABU?$pair@QAVWObject@@H@2@@Z 0046fae0 f i libwt:WSignalMapper.obj
 0001:0006eba0       ?insert@?$_Tree@V?$_Tmap_traits@PAVWObject@@V?$basic_string@DU?$char_traits@D@std@@V?$allocator@D@2@@std@@U?$less@PAVWObject@@@3@V?$allocator@U?$pair@QAVWObject@@V?$basic_string@DU?$char_traits@D@std@@V?$allocator@D@2@@std@@@std@@@3@$0A@@std@@@std@@QAE?AU?$pair@Viterator@?$_Tree@V?$_Tmap_traits@PAVWObject@@V?$basic_string@DU?$char_traits@D@std@@V?$allocator@D@2@@std@@U?$less@PAVWObject@@@3@V?$allocator@U?$pair@QAVWObject@@V?$basic_string@DU?$char_traits@D@std@@V?$allocator@D@2@@std@@@std@@@3@$0A@@std@@@std@@_N@2@ABU?$pair@QAVWObject@@V?$basic_string@DU?$char_traits@D@std@@V?$allocator@D@2@@std@@@2@@Z 0046fba0 f i libwt:WSignalMapper.obj
 0001:0006ec60       ?removeMappings@WSignalMapper@@QAEXPAVWObject@@@Z 0046fc60 f   libwt:WSignalMapper.obj
 0001:0006ecf0       ?insert@?$_Tree@V?$_Tmap_traits@PAVWObject@@HU?$less@PAVWObject@@@std@@V?$allocator@U?$pair@QAVWObject@@H@std@@@3@$0A@@std@@@std@@QAE?AViterator@12@V312@ABU?$pair@QAVWObject@@H@2@@Z 0046fcf0 f i libwt:WSignalMapper.obj
 0001:0006ee60       ?insert@?$_Tree@V?$_Tmap_traits@PAVWObject@@V?$basic_string@DU?$char_traits@D@std@@V?$allocator@D@2@@std@@U?$less@PAVWObject@@@3@V?$allocator@U?$pair@QAVWObject@@V?$basic_string@DU?$char_traits@D@std@@V?$allocator@D@2@@std@@@std@@@3@$0A@@std@@@std@@QAE?AViterator@12@V312@ABU?$pair@QAVWObject@@V?$basic_string@DU?$char_traits@D@std@@V?$allocator@D@2@@std@@@2@@Z 0046fe60 f i libwt:WSignalMapper.obj
 0001:0006efd0       ?erase@?$_Tree@V?$_Tmap_traits@PAVWObject@@V?$basic_string@DU?$char_traits@D@std@@V?$allocator@D@2@@std@@U?$less@PAVWObject@@@3@V?$allocator@U?$pair@QAVWObject@@V?$basic_string@DU?$char_traits@D@std@@V?$allocator@D@2@@std@@@std@@@3@$0A@@std@@@std@@QAE?AViterator@12@V312@0@Z 0046ffd0 f i libwt:WSignalMapper.obj
 0001:0006f090       ?triggerSlot@WSignalMapper@@MAE_NPAVWObject@@PBVWSlot_@@PAPAX@Z 00470090 f   libwt:WSignalMapper.obj
 0001:0006f100       ??1?$map@PAVWObject@@HU?$less@PAVWObject@@@std@@V?$allocator@U?$pair@QAVWObject@@H@std@@@3@@std@@QAE@XZ 00470100 f i libwt:WSignalMapper.obj
 0001:0006f130       ??A?$map@PAVWObject@@HU?$less@PAVWObject@@@std@@V?$allocator@U?$pair@QAVWObject@@H@std@@@3@@std@@QAEAAHABQAVWObject@@@Z 00470130 f i libwt:WSignalMapper.obj
 0001:0006f1b0       ??A?$map@PAVWObject@@V?$basic_string@DU?$char_traits@D@std@@V?$allocator@D@2@@std@@U?$less@PAVWObject@@@3@V?$allocator@U?$pair@QAVWObject@@V?$basic_string@DU?$char_traits@D@std@@V?$allocator@D@2@@std@@@std@@@3@@std@@QAEAAV?$basic_string@DU?$char_traits@D@std@@V?$allocator@D@2@@1@ABQAVWObject@@@Z 004701b0 f i libwt:WSignalMapper.obj
 0001:0006f280       ?buildSlotMap@WSignalMapper@@MAEXAAV?$map@V?$basic_string@DU?$char_traits@D@std@@V?$allocator@D@2@@std@@PAVWSlotInstance_@@U?$less@V?$basic_string@DU?$char_traits@D@std@@V?$allocator@D@2@@std@@@2@V?$allocator@U?$pair@$$CBV?$basic_string@DU?$char_traits@D@std@@V?$allocator@D@2@@std@@PAVWSlotInstance_@@@std@@@2@@std@@@Z 00470280 f   libwt:WSignalMapper.obj
 0001:0006f340       ?buildSignalMap@WSignalMapper@@MAEXAAV?$map@V?$basic_string@DU?$char_traits@D@std@@V?$allocator@D@2@@std@@PAVWSignalInstance_@@U?$less@V?$basic_string@DU?$char_traits@D@std@@V?$allocator@D@2@@std@@@2@V?$allocator@U?$pair@$$CBV?$basic_string@DU?$char_traits@D@std@@V?$allocator@D@2@@std@@PAVWSignalInstance_@@@std@@@2@@std@@@Z 00470340 f   libwt:WSignalMapper.obj
 0001:0006f400       ?setMapping@WSignalMapper@@QAEXPAVWObject@@H@Z 00470400 f   libwt:WSignalMapper.obj
 0001:0006f440       ?setMapping@WSignalMapper@@QAEXPAVWObject@@V?$basic_string@DU?$char_traits@D@std@@V?$allocator@D@2@@std@@@Z 00470440 f   libwt:WSignalMapper.obj
 0001:0006f4c0       ??1?$map@PAVWObject@@V?$basic_string@DU?$char_traits@D@std@@V?$allocator@D@2@@std@@U?$less@PAVWObject@@@3@V?$allocator@U?$pair@QAVWObject@@V?$basic_string@DU?$char_traits@D@std@@V?$allocator@D@2@@std@@@std@@@3@@std@@QAE@XZ 004704c0 f i libwt:WSignalMapper.obj
 0001:0006f4f0       ??1WSignalMapper@@UAE@XZ   004704f0 f   libwt:WSignalMapper.obj
 0001:0006f5d0       ??0WSignalMapper@@QAE@XZ   004705d0 f   libwt:WSignalMapper.obj
 0001:0006f690       ??_EWSignalMapper@@UAEPAXI@Z 00470690 f i libwt:WSignalMapper.obj
 0001:0006f690       ??_GWSignalMapper@@UAEPAXI@Z 00470690 f i libwt:WSignalMapper.obj
 0001:0006f6b0       ?triggerSlot@WTable@@MAE_NPAVWObject@@PBVWSlot_@@PAPAX@Z 004706b0 f   libwt:WTable.obj
 0001:0006f6b0       ?triggerSlot@WContainerWidget@@MAE_NPAVWObject@@PBVWSlot_@@PAPAX@Z 004706b0 f   libwt:WContainerWidget.obj
 0001:0006f6b0       ?triggerSlot@WText@@MAE_NPAVWObject@@PBVWSlot_@@PAPAX@Z 004706b0 f   libwt:WText.obj
 0001:0006f6b0       ?triggerSlot@WLabel@@MAE_NPAVWObject@@PBVWSlot_@@PAPAX@Z 004706b0 f   libwt:WLabel.obj
 0001:0006f6c0       ?undoTriggerSlot@WTable@@MAE_NPBVWSlot_@@PAPAX@Z 004706c0 f   libwt:WTable.obj
 0001:0006f6c0       ?undoTriggerSlot@WContainerWidget@@MAE_NPBVWSlot_@@PAPAX@Z 004706c0 f   libwt:WContainerWidget.obj
 0001:0006f6c0       ?undoTriggerSlot@WLabel@@MAE_NPBVWSlot_@@PAPAX@Z 004706c0 f   libwt:WLabel.obj
 0001:0006f6c0       ?undoTriggerSlot@WImage@@MAE_NPBVWSlot_@@PAPAX@Z 004706c0 f   libwt:WImage.obj
 0001:0006f6c0       ?undoTriggerSlot@WText@@MAE_NPBVWSlot_@@PAPAX@Z 004706c0 f   libwt:WText.obj
 0001:0006f6d0       ??0WLabel@@QAE@PAVWContainerWidget@@@Z 004706d0 f   libwt:WLabel.obj
 0001:0006f710       ??0WLabel@@QAE@V?$basic_string@DU?$char_traits@D@std@@V?$allocator@D@2@@std@@PAVWContainerWidget@@@Z 00470710 f   libwt:WLabel.obj
 0001:0006f7e0       ??0WLabel@@QAE@ABVWMessage@@PAVWContainerWidget@@@Z 004707e0 f   libwt:WLabel.obj
 0001:0006f880       ??0WLabel@@QAE@PAVWImage@@PAVWContainerWidget@@@Z 00470880 f   libwt:WLabel.obj
 0001:0006f8f0       ?setBuddy@WLabel@@QAEXPAVWFormWidget@@@Z 004708f0 f   libwt:WLabel.obj
 0001:0006f930       ?setText@WLabel@@QAEXV?$basic_string@DU?$char_traits@D@std@@V?$allocator@D@2@@std@@@Z 00470930 f   libwt:WLabel.obj
 0001:0006fa00       ?text@WLabel@@QBE?BV?$basic_string@DU?$char_traits@D@std@@V?$allocator@D@2@@std@@XZ 00470a00 f   libwt:WLabel.obj
 0001:0006fa40       ?setImage@WLabel@@QAEXPAVWImage@@@Z 00470a40 f   libwt:WLabel.obj
 0001:0006fa70       ?updateDom@WLabel@@MAEXAAVDomElement@@_N@Z 00470a70 f   libwt:WLabel.obj
 0001:0006fb20       ?createDomElement@WLabel@@MAEPAVDomElement@@XZ 00470b20 f   libwt:WLabel.obj
 0001:0006fb90       ??1WLabel@@UAE@XZ          00470b90 f   libwt:WLabel.obj
 0001:0006fc10       ??_EWLabel@@UAEPAXI@Z      00470c10 f i libwt:WLabel.obj
 0001:0006fc70       ?getDomChanges@WLabel@@MAEXAAV?$vector@PAVDomElement@@V?$allocator@PAVDomElement@@@std@@@std@@@Z 00470c70 f   libwt:WLabel.obj
 0001:0006fce0       ?buildSlotMap@WLabel@@MAEXAAV?$map@V?$basic_string@DU?$char_traits@D@std@@V?$allocator@D@2@@std@@PAVWSlotInstance_@@U?$less@V?$basic_string@DU?$char_traits@D@std@@V?$allocator@D@2@@std@@@2@V?$allocator@U?$pair@$$CBV?$basic_string@DU?$char_traits@D@std@@V?$allocator@D@2@@std@@PAVWSlotInstance_@@@std@@@2@@std@@@Z 00470ce0 f   libwt:WLabel.obj
 0001:0006fda0       ?buildSignalMap@WLabel@@MAEXAAV?$map@V?$basic_string@DU?$char_traits@D@std@@V?$allocator@D@2@@std@@PAVWSignalInstance_@@U?$less@V?$basic_string@DU?$char_traits@D@std@@V?$allocator@D@2@@std@@@2@V?$allocator@U?$pair@$$CBV?$basic_string@DU?$char_traits@D@std@@V?$allocator@D@2@@std@@PAVWSignalInstance_@@@std@@@2@@std@@@Z 00470da0 f   libwt:WLabel.obj
 0001:0006fe60       ??0WCssDecorationStyle@@QAE@XZ 00470e60 f   libwt:WCssDecorationStyle.obj
 0001:0006ff10       ??0WCssDecorationStyle@@AAE@PAVWWebWidget@@@Z 00470f10 f   libwt:WCssDecorationStyle.obj
 0001:0006ffc0       ?setCursor@WCssDecorationStyle@@QAEXW4Cursor@1@@Z 00470fc0 f   libwt:WCssDecorationStyle.obj
 0001:0006ffe0       ?setFont@WCssDecorationStyle@@QAEXABVWFont@@@Z 00470fe0 f   libwt:WCssDecorationStyle.obj
 0001:00070010       ?setBackgroundImage@WCssDecorationStyle@@QAEXV?$basic_string@DU?$char_traits@D@std@@V?$allocator@D@2@@std@@W4Repeat@1@@Z 00471010 f   libwt:WCssDecorationStyle.obj
 0001:00070090       ?setBackgroundColor@WCssDecorationStyle@@QAEXVWColor@@@Z 00471090 f   libwt:WCssDecorationStyle.obj
 0001:00070110       ?setForegroundColor@WCssDecorationStyle@@QAEXVWColor@@@Z 00471110 f   libwt:WCssDecorationStyle.obj
 0001:000701a0       ?setBorder@WCssDecorationStyle@@QAEXVWBorder@@@Z 004711a0 f   libwt:WCssDecorationStyle.obj
 0001:00070210       ?updateDomElement@WCssDecorationStyle@@QAEXAAVDomElement@@_N@Z 00471210 f   libwt:WCssDecorationStyle.obj
 0001:00070540       ?cssText@WCssDecorationStyle@@QBE?AV?$basic_string@DU?$char_traits@D@std@@V?$allocator@D@2@@std@@XZ 00471540 f   libwt:WCssDecorationStyle.obj
 0001:000707f0       ?insertChild@DomElement@@QAEXPAV1@V?$basic_string@DU?$char_traits@D@std@@V?$allocator@D@2@@std@@@Z 004717f0 f   libwt:DomElement.obj
 0001:00070800       ?insertBefore@DomElement@@QAEXPAV1@@Z 00471800 f   libwt:DomElement.obj
 0001:00070810       ?removeFromParent@DomElement@@QAEXXZ 00471810 f   libwt:DomElement.obj
 0001:00070820       ?removeAllChildren@DomElement@@QAEXXZ 00471820 f   libwt:DomElement.obj
 0001:00070830       ?replaceWith@DomElement@@QAEXPAV1@@Z 00471830 f   libwt:DomElement.obj
 0001:00070920       ?canWriteInnerHTML@DomElement@@ABE_NXZ 00471920 f   libwt:DomElement.obj
 0001:00070940       ?isDefaultInline@DomElement@@QBE_NXZ 00471940 f   libwt:DomElement.obj
 0001:00070950       ?_Dec@const_iterator@?$_Tree@V?$_Tmap_traits@V?$basic_string@DU?$char_traits@D@std@@V?$allocator@D@2@@std@@U?$pair@V?$basic_string@DU?$char_traits@D@std@@V?$allocator@D@2@@std@@V12@@2@U?$less@V?$basic_string@DU?$char_traits@D@std@@V?$allocator@D@2@@std@@@2@V?$allocator@U?$pair@$$CBV?$basic_string@DU?$char_traits@D@std@@V?$allocator@D@2@@std@@U?$pair@V?$basic_string@DU?$char_traits@D@std@@V?$allocator@D@2@@std@@V12@@2@@std@@@2@$0A@@std@@@std@@QAEXXZ 00471950 f i libwt:DomElement.obj
 0001:000709b0       ??$_Copy_backward_opt@PAU?$pair@V?$basic_string@DU?$char_traits@D@std@@V?$allocator@D@2@@std@@PAVDomElement@@@std@@PAU12@@std@@YAPAU?$pair@V?$basic_string@DU?$char_traits@D@std@@V?$allocator@D@2@@std@@PAVDomElement@@@0@PAU10@00U_Nonscalar_ptr_iterator_tag@0@@Z 004719b0 f i libwt:DomElement.obj
 0001:00070ab0       ?createReference@DomElement@@QBE?AV?$basic_string@DU?$char_traits@D@std@@V?$allocator@D@2@@std@@XZ 00471ab0 f   libwt:DomElement.obj
 0001:00070b70       ??0?$pair@$$CBV?$basic_string@DU?$char_traits@D@std@@V?$allocator@D@2@@std@@U?$pair@V?$basic_string@DU?$char_traits@D@std@@V?$allocator@D@2@@std@@V12@@2@@std@@QAE@ABV?$basic_string@DU?$char_traits@D@std@@V?$allocator@D@2@@1@ABU?$pair@V?$basic_string@DU?$char_traits@D@std@@V?$allocator@D@2@@std@@V12@@1@@Z 00471b70 f i libwt:DomElement.obj
 0001:00070bd0       ?_Lbound@?$_Tree@V?$_Tmap_traits@V?$basic_string@DU?$char_traits@D@std@@V?$allocator@D@2@@std@@U?$pair@V?$basic_string@DU?$char_traits@D@std@@V?$allocator@D@2@@std@@V12@@2@U?$less@V?$basic_string@DU?$char_traits@D@std@@V?$allocator@D@2@@std@@@2@V?$allocator@U?$pair@$$CBV?$basic_string@DU?$char_traits@D@std@@V?$allocator@D@2@@std@@U?$pair@V?$basic_string@DU?$char_traits@D@std@@V?$allocator@D@2@@std@@V12@@2@@std@@@2@$0A@@std@@@std@@IBEPAU_Node@?$_Tree_nod@V?$_Tmap_traits@V?$basic_string@DU?$char_traits@D@std@@V?$allocator@D@2@@std@@U?$pair@V?$basic_string@DU?$char_traits@D@std@@V?$allocator@D@2@@std@@V12@@2@U?$less@V?$basic_string@DU?$char_traits@D@std@@V?$allocator@D@2@@std@@@2@V?$allocator@U?$pair@$$CBV?$basic_string@DU?$char_traits@D@std@@V?$allocator@D@2@@std@@U?$pair@V?$basic_string@DU?$char_traits@D@std@@V?$allocator@D@2@@std@@V12@@2@@std@@@2@$0A@@std@@@2@ABV?$basic_string@DU?$char_traits@D@std@@V?$allocator@D@2@@2@@Z 00471bd0 f i libwt:DomElement.obj
 0001:00070c20       ??$make_pair@V?$basic_string@DU?$char_traits@D@std@@V?$allocator@D@2@@std@@PAVDomElement@@@std@@YA?AU?$pair@V?$basic_string@DU?$char_traits@D@std@@V?$allocator@D@2@@std@@PAVDomElement@@@0@V?$basic_string@DU?$char_traits@D@std@@V?$allocator@D@2@@0@PAVDomElement@@@Z 00471c20 f i libwt:DomElement.obj
 0001:00070c90       ??$make_pair@V?$basic_string@DU?$char_traits@D@std@@V?$allocator@D@2@@std@@V12@@std@@YA?AU?$pair@V?$basic_string@DU?$char_traits@D@std@@V?$allocator@D@2@@std@@V12@@0@V?$basic_string@DU?$char_traits@D@std@@V?$allocator@D@2@@0@0@Z 00471c90 f i libwt:DomElement.obj
 0001:00070d20       ??$fill@PAU?$pair@V?$basic_string@DU?$char_traits@D@std@@V?$allocator@D@2@@std@@PAVDomElement@@@std@@U12@@std@@YAXPAU?$pair@V?$basic_string@DU?$char_traits@D@std@@V?$allocator@D@2@@std@@PAVDomElement@@@0@0ABU10@@Z 00471d20 f i libwt:DomElement.obj
 0001:00070d50       ?find@?$_Tree@V?$_Tmap_traits@V?$basic_string@DU?$char_traits@D@std@@V?$allocator@D@2@@std@@U?$pair@V?$basic_string@DU?$char_traits@D@std@@V?$allocator@D@2@@std@@V12@@2@U?$less@V?$basic_string@DU?$char_traits@D@std@@V?$allocator@D@2@@std@@@2@V?$allocator@U?$pair@$$CBV?$basic_string@DU?$char_traits@D@std@@V?$allocator@D@2@@std@@U?$pair@V?$basic_string@DU?$char_traits@D@std@@V?$allocator@D@2@@std@@V12@@2@@std@@@2@$0A@@std@@@std@@QBE?AVconst_iterator@12@ABV?$basic_string@DU?$char_traits@D@std@@V?$allocator@D@2@@2@@Z 00471d50 f i libwt:DomElement.obj
 0001:00070db0       ?_Insert@?$_Tree@V?$_Tmap_traits@W4Property@Wt@@V?$basic_string@DU?$char_traits@D@std@@V?$allocator@D@2@@std@@U?$less@W4Property@Wt@@@4@V?$allocator@U?$pair@$$CBW4Property@Wt@@V?$basic_string@DU?$char_traits@D@std@@V?$allocator@D@2@@std@@@std@@@4@$0A@@std@@@std@@IAE?AViterator@12@_NPAU_Node@?$_Tree_nod@V?$_Tmap_traits@W4Property@Wt@@V?$basic_string@DU?$char_traits@D@std@@V?$allocator@D@2@@std@@U?$less@W4Property@Wt@@@4@V?$allocator@U?$pair@$$CBW4Property@Wt@@V?$basic_string@DU?$char_traits@D@std@@V?$allocator@D@2@@std@@@std@@@4@$0A@@std@@@2@ABU?$pair@$$CBW4Property@Wt@@V?$basic_string@DU?$char_traits@D@std@@V?$allocator@D@2@@std@@@2@@Z 00471db0 f i libwt:DomElement.obj
 0001:00070f70       ?_Insert@?$_Tree@V?$_Tmap_traits@V?$basic_string@DU?$char_traits@D@std@@V?$allocator@D@2@@std@@U?$pair@V?$basic_string@DU?$char_traits@D@std@@V?$allocator@D@2@@std@@V12@@2@U?$less@V?$basic_string@DU?$char_traits@D@std@@V?$allocator@D@2@@std@@@2@V?$allocator@U?$pair@$$CBV?$basic_string@DU?$char_traits@D@std@@V?$allocator@D@2@@std@@U?$pair@V?$basic_string@DU?$char_traits@D@std@@V?$allocator@D@2@@std@@V12@@2@@std@@@2@$0A@@std@@@std@@IAE?AViterator@12@_NPAU_Node@?$_Tree_nod@V?$_Tmap_traits@V?$basic_string@DU?$char_traits@D@std@@V?$allocator@D@2@@std@@U?$pair@V?$basic_string@DU?$char_traits@D@std@@V?$allocator@D@2@@std@@V12@@2@U?$less@V?$basic_string@DU?$char_traits@D@std@@V?$allocator@D@2@@std@@@2@V?$allocator@U?$pair@$$CBV?$basic_string@DU?$char_traits@D@std@@V?$allocator@D@2@@std@@U?$pair@V?$basic_string@DU?$char_traits@D@std@@V?$allocator@D@2@@std@@V12@@2@@std@@@2@$0A@@std@@@2@ABU?$pair@$$CBV?$basic_string@DU?$char_traits@D@std@@V?$allocator@D@2@@std@@U?$pair@V?$basic_string@DU?$char_traits@D@std@@V?$allocator@D@2@@std@@V12@@2@@2@@Z 00471f70 f i libwt:DomElement.obj
 0001:00071130       ??$_Uninit_fill_n@PAU?$pair@V?$basic_string@DU?$char_traits@D@std@@V?$allocator@D@2@@std@@PAVDomElement@@@std@@IU12@V?$allocator@U?$pair@V?$basic_string@DU?$char_traits@D@std@@V?$allocator@D@2@@std@@PAVDomElement@@@std@@@2@@std@@YAXPAU?$pair@V?$basic_string@DU?$char_traits@D@std@@V?$allocator@D@2@@std@@PAVDomElement@@@0@IABU10@AAV?$allocator@U?$pair@V?$basic_string@DU?$char_traits@D@std@@V?$allocator@D@2@@std@@PAVDomElement@@@std@@@0@U_Nonscalar_ptr_iterator_tag@0@@Z 00472130 f i libwt:DomElement.obj
 0001:000711d0       ?asHTML@DomElement@@QBE?AV?$basic_string@DU?$char_traits@D@std@@V?$allocator@D@2@@std@@XZ 004721d0 f   libwt:DomElement.obj
 0001:000725d0       ?insert@?$_Tree@V?$_Tmap_traits@W4Property@Wt@@V?$basic_string@DU?$char_traits@D@std@@V?$allocator@D@2@@std@@U?$less@W4Property@Wt@@@4@V?$allocator@U?$pair@$$CBW4Property@Wt@@V?$basic_string@DU?$char_traits@D@std@@V?$allocator@D@2@@std@@@std@@@4@$0A@@std@@@std@@QAE?AU?$pair@Viterator@?$_Tree@V?$_Tmap_traits@W4Property@Wt@@V?$basic_string@DU?$char_traits@D@std@@V?$allocator@D@2@@std@@U?$less@W4Property@Wt@@@4@V?$allocator@U?$pair@$$CBW4Property@Wt@@V?$basic_string@DU?$char_traits@D@std@@V?$allocator@D@2@@std@@@std@@@4@$0A@@std@@@std@@_N@2@ABU?$pair@$$CBW4Property@Wt@@V?$basic_string@DU?$char_traits@D@std@@V?$allocator@D@2@@std@@@2@@Z 004735d0 f i libwt:DomElement.obj
 0001:00072690       ?insert@?$_Tree@V?$_Tmap_traits@V?$basic_string@DU?$char_traits@D@std@@V?$allocator@D@2@@std@@U?$pair@V?$basic_string@DU?$char_traits@D@std@@V?$allocator@D@2@@std@@V12@@2@U?$less@V?$basic_string@DU?$char_traits@D@std@@V?$allocator@D@2@@std@@@2@V?$allocator@U?$pair@$$CBV?$basic_string@DU?$char_traits@D@std@@V?$allocator@D@2@@std@@U?$pair@V?$basic_string@DU?$char_traits@D@std@@V?$allocator@D@2@@std@@V12@@2@@std@@@2@$0A@@std@@@std@@QAE?AU?$pair@Viterator@?$_Tree@V?$_Tmap_traits@V?$basic_string@DU?$char_traits@D@std@@V?$allocator@D@2@@std@@U?$pair@V?$basic_string@DU?$char_traits@D@std@@V?$allocator@D@2@@std@@V12@@2@U?$less@V?$basic_string@DU?$char_traits@D@std@@V?$allocator@D@2@@std@@@2@V?$allocator@U?$pair@$$CBV?$basic_string@DU?$char_traits@D@std@@V?$allocator@D@2@@std@@U?$pair@V?$basic_string@DU?$char_traits@D@std@@V?$allocator@D@2@@std@@V12@@2@@std@@@2@$0A@@std@@@std@@_N@2@ABU?$pair@$$CBV?$basic_string@DU?$char_traits@D@std@@V?$allocator@D@2@@std@@U?$pair@V?$basic_string@DU?$char_traits@D@std@@V?$allocator@D@2@@std@@V12@@2@@2@@Z 00473690 f i libwt:DomElement.obj
 0001:00072770       ?insert@?$_Tree@V?$_Tmap_traits@W4Property@Wt@@V?$basic_string@DU?$char_traits@D@std@@V?$allocator@D@2@@std@@U?$less@W4Property@Wt@@@4@V?$allocator@U?$pair@$$CBW4Property@Wt@@V?$basic_string@DU?$char_traits@D@std@@V?$allocator@D@2@@std@@@std@@@4@$0A@@std@@@std@@QAE?AViterator@12@V312@ABU?$pair@$$CBW4Property@Wt@@V?$basic_string@DU?$char_traits@D@std@@V?$allocator@D@2@@std@@@2@@Z 00473770 f i libwt:DomElement.obj
 0001:000728e0       ?insert@?$_Tree@V?$_Tmap_traits@V?$basic_string@DU?$char_traits@D@std@@V?$allocator@D@2@@std@@U?$pair@V?$basic_string@DU?$char_traits@D@std@@V?$allocator@D@2@@std@@V12@@2@U?$less@V?$basic_string@DU?$char_traits@D@std@@V?$allocator@D@2@@std@@@2@V?$allocator@U?$pair@$$CBV?$basic_string@DU?$char_traits@D@std@@V?$allocator@D@2@@std@@U?$pair@V?$basic_string@DU?$char_traits@D@std@@V?$allocator@D@2@@std@@V12@@2@@std@@@2@$0A@@std@@@std@@QAE?AViterator@12@V312@ABU?$pair@$$CBV?$basic_string@DU?$char_traits@D@std@@V?$allocator@D@2@@std@@U?$pair@V?$basic_string@DU?$char_traits@D@std@@V?$allocator@D@2@@std@@V12@@2@@2@@Z 004738e0 f i libwt:DomElement.obj
 0001:00072aa0       ?_Ufill@?$vector@U?$pair@V?$basic_string@DU?$char_traits@D@std@@V?$allocator@D@2@@std@@PAVDomElement@@@std@@V?$allocator@U?$pair@V?$basic_string@DU?$char_traits@D@std@@V?$allocator@D@2@@std@@PAVDomElement@@@std@@@2@@std@@IAEPAU?$pair@V?$basic_string@DU?$char_traits@D@std@@V?$allocator@D@2@@std@@PAVDomElement@@@2@PAU32@IABU32@@Z 00473aa0 f i libwt:DomElement.obj
 0001:00072ad0       ?_Insert_n@?$vector@U?$pair@V?$basic_string@DU?$char_traits@D@std@@V?$allocator@D@2@@std@@PAVDomElement@@@std@@V?$allocator@U?$pair@V?$basic_string@DU?$char_traits@D@std@@V?$allocator@D@2@@std@@PAVDomElement@@@std@@@2@@std@@IAEXViterator@12@IABU?$pair@V?$basic_string@DU?$char_traits@D@std@@V?$allocator@D@2@@std@@PAVDomElement@@@2@@Z 00473ad0 f i libwt:DomElement.obj
 0001:00072d90       ??A?$map@W4Property@Wt@@V?$basic_string@DU?$char_traits@D@std@@V?$allocator@D@2@@std@@U?$less@W4Property@Wt@@@4@V?$allocator@U?$pair@$$CBW4Property@Wt@@V?$basic_string@DU?$char_traits@D@std@@V?$allocator@D@2@@std@@@std@@@4@@std@@QAEAAV?$basic_string@DU?$char_traits@D@std@@V?$allocator@D@2@@1@ABW4Property@Wt@@@Z 00473d90 f i libwt:DomElement.obj
 0001:00072e60       ??A?$map@V?$basic_string@DU?$char_traits@D@std@@V?$allocator@D@2@@std@@U?$pair@V?$basic_string@DU?$char_traits@D@std@@V?$allocator@D@2@@std@@V12@@2@U?$less@V?$basic_string@DU?$char_traits@D@std@@V?$allocator@D@2@@std@@@2@V?$allocator@U?$pair@$$CBV?$basic_string@DU?$char_traits@D@std@@V?$allocator@D@2@@std@@U?$pair@V?$basic_string@DU?$char_traits@D@std@@V?$allocator@D@2@@std@@V12@@2@@std@@@2@@std@@QAEAAU?$pair@V?$basic_string@DU?$char_traits@D@std@@V?$allocator@D@2@@std@@V12@@1@ABV?$basic_string@DU?$char_traits@D@std@@V?$allocator@D@2@@1@@Z 00473e60 f i libwt:DomElement.obj
 0001:00072f40       ?setAttribute@DomElement@@QAEXV?$basic_string@DU?$char_traits@D@std@@V?$allocator@D@2@@std@@0@Z 00473f40 f   libwt:DomElement.obj
 0001:00072fb0       ?removeEventSignal@DomElement@@QAEXV?$basic_string@DU?$char_traits@D@std@@V?$allocator@D@2@@std@@@Z 00473fb0 f   libwt:DomElement.obj
 0001:000730d0       ?setEvent@DomElement@@QAEXV?$basic_string@DU?$char_traits@D@std@@V?$allocator@D@2@@std@@0@Z 004740d0 f   libwt:DomElement.obj
 0001:00073200       ?addEvent@DomElement@@QAEXV?$basic_string@DU?$char_traits@D@std@@V?$allocator@D@2@@std@@0@Z 00474200 f   libwt:DomElement.obj
 0001:00073270       ?addEventSignal@DomElement@@QAEXV?$basic_string@DU?$char_traits@D@std@@V?$allocator@D@2@@std@@ABVWSignalInstance_@@PBD2@Z 00474270 f   libwt:DomElement.obj
 0001:00073720       ?setProperty@DomElement@@QAEXW4Property@Wt@@V?$basic_string@DU?$char_traits@D@std@@V?$allocator@D@2@@std@@@Z 00474720 f   libwt:DomElement.obj
 0001:00073780       ?setId@DomElement@@QAEXV?$basic_string@DU?$char_traits@D@std@@V?$allocator@D@2@@std@@_N@Z 00474780 f   libwt:DomElement.obj
 0001:00073820       ?setId@DomElement@@QAEXPBVWObject@@_N@Z 00474820 f   libwt:DomElement.obj
 0001:00073850       ?push_back@?$vector@U?$pair@V?$basic_string@DU?$char_traits@D@std@@V?$allocator@D@2@@std@@PAVDomElement@@@std@@V?$allocator@U?$pair@V?$basic_string@DU?$char_traits@D@std@@V?$allocator@D@2@@std@@PAVDomElement@@@std@@@2@@std@@QAEXABU?$pair@V?$basic_string@DU?$char_traits@D@std@@V?$allocator@D@2@@std@@PAVDomElement@@@2@@Z 00474850 f i libwt:DomElement.obj
 0001:000738c0       ??1DomElement@@QAE@XZ      004748c0 f   libwt:DomElement.obj
 0001:00073a50       ?addChild@DomElement@@QAEXPAV1@@Z 00474a50 f   libwt:DomElement.obj
 0001:00073b00       ?setEventSignal@DomElement@@QAEXV?$basic_string@DU?$char_traits@D@std@@V?$allocator@D@2@@std@@ABVWSignalInstance_@@PBD2@Z 00474b00 f   libwt:DomElement.obj
 0001:00073c50       ??0DomElement@@AAE@W4Mode@0@W4ElementType@0@@Z 00474c50 f   libwt:DomElement.obj
 0001:00073d40       ?createNew@DomElement@@SAPAV1@W4ElementType@1@@Z 00474d40 f   libwt:DomElement.obj
 0001:00073da0       ?getForUpdate@DomElement@@SAPAV1@V?$basic_string@DU?$char_traits@D@std@@V?$allocator@D@2@@std@@W4ElementType@1@@Z 00474da0 f   libwt:DomElement.obj
 0001:00073e30       ?getForUpdate@DomElement@@SAPAV1@PBVWObject@@W4ElementType@1@@Z 00474e30 f   libwt:DomElement.obj
 0001:00073e60       ?createJSStatements@DomElement@@QBE?AVJSVar@@AAVJavaScript@@@Z 00474e60 f   libwt:DomElement.obj
 0001:00076130       ??0WLength@@QAE@XZ         00477130 f   libwt:WLength.obj
 0001:00076140       ??0WLength@@QAE@NW4Unit@0@@Z 00477140 f   libwt:WLength.obj
 0001:00076160       ??8WLength@@QBE_NABV0@@Z   00477160 f   libwt:WLength.obj
 0001:00076190       ??5?$lexical_stream@V?$basic_string@DU?$char_traits@D@std@@V?$allocator@D@2@@std@@N@detail@boost@@QAE_NAAV?$basic_string@DU?$char_traits@D@std@@V?$allocator@D@2@@std@@@Z 00477190 f i libwt:WLength.obj
 0001:000761f0       ??$lexical_cast@V?$basic_string@DU?$char_traits@D@std@@V?$allocator@D@2@@std@@N@boost@@YA?AV?$basic_string@DU?$char_traits@D@std@@V?$allocator@D@2@@std@@ABN@Z 004771f0 f i libwt:WLength.obj
 0001:00076360       ?cssText@WLength@@QBE?BV?$basic_string@DU?$char_traits@D@std@@V?$allocator@D@2@@std@@XZ 00477360 f   libwt:WLength.obj
 0001:00076410       ??0WMessage@@QAE@V?$basic_string@DU?$char_traits@D@std@@V?$allocator@D@2@@std@@@Z 00477410 f   libwt:WMessage.obj
 0001:00076470       ?value@WMessage@@QBE?BV?$basic_string@DU?$char_traits@D@std@@V?$allocator@D@2@@std@@XZ 00477470 f   libwt:WMessage.obj
 0001:000764a0       ?getValue@WMessageResourceBundle@@QBE?AV?$basic_string@DU?$char_traits@D@std@@V?$allocator@D@2@@std@@ABVWMessage@@@Z 004774a0 f   libwt:WMessageResourceBundle.obj
 0001:000765c0       ?refresh@WMessageResourceBundle@@QAEXXZ 004775c0 f   libwt:WMessageResourceBundle.obj
 0001:000765f0       ??0WMessageResourceBundle@@AAE@XZ 004775f0 f   libwt:WMessageResourceBundle.obj
 0001:00076600       ?use@WMessageResourceBundle@@QAEXV?$basic_string@DU?$char_traits@D@std@@V?$allocator@D@2@@std@@@Z 00477600 f   libwt:WMessageResourceBundle.obj
 0001:00076730       ??1WMessageResources@@QAE@XZ 00477730 f i libwt:WMessageResourceBundle.obj
 0001:000767e0       ??0WMessageResources@@QAE@ABV0@@Z 004777e0 f i libwt:WMessageResourceBundle.obj
 0001:00076850       ?dataChanged@WResource@@QAEXXZ 00477850 f   libwt:WResource.obj
 0001:00076860       ?triggerSlot@WResource@@MAE_NPAVWObject@@PBVWSlot_@@PAPAX@Z 00477860 f   libwt:WResource.obj
 0001:00076860       ?triggerSlot@WButtonGroup@@MAE_NPAVWObject@@PBVWSlot_@@PAPAX@Z 00477860 f   libwt:WButtonGroup.obj
 0001:00076870       ?undoTriggerSlot@WResource@@MAE_NPBVWSlot_@@PAPAX@Z 00477870 f   libwt:WResource.obj
 0001:00076870       ?undoTriggerSlot@WButtonGroup@@MAE_NPBVWSlot_@@PAPAX@Z 00477870 f   libwt:WButtonGroup.obj
 0001:00076870       ?undoTriggerSlot@WScrollBar@@MAE_NPBVWSlot_@@PAPAX@Z 00477870 f   libwt:WScrollBar.obj
 0001:00076870       ?undoTriggerSlot@WApplication@@MAE_NPBVWSlot_@@PAPAX@Z 00477870 f   libwt:WApplication.obj
 0001:00076870       ?undoTriggerSlot@WSignalMapper@@MAE_NPBVWSlot_@@PAPAX@Z 00477870 f   libwt:WSignalMapper.obj
 0001:00076880       ??0WResource@@QAE@XZ       00477880 f   libwt:WResource.obj
 0001:000768a0       ??1WResource@@UAE@XZ       004778a0 f   libwt:WResource.obj
 0001:00076910       ?decodeResource@WResource@@KAPAV1@V?$basic_string@DU?$char_traits@D@std@@V?$allocator@D@2@@std@@@Z 00477910 f   libwt:WResource.obj
 0001:000769d0       ??_EWResource@@UAEPAXI@Z   004779d0 f i libwt:WResource.obj
 0001:00076a30       ?generateUrl@WResource@@QBE?BV?$basic_string@DU?$char_traits@D@std@@V?$allocator@D@2@@std@@XZ 00477a30 f   libwt:WResource.obj
 0001:00076c00       ?buildSlotMap@WResource@@MAEXAAV?$map@V?$basic_string@DU?$char_traits@D@std@@V?$allocator@D@2@@std@@PAVWSlotInstance_@@U?$less@V?$basic_string@DU?$char_traits@D@std@@V?$allocator@D@2@@std@@@2@V?$allocator@U?$pair@$$CBV?$basic_string@DU?$char_traits@D@std@@V?$allocator@D@2@@std@@PAVWSlotInstance_@@@std@@@2@@std@@@Z 00477c00 f   libwt:WResource.obj
 0001:00076cc0       ?buildSignalMap@WResource@@MAEXAAV?$map@V?$basic_string@DU?$char_traits@D@std@@V?$allocator@D@2@@std@@PAVWSignalInstance_@@U?$less@V?$basic_string@DU?$char_traits@D@std@@V?$allocator@D@2@@std@@@2@V?$allocator@U?$pair@$$CBV?$basic_string@DU?$char_traits@D@std@@V?$allocator@D@2@@std@@PAVWSignalInstance_@@@std@@@2@@std@@@Z 00477cc0 f   libwt:WResource.obj
 0001:00076d80       ??0WMessage@@QAE@ABV0@@Z   00477d80 f   main.obj
 0001:00076d80       ??0JSVar@@QAE@ABV0@@Z      00477d80 f   libwt:JavaScript.obj
 0001:00076da0       ??0JavaScript@@QAE@XZ      00477da0 f   libwt:JavaScript.obj
 0001:00076df0       ?addStatement@JavaScript@@QAEXV?$basic_string@DU?$char_traits@D@std@@V?$allocator@D@2@@std@@@Z 00477df0 f   libwt:JavaScript.obj
 0001:00076e40       ??0JSVar@@AAE@XZ           00477e40 f   libwt:JavaScript.obj
 0001:00076ec0       ?declareVar@JavaScript@@QAE?AVJSVar@@V?$basic_string@DU?$char_traits@D@std@@V?$allocator@D@2@@std@@@Z 00477ec0 f   libwt:JavaScript.obj
 0001:00077070       ?getTempFunctionName@JavaScript@@QAE?BV?$basic_string@DU?$char_traits@D@std@@V?$allocator@D@2@@std@@XZ 00478070 f   libwt:JavaScript.obj
 0001:00077100       ??0WConnection_@@QAE@PAVWSignalInstance_@@PAVWSlotInstance_@@W4ConnectionType@WObject@@@Z 00478100 f   libwt:WConnection_.obj
 0001:00077140       ??1WConnection_@@QAE@XZ    00478140 f   libwt:WConnection_.obj
 0001:00077160       ?trigger@WConnection_@@QAE_NPAPAX@Z 00478160 f   libwt:WConnection_.obj
 0001:00077180       ?getStaticCode@WConnection_@@QBE?AV?$basic_string@DU?$char_traits@D@std@@V?$allocator@D@2@@std@@XZ 00478180 f   libwt:WConnection_.obj
 0001:000771a0       ?setValue@WScrollBar@@QAEXH@Z 004781a0 f   libwt:WScrollBar.obj
 0001:000771c0       ??$fill@PAPAVWConnection_@@PAV1@@std@@YAXPAPAVWConnection_@@0ABQAV1@@Z 004781c0 f i libwt:WSlotInstance_.obj
 0001:000771c0       ??$fill@PAPAVWRadioButton@@PAV1@@std@@YAXPAPAVWRadioButton@@0ABQAV1@@Z 004781c0 f i libwt:WButtonGroup.obj
 0001:000771c0       ??$fill@PAPAVWScrollBar@@PAV1@@std@@YAXPAPAVWScrollBar@@0ABQAV1@@Z 004781c0 f i libwt:WScrollBar.obj
 0001:000771c0       ??$fill@PAPAVWObject@@PAV1@@std@@YAXPAPAVWObject@@0ABQAV1@@Z 004781c0 f i libwt:WWebWidget.obj
 0001:000771c0       ??$fill@PAPAVWMessageResources@@PAV1@@std@@YAXPAPAVWMessageResources@@0ABQAV1@@Z 004781c0 f i libwt:WMessageResourceBundle.obj
 0001:000771c0       ??$fill@PAJJ@std@@YAXPAJ0ABJ@Z 004781c0 f i libboost_regex-vc71-mt-1_33_1:instances.obj
 0001:000771c0       ??$fill@PAPAVDomElement@@PAV1@@std@@YAXPAPAVDomElement@@0ABQAV1@@Z 004781c0 f i libwt:WWebWidget.obj
 0001:000771c0       ??$fill@PAPAVWTableRow@@PAV1@@std@@YAXPAPAVWTableRow@@0ABQAV1@@Z 004781c0 f i libwt:WTable.obj
 0001:000771c0       ??$fill@PAPAVWWidget@@PAV1@@std@@YAXPAPAVWWidget@@0ABQAV1@@Z 004781c0 f i libwt:WWebWidget.obj
 0001:000771e0       ?triggerSlot@WScrollBar@@MAE_NPAVWObject@@PBVWSlot_@@PAPAX@Z 004781e0 f   libwt:WScrollBar.obj
 0001:00077220       ?updateDom@WScrollBar@@AAEXAAVDomElement@@_N@Z 00478220 f   libwt:WScrollBar.obj
 0001:00077550       ?_Insert_n@?$vector@PAVWScrollBar@@V?$allocator@PAVWScrollBar@@@std@@@std@@IAEXViterator@12@IABQAVWScrollBar@@@Z 00478550 f i libwt:WScrollBar.obj
 0001:00077740       ??0WScrollBar@@AAE@PAVWScrollArea@@W4Orientation@0@@Z 00478740 f   libwt:WScrollBar.obj
 0001:000777a0       ?unTie@WScrollBar@@SAXPAV1@0@Z 004787a0 f   libwt:WScrollBar.obj
 0001:00077830       ??1WScrollBar@@EAE@XZ      00478830 f   libwt:WScrollBar.obj
 0001:000778d0       ??_EWScrollBar@@EAEPAXI@Z  004788d0 f i libwt:WScrollBar.obj
 0001:00077930       ?tie@WScrollBar@@SAXPAV1@0@Z 00478930 f   libwt:WScrollBar.obj
 0001:000779e0       ?buildSlotMap@WScrollBar@@MAEXAAV?$map@V?$basic_string@DU?$char_traits@D@std@@V?$allocator@D@2@@std@@PAVWSlotInstance_@@U?$less@V?$basic_string@DU?$char_traits@D@std@@V?$allocator@D@2@@std@@@2@V?$allocator@U?$pair@$$CBV?$basic_string@DU?$char_traits@D@std@@V?$allocator@D@2@@std@@PAVWSlotInstance_@@@std@@@2@@std@@@Z 004789e0 f   libwt:WScrollBar.obj
 0001:00077aa0       ?buildSignalMap@WScrollBar@@MAEXAAV?$map@V?$basic_string@DU?$char_traits@D@std@@V?$allocator@D@2@@std@@PAVWSignalInstance_@@U?$less@V?$basic_string@DU?$char_traits@D@std@@V?$allocator@D@2@@std@@@2@V?$allocator@U?$pair@$$CBV?$basic_string@DU?$char_traits@D@std@@V?$allocator@D@2@@std@@PAVWSignalInstance_@@@std@@@2@@std@@@Z 00478aa0 f   libwt:WScrollBar.obj
 0001:00077b60       ??0WFont@@QAE@XZ           00478b60 f   libwt:WFont.obj
 0001:00077be0       ??0WFont@@AAE@PAVWWebWidget@@@Z 00478be0 f   libwt:WFont.obj
 0001:00077c60       ?setFamily@WFont@@QAEXW4GenericFamily@1@V?$basic_string@DU?$char_traits@D@std@@V?$allocator@D@2@@std@@@Z 00478c60 f   libwt:WFont.obj
 0001:00077cd0       ?setStyle@WFont@@QAEXW4Style@1@@Z 00478cd0 f   libwt:WFont.obj
 0001:00077cf0       ?setVariant@WFont@@QAEXW4Variant@1@@Z 00478cf0 f   libwt:WFont.obj
 0001:00077d10       ?setWeight@WFont@@QAEXW4Weight@1@H@Z 00478d10 f   libwt:WFont.obj
 0001:00077d30       ?setSize@WFont@@QAEXW4Size@1@VWLength@@@Z 00478d30 f   libwt:WFont.obj
 0001:00077d70       ?updateDomElement@WFont@@AAEXAAVDomElement@@_N1@Z 00478d70 f   libwt:WFont.obj
 0001:000781d0       ??0WColor@@QAE@XZ          004791d0 f   libwt:WColor.obj
 0001:000781f0       ??0WColor@@QAE@HHH@Z       004791f0 f   libwt:WColor.obj
 0001:00078220       ??0WColor@@QAE@V?$basic_string@DU?$char_traits@D@std@@V?$allocator@D@2@@std@@@Z 00479220 f   libwt:WColor.obj
 0001:00078280       ?cssText@WColor@@QBE?BV?$basic_string@DU?$char_traits@D@std@@V?$allocator@D@2@@std@@XZ 00479280 f   libwt:WColor.obj
 0001:00078490       ??0WBorder@@QAE@XZ         00479490 f   libwt:WBorder.obj
 0001:000784c0       ??0WBorder@@QAE@W4Style@0@W4Width@0@VWColor@@@Z 004794c0 f   libwt:WBorder.obj
 0001:00078550       ?setWidth@WBorder@@QAEXW4Width@1@VWLength@@@Z 00479550 f   libwt:WBorder.obj
 0001:00078580       ?setColor@WBorder@@QAEXVWColor@@@Z 00479580 f   libwt:WBorder.obj
 0001:000785f0       ?setStyle@WBorder@@QAEXW4Style@1@@Z 004795f0 f   libwt:WBorder.obj
 0001:00078600       ?cssText@WBorder@@QBE?AV?$basic_string@DU?$char_traits@D@std@@V?$allocator@D@2@@std@@XZ 00479600 f   libwt:WBorder.obj
 0001:000788b0       ?readResourceFile@WMessageResources@@AAEXV?$basic_string@DU?$char_traits@D@std@@V?$allocator@D@2@@std@@AAV?$map@V?$basic_string@DU?$char_traits@D@std@@V?$allocator@D@2@@std@@V12@U?$less@V?$basic_string@DU?$char_traits@D@std@@V?$allocator@D@2@@std@@@2@V?$allocator@U?$pair@$$CBV?$basic_string@DU?$char_traits@D@std@@V?$allocator@D@2@@std@@V12@@std@@@2@@3@@Z 004798b0 f   libwt:WMessageResources.obj
 0001:000788c0       ?refresh@WMessageResources@@QAEXXZ 004798c0 f   libwt:WMessageResources.obj
 0001:00078900       ?find@?$_Tree@V?$_Tmap_traits@V?$basic_string@DU?$char_traits@D@std@@V?$allocator@D@2@@std@@V12@U?$less@V?$basic_string@DU?$char_traits@D@std@@V?$allocator@D@2@@std@@@2@V?$allocator@U?$pair@$$CBV?$basic_string@DU?$char_traits@D@std@@V?$allocator@D@2@@std@@V12@@std@@@2@$0A@@std@@@std@@QAE?AViterator@12@ABV?$basic_string@DU?$char_traits@D@std@@V?$allocator@D@2@@2@@Z 00479900 f i resstring.obj
 0001:00078900       ?find@?$_Tree@V?$_Tmap_traits@V?$basic_string@DU?$char_traits@D@std@@V?$allocator@D@2@@std@@V12@U?$less@V?$basic_string@DU?$char_traits@D@std@@V?$allocator@D@2@@std@@@2@V?$allocator@U?$pair@$$CBV?$basic_string@DU?$char_traits@D@std@@V?$allocator@D@2@@std@@V12@@std@@@2@$0A@@std@@@std@@QBE?AVconst_iterator@12@ABV?$basic_string@DU?$char_traits@D@std@@V?$allocator@D@2@@2@@Z 00479900 f i libwt:WMessageResources.obj
 0001:00078960       ?getValue@WMessageResources@@QBE_NABVWMessage@@AAV?$basic_string@DU?$char_traits@D@std@@V?$allocator@D@2@@std@@@Z 00479960 f   libwt:WMessageResources.obj
 0001:00078a70       ??0WMessageResources@@QAE@V?$basic_string@DU?$char_traits@D@std@@V?$allocator@D@2@@std@@@Z 00479a70 f   libwt:WMessageResources.obj
 0001:00078b60       ?DogOnUsb@SafeDog@@QAEHAA_N@Z 00479b60 f   usbdog:safedog.obj
 0001:00078bb0       ?GetDeviceNum@SafeDog@@QAEHAAV?$basic_string@DU?$char_traits@D@std@@V?$allocator@D@2@@std@@@Z 00479bb0 f   usbdog:safedog.obj
 0001:00078ca0       ?GetNodeNum@SafeDog@@QAEHAAV?$basic_string@DU?$char_traits@D@std@@V?$allocator@D@2@@std@@@Z 00479ca0 f   usbdog:safedog.obj
 0001:00078d84       _AAAAAAAAAt                00479d84     usbdog:Mhwin32c.obj
 0001:0007a10a       _AAAAAAAAA2                0047b10a     usbdog:Mhwin32c.obj
 0001:0007a195       _AAAAAAAAA3                0047b195     usbdog:Mhwin32c.obj
 0001:0007a220       _AAAAAAAAA4                0047b220     usbdog:Mhwin32c.obj
 0001:0007a2ab       _AAAAAAAAA5                0047b2ab     usbdog:Mhwin32c.obj
 0001:0007a336       _AAAAAAAAA6                0047b336     usbdog:Mhwin32c.obj
 0001:0007a3c1       _DogConvert                0047b3c1     usbdog:Mhwin32c.obj
 0001:0007a44c       _JJJJJJJJJt                0047b44c     usbdog:Mhwin32c.obj
 0001:0007a4d7       _DogEncrypt                0047b4d7     usbdog:Mhwin32c.obj
 0001:0007a562       _JJJJJJJJJ2                0047b562     usbdog:Mhwin32c.obj
 0001:0007a5ed       _JJJJJJJJJ3                0047b5ed     usbdog:Mhwin32c.obj
 0001:0007a678       _JJJJJJJJJ4                0047b678     usbdog:Mhwin32c.obj
 0001:0007a703       _JJJJJJJJJ5                0047b703     usbdog:Mhwin32c.obj
 0001:0007a78e       _JJJJJJJJJ6                0047b78e     usbdog:Mhwin32c.obj
 0001:0007a819       _DogDecrypt                0047b819     usbdog:Mhwin32c.obj
 0001:0007a8a4       _KKKKKKKKK1                0047b8a4     usbdog:Mhwin32c.obj
 0001:0007a92f       _KKKKKKKKK2                0047b92f     usbdog:Mhwin32c.obj
 0001:0007a9ba       _KKKKKKKKK3                0047b9ba     usbdog:Mhwin32c.obj
 0001:0007aa45       _KKKKKKKKK4                0047ba45     usbdog:Mhwin32c.obj
 0001:0007aad0       _KKKKKKKKK5                0047bad0     usbdog:Mhwin32c.obj
 0001:0007ab5b       _KKKKKKKKK6                0047bb5b     usbdog:Mhwin32c.obj
 0001:0007abe6       _PPPPPPPPm                 0047bbe6     usbdog:Mhwin32c.obj
 0001:0007ac71       _PPPPPPPP1                 0047bc71     usbdog:Mhwin32c.obj
 0001:0007acfc       _GetRandom                 0047bcfc     usbdog:Mhwin32c.obj
 0001:0007ad87       _PPPPPPPP3                 0047bd87     usbdog:Mhwin32c.obj
 0001:0007ae12       _PPPPPPPP4                 0047be12     usbdog:Mhwin32c.obj
 0001:0007ae9d       _PPPPPPPP5                 0047be9d     usbdog:Mhwin32c.obj
 0001:0007af28       _PPPPPPPP6                 0047bf28     usbdog:Mhwin32c.obj
 0001:0007afb3       _FFFFFFFFFFd               0047bfb3     usbdog:Mhwin32c.obj
 0001:0007b03e       _FFFFFFFFFF1               0047c03e     usbdog:Mhwin32c.obj
 0001:0007b0c9       _SetPassword               0047c0c9     usbdog:Mhwin32c.obj
 0001:0007b154       _FFFFFFFFFF3               0047c154     usbdog:Mhwin32c.obj
 0001:0007b1df       _FFFFFFFFFF4               0047c1df     usbdog:Mhwin32c.obj
 0001:0007b26a       _FFFFFFFFFF5               0047c26a     usbdog:Mhwin32c.obj
 0001:0007b2f5       _FFFFFFFFFF6               0047c2f5     usbdog:Mhwin32c.obj
 0001:0007b380       _HHHHHHHHx                 0047c380     usbdog:Mhwin32c.obj
 0001:0007b40b       _HHHHHHHH1                 0047c40b     usbdog:Mhwin32c.obj
 0001:0007b496       _HHHHHHHH2                 0047c496     usbdog:Mhwin32c.obj
 0001:0007b521       _ReadDogEx                 0047c521     usbdog:Mhwin32c.obj
 0001:0007b5ac       _HHHHHHHH4                 0047c5ac     usbdog:Mhwin32c.obj
 0001:0007b637       _HHHHHHHH5                 0047c637     usbdog:Mhwin32c.obj
 0001:0007b6c2       _HHHHHHHH6                 0047c6c2     usbdog:Mhwin32c.obj
 0001:0007b74d       _IIIIIIIIIx                0047c74d     usbdog:Mhwin32c.obj
 0001:0007b7d8       _IIIIIIIII1                0047c7d8     usbdog:Mhwin32c.obj
 0001:0007b863       _WriteDogEx                0047c863     usbdog:Mhwin32c.obj
 0001:0007b8ee       _IIIIIIIII3                0047c8ee     usbdog:Mhwin32c.obj
 0001:0007b979       _IIIIIIIII4                0047c979     usbdog:Mhwin32c.obj
 0001:0007ba04       _IIIIIIIII5                0047ca04     usbdog:Mhwin32c.obj
 0001:0007ba8f       _IIIIIIIII6                0047ca8f     usbdog:Mhwin32c.obj
 0001:0007bb1a       _LLLLLLh                   0047cb1a     usbdog:Mhwin32c.obj
 0001:0007bba5       _LLLLLL1                   0047cba5     usbdog:Mhwin32c.obj
 0001:0007bc30       _LLLLLL2                   0047cc30     usbdog:Mhwin32c.obj
 0001:0007bcbb       _LLLLLL3                   0047ccbb     usbdog:Mhwin32c.obj
 0001:0007bd46       _LLLLLL4                   0047cd46     usbdog:Mhwin32c.obj
 0001:0007bdd1       _LLLLLL5                   0047cdd1     usbdog:Mhwin32c.obj
 0001:0007be5c       _DogHash                   0047ce5c     usbdog:Mhwin32c.obj
 0001:0007bee7       _MMMMMMn                   0047cee7     usbdog:Mhwin32c.obj
 0001:0007bf72       _MMMMMM1                   0047cf72     usbdog:Mhwin32c.obj
 0001:0007bffd       _MMMMMM2                   0047cffd     usbdog:Mhwin32c.obj
 0001:0007c088       _MMMMMM3                   0047d088     usbdog:Mhwin32c.obj
 0001:0007c113       _MMMMMM4                   0047d113     usbdog:Mhwin32c.obj
 0001:0007c19e       _DogSign                   0047d19e     usbdog:Mhwin32c.obj
 0001:0007c229       _MMMMMM6                   0047d229     usbdog:Mhwin32c.obj
 0001:0007c2b4       _GGGGGGGGGGGe              0047d2b4     usbdog:Mhwin32c.obj
 0001:0007c33f       _GGGGGGGGGGG1              0047d33f     usbdog:Mhwin32c.obj
 0001:0007c3ca       _GGGGGGGGGGG2              0047d3ca     usbdog:Mhwin32c.obj
 0001:0007c455       _GGGGGGGGGGG3              0047d455     usbdog:Mhwin32c.obj
 0001:0007c4e0       _GetDogExSize              0047d4e0     usbdog:Mhwin32c.obj
 0001:0007c56b       _GGGGGGGGGGG5              0047d56b     usbdog:Mhwin32c.obj
 0001:0007c5f6       _GGGGGGGGGGG6              0047d5f6     usbdog:Mhwin32c.obj
 0001:0007c681       _NNNNNNNNNNy               0047d681     usbdog:Mhwin32c.obj
 0001:0007c70c       _NNNNNNNNNN1               0047d70c     usbdog:Mhwin32c.obj
 0001:0007c797       _NNNNNNNNNN2               0047d797     usbdog:Mhwin32c.obj
 0001:0007c822       _NNNNNNNNNN3               0047d822     usbdog:Mhwin32c.obj
 0001:0007c8ad       _SetCryptKey               0047d8ad     usbdog:Mhwin32c.obj
 0001:0007c938       _NNNNNNNNNN5               0047d938     usbdog:Mhwin32c.obj
 0001:0007c9c3       _NNNNNNNNNN6               0047d9c3     usbdog:Mhwin32c.obj
 0001:0007ca4e       _OOOOOOOOOy                0047da4e     usbdog:Mhwin32c.obj
 0001:0007cad9       _OOOOOOOOO1                0047dad9     usbdog:Mhwin32c.obj
 0001:0007cb64       _OOOOOOOOO2                0047db64     usbdog:Mhwin32c.obj
 0001:0007cbef       _SetSignKey                0047dbef     usbdog:Mhwin32c.obj
 0001:0007cc7a       _OOOOOOOOO4                0047dc7a     usbdog:Mhwin32c.obj
 0001:0007cd05       _OOOOOOOOO5                0047dd05     usbdog:Mhwin32c.obj
 0001:0007cd90       _OOOOOOOOO6                0047dd90     usbdog:Mhwin32c.obj
 0001:0007ce1b       _AuthenticateDevice        0047de1b     usbdog:Mhwin32c.obj
 0001:0007cea6       _AuthenticateDevic1        0047dea6     usbdog:Mhwin32c.obj
 0001:0007cf31       _AuthenticateDevic2        0047df31     usbdog:Mhwin32c.obj
 0001:0007cfbc       _AuthenticateDevic3        0047dfbc     usbdog:Mhwin32c.obj
 0001:0007d047       _AuthenticateDevic4        0047e047     usbdog:Mhwin32c.obj
 0001:0007d0d2       _AuthenticateDevic5        0047e0d2     usbdog:Mhwin32c.obj
 0001:0007d15d       _AuthenticateDevic6        0047e15d     usbdog:Mhwin32c.obj
 0001:0007d1e8       _RRRRRRRRRRRt              0047e1e8     usbdog:Mhwin32c.obj
 0001:0007d2fc       _RRRRRRRRRRR1              0047e2fc     usbdog:Mhwin32c.obj
 0001:0007d3ed       _RRRRRRRRRRR2              0047e3ed     usbdog:Mhwin32c.obj
 0001:0007d4de       _GetTimeLimit              0047e4de     usbdog:Mhwin32c.obj
 0001:0007d5cf       _RRRRRRRRRRR4              0047e5cf     usbdog:Mhwin32c.obj
 0001:0007d6c0       _RRRRRRRRRRR5              0047e6c0     usbdog:Mhwin32c.obj
 0001:0007d7b1       _RRRRRRRRRRR6              0047e7b1     usbdog:Mhwin32c.obj
 0001:0007d8a2       _SetTimeLimit              0047e8a2     usbdog:Mhwin32c.obj
 0001:0007d99e       _SetTimeLimi1              0047e99e     usbdog:Mhwin32c.obj
 0001:0007da98       _SetTimeLimi2              0047ea98     usbdog:Mhwin32c.obj
 0001:0007db94       _SetTimeLimi3              0047eb94     usbdog:Mhwin32c.obj
 0001:0007dc90       _SetTimeLimi4              0047ec90     usbdog:Mhwin32c.obj
 0001:0007dd8c       _SetTimeLimi5              0047ed8c     usbdog:Mhwin32c.obj
 0001:0007de88       _SetTimeLimi6              0047ee88     usbdog:Mhwin32c.obj
 0001:0007df84       _ActivateTimeLimit         0047ef84     usbdog:Mhwin32c.obj
 0001:0007e06b       _ActivateTimeLimi1         0047f06b     usbdog:Mhwin32c.obj
 0001:0007e154       _ActivateTimeLimi2         0047f154     usbdog:Mhwin32c.obj
 0001:0007e23d       _ActivateTimeLimi3         0047f23d     usbdog:Mhwin32c.obj
 0001:0007e326       _ActivateTimeLimi4         0047f326     usbdog:Mhwin32c.obj
 0001:0007e40f       _ActivateTimeLimi5         0047f40f     usbdog:Mhwin32c.obj
 0001:0007e4f8       _ActivateTimeLimi6         0047f4f8     usbdog:Mhwin32c.obj
 0001:0007e5e1       _QQQQQQQQQQQQo             0047f5e1     usbdog:Mhwin32c.obj
 0001:0007e66c       _QQQQQQQQQQQQ1             0047f66c     usbdog:Mhwin32c.obj
 0001:0007e6f7       _QQQQQQQQQQQQ2             0047f6f7     usbdog:Mhwin32c.obj
 0001:0007e782       _QQQQQQQQQQQQ3             0047f782     usbdog:Mhwin32c.obj
 0001:0007e80d       _GetDeviceInfo             0047f80d     usbdog:Mhwin32c.obj
 0001:0007e898       _QQQQQQQQQQQQ5             0047f898     usbdog:Mhwin32c.obj
 0001:0007e923       _QQQQQQQQQQQQ6             0047f923     usbdog:Mhwin32c.obj
 0001:0007e9ae       _TTTTTTTg                  0047f9ae     usbdog:Mhwin32c.obj
 0001:0007ea39       _TTTTTTT1                  0047fa39     usbdog:Mhwin32c.obj
 0001:0007eac4       _WriteDog                  0047fac4     usbdog:Mhwin32c.obj
 0001:0007eb4f       _TTTTTTT3                  0047fb4f     usbdog:Mhwin32c.obj
 0001:0007ebda       _TTTTTTT4                  0047fbda     usbdog:Mhwin32c.obj
 0001:0007ec65       _TTTTTTT5                  0047fc65     usbdog:Mhwin32c.obj
 0001:0007ecf0       _TTTTTTT6                  0047fcf0     usbdog:Mhwin32c.obj
 0001:0007ed7b       _DogCheck                  0047fd7b     usbdog:Mhwin32c.obj
 0001:0007edfb       _BBBBBBB1                  0047fdfb     usbdog:Mhwin32c.obj
 0001:0007ee7b       _BBBBBBB2                  0047fe7b     usbdog:Mhwin32c.obj
 0001:0007eefb       _BBBBBBB3                  0047fefb     usbdog:Mhwin32c.obj
 0001:0007ef7b       _BBBBBBB4                  0047ff7b     usbdog:Mhwin32c.obj
 0001:0007effb       _BBBBBBB5                  0047fffb     usbdog:Mhwin32c.obj
 0001:0007f07b       _BBBBBBB6                  0048007b     usbdog:Mhwin32c.obj
 0001:0007f0fb       _SSSSSSg                   004800fb     usbdog:Mhwin32c.obj
 0001:0007f18b       _SSSSSS1                   0048018b     usbdog:Mhwin32c.obj
 0001:0007f21b       _SSSSSS2                   0048021b     usbdog:Mhwin32c.obj
 0001:0007f2ab       _SSSSSS3                   004802ab     usbdog:Mhwin32c.obj
 0001:0007f33b       _ReadDog                   0048033b     usbdog:Mhwin32c.obj
 0001:0007f3cb       _SSSSSS5                   004803cb     usbdog:Mhwin32c.obj
 0001:0007f45b       _SSSSSS6                   0048045b     usbdog:Mhwin32c.obj
 0001:0007f4eb       _DDDDDDDDDDDo              004804eb     usbdog:Mhwin32c.obj
 0001:0007f56d       _DDDDDDDDDDD1              0048056d     usbdog:Mhwin32c.obj
 0001:0007f5ef       _DDDDDDDDDDD2              004805ef     usbdog:Mhwin32c.obj
 0001:0007f671       _DDDDDDDDDDD3              00480671     usbdog:Mhwin32c.obj
 0001:0007f6f3       _DDDDDDDDDDD4              004806f3     usbdog:Mhwin32c.obj
 0001:0007f775       _GetCurrentNo              00480775     usbdog:Mhwin32c.obj
 0001:0007f7f7       _DDDDDDDDDDD6              004807f7     usbdog:Mhwin32c.obj
 0001:0007f917       _CCCCCCCCCCCe              00480917     usbdog:Mhwin32c.obj
 0001:0007f9a4       _CCCCCCCCCCC1              004809a4     usbdog:Mhwin32c.obj
 0001:0007fa31       _CCCCCCCCCCC2              00480a31     usbdog:Mhwin32c.obj
 0001:0007fabe       _CCCCCCCCCCC3              00480abe     usbdog:Mhwin32c.obj
 0001:0007fb4b       _DisableShare              00480b4b     usbdog:Mhwin32c.obj
 0001:0007fbd8       _CCCCCCCCCCC5              00480bd8     usbdog:Mhwin32c.obj
 0001:0007fc65       _CCCCCCCCCCC6              00480c65     usbdog:Mhwin32c.obj
 0001:0007fcf2       _EEEEEEEEEEEEe             00480cf2     usbdog:Mhwin32c.obj
 0001:0007fd7d       _EEEEEEEEEEEE1             00480d7d     usbdog:Mhwin32c.obj
 0001:0007fe08       _EEEEEEEEEEEE2             00480e08     usbdog:Mhwin32c.obj
 0001:0007fe93       _SetDogCascade             00480e93     usbdog:Mhwin32c.obj
 0001:0007ff1e       _EEEEEEEEEEEE4             00480f1e     usbdog:Mhwin32c.obj
 0001:0007ffa9       _EEEEEEEEEEEE5             00480fa9     usbdog:Mhwin32c.obj
 0001:00080034       _EEEEEEEEEEEE6             00481034     usbdog:Mhwin32c.obj
 0001:000800bf       _GetSerialNumber           004810bf     usbdog:Mhwin32c.obj
 0001:000865a0       ??0Des@@QAE@XZ             004875a0 f   svdes:Des.obj
 0001:000865b0       ??1Des@@UAE@XZ             004875b0 f   svdes:Des.obj
 0001:000865c0       ?bitsel@Des@@AAEIPAIPBHH@Z 004875c0 f   svdes:Des.obj
 0001:00086620       ?des_encipher@Des@@AAEXPAIIIPAUDESContext@@@Z 00487620 f   svdes:Des.obj
 0001:00086fa0       ?des_decipher@Des@@AAEXPAIIIPAUDESContext@@@Z 00487fa0 f   svdes:Des.obj
 0001:00087920       ??_EDes@@UAEPAXI@Z         00488920 f i svdes:Des.obj
 0001:00087920       ??_GDes@@UAEPAXI@Z         00488920 f i svdes:Des.obj
 0001:00087940       ?des_key_setup@Des@@AAEXIIPAUDESContext@@@Z 00488940 f   svdes:Des.obj
 0001:00087ac0       ?des_cbc_encrypt@Des@@AAEXPAEPBEIPAUDESContext@@@Z 00488ac0 f   svdes:Des.obj
 0001:00087bb0       ?des_cbc_decrypt@Des@@AAEXPAEPBEIPAUDESContext@@@Z 00488bb0 f   svdes:Des.obj
 0001:00087ce0       ?Encrypt@Des@@QAE_NPBDPAD@Z 00488ce0 f   svdes:Des.obj
 0001:00087f20       ?Decrypt@Des@@QAE_NPBDPAD@Z 00488f20 f   svdes:Des.obj
 0001:00088138       ??2@YAPAXI@Z               00489138 f   msvcprt:newop_s.obj
 0001:0008815d       ??_U@YAPAXI@Z              0048915d f   msvcprt:newaop_s.obj
 0001:00088162       ___CxxFrameHandler         00489162 f   MSVCRT:MSVCR71.dll
 0001:00088170       ??3@YAXPAX@Z               00489170 f   MSVCRT:MSVCR71.dll
 0001:00088176       __purecall                 00489176 f   MSVCRT:MSVCR71.dll
 0001:0008817c       ??_V@YAXPAX@Z              0048917c f   MSVCRT:MSVCR71.dll
 0001:00088182       ?__ArrayUnwind@@YGXPAXIHP6EX0@Z@Z 00489182 f   MSVCRT:ehvecdtr.obj
 0001:000881e0       ??_M@YGXPAXIHP6EX0@Z@Z     004891e0 f   MSVCRT:ehvecdtr.obj
 0001:00088240       ??0exception@@QAE@ABV0@@Z  00489240 f   MSVCRT:MSVCR71.dll
 0001:00088246       ??_Etype_info@@UAEPAXI@Z   00489246 f i MSVCRT:ti_inst.obj
 0001:00088292       __CxxThrowException@8      00489292 f   MSVCRT:MSVCR71.dll
 0001:00088298       ??0bad_cast@@QAE@ABV0@@Z   00489298 f   MSVCRT:MSVCR71.dll
 0001:000882cf       @__security_check_cookie@4 004892cf f   MSVCRT:secchk.obj
 0001:000882e0       __chkstk                   004892e0 f   MSVCRT:chkstk.obj
 0001:000882e0       __alloca_probe             004892e0     MSVCRT:chkstk.obj
 0001:0008831d       __onexit                   0048931d f   MSVCRT:atonexit.obj
 0001:00088343       _atexit                    00489343 f   MSVCRT:atonexit.obj
 0001:00088355       _mainCRTStartup            00489355 f   MSVCRT:crtexe.obj
 0001:000884ee       _malloc                    004894ee f   MSVCRT:MSVCR71.dll
 0001:000884f4       ___RTDynamicCast           004894f4 f   MSVCRT:MSVCR71.dll
 0001:000884fa       __callnewh                 004894fa f   MSVCRT:MSVCR71.dll
 0001:00088500       ?terminate@@YAXXZ          00489500 f   MSVCRT:MSVCR71.dll
 0001:00088508       __SEH_prolog               00489508 f   MSVCRT:sehprolg.obj
 0001:00088543       __SEH_epilog               00489543 f   MSVCRT:sehprolg.obj
 0001:00088554       __except_handler3          00489554 f   MSVCRT:MSVCR71.dll
 0001:0008855a       ??1type_info@@UAE@XZ       0048955a f   MSVCRT:MSVCR71.dll
 0001:00088560       ___security_init_cookie    00489560 f   MSVCRT:seccinit.obj
 0001:000885c6       ___security_error_handler  004895c6 f   MSVCRT:MSVCR71.dll
 0001:000885cc       ___dllonexit               004895cc f   MSVCRT:MSVCR71.dll
 0001:000885d2       __XcptFilter               004895d2 f   MSVCRT:MSVCR71.dll
 0001:000885d8       __amsg_exit                004895d8 f   MSVCRT:MSVCR71.dll
 0001:000885de       __RTC_Initialize           004895de f   MSVCRT:initsect.obj
 0001:00088622       __RTC_Terminate            00489622 f   MSVCRT:initsect.obj
 0001:00088666       __initterm                 00489666 f   MSVCRT:MSVCR71.dll
 0001:0008866c       __setdefaultprecision      0048966c f   MSVCRT:fp8.obj
 0001:0008867e       __setargv                  0048967e f   MSVCRT:dllargv.obj
 0001:0008867e       __matherr                  0048967e f   MSVCRT:merr.obj
 0001:00088682       __controlfp                00489682 f   MSVCRT:MSVCR71.dll
 0001:00088690       ??1invalid_argument@std@@UAE@XZ 00489690 f i libboost_regex-vc71-mt-1_33_1:instances.obj
 0001:000886a0       ??_Ginvalid_argument@std@@UAEPAXI@Z 004896a0 f i libboost_regex-vc71-mt-1_33_1:instances.obj
 0001:000886a0       ??_Einvalid_argument@std@@UAEPAXI@Z 004896a0 f i libboost_regex-vc71-mt-1_33_1:instances.obj
 0001:000886c0       ??0runtime_error@std@@QAE@ABV?$basic_string@DU?$char_traits@D@std@@V?$allocator@D@2@@1@@Z 004896c0 f i libboost_regex-vc71-mt-1_33_1:instances.obj
 0001:00088720       ??1runtime_error@std@@UAE@XZ 00489720 f i libboost_regex-vc71-mt-1_33_1:instances.obj
 0001:00088780       ?what@runtime_error@std@@UBEPBDXZ 00489780 f i libboost_regex-vc71-mt-1_33_1:instances.obj
 0001:00088780       ?what@logic_error@std@@UBEPBDXZ 00489780 f i main.obj
 0001:00088790       ??_Eruntime_error@std@@UAEPAXI@Z 00489790 f i libboost_regex-vc71-mt-1_33_1:instances.obj
 0001:00088790       ??_Gruntime_error@std@@UAEPAXI@Z 00489790 f i libboost_regex-vc71-mt-1_33_1:instances.obj
 0001:000887b0       ?destroy@sp_counted_base@detail@boost@@UAEXXZ 004897b0 f i libboost_regex-vc71-mt-1_33_1:instances.obj
 0001:000887c0       ??_Gsp_counted_base@detail@boost@@UAEPAXI@Z 004897c0 f i libboost_regex-vc71-mt-1_33_1:instances.obj
 0001:000887c0       ??_Esp_counted_base@detail@boost@@UAEPAXI@Z 004897c0 f i libboost_regex-vc71-mt-1_33_1:instances.obj
 0001:000887e0       ??_Eabstract_protected_call@re_detail@boost@@UAEPAXI@Z 004897e0 f i libboost_regex-vc71-mt-1_33_1:instances.obj
 0001:000887e0       ??_Gabstract_protected_call@re_detail@boost@@UAEPAXI@Z 004897e0 f i libboost_regex-vc71-mt-1_33_1:instances.obj
 0001:00088800       ?match_wild@?$perl_matcher@Vconst_iterator@?$basic_string@DU?$char_traits@D@std@@V?$allocator@D@2@@std@@V?$allocator@U?$sub_match@Vconst_iterator@?$basic_string@DU?$char_traits@D@std@@V?$allocator@D@2@@std@@@boost@@@3@U?$regex_traits@DV?$w32_regex_traits@D@boost@@@boost@@@re_detail@boost@@AAE_NXZ 00489800 f i libboost_regex-vc71-mt-1_33_1:instances.obj
 0001:00088840       ?match_buffer_start@?$perl_matcher@Vconst_iterator@?$basic_string@DU?$char_traits@D@std@@V?$allocator@D@2@@std@@V?$allocator@U?$sub_match@Vconst_iterator@?$basic_string@DU?$char_traits@D@std@@V?$allocator@D@2@@std@@@boost@@@3@U?$regex_traits@DV?$w32_regex_traits@D@boost@@@boost@@@re_detail@boost@@AAE_NXZ 00489840 f i libboost_regex-vc71-mt-1_33_1:instances.obj
 0001:00088860       ?match_buffer_end@?$perl_matcher@Vconst_iterator@?$basic_string@DU?$char_traits@D@std@@V?$allocator@D@2@@std@@V?$allocator@U?$sub_match@Vconst_iterator@?$basic_string@DU?$char_traits@D@std@@V?$allocator@D@2@@std@@@boost@@@3@U?$regex_traits@DV?$w32_regex_traits@D@boost@@@boost@@@re_detail@boost@@AAE_NXZ 00489860 f i libboost_regex-vc71-mt-1_33_1:instances.obj
 0001:00088880       ?match_jump@?$perl_matcher@Vconst_iterator@?$basic_string@DU?$char_traits@D@std@@V?$allocator@D@2@@std@@V?$allocator@U?$sub_match@Vconst_iterator@?$basic_string@DU?$char_traits@D@std@@V?$allocator@D@2@@std@@@boost@@@3@U?$regex_traits@DV?$w32_regex_traits@D@boost@@@boost@@@re_detail@boost@@AAE_NXZ 00489880 f i libboost_regex-vc71-mt-1_33_1:instances.obj
 0001:00088890       ?match_alt@?$perl_matcher@Vconst_iterator@?$basic_string@DU?$char_traits@D@std@@V?$allocator@D@2@@std@@V?$allocator@U?$sub_match@Vconst_iterator@?$basic_string@DU?$char_traits@D@std@@V?$allocator@D@2@@std@@@boost@@@3@U?$regex_traits@DV?$w32_regex_traits@D@boost@@@boost@@@re_detail@boost@@AAE_NXZ 00489890 f i libboost_regex-vc71-mt-1_33_1:instances.obj
 0001:00088910       ?match_restart_continue@?$perl_matcher@Vconst_iterator@?$basic_string@DU?$char_traits@D@std@@V?$allocator@D@2@@std@@V?$allocator@U?$sub_match@Vconst_iterator@?$basic_string@DU?$char_traits@D@std@@V?$allocator@D@2@@std@@@boost@@@3@U?$regex_traits@DV?$w32_regex_traits@D@boost@@@boost@@@re_detail@boost@@AAE_NXZ 00489910 f i libboost_regex-vc71-mt-1_33_1:instances.obj
 0001:00088930       ?match_toggle_case@?$perl_matcher@Vconst_iterator@?$basic_string@DU?$char_traits@D@std@@V?$allocator@D@2@@std@@V?$allocator@U?$sub_match@Vconst_iterator@?$basic_string@DU?$char_traits@D@std@@V?$allocator@D@2@@std@@@boost@@@3@U?$regex_traits@DV?$w32_regex_traits@D@boost@@@boost@@@re_detail@boost@@AAE_NXZ 00489930 f i libboost_regex-vc71-mt-1_33_1:instances.obj
 0001:00088950       ?find_restart_lit@?$perl_matcher@Vconst_iterator@?$basic_string@DU?$char_traits@D@std@@V?$allocator@D@2@@std@@V?$allocator@U?$sub_match@Vconst_iterator@?$basic_string@DU?$char_traits@D@std@@V?$allocator@D@2@@std@@@boost@@@3@U?$regex_traits@DV?$w32_regex_traits@D@boost@@@boost@@@re_detail@boost@@AAE_NXZ 00489950 f i libboost_regex-vc71-mt-1_33_1:instances.obj
 0001:00088960       ??0runtime_error@std@@QAE@ABV01@@Z 00489960 f i libboost_regex-vc71-mt-1_33_1:instances.obj
 0001:000889c0       ??1?$concrete_protected_call@V?$perl_matcher@Vconst_iterator@?$basic_string@DU?$char_traits@D@std@@V?$allocator@D@2@@std@@V?$allocator@U?$sub_match@Vconst_iterator@?$basic_string@DU?$char_traits@D@std@@V?$allocator@D@2@@std@@@boost@@@3@U?$regex_traits@DV?$w32_regex_traits@D@boost@@@boost@@@re_detail@boost@@@re_detail@boost@@UAE@XZ 004899c0 f i libboost_regex-vc71-mt-1_33_1:instances.obj
 0001:000889d0       ?isctype@?$w32_regex_traits@D@boost@@QBE_NDK@Z 004899d0 f i libboost_regex-vc71-mt-1_33_1:instances.obj
 0001:00088a10       ??0?$repeater_count@Vconst_iterator@?$basic_string@DU?$char_traits@D@std@@V?$allocator@D@2@@std@@@re_detail@boost@@QAE@HPAPAV012@Vconst_iterator@?$basic_string@DU?$char_traits@D@std@@V?$allocator@D@2@@std@@@Z 00489a10 f i libboost_regex-vc71-mt-1_33_1:instances.obj
 0001:00088a60       ??0invalid_argument@std@@QAE@ABV01@@Z 00489a60 f i libboost_regex-vc71-mt-1_33_1:instances.obj
 0001:00088a80       ?transform@?$w32_regex_traits@D@boost@@QBE?AV?$basic_string@DU?$char_traits@D@std@@V?$allocator@D@2@@std@@PBD0@Z 00489a80 f i libboost_regex-vc71-mt-1_33_1:instances.obj
 0001:00088ab0       ?flags@?$basic_regex_creator@DU?$regex_traits@DV?$w32_regex_traits@D@boost@@@boost@@@re_detail@boost@@QAEXI@Z 00489ab0 f i libboost_regex-vc71-mt-1_33_1:instances.obj
 0001:00088ad0       ?_Xlen@?$vector@U?$digraph@D@re_detail@boost@@V?$allocator@U?$digraph@D@re_detail@boost@@@std@@@std@@IBEXXZ 00489ad0 f i libboost_regex-vc71-mt-1_33_1:instances.obj
 0001:00088ad0       ?_Xlen@?$vector@JV?$allocator@J@std@@@std@@IBEXXZ 00489ad0 f i libboost_regex-vc71-mt-1_33_1:instances.obj
 0001:00088ad0       ?_Xlen@?$vector@U?$pair@_NPAUre_syntax_base@re_detail@boost@@@std@@V?$allocator@U?$pair@_NPAUre_syntax_base@re_detail@boost@@@std@@@2@@std@@IBEXXZ 00489ad0 f i libboost_regex-vc71-mt-1_33_1:instances.obj
 0001:00088b50       ?transform@?$w32_regex_traits_implementation@D@re_detail@boost@@QBE?AV?$basic_string@DU?$char_traits@D@std@@V?$allocator@D@2@@std@@PBD0@Z 00489b50 f i libboost_regex-vc71-mt-1_33_1:instances.obj
 0001:00088b80       ?get_deleter@?$sp_counted_impl_p@V?$basic_regex_implementation@DU?$regex_traits@DV?$w32_regex_traits@D@boost@@@boost@@@re_detail@boost@@@detail@boost@@UAEPAXABVtype_info@@@Z 00489b80 f i libboost_regex-vc71-mt-1_33_1:instances.obj
 0001:00088b80       ?get_deleter@?$sp_counted_impl_p@V?$w32_regex_traits_implementation@D@re_detail@boost@@@detail@boost@@UAEPAXABVtype_info@@@Z 00489b80 f i libboost_regex-vc71-mt-1_33_1:instances.obj
 0001:00088b80       ?get_deleter@?$sp_counted_impl_p@U?$regex_traits_wrapper@U?$regex_traits@DV?$w32_regex_traits@D@boost@@@boost@@@boost@@@detail@boost@@UAEPAXABVtype_info@@@Z 00489b80 f i libboost_regex-vc71-mt-1_33_1:instances.obj
 0001:00088b90       ?fixup_pointers@?$basic_regex_creator@DU?$regex_traits@DV?$w32_regex_traits@D@boost@@@boost@@@re_detail@boost@@AAEXPAUre_syntax_base@23@@Z 00489b90 f i libboost_regex-vc71-mt-1_33_1:instances.obj
 0001:00088c20       ?get_restart_type@?$basic_regex_creator@DU?$regex_traits@DV?$w32_regex_traits@D@boost@@@boost@@@re_detail@boost@@AAEIPAUre_syntax_base@23@@Z 00489c20 f i libboost_regex-vc71-mt-1_33_1:instances.obj
 0001:00088ca0       ?probe_leading_repeat@?$basic_regex_creator@DU?$regex_traits@DV?$w32_regex_traits@D@boost@@@boost@@@re_detail@boost@@AAEXPAUre_syntax_base@23@@Z 00489ca0 f i libboost_regex-vc71-mt-1_33_1:instances.obj
 0001:00088d10       ??$throw_exception@Vruntime_error@std@@@boost@@YAXABVruntime_error@std@@@Z 00489d10 f i libboost_regex-vc71-mt-1_33_1:instances.obj
 0001:00088d40       ?_Max@?$_Tree@V?$_Tmap_traits@PAVWObject@@HU?$less@PAVWObject@@@std@@V?$allocator@U?$pair@QAVWObject@@H@std@@@3@$0A@@std@@@std@@KAPAU_Node@?$_Tree_nod@V?$_Tmap_traits@PAVWObject@@HU?$less@PAVWObject@@@std@@V?$allocator@U?$pair@QAVWObject@@H@std@@@3@$0A@@std@@@2@PAU342@@Z 00489d40 f i libwt:WSignalMapper.obj
 0001:00088d40       ?_Max@?$_Tree@V?$_Tmap_traits@KViterator@?$list@U?$pair@V?$shared_ptr@V?$w32_regex_traits_implementation@D@re_detail@boost@@@boost@@PBK@std@@V?$allocator@U?$pair@V?$shared_ptr@V?$w32_regex_traits_implementation@D@re_detail@boost@@@boost@@PBK@std@@@2@@std@@U?$less@K@3@V?$allocator@U?$pair@$$CBKViterator@?$list@U?$pair@V?$shared_ptr@V?$w32_regex_traits_implementation@D@re_detail@boost@@@boost@@PBK@std@@V?$allocator@U?$pair@V?$shared_ptr@V?$w32_regex_traits_implementation@D@re_detail@boost@@@boost@@PBK@std@@@2@@std@@@std@@@3@$0A@@std@@@std@@KAPAU_Node@?$_Tree_nod@V?$_Tmap_traits@KViterator@?$list@U?$pair@V?$shared_ptr@V?$w32_regex_traits_implementation@D@re_detail@boost@@@boost@@PBK@std@@V?$allocator@U?$pair@V?$shared_ptr@V?$w32_regex_traits_implementation@D@re_detail@boost@@@boost@@PBK@std@@@2@@std@@U?$less@K@3@V?$allocator@U?$pair@$$CBKViterator@?$list@U?$pair@V?$shared_ptr@V?$w32_regex_traits_implementation@D@re_detail@boost@@@boost@@PBK@std@@V?$allocator@U?$pair@V?$shared_ptr@V?$w32_regex_traits_implementation@D@re_detail@boost@@@boost@@PBK@std@@@2@@std@@@std@@@3@$0A@@std@@@2@PAU342@@Z 00489d40 f i libboost_regex-vc71-mt-1_33_1:instances.obj
 0001:00088d40       ?_Max@?$_Tree@V?$_Tmap_traits@PAVWObject@@PAVWWidget@@U?$less@PAVWObject@@@std@@V?$allocator@U?$pair@QAVWObject@@PAVWWidget@@@std@@@4@$0A@@std@@@std@@KAPAU_Node@?$_Tree_nod@V?$_Tmap_traits@PAVWObject@@PAVWWidget@@U?$less@PAVWObject@@@std@@V?$allocator@U?$pair@QAVWObject@@PAVWWidget@@@std@@@4@$0A@@std@@@2@PAU342@@Z 00489d40 f i libwt:WSignalMapper.obj
 0001:00088d40       ?_Max@?$_Tree@V?$_Tmap_traits@HPAVCEccButton@@U?$less@H@std@@V?$allocator@U?$pair@$$CBHPAVCEccButton@@@std@@@3@$0A@@std@@@std@@KAPAU_Node@?$_Tree_nod@V?$_Tmap_traits@HPAVCEccButton@@U?$less@H@std@@V?$allocator@U?$pair@$$CBHPAVCEccButton@@@std@@@3@$0A@@std@@@2@PAU342@@Z 00489d40 f i listtable.obj
 0001:00088d40       ?_Max@?$_Tree@V?$_Tmap_traits@HPAVWLineEdit@@U?$less@H@std@@V?$allocator@U?$pair@$$CBHPAVWLineEdit@@@std@@@3@$0A@@std@@@std@@KAPAU_Node@?$_Tree_nod@V?$_Tmap_traits@HPAVWLineEdit@@U?$less@H@std@@V?$allocator@U?$pair@$$CBHPAVWLineEdit@@@std@@@3@$0A@@std@@@2@PAU342@@Z 00489d40 f i sortlist.obj
 0001:00088d60       ?set_all_masks@?$basic_regex_creator@DU?$regex_traits@DV?$w32_regex_traits@D@boost@@@boost@@@re_detail@boost@@AAEXPAEE@Z 00489d60 f i libboost_regex-vc71-mt-1_33_1:instances.obj
 0001:00088dc0       ?is_bad_repeat@?$basic_regex_creator@DU?$regex_traits@DV?$w32_regex_traits@D@boost@@@boost@@@re_detail@boost@@AAE_NPAUre_syntax_base@23@@Z 00489dc0 f i libboost_regex-vc71-mt-1_33_1:instances.obj
 0001:00088e10       ?set_bad_repeat@?$basic_regex_creator@DU?$regex_traits@DV?$w32_regex_traits@D@boost@@@boost@@@re_detail@boost@@AAEXPAUre_syntax_base@23@@Z 00489e10 f i libboost_regex-vc71-mt-1_33_1:instances.obj
 0001:00088e50       ?get_repeat_type@?$basic_regex_creator@DU?$regex_traits@DV?$w32_regex_traits@D@boost@@@boost@@@re_detail@boost@@AAE?AW4syntax_element_type@23@PAUre_syntax_base@23@@Z 00489e50 f i libboost_regex-vc71-mt-1_33_1:instances.obj
 0001:00088ed0       ??1WSignal_@@QAE@XZ        00489ed0 f i mainviewwt.obj
 0001:00088ed0       ??1?$pair@$$CBV?$basic_string@DU?$char_traits@D@std@@V?$allocator@D@2@@std@@PAUScopeFunc@@@std@@QAE@XZ 00489ed0 f i User.obj
 0001:00088ed0       ??1?$pair@$$CBV?$basic_string@DU?$char_traits@D@std@@V?$allocator@D@2@@std@@PAVWSlotInstance_@@@std@@QAE@XZ 00489ed0 f i libwt:WWebWidget.obj
 0001:00088ed0       ??1JSVar@@QAE@XZ           00489ed0 f i libwt:WebSession.obj
 0001:00088ed0       ??1?$pair@V?$basic_string@DU?$char_traits@D@std@@V?$allocator@D@2@@std@@PAVDomElement@@@std@@QAE@XZ 00489ed0 f i libwt:WWebWidget.obj
 0001:00088ed0       ??1?$pair@$$CBV?$basic_string@DU?$char_traits@D@std@@V?$allocator@D@2@@std@@PAVWCheckBox@@@std@@QAE@XZ 00489ed0 f i listtable.obj
 0001:00088ed0       ??1WSlot_@@QAE@XZ          00489ed0 f i mainviewwt.obj
 0001:00088ed0       ??1?$pair@$$CBV?$basic_string@DU?$char_traits@D@std@@V?$allocator@D@2@@std@@K@std@@QAE@XZ 00489ed0 f i libboost_regex-vc71-mt-1_33_1:instances.obj
 0001:00088ed0       ??1?$pair@$$CBV?$basic_string@DU?$char_traits@D@std@@V?$allocator@D@2@@std@@PAVWSignalInstance_@@@std@@QAE@XZ 00489ed0 f i mainviewwt.obj
 0001:00088ed0       ??1CEccPopMenu@@QAE@XZ     00489ed0 f i popmenu.obj
 0001:00088ed0       ??1WMessage@@QAE@XZ        00489ed0 f i main.obj
 0001:00088ed0       ??1?$pair@$$CBV?$basic_string@DU?$char_traits@D@std@@V?$allocator@D@2@@std@@_N@std@@QAE@XZ 00489ed0 f i User.obj
 0001:00088ee0       ??$lexicographical_compare@PBDPBD@std@@YA_NPBD000@Z 00489ee0 f i libboost_regex-vc71-mt-1_33_1:instances.obj
 0001:00088f30       ??$fill@PAU?$digraph@D@re_detail@boost@@U123@@std@@YAXPAU?$digraph@D@re_detail@boost@@0ABU123@@Z 00489f30 f i libboost_regex-vc71-mt-1_33_1:instances.obj
 0001:00088f50       ??1_Node@?$_Tree_nod@V?$_Tmap_traits@V?$basic_string@DU?$char_traits@D@std@@V?$allocator@D@2@@std@@PAUScopeFunc@@U?$less@V?$basic_string@DU?$char_traits@D@std@@V?$allocator@D@2@@std@@@2@V?$allocator@U?$pair@$$CBV?$basic_string@DU?$char_traits@D@std@@V?$allocator@D@2@@std@@PAUScopeFunc@@@std@@@2@$0A@@std@@@std@@QAE@XZ 00489f50 f i User.obj
 0001:00088f50       ??1_Node@?$_Tree_nod@V?$_Tmap_traits@V?$basic_string@DU?$char_traits@D@std@@V?$allocator@D@2@@std@@PAVWSignalInstance_@@U?$less@V?$basic_string@DU?$char_traits@D@std@@V?$allocator@D@2@@std@@@2@V?$allocator@U?$pair@$$CBV?$basic_string@DU?$char_traits@D@std@@V?$allocator@D@2@@std@@PAVWSignalInstance_@@@std@@@2@$0A@@std@@@std@@QAE@XZ 00489f50 f i libwt:WObject.obj
 0001:00088f50       ??1_Node@?$_Tree_nod@V?$_Tmap_traits@V?$basic_string@DU?$char_traits@D@std@@V?$allocator@D@2@@std@@KU?$less@V?$basic_string@DU?$char_traits@D@std@@V?$allocator@D@2@@std@@@2@V?$allocator@U?$pair@$$CBV?$basic_string@DU?$char_traits@D@std@@V?$allocator@D@2@@std@@K@std@@@2@$0A@@std@@@std@@QAE@XZ 00489f50 f i libboost_regex-vc71-mt-1_33_1:instances.obj
 0001:00088f50       ??1_Node@?$_Tree_nod@V?$_Tmap_traits@V?$basic_string@DU?$char_traits@D@std@@V?$allocator@D@2@@std@@PAVWCssRule@@U?$less@V?$basic_string@DU?$char_traits@D@std@@V?$allocator@D@2@@std@@@2@V?$allocator@U?$pair@$$CBV?$basic_string@DU?$char_traits@D@std@@V?$allocator@D@2@@std@@PAVWCssRule@@@std@@@2@$0A@@std@@@std@@QAE@XZ 00489f50 f i main.obj
 0001:00088f50       ??1_Node@?$_Tree_nod@V?$_Tmap_traits@V?$basic_string@DU?$char_traits@D@std@@V?$allocator@D@2@@std@@PAVWCheckBox@@U?$less@V?$basic_string@DU?$char_traits@D@std@@V?$allocator@D@2@@std@@@2@V?$allocator@U?$pair@$$CBV?$basic_string@DU?$char_traits@D@std@@V?$allocator@D@2@@std@@PAVWCheckBox@@@std@@@2@$0A@@std@@@std@@QAE@XZ 00489f50 f i listtable.obj
 0001:00088f50       ??1_Node@?$_Tree_nod@V?$_Tmap_traits@V?$basic_string@DU?$char_traits@D@std@@V?$allocator@D@2@@std@@_NU?$less@V?$basic_string@DU?$char_traits@D@std@@V?$allocator@D@2@@std@@@2@V?$allocator@U?$pair@$$CBV?$basic_string@DU?$char_traits@D@std@@V?$allocator@D@2@@std@@_N@std@@@2@$0A@@std@@@std@@QAE@XZ 00489f50 f i User.obj
 0001:00088f50       ??1_Node@?$_Tree_nod@V?$_Tmap_traits@V?$basic_string@DU?$char_traits@D@std@@V?$allocator@D@2@@std@@PAVWSlotInstance_@@U?$less@V?$basic_string@DU?$char_traits@D@std@@V?$allocator@D@2@@std@@@2@V?$allocator@U?$pair@$$CBV?$basic_string@DU?$char_traits@D@std@@V?$allocator@D@2@@std@@PAVWSlotInstance_@@@std@@@2@$0A@@std@@@std@@QAE@XZ 00489f50 f i libwt:WObject.obj
 0001:00088f60       ??$count_chars@V?$basic_string@DU?$char_traits@D@std@@V?$allocator@D@2@@std@@D@re_detail@boost@@YAIABV?$basic_string@DU?$char_traits@D@std@@V?$allocator@D@2@@std@@D@Z 00489f60 f i libboost_regex-vc71-mt-1_33_1:instances.obj
 0001:00088fa0       ??4shared_count@detail@boost@@QAEAAV012@ABV012@@Z 00489fa0 f i libboost_regex-vc71-mt-1_33_1:instances.obj
 0001:00089000       ?match_literal@?$perl_matcher@Vconst_iterator@?$basic_string@DU?$char_traits@D@std@@V?$allocator@D@2@@std@@V?$allocator@U?$sub_match@Vconst_iterator@?$basic_string@DU?$char_traits@D@std@@V?$allocator@D@2@@std@@@boost@@@3@U?$regex_traits@DV?$w32_regex_traits@D@boost@@@boost@@@re_detail@boost@@AAE_NXZ 0048a000 f i libboost_regex-vc71-mt-1_33_1:instances.obj
 0001:00089060       ?match_start_line@?$perl_matcher@Vconst_iterator@?$basic_string@DU?$char_traits@D@std@@V?$allocator@D@2@@std@@V?$allocator@U?$sub_match@Vconst_iterator@?$basic_string@DU?$char_traits@D@std@@V?$allocator@D@2@@std@@@boost@@@3@U?$regex_traits@DV?$w32_regex_traits@D@boost@@@boost@@@re_detail@boost@@AAE_NXZ 0048a060 f i libboost_regex-vc71-mt-1_33_1:instances.obj
 0001:000890c0       ?match_end_line@?$perl_matcher@Vconst_iterator@?$basic_string@DU?$char_traits@D@std@@V?$allocator@D@2@@std@@V?$allocator@U?$sub_match@Vconst_iterator@?$basic_string@DU?$char_traits@D@std@@V?$allocator@D@2@@std@@@boost@@@3@U?$regex_traits@DV?$w32_regex_traits@D@boost@@@boost@@@re_detail@boost@@AAE_NXZ 0048a0c0 f i libboost_regex-vc71-mt-1_33_1:instances.obj
 0001:00089110       ?match_word_boundary@?$perl_matcher@Vconst_iterator@?$basic_string@DU?$char_traits@D@std@@V?$allocator@D@2@@std@@V?$allocator@U?$sub_match@Vconst_iterator@?$basic_string@DU?$char_traits@D@std@@V?$allocator@D@2@@std@@@boost@@@3@U?$regex_traits@DV?$w32_regex_traits@D@boost@@@boost@@@re_detail@boost@@AAE_NXZ 0048a110 f i libboost_regex-vc71-mt-1_33_1:instances.obj
 0001:000891e0       ?match_within_word@?$perl_matcher@Vconst_iterator@?$basic_string@DU?$char_traits@D@std@@V?$allocator@D@2@@std@@V?$allocator@U?$sub_match@Vconst_iterator@?$basic_string@DU?$char_traits@D@std@@V?$allocator@D@2@@std@@@boost@@@3@U?$regex_traits@DV?$w32_regex_traits@D@boost@@@boost@@@re_detail@boost@@AAE_NXZ 0048a1e0 f i libboost_regex-vc71-mt-1_33_1:instances.obj
 0001:00089260       ?match_word_start@?$perl_matcher@Vconst_iterator@?$basic_string@DU?$char_traits@D@std@@V?$allocator@D@2@@std@@V?$allocator@U?$sub_match@Vconst_iterator@?$basic_string@DU?$char_traits@D@std@@V?$allocator@D@2@@std@@@boost@@@3@U?$regex_traits@DV?$w32_regex_traits@D@boost@@@boost@@@re_detail@boost@@AAE_NXZ 0048a260 f i libboost_regex-vc71-mt-1_33_1:instances.obj
 0001:000892e0       ?match_word_end@?$perl_matcher@Vconst_iterator@?$basic_string@DU?$char_traits@D@std@@V?$allocator@D@2@@std@@V?$allocator@U?$sub_match@Vconst_iterator@?$basic_string@DU?$char_traits@D@std@@V?$allocator@D@2@@std@@@boost@@@3@U?$regex_traits@DV?$w32_regex_traits@D@boost@@@boost@@@re_detail@boost@@AAE_NXZ 0048a2e0 f i libboost_regex-vc71-mt-1_33_1:instances.obj
 0001:00089360       ?match_set@?$perl_matcher@Vconst_iterator@?$basic_string@DU?$char_traits@D@std@@V?$allocator@D@2@@std@@V?$allocator@U?$sub_match@Vconst_iterator@?$basic_string@DU?$char_traits@D@std@@V?$allocator@D@2@@std@@@boost@@@3@U?$regex_traits@DV?$w32_regex_traits@D@boost@@@boost@@@re_detail@boost@@AAE_NXZ 0048a360 f i libboost_regex-vc71-mt-1_33_1:instances.obj
 0001:000893a0       ?match_rep@?$perl_matcher@Vconst_iterator@?$basic_string@DU?$char_traits@D@std@@V?$allocator@D@2@@std@@V?$allocator@U?$sub_match@Vconst_iterator@?$basic_string@DU?$char_traits@D@std@@V?$allocator@D@2@@std@@@boost@@@3@U?$regex_traits@DV?$w32_regex_traits@D@boost@@@boost@@@re_detail@boost@@AAE_NXZ 0048a3a0 f i libboost_regex-vc71-mt-1_33_1:instances.obj
 0001:00089580       ?match_combining@?$perl_matcher@Vconst_iterator@?$basic_string@DU?$char_traits@D@std@@V?$allocator@D@2@@std@@V?$allocator@U?$sub_match@Vconst_iterator@?$basic_string@DU?$char_traits@D@std@@V?$allocator@D@2@@std@@@boost@@@3@U?$regex_traits@DV?$w32_regex_traits@D@boost@@@boost@@@re_detail@boost@@AAE_NXZ 0048a580 f i libboost_regex-vc71-mt-1_33_1:instances.obj
 0001:000895a0       ?match_soft_buffer_end@?$perl_matcher@Vconst_iterator@?$basic_string@DU?$char_traits@D@std@@V?$allocator@D@2@@std@@V?$allocator@U?$sub_match@Vconst_iterator@?$basic_string@DU?$char_traits@D@std@@V?$allocator@D@2@@std@@@boost@@@3@U?$regex_traits@DV?$w32_regex_traits@D@boost@@@boost@@@re_detail@boost@@AAE_NXZ 0048a5a0 f i libboost_regex-vc71-mt-1_33_1:instances.obj
 0001:00089600       ?backtrack_till_match@?$perl_matcher@Vconst_iterator@?$basic_string@DU?$char_traits@D@std@@V?$allocator@D@2@@std@@V?$allocator@U?$sub_match@Vconst_iterator@?$basic_string@DU?$char_traits@D@std@@V?$allocator@D@2@@std@@@boost@@@3@U?$regex_traits@DV?$w32_regex_traits@D@boost@@@boost@@@re_detail@boost@@AAE_NI@Z 0048a600 f i libboost_regex-vc71-mt-1_33_1:instances.obj
 0001:000896c0       ??$fill@PAU?$sub_match@Vconst_iterator@?$basic_string@DU?$char_traits@D@std@@V?$allocator@D@2@@std@@@boost@@U12@@std@@YAXPAU?$sub_match@Vconst_iterator@?$basic_string@DU?$char_traits@D@std@@V?$allocator@D@2@@std@@@boost@@0ABU12@@Z 0048a6c0 f i libboost_regex-vc71-mt-1_33_1:instances.obj
 0001:000896f0       ??$copy_backward@PAU?$sub_match@Vconst_iterator@?$basic_string@DU?$char_traits@D@std@@V?$allocator@D@2@@std@@@boost@@PAU12@@std@@YAPAU?$sub_match@Vconst_iterator@?$basic_string@DU?$char_traits@D@std@@V?$allocator@D@2@@std@@@boost@@PAU12@00@Z 0048a6f0 f i libboost_regex-vc71-mt-1_33_1:instances.obj
 0001:00089730       ??_E?$concrete_protected_call@V?$perl_matcher@Vconst_iterator@?$basic_string@DU?$char_traits@D@std@@V?$allocator@D@2@@std@@V?$allocator@U?$sub_match@Vconst_iterator@?$basic_string@DU?$char_traits@D@std@@V?$allocator@D@2@@std@@@boost@@@3@U?$regex_traits@DV?$w32_regex_traits@D@boost@@@boost@@@re_detail@boost@@@re_detail@boost@@UAEPAXI@Z 0048a730 f i libboost_regex-vc71-mt-1_33_1:instances.obj
 0001:00089730       ??_G?$concrete_protected_call@V?$perl_matcher@Vconst_iterator@?$basic_string@DU?$char_traits@D@std@@V?$allocator@D@2@@std@@V?$allocator@U?$sub_match@Vconst_iterator@?$basic_string@DU?$char_traits@D@std@@V?$allocator@D@2@@std@@@boost@@@3@U?$regex_traits@DV?$w32_regex_traits@D@boost@@@boost@@@re_detail@boost@@@re_detail@boost@@UAEPAXI@Z 0048a730 f i libboost_regex-vc71-mt-1_33_1:instances.obj
 0001:00089750       ?call@?$concrete_protected_call@V?$perl_matcher@Vconst_iterator@?$basic_string@DU?$char_traits@D@std@@V?$allocator@D@2@@std@@V?$allocator@U?$sub_match@Vconst_iterator@?$basic_string@DU?$char_traits@D@std@@V?$allocator@D@2@@std@@@boost@@@3@U?$regex_traits@DV?$w32_regex_traits@D@boost@@@boost@@@re_detail@boost@@@re_detail@boost@@EBE_NXZ 0048a750 f i libboost_regex-vc71-mt-1_33_1:instances.obj
 0001:00089760       ??$throw_exception@Vinvalid_argument@std@@@boost@@YAXABVinvalid_argument@std@@@Z 0048a760 f i libboost_regex-vc71-mt-1_33_1:instances.obj
 0001:00089790       ?transform_primary@?$w32_regex_traits_implementation@D@re_detail@boost@@QBE?AV?$basic_string@DU?$char_traits@D@std@@V?$allocator@D@2@@std@@PBD0@Z 0048a790 f i libboost_regex-vc71-mt-1_33_1:instances.obj
 0001:00089a10       ??_E?$sp_counted_impl_p@U?$regex_traits_wrapper@U?$regex_traits@DV?$w32_regex_traits@D@boost@@@boost@@@boost@@@detail@boost@@UAEPAXI@Z 0048aa10 f i libboost_regex-vc71-mt-1_33_1:instances.obj
 0001:00089a10       ??_G?$sp_counted_impl_pd@PAUHINSTANCE__@@P6AXPAX@Z@detail@boost@@UAEPAXI@Z 0048aa10 f i libboost_regex-vc71-mt-1_33_1:w32_regex_traits.obj
 0001:00089a10       ??_E?$sp_counted_impl_p@V?$w32_regex_traits_implementation@D@re_detail@boost@@@detail@boost@@UAEPAXI@Z 0048aa10 f i libboost_regex-vc71-mt-1_33_1:instances.obj
 0001:00089a10       ??_E?$sp_counted_impl_pd@PAUHINSTANCE__@@P6AXPAX@Z@detail@boost@@UAEPAXI@Z 0048aa10 f i libboost_regex-vc71-mt-1_33_1:w32_regex_traits.obj
 0001:00089a10       ??_G?$sp_counted_impl_p@U?$regex_traits_wrapper@U?$regex_traits@DV?$w32_regex_traits@D@boost@@@boost@@@boost@@@detail@boost@@UAEPAXI@Z 0048aa10 f i libboost_regex-vc71-mt-1_33_1:instances.obj
 0001:00089a10       ??_E?$sp_counted_impl_p@V?$basic_regex_implementation@DU?$regex_traits@DV?$w32_regex_traits@D@boost@@@boost@@@re_detail@boost@@@detail@boost@@UAEPAXI@Z 0048aa10 f i libboost_regex-vc71-mt-1_33_1:instances.obj
 0001:00089a10       ??_G?$sp_counted_impl_p@V?$w32_regex_traits_implementation@D@re_detail@boost@@@detail@boost@@UAEPAXI@Z 0048aa10 f i libboost_regex-vc71-mt-1_33_1:instances.obj
 0001:00089a10       ??_G?$sp_counted_impl_p@V?$basic_regex_implementation@DU?$regex_traits@DV?$w32_regex_traits@D@boost@@@boost@@@re_detail@boost@@@detail@boost@@UAEPAXI@Z 0048aa10 f i libboost_regex-vc71-mt-1_33_1:instances.obj
 0001:00089a30       ?insert_state@?$basic_regex_creator@DU?$regex_traits@DV?$w32_regex_traits@D@boost@@@boost@@@re_detail@boost@@QAEPAUre_syntax_base@23@HW4syntax_element_type@23@I@Z 0048aa30 f i libboost_regex-vc71-mt-1_33_1:instances.obj
 0001:00089ac0       ?calculate_backstep@?$basic_regex_creator@DU?$regex_traits@DV?$w32_regex_traits@D@boost@@@boost@@@re_detail@boost@@AAEHPAUre_syntax_base@23@@Z 0048aac0 f i libboost_regex-vc71-mt-1_33_1:instances.obj
 0001:00089bc0       ??$copy_backward@PAU?$pair@_NPAUre_syntax_base@re_detail@boost@@@std@@PAU12@@std@@YAPAU?$pair@_NPAUre_syntax_base@re_detail@boost@@@0@PAU10@00@Z 0048abc0 f i libboost_regex-vc71-mt-1_33_1:instances.obj
 0001:00089bc0       ??$copy_backward@PAUTableData@WTableRow@@PAU12@@std@@YAPAUTableData@WTableRow@@PAU12@00@Z 0048abc0 f i libwt:WTable.obj
 0001:00089bf0       ??1_Node@?$_List_nod@U?$pair@V?$shared_ptr@V?$w32_regex_traits_implementation@D@re_detail@boost@@@boost@@PBK@std@@V?$allocator@U?$pair@V?$shared_ptr@V?$w32_regex_traits_implementation@D@re_detail@boost@@@boost@@PBK@std@@@2@@std@@QAE@XZ 0048abf0 f i libboost_regex-vc71-mt-1_33_1:instances.obj
 0001:00089c30       ??$find_sort_syntax@V?$w32_regex_traits_implementation@D@re_detail@boost@@D@re_detail@boost@@YAIPBV?$w32_regex_traits_implementation@D@01@PAD@Z 0048ac30 f i libboost_regex-vc71-mt-1_33_1:instances.obj
 0001:00089eb0       ??$copy_backward@PAU?$digraph@D@re_detail@boost@@PAU123@@std@@YAPAU?$digraph@D@re_detail@boost@@PAU123@00@Z 0048aeb0 f i libboost_regex-vc71-mt-1_33_1:instances.obj
 0001:00089ee0       ?get_catalog_name_inst@?$w32_regex_traits@D@boost@@CAAAV?$basic_string@DU?$char_traits@D@std@@V?$allocator@D@2@@std@@XZ 0048aee0 f i libboost_regex-vc71-mt-1_33_1:instances.obj
 0001:00089f40       ??$_Uninit_copy@PAU?$digraph@D@re_detail@boost@@PAU123@V?$allocator@U?$digraph@D@re_detail@boost@@@std@@@std@@YAPAU?$digraph@D@re_detail@boost@@PAU123@00AAV?$allocator@U?$digraph@D@re_detail@boost@@@0@U_Nonscalar_ptr_iterator_tag@0@@Z 0048af40 f i libboost_regex-vc71-mt-1_33_1:instances.obj
 0001:00089f70       ?begin@?$match_results@Vconst_iterator@?$basic_string@DU?$char_traits@D@std@@V?$allocator@D@2@@std@@V?$allocator@U?$sub_match@Vconst_iterator@?$basic_string@DU?$char_traits@D@std@@V?$allocator@D@2@@std@@@boost@@@3@@boost@@QBE?AVconst_iterator@?$vector@U?$sub_match@Vconst_iterator@?$basic_string@DU?$char_traits@D@std@@V?$allocator@D@2@@std@@@boost@@V?$allocator@U?$sub_match@Vconst_iterator@?$basic_string@DU?$char_traits@D@std@@V?$allocator@D@2@@std@@@boost@@@std@@@std@@XZ 0048af70 f i libboost_regex-vc71-mt-1_33_1:instances.obj
 0001:00089fd0       ?protected_call@?$perl_matcher@Vconst_iterator@?$basic_string@DU?$char_traits@D@std@@V?$allocator@D@2@@std@@V?$allocator@U?$sub_match@Vconst_iterator@?$basic_string@DU?$char_traits@D@std@@V?$allocator@D@2@@std@@@boost@@@3@U?$regex_traits@DV?$w32_regex_traits@D@boost@@@boost@@@re_detail@boost@@AAE_NP8123@AE_NXZ@Z 0048afd0 f i libboost_regex-vc71-mt-1_33_1:instances.obj
 0001:0008a020       ?match_dot_repeat_slow@?$perl_matcher@Vconst_iterator@?$basic_string@DU?$char_traits@D@std@@V?$allocator@D@2@@std@@V?$allocator@U?$sub_match@Vconst_iterator@?$basic_string@DU?$char_traits@D@std@@V?$allocator@D@2@@std@@@boost@@@3@U?$regex_traits@DV?$w32_regex_traits@D@boost@@@boost@@@re_detail@boost@@AAE_NXZ 0048b020 f i libboost_regex-vc71-mt-1_33_1:instances.obj
 0001:0008a1d0       ??$_Uninit_fill_n@PAU?$sub_match@Vconst_iterator@?$basic_string@DU?$char_traits@D@std@@V?$allocator@D@2@@std@@@boost@@IU12@V?$allocator@U?$sub_match@Vconst_iterator@?$basic_string@DU?$char_traits@D@std@@V?$allocator@D@2@@std@@@boost@@@std@@@std@@YAXPAU?$sub_match@Vconst_iterator@?$basic_string@DU?$char_traits@D@std@@V?$allocator@D@2@@std@@@boost@@IABU12@AAV?$allocator@U?$sub_match@Vconst_iterator@?$basic_string@DU?$char_traits@D@std@@V?$allocator@D@2@@std@@@boost@@@0@U_Nonscalar_ptr_iterator_tag@0@@Z 0048b1d0 f i libboost_regex-vc71-mt-1_33_1:instances.obj
 0001:0008a200       ?transform_primary@?$w32_regex_traits@D@boost@@QBE?AV?$basic_string@DU?$char_traits@D@std@@V?$allocator@D@2@@std@@PBD0@Z 0048b200 f i libboost_regex-vc71-mt-1_33_1:instances.obj
 0001:0008a230       ?append_state@?$basic_regex_creator@DU?$regex_traits@DV?$w32_regex_traits@D@boost@@@boost@@@re_detail@boost@@QAEPAUre_syntax_base@23@W4syntax_element_type@23@I@Z 0048b230 f i libboost_regex-vc71-mt-1_33_1:instances.obj
 0001:0008a2d0       ?append_literal@?$basic_regex_creator@DU?$regex_traits@DV?$w32_regex_traits@D@boost@@@boost@@@re_detail@boost@@QAEPAUre_literal@23@D@Z 0048b2d0 f i libboost_regex-vc71-mt-1_33_1:instances.obj
 0001:0008a3a0       ??1?$basic_regex_implementation@DU?$regex_traits@DV?$w32_regex_traits@D@boost@@@boost@@@re_detail@boost@@QAE@XZ 0048b3a0 f i libboost_regex-vc71-mt-1_33_1:instances.obj
 0001:0008a3f0       ??1?$pair@V?$shared_ptr@V?$w32_regex_traits_implementation@D@re_detail@boost@@@boost@@PBK@std@@QAE@XZ 0048b3f0 f i libboost_regex-vc71-mt-1_33_1:instances.obj
 0001:0008a3f0       ??1?$basic_regex@DU?$regex_traits@DV?$w32_regex_traits@D@boost@@@boost@@@boost@@QAE@XZ 0048b3f0 f i basefunc.obj
 0001:0008a3f0       ??1?$regex_traits_wrapper@U?$regex_traits@DV?$w32_regex_traits@D@boost@@@boost@@@boost@@QAE@XZ 0048b3f0 f i libboost_regex-vc71-mt-1_33_1:instances.obj
 0001:0008a3f0       ??1?$shared_ptr@V?$w32_regex_traits_implementation@D@re_detail@boost@@@boost@@QAE@XZ 0048b3f0 f i libboost_regex-vc71-mt-1_33_1:instances.obj
 0001:0008a3f0       ??1?$shared_ptr@X@boost@@QAE@XZ 0048b3f0 f i libboost_regex-vc71-mt-1_33_1:instances.obj
 0001:0008a3f0       ??1?$shared_ptr@V?$basic_regex_implementation@DU?$regex_traits@DV?$w32_regex_traits@D@boost@@@boost@@@re_detail@boost@@@boost@@QAE@XZ 0048b3f0 f i basefunc.obj
