 treeview

 Timestamp is 468b6da3 (Wed Jul 04 17:51:31 2007)

 Preferred load address is 00400000

 Start         Length     Name                   Class
 0001:00000000 0009740bH .text                   CODE
 0001:00097410 0000f314H .text$x                 CODE
 0001:000a6730 00003f2bH .text$yc                CODE
 0001:000aa660 000011daH .text$yd                CODE
 0002:00000000 000003f0H .idata$5                DATA
 0002:000003f0 0000acb4H .rdata                  DATA
 0002:0000b0a4 0000040cH .rdata$r                DATA
 0002:0000b4b0 00000004H .rtc$IAA                DATA
 0002:0000b4b4 00000004H .rtc$IZZ                DATA
 0002:0000b4b8 00000004H .rtc$TAA                DATA
 0002:0000b4bc 00000004H .rtc$TZZ                DATA
 0002:0000b4c0 0000fa14H .xdata$x                DATA
 0002:0001aed4 00000078H .idata$2                DATA
 0002:0001af4c 00000014H .idata$3                DATA
 0002:0001af60 000003f0H .idata$4                DATA
 0002:0001b350 000037c2H .idata$6                DATA
 0002:0001eb20 0000f138H .edata                  DATA
 0003:00000000 00000004H .CRT$XCA                DATA
 0003:00000004 00000004H .CRT$XCAA               DATA
 0003:00000008 00000298H .CRT$XCU                DATA
 0003:000002a0 00000004H .CRT$XCZ                DATA
 0003:000002a4 00000004H .CRT$XIA                DATA
 0003:000002a8 00000004H .CRT$XIZ                DATA
 0003:000002b0 00003fc8H .data                   DATA
 0003:00004278 000030d4H .bss                    DATA
 0004:00000000 00000004H _BSS                    DATA

  Address         Publics by Value              Rva+Base     Lib:Object

 0000:00000000       ___safe_se_handler_table   00000000     <absolute>
 0000:00000000       __except_list              00000000     <absolute>
 0000:00000000       ___safe_se_handler_count   00000000     <absolute>
 0000:00009876       __fltused                  00009876     <absolute>
 0000:00009876       __ldused                   00009876     <absolute>
 0001:00000000       ?signalConnectionsChanged@WObject@@EAEXXZ 00401000 f i libwt:WObject.obj
 0001:00000000       ?ShowHideHelp@CEccBaseTable@@EAEXXZ 00401000 f i ecctable.obj
 0001:00000000       ??3@YAXPAX0@Z              00401000 f i main.obj
 0001:00000010       ??0logic_error@std@@QAE@ABV?$basic_string@DU?$char_traits@D@std@@V?$allocator@D@2@@1@@Z 00401010 f i main.obj
 0001:00000070       ??1logic_error@std@@UAE@XZ 00401070 f i main.obj
 0001:000000d0       ??_Glogic_error@std@@UAEPAXI@Z 004010d0 f i main.obj
 0001:000000d0       ??_Elogic_error@std@@UAEPAXI@Z 004010d0 f i main.obj
 0001:000000f0       ??_Glength_error@std@@UAEPAXI@Z 004010f0 f i main.obj
 0001:000000f0       ??_Elength_error@std@@UAEPAXI@Z 004010f0 f i main.obj
 0001:00000110       ??1length_error@std@@UAE@XZ 00401110 f i main.obj
 0001:00000120       ??_Gout_of_range@std@@UAEPAXI@Z 00401120 f i main.obj
 0001:00000120       ??_Eout_of_range@std@@UAEPAXI@Z 00401120 f i main.obj
 0001:00000140       ??1out_of_range@std@@UAE@XZ 00401140 f i main.obj
 0001:00000150       ?haveJavaScript@WebSession@@QBE_NXZ 00401150 f i main.obj
 0001:00000160       ?havaAjax@WebSession@@QBE_NXZ 00401160 f i main.obj
 0001:00000170       ??4WResource@@QAEAAV0@ABV0@@Z 00401170 f i main.obj
 0001:00000170       ??4WObject@@QAEAAV0@ABV0@@Z 00401170 f i main.obj
 0001:00000170       ??4WWidget@@QAEAAV0@ABV0@@Z 00401170 f i main.obj
 0001:000001a0       ?value@WLength@@QBENXZ     004011a0 f i main.obj
 0001:000001b0       ??4WLength@@QAEAAV0@ABV0@@Z 004011b0 f i main.obj
 0001:000001e0       ?isAuto@WLength@@QBE_NXZ   004011e0 f i main.obj
 0001:000001e0       ?isDefault@WColor@@QBE_NXZ 004011e0 f i main.obj
 0001:000001f0       ?getMointorCount@CEccTreeNode@@QBEHXZ 004011f0 f i treeview.obj
 0001:000001f0       ?blue@WColor@@QBEHXZ       004011f0 f i main.obj
 0001:00000200       ?name@WColor@@QBE?AV?$basic_string@DU?$char_traits@D@std@@V?$allocator@D@2@@std@@XZ 00401200 f i main.obj
 0001:00000230       ??0WColor@@QAE@ABV0@@Z     00401230 f i main.obj
 0001:00000260       ??4WColor@@QAEAAV0@ABV0@@Z 00401260 f i main.obj
 0001:00000290       ?explicitWidth@WBorder@@QBE?AVWLength@@XZ 00401290 f i main.obj
 0001:000002c0       ?color@WBorder@@QBE?AVWColor@@XZ 004012c0 f i main.obj
 0001:00000300       ?style@WBorder@@QBE?AW4Style@1@XZ 00401300 f i main.obj
 0001:00000310       ??1WBorder@@QAE@XZ         00401310 f i main.obj
 0001:00000320       ??0WBorder@@QAE@ABV0@@Z    00401320 f i main.obj
 0001:00000380       ??4WBorder@@QAEAAV0@ABV0@@Z 00401380 f i main.obj
 0001:000003e0       ?specificFamilies@WFont@@QBE?BV?$basic_string@DU?$char_traits@D@std@@V?$allocator@D@2@@std@@XZ 004013e0 f i main.obj
 0001:00000410       ?style@WFont@@QBE?AW4Style@1@XZ 00401410 f i main.obj
 0001:00000420       ?variant@WFont@@QBE?AW4Variant@1@XZ 00401420 f i main.obj
 0001:00000430       ?weight@WFont@@QBE?AW4Weight@1@XZ 00401430 f i main.obj
 0001:00000440       ?weightValue@WFont@@QBEHXZ 00401440 f i main.obj
 0001:00000450       ?fixedSize@WFont@@QBE?AVWLength@@XZ 00401450 f i main.obj
 0001:00000480       ??0WFont@@QAE@ABV0@@Z      00401480 f i main.obj
 0001:00000500       ??4WFont@@QAEAAV0@ABV0@@Z  00401500 f i main.obj
 0001:00000580       ?backgroundColor@WCssDecorationStyle@@QBE?AVWColor@@XZ 00401580 f i main.obj
 0001:000005c0       ?backgroundImage@WCssDecorationStyle@@QBE?BV?$basic_string@DU?$char_traits@D@std@@V?$allocator@D@2@@std@@XZ 004015c0 f i main.obj
 0001:000005f0       ?backgroundImageRepeat@WCssDecorationStyle@@QBE?AW4Repeat@1@XZ 004015f0 f i main.obj
 0001:00000600       ?foregroundColor@WCssDecorationStyle@@QBE?AVWColor@@XZ 00401600 f i main.obj
 0001:00000650       ?border@WCssDecorationStyle@@QBE?AVWBorder@@XZ 00401650 f i main.obj
 0001:00000670       ?font@WCssDecorationStyle@@QAEAAVWFont@@XZ 00401670 f i main.obj
 0001:00000670       ?decorationStyle@WWebWidget@@UAEAAVWCssDecorationStyle@@XZ 00401670 f i main.obj
 0001:00000680       ??1WCssDecorationStyle@@QAE@XZ 00401680 f i main.obj
 0001:00000710       ??0WCssDecorationStyle@@QAE@ABV0@@Z 00401710 f i main.obj
 0001:00000850       ??4WCssDecorationStyle@@QAEAAV0@ABV0@@Z 00401850 f i main.obj
 0001:00000950       ?selector@WCssRule@@QBE?BV?$basic_string@DU?$char_traits@D@std@@V?$allocator@D@2@@std@@XZ 00401950 f i main.obj
 0001:00000980       ??0WCssRule@@QAE@ABV0@@Z   00401980 f i main.obj
 0001:000009a0       ??4WCssRule@@QAEAAV0@ABV0@@Z 004019a0 f i main.obj
 0001:000009c0       ??_EWCssRule@@UAEPAXI@Z    004019c0 f i main.obj
 0001:00000a20       ?styleSheet@WApplication@@QAEAAVWCssStyleSheet@@XZ 00401a20 f i main.obj
 0001:00000a30       ?root@WApplication@@QBEPAVWContainerWidget@@XZ 00401a30 f i main.obj
 0001:00000a40       ?loading@WApplication@@QBE_NXZ 00401a40 f i main.obj
 0001:00000a50       ?setLoading@WApplication@@QAEX_N@Z 00401a50 f i main.obj
 0001:00000a60       ?messageResourceBundle@WApplication@@QAEAAVWMessageResourceBundle@@XZ 00401a60 f i main.obj
 0001:00000a70       ?locale@WApplication@@QBE?AV?$basic_string@DU?$char_traits@D@std@@V?$allocator@D@2@@std@@XZ 00401a70 f i main.obj
 0001:00000aa0       ?getBodyAttribute@WApplication@@QAE?BV?$basic_string@DU?$char_traits@D@std@@V?$allocator@D@2@@std@@XZ 00401aa0 f i main.obj
 0001:00000ad0       ?setBeforBodyStr@WApplication@@QAEXV?$basic_string@DU?$char_traits@D@std@@V?$allocator@D@2@@std@@@Z 00401ad0 f i main.obj
 0001:00000b20       ?getBeforBodyStr@WApplication@@QAE?BV?$basic_string@DU?$char_traits@D@std@@V?$allocator@D@2@@std@@XZ 00401b20 f i main.obj
 0001:00000b50       ?size@WFont@@QBE?AW4Size@1@XZ 00401b50 f i main.obj
 0001:00000b50       ?getRefreshTime@WApplication@@QAEHXZ 00401b50 f i main.obj
 0001:00000b60       ?getRefreshFunc@WApplication@@QAE?AV?$basic_string@DU?$char_traits@D@std@@V?$allocator@D@2@@std@@XZ 00401b60 f i main.obj
 0001:00000b90       ?isQuited@WApplication@@ABE_NXZ 00401b90 f i main.obj
 0001:00000ba0       ?empty@WMessage@@QBE_NXZ   00401ba0 f i main.obj
 0001:00000bb0       ??1WMessage@@QAE@XZ        00401bb0 f i main.obj
 0001:00000bb0       ??1?$pair@$$CBV?$basic_string@DU?$char_traits@D@std@@V?$allocator@D@2@@std@@PAVWCheckBox@@@std@@QAE@XZ 00401bb0 f i listtable.obj
 0001:00000bb0       ??1JSVar@@QAE@XZ           00401bb0 f i libwt:WebSession.obj
 0001:00000bb0       ??1?$pair@V?$basic_string@DU?$char_traits@D@std@@V?$allocator@D@2@@std@@PAVDomElement@@@std@@QAE@XZ 00401bb0 f i libwt:WWebWidget.obj
 0001:00000bb0       ??1?$pair@$$CBV?$basic_string@DU?$char_traits@D@std@@V?$allocator@D@2@@std@@PAUScopeFunc@@@std@@QAE@XZ 00401bb0 f i User.obj
 0001:00000bb0       ??1CEccPopMenu@@QAE@XZ     00401bb0 f i popmenu.obj
 0001:00000bb0       ??1WSlot_@@QAE@XZ          00401bb0 f i mainviewwt.obj
 0001:00000bb0       ??1?$pair@$$CBV?$basic_string@DU?$char_traits@D@std@@V?$allocator@D@2@@std@@K@std@@QAE@XZ 00401bb0 f i libboost_regex-vc71-mt-1_33_1:instances.obj
 0001:00000bb0       ??1?$pair@$$CBV?$basic_string@DU?$char_traits@D@std@@V?$allocator@D@2@@std@@PAVWSignalInstance_@@@std@@QAE@XZ 00401bb0 f i mainviewwt.obj
 0001:00000bb0       ??1?$pair@$$CBV?$basic_string@DU?$char_traits@D@std@@V?$allocator@D@2@@std@@_N@std@@QAE@XZ 00401bb0 f i User.obj
 0001:00000bb0       ??1?$pair@$$CBV?$basic_string@DU?$char_traits@D@std@@V?$allocator@D@2@@std@@PAVWSlotInstance_@@@std@@QAE@XZ 00401bb0 f i libwt:WWebWidget.obj
 0001:00000bb0       ??1WSignal_@@QAE@XZ        00401bb0 f i mainviewwt.obj
 0001:00000bc0       ??0JSVar@@QAE@ABV0@@Z      00401bc0 f i libwt:JavaScript.obj
 0001:00000bc0       ??0WMessage@@QAE@ABV0@@Z   00401bc0 f i main.obj
 0001:00000be0       ??4WMessage@@QAEAAV0@ABV0@@Z 00401be0 f i main.obj
 0001:00000c00       ?getState@CEccTreeNode@@QBEHXZ 00401c00 f i treeview.obj
 0001:00000c00       ?positionScheme@WWebWidget@@UBE?AW4PositionScheme@WWidget@@XZ 00401c00 f i main.obj
 0001:00000c10       ?width@WWebWidget@@UBE?AVWLength@@XZ 00401c10 f i main.obj
 0001:00000c40       ?height@WWebWidget@@UBE?AVWLength@@XZ 00401c40 f i main.obj
 0001:00000c70       ?isHidden@WWebWidget@@UBE_NXZ 00401c70 f i main.obj
 0001:00000c80       ?isPopup@WWebWidget@@UBE_NXZ 00401c80 f i main.obj
 0001:00000c90       ?isInline@WWebWidget@@UBE_NXZ 00401c90 f i main.obj
 0001:00000ca0       ?styleClass@WWebWidget@@UBE?BV?$basic_string@DU?$char_traits@D@std@@V?$allocator@D@2@@std@@XZ 00401ca0 f i main.obj
 0001:00000cd0       ?verticalAlignment@WWebWidget@@UBE?AW4VerticalAlignment@WWidget@@XZ 00401cd0 f i main.obj
 0001:00000ce0       ?verticalAlignmentLength@WWebWidget@@UBE?AVWLength@@XZ 00401ce0 f i main.obj
 0001:00000d10       ?toolTip@WWebWidget@@UBE?AV?$basic_string@DU?$char_traits@D@std@@V?$allocator@D@2@@std@@XZ 00401d10 f i main.obj
 0001:00000d40       ?toolTipMessage@WWebWidget@@UBEABVWMessage@@XZ 00401d40 f i main.obj
 0001:00000d50       ?renderState@WWebWidget@@IBE?AW4RenderState@1@XZ 00401d50 f i main.obj
 0001:00000d60       ?webWidget@WWebWidget@@MAEPAV1@XZ 00401d60 f i main.obj
 0001:00000d70       ?children@WWebWidget@@MBEABV?$vector@PAVWWidget@@V?$allocator@PAVWWidget@@@std@@@std@@XZ 00401d70 f i main.obj
 0001:00000d80       ??_FWWebWidget@@QAEXXZ     00401d80 f i main.obj
 0001:00000d90       ??1WInteractWidget@@UAE@XZ 00401d90 f i main.obj
 0001:00000da0       ??_FWInteractWidget@@QAEXXZ 00401da0 f i main.obj
 0001:00000db0       ?imageRef@WImage@@QBE?BV?$basic_string@DU?$char_traits@D@std@@V?$allocator@D@2@@std@@XZ 00401db0 f i libwt:WImage.obj
 0001:00000db0       ?text@WText@@QBE?BV?$basic_string@DU?$char_traits@D@std@@V?$allocator@D@2@@std@@XZ 00401db0 f i main.obj
 0001:00000de0       ?message@WText@@QBEABVWMessage@@XZ 00401de0 f i main.obj
 0001:00000df0       ??1WText@@UAE@XZ           00401df0 f i main.obj
 0001:00000e60       ??_FWText@@QAEXXZ          00401e60 f i main.obj
 0001:00000e70       ??_FWContainerWidget@@QAEXXZ 00401e70 f i main.obj
 0001:00000e80       ?table@WTableRow@@QBEPAVWTable@@XZ 00401e80 f i main.obj
 0001:00000e90       ??_FWTable@@QAEXXZ         00401e90 f i main.obj
 0001:00000ea0       ??1CEccMainView@@UAE@XZ    00401ea0 f i main.obj
 0001:00000f20       ?_Xlen@?$vector@PAVWWidget@@V?$allocator@PAVWWidget@@@std@@@std@@IBEXXZ 00401f20 f i main.obj
 0001:00000f20       ?_Xlen@?$vector@PAVWTableRow@@V?$allocator@PAVWTableRow@@@std@@@std@@IBEXXZ 00401f20 f i main.obj
 0001:00000f20       ?_Xlen@?$vector@PAVWObject@@V?$allocator@PAVWObject@@@std@@@std@@IBEXXZ 00401f20 f i main.obj
 0001:00000f20       ?_Xlen@?$vector@UTableData@WTableRow@@V?$allocator@UTableData@WTableRow@@@std@@@std@@IBEXXZ 00401f20 f i main.obj
 0001:00000f20       ?_Xlen@?$vector@PAVWMessageResources@@V?$allocator@PAVWMessageResources@@@std@@@std@@IBEXXZ 00401f20 f i main.obj
 0001:00000f20       ?_Xlen@?$vector@PAVDomElement@@V?$allocator@PAVDomElement@@@std@@@std@@IBEXXZ 00401f20 f i main.obj
 0001:00000fa0       ??1_Sentry_base@?$basic_ostream@DU?$char_traits@D@std@@@std@@QAE@XZ 00401fa0 f i main.obj
 0001:00000fc0       ??0logic_error@std@@QAE@ABV01@@Z 00401fc0 f i main.obj
 0001:00001020       ??$?HDU?$char_traits@D@std@@V?$allocator@D@1@@std@@YA?AV?$basic_string@DU?$char_traits@D@std@@V?$allocator@D@2@@0@ABV10@0@Z 00402020 f i main.obj
 0001:000010a0       ??$?HDU?$char_traits@D@std@@V?$allocator@D@1@@std@@YA?AV?$basic_string@DU?$char_traits@D@std@@V?$allocator@D@2@@0@PBDABV10@@Z 004020a0 f i main.obj
 0001:00001120       ??$?HDU?$char_traits@D@std@@V?$allocator@D@1@@std@@YA?AV?$basic_string@DU?$char_traits@D@std@@V?$allocator@D@2@@0@DABV10@@Z 00402120 f i main.obj
 0001:000011a0       ??$?HDU?$char_traits@D@std@@V?$allocator@D@1@@std@@YA?AV?$basic_string@DU?$char_traits@D@std@@V?$allocator@D@2@@0@ABV10@PBD@Z 004021a0 f i main.obj
 0001:00001220       ??$?HDU?$char_traits@D@std@@V?$allocator@D@1@@std@@YA?AV?$basic_string@DU?$char_traits@D@std@@V?$allocator@D@2@@0@ABV10@D@Z 00402220 f i main.obj
 0001:000012a0       ??1_Node@?$_Tree_nod@V?$_Tmap_traits@V?$basic_string@DU?$char_traits@D@std@@V?$allocator@D@2@@std@@KU?$less@V?$basic_string@DU?$char_traits@D@std@@V?$allocator@D@2@@std@@@2@V?$allocator@U?$pair@$$CBV?$basic_string@DU?$char_traits@D@std@@V?$allocator@D@2@@std@@K@std@@@2@$0A@@std@@@std@@QAE@XZ 004022a0 f i libboost_regex-vc71-mt-1_33_1:instances.obj
 0001:000012a0       ??1_Node@?$_Tree_nod@V?$_Tmap_traits@V?$basic_string@DU?$char_traits@D@std@@V?$allocator@D@2@@std@@_NU?$less@V?$basic_string@DU?$char_traits@D@std@@V?$allocator@D@2@@std@@@2@V?$allocator@U?$pair@$$CBV?$basic_string@DU?$char_traits@D@std@@V?$allocator@D@2@@std@@_N@std@@@2@$0A@@std@@@std@@QAE@XZ 004022a0 f i User.obj
 0001:000012a0       ??1_Node@?$_Tree_nod@V?$_Tmap_traits@V?$basic_string@DU?$char_traits@D@std@@V?$allocator@D@2@@std@@PAVWSlotInstance_@@U?$less@V?$basic_string@DU?$char_traits@D@std@@V?$allocator@D@2@@std@@@2@V?$allocator@U?$pair@$$CBV?$basic_string@DU?$char_traits@D@std@@V?$allocator@D@2@@std@@PAVWSlotInstance_@@@std@@@2@$0A@@std@@@std@@QAE@XZ 004022a0 f i libwt:WObject.obj
 0001:000012a0       ??1_Node@?$_Tree_nod@V?$_Tmap_traits@V?$basic_string@DU?$char_traits@D@std@@V?$allocator@D@2@@std@@PAVWCssRule@@U?$less@V?$basic_string@DU?$char_traits@D@std@@V?$allocator@D@2@@std@@@2@V?$allocator@U?$pair@$$CBV?$basic_string@DU?$char_traits@D@std@@V?$allocator@D@2@@std@@PAVWCssRule@@@std@@@2@$0A@@std@@@std@@QAE@XZ 004022a0 f i main.obj
 0001:000012a0       ??1_Node@?$_Tree_nod@V?$_Tmap_traits@V?$basic_string@DU?$char_traits@D@std@@V?$allocator@D@2@@std@@PAVWCheckBox@@U?$less@V?$basic_string@DU?$char_traits@D@std@@V?$allocator@D@2@@std@@@2@V?$allocator@U?$pair@$$CBV?$basic_string@DU?$char_traits@D@std@@V?$allocator@D@2@@std@@PAVWCheckBox@@@std@@@2@$0A@@std@@@std@@QAE@XZ 004022a0 f i listtable.obj
 0001:000012a0       ??1_Node@?$_Tree_nod@V?$_Tmap_traits@V?$basic_string@DU?$char_traits@D@std@@V?$allocator@D@2@@std@@PAUScopeFunc@@U?$less@V?$basic_string@DU?$char_traits@D@std@@V?$allocator@D@2@@std@@@2@V?$allocator@U?$pair@$$CBV?$basic_string@DU?$char_traits@D@std@@V?$allocator@D@2@@std@@PAUScopeFunc@@@std@@@2@$0A@@std@@@std@@QAE@XZ 004022a0 f i User.obj
 0001:000012a0       ??1_Node@?$_Tree_nod@V?$_Tmap_traits@V?$basic_string@DU?$char_traits@D@std@@V?$allocator@D@2@@std@@PAVWSignalInstance_@@U?$less@V?$basic_string@DU?$char_traits@D@std@@V?$allocator@D@2@@std@@@2@V?$allocator@U?$pair@$$CBV?$basic_string@DU?$char_traits@D@std@@V?$allocator@D@2@@std@@PAVWSignalInstance_@@@std@@@2@$0A@@std@@@std@@QAE@XZ 004022a0 f i libwt:WObject.obj
 0001:000012b0       ?showMainview@@YAXHQAPAD@Z 004022b0 f   main.obj
 0001:00001520       ??0sentry@?$basic_ostream@DU?$char_traits@D@std@@@std@@QAE@AAV12@@Z 00402520 f i main.obj
 0001:000015b0       ??1sentry@?$basic_ostream@DU?$char_traits@D@std@@@std@@QAE@XZ 004025b0 f i main.obj
 0001:00001620       ?_Max@?$_Tree@V?$_Tset_traits@PBVWSignalInstance_@@U?$less@PBVWSignalInstance_@@@std@@V?$allocator@PBVWSignalInstance_@@@3@$0A@@std@@@std@@KAPAU_Node@?$_Tree_nod@V?$_Tset_traits@PBVWSignalInstance_@@U?$less@PBVWSignalInstance_@@@std@@V?$allocator@PBVWSignalInstance_@@@3@$0A@@std@@@2@PAU342@@Z 00402620 f i main.obj
 0001:00001620       ?_Max@?$_Tree@V?$_Tset_traits@PBVWResource@@U?$less@PBVWResource@@@std@@V?$allocator@PBVWResource@@@3@$0A@@std@@@std@@KAPAU_Node@?$_Tree_nod@V?$_Tset_traits@PBVWResource@@U?$less@PBVWResource@@@std@@V?$allocator@PBVWResource@@@3@$0A@@std@@@2@PAU342@@Z 00402620 f i main.obj
 0001:00001640       ?_Min@?$_Tree@V?$_Tset_traits@PBVWSignalInstance_@@U?$less@PBVWSignalInstance_@@@std@@V?$allocator@PBVWSignalInstance_@@@3@$0A@@std@@@std@@KAPAU_Node@?$_Tree_nod@V?$_Tset_traits@PBVWSignalInstance_@@U?$less@PBVWSignalInstance_@@@std@@V?$allocator@PBVWSignalInstance_@@@3@$0A@@std@@@2@PAU342@@Z 00402640 f i main.obj
 0001:00001640       ?_Min@?$_Tree@V?$_Tset_traits@PBVWResource@@U?$less@PBVWResource@@@std@@V?$allocator@PBVWResource@@@3@$0A@@std@@@std@@KAPAU_Node@?$_Tree_nod@V?$_Tset_traits@PBVWResource@@U?$less@PBVWResource@@@std@@V?$allocator@PBVWResource@@@3@$0A@@std@@@2@PAU342@@Z 00402640 f i main.obj
 0001:00001660       ??0length_error@std@@QAE@ABV01@@Z 00402660 f i main.obj
 0001:00001680       ?_Lrotate@?$_Tree@V?$_Tmap_traits@V?$basic_string@DU?$char_traits@D@std@@V?$allocator@D@2@@std@@PAVWCssRule@@U?$less@V?$basic_string@DU?$char_traits@D@std@@V?$allocator@D@2@@std@@@2@V?$allocator@U?$pair@$$CBV?$basic_string@DU?$char_traits@D@std@@V?$allocator@D@2@@std@@PAVWCssRule@@@std@@@2@$0A@@std@@@std@@IAEXPAU_Node@?$_Tree_nod@V?$_Tmap_traits@V?$basic_string@DU?$char_traits@D@std@@V?$allocator@D@2@@std@@PAVWCssRule@@U?$less@V?$basic_string@DU?$char_traits@D@std@@V?$allocator@D@2@@std@@@2@V?$allocator@U?$pair@$$CBV?$basic_string@DU?$char_traits@D@std@@V?$allocator@D@2@@std@@PAVWCssRule@@@std@@@2@$0A@@std@@@2@@Z 00402680 f i main.obj
 0001:00001680       ?_Lrotate@?$_Tree@V?$_Tmap_traits@V?$basic_string@DU?$char_traits@D@std@@V?$allocator@D@2@@std@@PAVWSignalInstance_@@U?$less@V?$basic_string@DU?$char_traits@D@std@@V?$allocator@D@2@@std@@@2@V?$allocator@U?$pair@$$CBV?$basic_string@DU?$char_traits@D@std@@V?$allocator@D@2@@std@@PAVWSignalInstance_@@@std@@@2@$0A@@std@@@std@@IAEXPAU_Node@?$_Tree_nod@V?$_Tmap_traits@V?$basic_string@DU?$char_traits@D@std@@V?$allocator@D@2@@std@@PAVWSignalInstance_@@U?$less@V?$basic_string@DU?$char_traits@D@std@@V?$allocator@D@2@@std@@@2@V?$allocator@U?$pair@$$CBV?$basic_string@DU?$char_traits@D@std@@V?$allocator@D@2@@std@@PAVWSignalInstance_@@@std@@@2@$0A@@std@@@2@@Z 00402680 f i mainviewwt.obj
 0001:00001680       ?_Lrotate@?$_Tree@V?$_Tmap_traits@V?$basic_string@DU?$char_traits@D@std@@V?$allocator@D@2@@std@@PAVWSlotInstance_@@U?$less@V?$basic_string@DU?$char_traits@D@std@@V?$allocator@D@2@@std@@@2@V?$allocator@U?$pair@$$CBV?$basic_string@DU?$char_traits@D@std@@V?$allocator@D@2@@std@@PAVWSlotInstance_@@@std@@@2@$0A@@std@@@std@@IAEXPAU_Node@?$_Tree_nod@V?$_Tmap_traits@V?$basic_string@DU?$char_traits@D@std@@V?$allocator@D@2@@std@@PAVWSlotInstance_@@U?$less@V?$basic_string@DU?$char_traits@D@std@@V?$allocator@D@2@@std@@@2@V?$allocator@U?$pair@$$CBV?$basic_string@DU?$char_traits@D@std@@V?$allocator@D@2@@std@@PAVWSlotInstance_@@@std@@@2@$0A@@std@@@2@@Z 00402680 f i libwt:WWebWidget.obj
 0001:00001680       ?_Lrotate@?$_Tree@V?$_Tmap_traits@PAVWObject@@V?$basic_string@DU?$char_traits@D@std@@V?$allocator@D@2@@std@@U?$less@PAVWObject@@@3@V?$allocator@U?$pair@QAVWObject@@V?$basic_string@DU?$char_traits@D@std@@V?$allocator@D@2@@std@@@std@@@3@$0A@@std@@@std@@IAEXPAU_Node@?$_Tree_nod@V?$_Tmap_traits@PAVWObject@@V?$basic_string@DU?$char_traits@D@std@@V?$allocator@D@2@@std@@U?$less@PAVWObject@@@3@V?$allocator@U?$pair@QAVWObject@@V?$basic_string@DU?$char_traits@D@std@@V?$allocator@D@2@@std@@@std@@@3@$0A@@std@@@2@@Z 00402680 f i libwt:WSignalMapper.obj
 0001:00001680       ?_Lrotate@?$_Tree@V?$_Tmap_traits@V?$basic_string@DU?$char_traits@D@std@@V?$allocator@D@2@@std@@_NU?$less@V?$basic_string@DU?$char_traits@D@std@@V?$allocator@D@2@@std@@@2@V?$allocator@U?$pair@$$CBV?$basic_string@DU?$char_traits@D@std@@V?$allocator@D@2@@std@@_N@std@@@2@$0A@@std@@@std@@IAEXPAU_Node@?$_Tree_nod@V?$_Tmap_traits@V?$basic_string@DU?$char_traits@D@std@@V?$allocator@D@2@@std@@_NU?$less@V?$basic_string@DU?$char_traits@D@std@@V?$allocator@D@2@@std@@@2@V?$allocator@U?$pair@$$CBV?$basic_string@DU?$char_traits@D@std@@V?$allocator@D@2@@std@@_N@std@@@2@$0A@@std@@@2@@Z 00402680 f i User.obj
 0001:00001680       ?_Lrotate@?$_Tree@V?$_Tmap_traits@PAVWLineEdit@@V?$basic_string@DU?$char_traits@D@std@@V?$allocator@D@2@@std@@U?$less@PAVWLineEdit@@@3@V?$allocator@U?$pair@QAVWLineEdit@@V?$basic_string@DU?$char_traits@D@std@@V?$allocator@D@2@@std@@@std@@@3@$0A@@std@@@std@@IAEXPAU_Node@?$_Tree_nod@V?$_Tmap_traits@PAVWLineEdit@@V?$basic_string@DU?$char_traits@D@std@@V?$allocator@D@2@@std@@U?$less@PAVWLineEdit@@@3@V?$allocator@U?$pair@QAVWLineEdit@@V?$basic_string@DU?$char_traits@D@std@@V?$allocator@D@2@@std@@@std@@@3@$0A@@std@@@2@@Z 00402680 f i sortlist.obj
 0001:00001680       ?_Lrotate@?$_Tree@V?$_Tmap_traits@V?$basic_string@DU?$char_traits@D@std@@V?$allocator@D@2@@std@@PAUScopeFunc@@U?$less@V?$basic_string@DU?$char_traits@D@std@@V?$allocator@D@2@@std@@@2@V?$allocator@U?$pair@$$CBV?$basic_string@DU?$char_traits@D@std@@V?$allocator@D@2@@std@@PAUScopeFunc@@@std@@@2@$0A@@std@@@std@@IAEXPAU_Node@?$_Tree_nod@V?$_Tmap_traits@V?$basic_string@DU?$char_traits@D@std@@V?$allocator@D@2@@std@@PAUScopeFunc@@U?$less@V?$basic_string@DU?$char_traits@D@std@@V?$allocator@D@2@@std@@@2@V?$allocator@U?$pair@$$CBV?$basic_string@DU?$char_traits@D@std@@V?$allocator@D@2@@std@@PAUScopeFunc@@@std@@@2@$0A@@std@@@2@@Z 00402680 f i User.obj
 0001:00001680       ?_Lrotate@?$_Tree@V?$_Tmap_traits@W4Property@Wt@@V?$basic_string@DU?$char_traits@D@std@@V?$allocator@D@2@@std@@U?$less@W4Property@Wt@@@4@V?$allocator@U?$pair@$$CBW4Property@Wt@@V?$basic_string@DU?$char_traits@D@std@@V?$allocator@D@2@@std@@@std@@@4@$0A@@std@@@std@@IAEXPAU_Node@?$_Tree_nod@V?$_Tmap_traits@W4Property@Wt@@V?$basic_string@DU?$char_traits@D@std@@V?$allocator@D@2@@std@@U?$less@W4Property@Wt@@@4@V?$allocator@U?$pair@$$CBW4Property@Wt@@V?$basic_string@DU?$char_traits@D@std@@V?$allocator@D@2@@std@@@std@@@4@$0A@@std@@@2@@Z 00402680 f i libwt:WWebWidget.obj
 0001:00001680       ?_Lrotate@?$_Tree@V?$_Tmap_traits@V?$basic_string@DU?$char_traits@D@std@@V?$allocator@D@2@@std@@KU?$less@V?$basic_string@DU?$char_traits@D@std@@V?$allocator@D@2@@std@@@2@V?$allocator@U?$pair@$$CBV?$basic_string@DU?$char_traits@D@std@@V?$allocator@D@2@@std@@K@std@@@2@$0A@@std@@@std@@IAEXPAU_Node@?$_Tree_nod@V?$_Tmap_traits@V?$basic_string@DU?$char_traits@D@std@@V?$allocator@D@2@@std@@KU?$less@V?$basic_string@DU?$char_traits@D@std@@V?$allocator@D@2@@std@@@2@V?$allocator@U?$pair@$$CBV?$basic_string@DU?$char_traits@D@std@@V?$allocator@D@2@@std@@K@std@@@2@$0A@@std@@@2@@Z 00402680 f i libboost_regex-vc71-mt-1_33_1:instances.obj
 0001:00001680       ?_Lrotate@?$_Tree@V?$_Tmap_traits@V?$basic_string@DU?$char_traits@D@std@@V?$allocator@D@2@@std@@PAVWCheckBox@@U?$less@V?$basic_string@DU?$char_traits@D@std@@V?$allocator@D@2@@std@@@2@V?$allocator@U?$pair@$$CBV?$basic_string@DU?$char_traits@D@std@@V?$allocator@D@2@@std@@PAVWCheckBox@@@std@@@2@$0A@@std@@@std@@IAEXPAU_Node@?$_Tree_nod@V?$_Tmap_traits@V?$basic_string@DU?$char_traits@D@std@@V?$allocator@D@2@@std@@PAVWCheckBox@@U?$less@V?$basic_string@DU?$char_traits@D@std@@V?$allocator@D@2@@std@@@2@V?$allocator@U?$pair@$$CBV?$basic_string@DU?$char_traits@D@std@@V?$allocator@D@2@@std@@PAVWCheckBox@@@std@@@2@$0A@@std@@@2@@Z 00402680 f i listtable.obj
 0001:00001680       ?_Lrotate@?$_Tree@V?$_Tmap_traits@HV?$basic_string@DU?$char_traits@D@std@@V?$allocator@D@2@@std@@U?$less@H@2@V?$allocator@U?$pair@$$CBHV?$basic_string@DU?$char_traits@D@std@@V?$allocator@D@2@@std@@@std@@@2@$0A@@std@@@std@@IAEXPAU_Node@?$_Tree_nod@V?$_Tmap_traits@HV?$basic_string@DU?$char_traits@D@std@@V?$allocator@D@2@@std@@U?$less@H@2@V?$allocator@U?$pair@$$CBHV?$basic_string@DU?$char_traits@D@std@@V?$allocator@D@2@@std@@@std@@@2@$0A@@std@@@2@@Z 00402680 f i sortlist.obj
 0001:000016e0       ?_Rrotate@?$_Tree@V?$_Tset_traits@PBVWSignalInstance_@@U?$less@PBVWSignalInstance_@@@std@@V?$allocator@PBVWSignalInstance_@@@3@$0A@@std@@@std@@IAEXPAU_Node@?$_Tree_nod@V?$_Tset_traits@PBVWSignalInstance_@@U?$less@PBVWSignalInstance_@@@std@@V?$allocator@PBVWSignalInstance_@@@3@$0A@@std@@@2@@Z 004026e0 f i main.obj
 0001:000016e0       ?_Rrotate@?$_Tree@V?$_Tset_traits@PBVWResource@@U?$less@PBVWResource@@@std@@V?$allocator@PBVWResource@@@3@$0A@@std@@@std@@IAEXPAU_Node@?$_Tree_nod@V?$_Tset_traits@PBVWResource@@U?$less@PBVWResource@@@std@@V?$allocator@PBVWResource@@@3@$0A@@std@@@2@@Z 004026e0 f i main.obj
 0001:00001740       ?_Lrotate@?$_Tree@V?$_Tset_traits@PBVWResource@@U?$less@PBVWResource@@@std@@V?$allocator@PBVWResource@@@3@$0A@@std@@@std@@IAEXPAU_Node@?$_Tree_nod@V?$_Tset_traits@PBVWResource@@U?$less@PBVWResource@@@std@@V?$allocator@PBVWResource@@@3@$0A@@std@@@2@@Z 00402740 f i main.obj
 0001:00001740       ?_Lrotate@?$_Tree@V?$_Tset_traits@PBVWSignalInstance_@@U?$less@PBVWSignalInstance_@@@std@@V?$allocator@PBVWSignalInstance_@@@3@$0A@@std@@@std@@IAEXPAU_Node@?$_Tree_nod@V?$_Tset_traits@PBVWSignalInstance_@@U?$less@PBVWSignalInstance_@@@std@@V?$allocator@PBVWSignalInstance_@@@3@$0A@@std@@@2@@Z 00402740 f i main.obj
 0001:000017a0       ?_Inc@const_iterator@?$_Tree@V?$_Tmap_traits@V?$basic_string@DU?$char_traits@D@std@@V?$allocator@D@2@@std@@KU?$less@V?$basic_string@DU?$char_traits@D@std@@V?$allocator@D@2@@std@@@2@V?$allocator@U?$pair@$$CBV?$basic_string@DU?$char_traits@D@std@@V?$allocator@D@2@@std@@K@std@@@2@$0A@@std@@@std@@QAEXXZ 004027a0 f i libboost_regex-vc71-mt-1_33_1:instances.obj
 0001:000017a0       ?_Inc@const_iterator@?$_Tree@V?$_Tmap_traits@V?$basic_string@DU?$char_traits@D@std@@V?$allocator@D@2@@std@@PAVWCheckBox@@U?$less@V?$basic_string@DU?$char_traits@D@std@@V?$allocator@D@2@@std@@@2@V?$allocator@U?$pair@$$CBV?$basic_string@DU?$char_traits@D@std@@V?$allocator@D@2@@std@@PAVWCheckBox@@@std@@@2@$0A@@std@@@std@@QAEXXZ 004027a0 f i listtable.obj
 0001:000017a0       ?_Inc@const_iterator@?$_Tree@V?$_Tmap_traits@V?$basic_string@DU?$char_traits@D@std@@V?$allocator@D@2@@std@@PAUScopeFunc@@U?$less@V?$basic_string@DU?$char_traits@D@std@@V?$allocator@D@2@@std@@@2@V?$allocator@U?$pair@$$CBV?$basic_string@DU?$char_traits@D@std@@V?$allocator@D@2@@std@@PAUScopeFunc@@@std@@@2@$0A@@std@@@std@@QAEXXZ 004027a0 f i User.obj
 0001:000017a0       ?_Inc@const_iterator@?$_Tree@V?$_Tmap_traits@W4Property@Wt@@V?$basic_string@DU?$char_traits@D@std@@V?$allocator@D@2@@std@@U?$less@W4Property@Wt@@@4@V?$allocator@U?$pair@$$CBW4Property@Wt@@V?$basic_string@DU?$char_traits@D@std@@V?$allocator@D@2@@std@@@std@@@4@$0A@@std@@@std@@QAEXXZ 004027a0 f i libwt:WWebWidget.obj
 0001:000017a0       ?_Inc@const_iterator@?$_Tree@V?$_Tmap_traits@V?$basic_string@DU?$char_traits@D@std@@V?$allocator@D@2@@std@@PAVWCssRule@@U?$less@V?$basic_string@DU?$char_traits@D@std@@V?$allocator@D@2@@std@@@2@V?$allocator@U?$pair@$$CBV?$basic_string@DU?$char_traits@D@std@@V?$allocator@D@2@@std@@PAVWCssRule@@@std@@@2@$0A@@std@@@std@@QAEXXZ 004027a0 f i main.obj
 0001:000017a0       ?_Inc@const_iterator@?$_Tree@V?$_Tmap_traits@HV?$basic_string@DU?$char_traits@D@std@@V?$allocator@D@2@@std@@U?$less@H@2@V?$allocator@U?$pair@$$CBHV?$basic_string@DU?$char_traits@D@std@@V?$allocator@D@2@@std@@@std@@@2@$0A@@std@@@std@@QAEXXZ 004027a0 f i sortlist.obj
 0001:000017a0       ?_Inc@const_iterator@?$_Tree@V?$_Tmap_traits@PAVWLineEdit@@V?$basic_string@DU?$char_traits@D@std@@V?$allocator@D@2@@std@@U?$less@PAVWLineEdit@@@3@V?$allocator@U?$pair@QAVWLineEdit@@V?$basic_string@DU?$char_traits@D@std@@V?$allocator@D@2@@std@@@std@@@3@$0A@@std@@@std@@QAEXXZ 004027a0 f i sortlist.obj
 0001:000017a0       ?_Inc@const_iterator@?$_Tree@V?$_Tmap_traits@V?$basic_string@DU?$char_traits@D@std@@V?$allocator@D@2@@std@@_NU?$less@V?$basic_string@DU?$char_traits@D@std@@V?$allocator@D@2@@std@@@2@V?$allocator@U?$pair@$$CBV?$basic_string@DU?$char_traits@D@std@@V?$allocator@D@2@@std@@_N@std@@@2@$0A@@std@@@std@@QAEXXZ 004027a0 f i User.obj
 0001:000017a0       ?_Inc@const_iterator@?$_Tree@V?$_Tmap_traits@PAVWObject@@V?$basic_string@DU?$char_traits@D@std@@V?$allocator@D@2@@std@@U?$less@PAVWObject@@@3@V?$allocator@U?$pair@QAVWObject@@V?$basic_string@DU?$char_traits@D@std@@V?$allocator@D@2@@std@@@std@@@3@$0A@@std@@@std@@QAEXXZ 004027a0 f i libwt:WSignalMapper.obj
 0001:000017a0       ?_Inc@const_iterator@?$_Tree@V?$_Tmap_traits@V?$basic_string@DU?$char_traits@D@std@@V?$allocator@D@2@@std@@PAVWSlotInstance_@@U?$less@V?$basic_string@DU?$char_traits@D@std@@V?$allocator@D@2@@std@@@2@V?$allocator@U?$pair@$$CBV?$basic_string@DU?$char_traits@D@std@@V?$allocator@D@2@@std@@PAVWSlotInstance_@@@std@@@2@$0A@@std@@@std@@QAEXXZ 004027a0 f i libwt:WWebWidget.obj
 0001:000017a0       ?_Inc@const_iterator@?$_Tree@V?$_Tmap_traits@V?$basic_string@DU?$char_traits@D@std@@V?$allocator@D@2@@std@@PAVWSignalInstance_@@U?$less@V?$basic_string@DU?$char_traits@D@std@@V?$allocator@D@2@@std@@@2@V?$allocator@U?$pair@$$CBV?$basic_string@DU?$char_traits@D@std@@V?$allocator@D@2@@std@@PAVWSignalInstance_@@@std@@@2@$0A@@std@@@std@@QAEXXZ 004027a0 f i mainviewwt.obj
 0001:00001800       ?_Inc@const_iterator@?$_Tree@V?$_Tset_traits@PBVWSignalInstance_@@U?$less@PBVWSignalInstance_@@@std@@V?$allocator@PBVWSignalInstance_@@@3@$0A@@std@@@std@@QAEXXZ 00402800 f i main.obj
 0001:00001800       ?_Inc@const_iterator@?$_Tree@V?$_Tset_traits@PBVWResource@@U?$less@PBVWResource@@@std@@V?$allocator@PBVWResource@@@3@$0A@@std@@@std@@QAEXXZ 00402800 f i main.obj
 0001:00001860       ??$?6DU?$char_traits@D@std@@V?$allocator@D@1@@std@@YAAAV?$basic_ostream@DU?$char_traits@D@std@@@0@AAV10@ABV?$basic_string@DU?$char_traits@D@std@@V?$allocator@D@2@@0@@Z 00402860 f i main.obj
 0001:00001a60       ??$copy@PAUTableData@WTableRow@@PAU12@@std@@YAPAUTableData@WTableRow@@PAU12@00@Z 00402a60 f i main.obj
 0001:00001a90       ?_Buy@?$vector@PAVWObject@@V?$allocator@PAVWObject@@@std@@@std@@IAE_NI@Z 00402a90 f i main.obj
 0001:00001a90       ?_Buy@?$vector@PAVWTableRow@@V?$allocator@PAVWTableRow@@@std@@@std@@IAE_NI@Z 00402a90 f i main.obj
 0001:00001a90       ?_Buy@?$vector@PAVWWidget@@V?$allocator@PAVWWidget@@@std@@@std@@IAE_NI@Z 00402a90 f i main.obj
 0001:00001a90       ?_Buy@?$vector@PAVDomElement@@V?$allocator@PAVDomElement@@@std@@@std@@IAE_NI@Z 00402a90 f i main.obj
 0001:00001a90       ?_Buy@?$vector@PAVWMessageResources@@V?$allocator@PAVWMessageResources@@@std@@@std@@IAE_NI@Z 00402a90 f i main.obj
 0001:00001ae0       ?_Buy@?$vector@UTableData@WTableRow@@V?$allocator@UTableData@WTableRow@@@std@@@std@@IAE_NI@Z 00402ae0 f i main.obj
 0001:00001b30       ?_Buynode@?$_Tree@V?$_Tmap_traits@V?$basic_string@DU?$char_traits@D@std@@V?$allocator@D@2@@std@@PAVWCssRule@@U?$less@V?$basic_string@DU?$char_traits@D@std@@V?$allocator@D@2@@std@@@2@V?$allocator@U?$pair@$$CBV?$basic_string@DU?$char_traits@D@std@@V?$allocator@D@2@@std@@PAVWCssRule@@@std@@@2@$0A@@std@@@std@@IAEPAU_Node@?$_Tree_nod@V?$_Tmap_traits@V?$basic_string@DU?$char_traits@D@std@@V?$allocator@D@2@@std@@PAVWCssRule@@U?$less@V?$basic_string@DU?$char_traits@D@std@@V?$allocator@D@2@@std@@@2@V?$allocator@U?$pair@$$CBV?$basic_string@DU?$char_traits@D@std@@V?$allocator@D@2@@std@@PAVWCssRule@@@std@@@2@$0A@@std@@@2@PAU342@00ABU?$pair@$$CBV?$basic_string@DU?$char_traits@D@std@@V?$allocator@D@2@@std@@PAVWCssRule@@@2@D@Z 00402b30 f i main.obj
 0001:00001bd0       ?_Erase@?$_Tree@V?$_Tset_traits@PBVWSignalInstance_@@U?$less@PBVWSignalInstance_@@@std@@V?$allocator@PBVWSignalInstance_@@@3@$0A@@std@@@std@@IAEXPAU_Node@?$_Tree_nod@V?$_Tset_traits@PBVWSignalInstance_@@U?$less@PBVWSignalInstance_@@@std@@V?$allocator@PBVWSignalInstance_@@@3@$0A@@std@@@2@@Z 00402bd0 f i main.obj
 0001:00001c10       ?_Erase@?$_Tree@V?$_Tset_traits@PBVWResource@@U?$less@PBVWResource@@@std@@V?$allocator@PBVWResource@@@3@$0A@@std@@@std@@IAEXPAU_Node@?$_Tree_nod@V?$_Tset_traits@PBVWResource@@U?$less@PBVWResource@@@std@@V?$allocator@PBVWResource@@@3@$0A@@std@@@2@@Z 00402c10 f i main.obj
 0001:00001c50       ?_Buynode@?$_Tree@V?$_Tset_traits@PBVWResource@@U?$less@PBVWResource@@@std@@V?$allocator@PBVWResource@@@3@$0A@@std@@@std@@IAEPAU_Node@?$_Tree_nod@V?$_Tset_traits@PBVWResource@@U?$less@PBVWResource@@@std@@V?$allocator@PBVWResource@@@3@$0A@@std@@@2@PAU342@00ABQBVWResource@@D@Z 00402c50 f i main.obj
 0001:00001c50       ?_Buynode@?$_Tree@V?$_Tset_traits@PBVWSignalInstance_@@U?$less@PBVWSignalInstance_@@@std@@V?$allocator@PBVWSignalInstance_@@@3@$0A@@std@@@std@@IAEPAU_Node@?$_Tree_nod@V?$_Tset_traits@PBVWSignalInstance_@@U?$less@PBVWSignalInstance_@@@std@@V?$allocator@PBVWSignalInstance_@@@3@$0A@@std@@@2@PAU342@00ABQBVWSignalInstance_@@D@Z 00402c50 f i main.obj
 0001:00001c90       ??$_Ucopy@PAPAVWObject@@@?$vector@PAVWObject@@V?$allocator@PAVWObject@@@std@@@std@@IAEPAPAVWObject@@PAPAV2@00@Z 00402c90 f i main.obj
 0001:00001c90       ??$_Ucopy@PAPAVWRadioButton@@@?$vector@PAVWRadioButton@@V?$allocator@PAVWRadioButton@@@std@@@std@@IAEPAPAVWRadioButton@@PAPAV2@00@Z 00402c90 f i advanceparam.obj
 0001:00001c90       ??$_Ucopy@PAJ@?$vector@JV?$allocator@J@std@@@std@@IAEPAJPAJ00@Z 00402c90 f i libboost_regex-vc71-mt-1_33_1:instances.obj
 0001:00001c90       ??$_Ucopy@PAPAVWTableRow@@@?$vector@PAVWTableRow@@V?$allocator@PAVWTableRow@@@std@@@std@@IAEPAPAVWTableRow@@PAPAV2@00@Z 00402c90 f i main.obj
 0001:00001c90       ??$_Ucopy@PAPAVWScrollBar@@@?$vector@PAVWScrollBar@@V?$allocator@PAVWScrollBar@@@std@@@std@@IAEPAPAVWScrollBar@@PAPAV2@00@Z 00402c90 f i libwt:WScrollArea.obj
 0001:00001c90       ??$_Ucopy@PAPAVWWidget@@@?$vector@PAVWWidget@@V?$allocator@PAVWWidget@@@std@@@std@@IAEPAPAVWWidget@@PAPAV2@00@Z 00402c90 f i main.obj
 0001:00001c90       ??$_Ucopy@PAPAVWConnection_@@@?$vector@PAVWConnection_@@V?$allocator@PAVWConnection_@@@std@@@std@@IAEPAPAVWConnection_@@PAPAV2@00@Z 00402c90 f i mainviewwt.obj
 0001:00001c90       ??$_Ucopy@PAPAVWMessageResources@@@?$vector@PAVWMessageResources@@V?$allocator@PAVWMessageResources@@@std@@@std@@IAEPAPAVWMessageResources@@PAPAV2@00@Z 00402c90 f i main.obj
 0001:00001c90       ??$_Ucopy@PAPAVDomElement@@@?$vector@PAVDomElement@@V?$allocator@PAVDomElement@@@std@@@std@@IAEPAPAVDomElement@@PAPAV2@00@Z 00402c90 f i main.obj
 0001:00001cc0       ??$_Uninit_copy@Vconst_iterator@?$vector@PAVWMessageResources@@V?$allocator@PAVWMessageResources@@@std@@@std@@PAPAVWMessageResources@@V?$allocator@PAVWMessageResources@@@3@@std@@YAPAPAVWMessageResources@@Vconst_iterator@?$vector@PAVWMessageResources@@V?$allocator@PAVWMessageResources@@@std@@@0@0PAPAV1@AAV?$allocator@PAVWMessageResources@@@0@U_Nonscalar_ptr_iterator_tag@0@@Z 00402cc0 f i main.obj
 0001:00001cc0       ??$_Uninit_copy@Vconst_iterator@?$vector@PAVWObject@@V?$allocator@PAVWObject@@@std@@@std@@PAPAVWObject@@V?$allocator@PAVWObject@@@3@@std@@YAPAPAVWObject@@Vconst_iterator@?$vector@PAVWObject@@V?$allocator@PAVWObject@@@std@@@0@0PAPAV1@AAV?$allocator@PAVWObject@@@0@U_Nonscalar_ptr_iterator_tag@0@@Z 00402cc0 f i main.obj
 0001:00001cc0       ??$_Uninit_copy@Vconst_iterator@?$vector@PAVWConnection_@@V?$allocator@PAVWConnection_@@@std@@@std@@PAPAVWConnection_@@V?$allocator@PAVWConnection_@@@3@@std@@YAPAPAVWConnection_@@Vconst_iterator@?$vector@PAVWConnection_@@V?$allocator@PAVWConnection_@@@std@@@0@0PAPAV1@AAV?$allocator@PAVWConnection_@@@0@U_Nonscalar_ptr_iterator_tag@0@@Z 00402cc0 f i mainviewwt.obj
 0001:00001cf0       ??$_Uninit_copy@PAU?$pair@_NPAUre_syntax_base@re_detail@boost@@@std@@PAU12@V?$allocator@U?$pair@_NPAUre_syntax_base@re_detail@boost@@@std@@@2@@std@@YAPAU?$pair@_NPAUre_syntax_base@re_detail@boost@@@0@PAU10@00AAV?$allocator@U?$pair@_NPAUre_syntax_base@re_detail@boost@@@std@@@0@U_Nonscalar_ptr_iterator_tag@0@@Z 00402cf0 f i libboost_regex-vc71-mt-1_33_1:instances.obj
 0001:00001cf0       ??$_Uninit_copy@PAUTableData@WTableRow@@PAU12@V?$allocator@UTableData@WTableRow@@@std@@@std@@YAPAUTableData@WTableRow@@PAU12@00AAV?$allocator@UTableData@WTableRow@@@0@U_Nonscalar_ptr_iterator_tag@0@@Z 00402cf0 f i main.obj
 0001:00001d20       ?_Copy@?$_Tree@V?$_Tset_traits@PBVWSignalInstance_@@U?$less@PBVWSignalInstance_@@@std@@V?$allocator@PBVWSignalInstance_@@@3@$0A@@std@@@std@@IAEPAU_Node@?$_Tree_nod@V?$_Tset_traits@PBVWSignalInstance_@@U?$less@PBVWSignalInstance_@@@std@@V?$allocator@PBVWSignalInstance_@@@3@$0A@@std@@@2@PAU342@0@Z 00402d20 f i main.obj
 0001:00001dd0       ?_Copy@?$_Tree@V?$_Tset_traits@PBVWResource@@U?$less@PBVWResource@@@std@@V?$allocator@PBVWResource@@@3@$0A@@std@@@std@@IAEPAU_Node@?$_Tree_nod@V?$_Tset_traits@PBVWResource@@U?$less@PBVWResource@@@std@@V?$allocator@PBVWResource@@@3@$0A@@std@@@2@PAU342@0@Z 00402dd0 f i main.obj
 0001:00001e80       ??1WebSession@@QAE@XZ      00402e80 f i main.obj
 0001:00001f60       ??1WContainerWidget@@UAE@XZ 00402f60 f i main.obj
 0001:00001f60       ??1WTableCell@@UAE@XZ      00402f60 f i mainview.obj
 0001:00001fa0       _main                      00402fa0 f   main.obj
 0001:00002130       ??4?$vector@PAVWTableRow@@V?$allocator@PAVWTableRow@@@std@@@std@@QAEAAV01@ABV01@@Z 00403130 f i main.obj
 0001:00002130       ??4?$vector@PAVWMessageResources@@V?$allocator@PAVWMessageResources@@@std@@@std@@QAEAAV01@ABV01@@Z 00403130 f i main.obj
 0001:00002130       ??4?$vector@PAVWWidget@@V?$allocator@PAVWWidget@@@std@@@std@@QAEAAV01@ABV01@@Z 00403130 f i main.obj
 0001:00002130       ??4?$vector@PAVWObject@@V?$allocator@PAVWObject@@@std@@@std@@QAEAAV01@ABV01@@Z 00403130 f i main.obj
 0001:00002130       ??4?$vector@PAVDomElement@@V?$allocator@PAVDomElement@@@std@@@std@@QAEAAV01@ABV01@@Z 00403130 f i main.obj
 0001:00002280       ?_Copy@?$_Tree@V?$_Tset_traits@PBVWSignalInstance_@@U?$less@PBVWSignalInstance_@@@std@@V?$allocator@PBVWSignalInstance_@@@3@$0A@@std@@@std@@IAEXABV12@@Z 00403280 f i main.obj
 0001:00002310       ?_Copy@?$_Tree@V?$_Tset_traits@PBVWResource@@U?$less@PBVWResource@@@std@@V?$allocator@PBVWResource@@@3@$0A@@std@@@std@@IAEXABV12@@Z 00403310 f i main.obj
 0001:000023a0       ?erase@?$_Tree@V?$_Tmap_traits@V?$basic_string@DU?$char_traits@D@std@@V?$allocator@D@2@@std@@PAVWCssRule@@U?$less@V?$basic_string@DU?$char_traits@D@std@@V?$allocator@D@2@@std@@@2@V?$allocator@U?$pair@$$CBV?$basic_string@DU?$char_traits@D@std@@V?$allocator@D@2@@std@@PAVWCssRule@@@std@@@2@$0A@@std@@@std@@QAE?AViterator@12@V312@@Z 004033a0 f i main.obj
 0001:00002680       ??0out_of_range@std@@QAE@ABV01@@Z 00403680 f i main.obj
 0001:000026a0       ?erase@?$_Tree@V?$_Tset_traits@PBVWSignalInstance_@@U?$less@PBVWSignalInstance_@@@std@@V?$allocator@PBVWSignalInstance_@@@3@$0A@@std@@@std@@QAE?AViterator@12@V312@@Z 004036a0 f i main.obj
 0001:000026a0       ?erase@?$_Tree@V?$_Tset_traits@PBVWResource@@U?$less@PBVWResource@@@std@@V?$allocator@PBVWResource@@@3@$0A@@std@@@std@@QAE?AViterator@12@V312@@Z 004036a0 f i main.obj
 0001:00002970       ?_Erase@?$_Tree@V?$_Tmap_traits@V?$basic_string@DU?$char_traits@D@std@@V?$allocator@D@2@@std@@PAVWCssRule@@U?$less@V?$basic_string@DU?$char_traits@D@std@@V?$allocator@D@2@@std@@@2@V?$allocator@U?$pair@$$CBV?$basic_string@DU?$char_traits@D@std@@V?$allocator@D@2@@std@@PAVWCssRule@@@std@@@2@$0A@@std@@@std@@IAEXPAU_Node@?$_Tree_nod@V?$_Tmap_traits@V?$basic_string@DU?$char_traits@D@std@@V?$allocator@D@2@@std@@PAVWCssRule@@U?$less@V?$basic_string@DU?$char_traits@D@std@@V?$allocator@D@2@@std@@@2@V?$allocator@U?$pair@$$CBV?$basic_string@DU?$char_traits@D@std@@V?$allocator@D@2@@std@@PAVWCssRule@@@std@@@2@$0A@@std@@@2@@Z 00403970 f i main.obj
 0001:000029b0       ??$_Ucopy@PAUTableData@WTableRow@@@?$vector@UTableData@WTableRow@@V?$allocator@UTableData@WTableRow@@@std@@@std@@IAEPAUTableData@WTableRow@@PAU23@00@Z 004039b0 f i main.obj
 0001:000029d0       ??4WebSession@@QAEAAV0@ABV0@@Z 004039d0 f i main.obj
 0001:00002b90       ??4WMessageResourceBundle@@QAEAAV0@ABV0@@Z 00403b90 f i main.obj
 0001:00002bb0       ??4WWebWidget@@QAEAAV0@ABV0@@Z 00403bb0 f i main.obj
 0001:00002ef0       ??4WInteractWidget@@QAEAAV0@ABV0@@Z 00403ef0 f i main.obj
 0001:00002f30       ??4WText@@QAEAAV0@ABV0@@Z  00403f30 f i main.obj
 0001:00002f90       ??4WContainerWidget@@QAEAAV0@ABV0@@Z 00403f90 f i main.obj
 0001:00003070       ??4WTable@@QAEAAV0@ABV0@@Z 00404070 f i main.obj
 0001:000031d0       ??0?$vector@PAVWObject@@V?$allocator@PAVWObject@@@std@@@std@@QAE@ABV01@@Z 004041d0 f i main.obj
 0001:000031d0       ??0?$vector@PAVWMessageResources@@V?$allocator@PAVWMessageResources@@@std@@@std@@QAE@ABV01@@Z 004041d0 f i main.obj
 0001:00003290       ?erase@?$_Tree@V?$_Tset_traits@PBVWSignalInstance_@@U?$less@PBVWSignalInstance_@@@std@@V?$allocator@PBVWSignalInstance_@@@3@$0A@@std@@@std@@QAE?AViterator@12@V312@0@Z 00404290 f i main.obj
 0001:00003350       ?erase@?$_Tree@V?$_Tset_traits@PBVWResource@@U?$less@PBVWResource@@@std@@V?$allocator@PBVWResource@@@3@$0A@@std@@@std@@QAE?AViterator@12@V312@0@Z 00404350 f i main.obj
 0001:00003410       ?_Copy@?$_Tree@V?$_Tmap_traits@V?$basic_string@DU?$char_traits@D@std@@V?$allocator@D@2@@std@@PAVWCssRule@@U?$less@V?$basic_string@DU?$char_traits@D@std@@V?$allocator@D@2@@std@@@2@V?$allocator@U?$pair@$$CBV?$basic_string@DU?$char_traits@D@std@@V?$allocator@D@2@@std@@PAVWCssRule@@@std@@@2@$0A@@std@@@std@@IAEPAU_Node@?$_Tree_nod@V?$_Tmap_traits@V?$basic_string@DU?$char_traits@D@std@@V?$allocator@D@2@@std@@PAVWCssRule@@U?$less@V?$basic_string@DU?$char_traits@D@std@@V?$allocator@D@2@@std@@@2@V?$allocator@U?$pair@$$CBV?$basic_string@DU?$char_traits@D@std@@V?$allocator@D@2@@std@@PAVWCssRule@@@std@@@2@$0A@@std@@@2@PAU342@0@Z 00404410 f i main.obj
 0001:000034c0       ??0WebSession@@QAE@ABV0@@Z 004044c0 f i main.obj
 0001:000036d0       ??0WMessageResourceBundle@@QAE@ABV0@@Z 004046d0 f i main.obj
 0001:000036f0       ??1WTableRow@@UAE@XZ       004046f0 f i main.obj
 0001:00003790       ??4?$vector@UTableData@WTableRow@@V?$allocator@UTableData@WTableRow@@@std@@@std@@QAEAAV01@ABV01@@Z 00404790 f i main.obj
 0001:000038e0       ?erase@?$_Tree@V?$_Tmap_traits@V?$basic_string@DU?$char_traits@D@std@@V?$allocator@D@2@@std@@PAVWCssRule@@U?$less@V?$basic_string@DU?$char_traits@D@std@@V?$allocator@D@2@@std@@@2@V?$allocator@U?$pair@$$CBV?$basic_string@DU?$char_traits@D@std@@V?$allocator@D@2@@std@@PAVWCssRule@@@std@@@2@$0A@@std@@@std@@QAE?AViterator@12@V312@0@Z 004048e0 f i main.obj
 0001:000039a0       ?_Copy@?$_Tree@V?$_Tmap_traits@V?$basic_string@DU?$char_traits@D@std@@V?$allocator@D@2@@std@@PAVWCssRule@@U?$less@V?$basic_string@DU?$char_traits@D@std@@V?$allocator@D@2@@std@@@2@V?$allocator@U?$pair@$$CBV?$basic_string@DU?$char_traits@D@std@@V?$allocator@D@2@@std@@PAVWCssRule@@@std@@@2@$0A@@std@@@std@@IAEXABV12@@Z 004049a0 f i main.obj
 0001:00003a30       ??4WTableRow@@QAEAAV0@ABV0@@Z 00404a30 f i main.obj
 0001:00003a80       ??4WApplication@@QAEAAV0@ABV0@@Z 00404a80 f i main.obj
 0001:00003bd0       ?strtriml@@YA?AV?$basic_string@DU?$char_traits@D@std@@V?$allocator@D@2@@std@@PBD@Z 00404bd0 f   basefunc.obj
 0001:00003cc0       ?strtrimr@@YA?AV?$basic_string@DU?$char_traits@D@std@@V?$allocator@D@2@@std@@PBD@Z 00404cc0 f   basefunc.obj
 0001:00003dc0       ?url_Encode@@YA?AV?$basic_string@DU?$char_traits@D@std@@V?$allocator@D@2@@std@@PBD@Z 00404dc0 f   basefunc.obj
 0001:00003f10       ??1WFont@@QAE@XZ           00404f10 f i main.obj
 0001:00003f10       ??1_Node@?$_List_nod@V?$basic_string@DU?$char_traits@D@std@@V?$allocator@D@2@@std@@V?$allocator@V?$basic_string@DU?$char_traits@D@std@@V?$allocator@D@2@@std@@@2@@std@@QAE@XZ 00404f10 f i basefunc.obj
 0001:00003f20       ?_Xlen@?$vector@U?$sub_match@Vconst_iterator@?$basic_string@DU?$char_traits@D@std@@V?$allocator@D@2@@std@@@boost@@V?$allocator@U?$sub_match@Vconst_iterator@?$basic_string@DU?$char_traits@D@std@@V?$allocator@D@2@@std@@@boost@@@std@@@std@@IBEXXZ 00404f20 f i basefunc.obj
 0001:00003fa0       ??1?$repeater_count@Vconst_iterator@?$basic_string@DU?$char_traits@D@std@@V?$allocator@D@2@@std@@@re_detail@boost@@QAE@XZ 00404fa0 f i basefunc.obj
 0001:00003fb0       ?size@?$vector@U?$sub_match@Vconst_iterator@?$basic_string@DU?$char_traits@D@std@@V?$allocator@D@2@@std@@@boost@@V?$allocator@U?$sub_match@Vconst_iterator@?$basic_string@DU?$char_traits@D@std@@V?$allocator@D@2@@std@@@boost@@@std@@@std@@QBEIXZ 00404fb0 f i basefunc.obj
 0001:00003fd0       ?buildHtmlText@@YAXAAV?$basic_string@DU?$char_traits@D@std@@V?$allocator@D@2@@std@@@Z 00404fd0 f   basefunc.obj
 0001:00004100       ?str@?$sub_match@Vconst_iterator@?$basic_string@DU?$char_traits@D@std@@V?$allocator@D@2@@std@@@boost@@QBE?AV?$basic_string@DU?$char_traits@D@std@@V?$allocator@D@2@@std@@XZ 00405100 f i basefunc.obj
 0001:000041c0       ??0?$basic_regex@DU?$regex_traits@DV?$w32_regex_traits@D@boost@@@boost@@@boost@@QAE@PBDI@Z 004051c0 f i basefunc.obj
 0001:00004230       ?_Buynode@?$list@V?$basic_string@DU?$char_traits@D@std@@V?$allocator@D@2@@std@@V?$allocator@V?$basic_string@DU?$char_traits@D@std@@V?$allocator@D@2@@std@@@2@@std@@IAEPAU_Node@?$_List_nod@V?$basic_string@DU?$char_traits@D@std@@V?$allocator@D@2@@std@@V?$allocator@V?$basic_string@DU?$char_traits@D@std@@V?$allocator@D@2@@std@@@2@@2@PAU342@0ABV?$basic_string@DU?$char_traits@D@std@@V?$allocator@D@2@@2@@Z 00405230 f i basefunc.obj
 0001:000042c0       ?_Incsize@?$list@V?$basic_string@DU?$char_traits@D@std@@V?$allocator@D@2@@std@@V?$allocator@V?$basic_string@DU?$char_traits@D@std@@V?$allocator@D@2@@std@@@2@@std@@IAEXI@Z 004052c0 f i basefunc.obj
 0001:00004360       ?_Buy@?$vector@U?$sub_match@Vconst_iterator@?$basic_string@DU?$char_traits@D@std@@V?$allocator@D@2@@std@@@boost@@V?$allocator@U?$sub_match@Vconst_iterator@?$basic_string@DU?$char_traits@D@std@@V?$allocator@D@2@@std@@@boost@@@std@@@std@@IAE_NI@Z 00405360 f i basefunc.obj
 0001:000043b0       ??$copy@PAU?$sub_match@Vconst_iterator@?$basic_string@DU?$char_traits@D@std@@V?$allocator@D@2@@std@@@boost@@PAU12@@std@@YAPAU?$sub_match@Vconst_iterator@?$basic_string@DU?$char_traits@D@std@@V?$allocator@D@2@@std@@@boost@@PAU12@00@Z 004053b0 f i basefunc.obj
 0001:000043f0       ?str@?$match_results@Vconst_iterator@?$basic_string@DU?$char_traits@D@std@@V?$allocator@D@2@@std@@V?$allocator@U?$sub_match@Vconst_iterator@?$basic_string@DU?$char_traits@D@std@@V?$allocator@D@2@@std@@@boost@@@3@@boost@@QBE?AV?$basic_string@DU?$char_traits@D@std@@V?$allocator@D@2@@std@@H@Z 004053f0 f i basefunc.obj
 0001:000044e0       ?length@?$match_results@Vconst_iterator@?$basic_string@DU?$char_traits@D@std@@V?$allocator@D@2@@std@@V?$allocator@U?$sub_match@Vconst_iterator@?$basic_string@DU?$char_traits@D@std@@V?$allocator@D@2@@std@@@boost@@@3@@boost@@QBEHH@Z 004054e0 f i basefunc.obj
 0001:00004530       ??$_Uninit_copy@Vconst_iterator@?$vector@U?$sub_match@Vconst_iterator@?$basic_string@DU?$char_traits@D@std@@V?$allocator@D@2@@std@@@boost@@V?$allocator@U?$sub_match@Vconst_iterator@?$basic_string@DU?$char_traits@D@std@@V?$allocator@D@2@@std@@@boost@@@std@@@std@@PAU?$sub_match@Vconst_iterator@?$basic_string@DU?$char_traits@D@std@@V?$allocator@D@2@@std@@@boost@@V?$allocator@U?$sub_match@Vconst_iterator@?$basic_string@DU?$char_traits@D@std@@V?$allocator@D@2@@std@@@boost@@@3@@std@@YAPAU?$sub_match@Vconst_iterator@?$basic_string@DU?$char_traits@D@std@@V?$allocator@D@2@@std@@@boost@@Vconst_iterator@?$vector@U?$sub_match@Vconst_iterator@?$basic_string@DU?$char_traits@D@std@@V?$allocator@D@2@@std@@@boost@@V?$allocator@U?$sub_match@Vconst_iterator@?$basic_string@DU?$char_traits@D@std@@V?$allocator@D@2@@std@@@boost@@@std@@@0@0PAU12@AAV?$allocator@U?$sub_match@Vconst_iterator@?$basic_string@DU?$char_traits@D@std@@V?$allocator@D@2@@std@@@boost@@@0@U_Nonscalar_ptr_iterator_tag@0@@Z 00405530 f i basefunc.obj
 0001:00004530       ??$_Uninit_copy@PAU?$sub_match@Vconst_iterator@?$basic_string@DU?$char_traits@D@std@@V?$allocator@D@2@@std@@@boost@@PAU12@V?$allocator@U?$sub_match@Vconst_iterator@?$basic_string@DU?$char_traits@D@std@@V?$allocator@D@2@@std@@@boost@@@std@@@std@@YAPAU?$sub_match@Vconst_iterator@?$basic_string@DU?$char_traits@D@std@@V?$allocator@D@2@@std@@@boost@@PAU12@00AAV?$allocator@U?$sub_match@Vconst_iterator@?$basic_string@DU?$char_traits@D@std@@V?$allocator@D@2@@std@@@boost@@@0@U_Nonscalar_ptr_iterator_tag@0@@Z 00405530 f i basefunc.obj
 0001:00004570       ?clear@?$list@V?$basic_string@DU?$char_traits@D@std@@V?$allocator@D@2@@std@@V?$allocator@V?$basic_string@DU?$char_traits@D@std@@V?$allocator@D@2@@std@@@2@@std@@QAEXXZ 00405570 f i basefunc.obj
 0001:000045b0       ??4?$back_insert_iterator@V?$list@V?$basic_string@DU?$char_traits@D@std@@V?$allocator@D@2@@std@@V?$allocator@V?$basic_string@DU?$char_traits@D@std@@V?$allocator@D@2@@std@@@2@@std@@@std@@QAEAAV01@ABV?$basic_string@DU?$char_traits@D@std@@V?$allocator@D@2@@1@@Z 004055b0 f i basefunc.obj
 0001:000045f0       ??R?$split_pred@V?$back_insert_iterator@V?$list@V?$basic_string@DU?$char_traits@D@std@@V?$allocator@D@2@@std@@V?$allocator@V?$basic_string@DU?$char_traits@D@std@@V?$allocator@D@2@@std@@@2@@std@@@std@@DU?$char_traits@D@2@V?$allocator@D@2@@re_detail@boost@@QAE_NABV?$match_results@Vconst_iterator@?$basic_string@DU?$char_traits@D@std@@V?$allocator@D@2@@std@@V?$allocator@U?$sub_match@Vconst_iterator@?$basic_string@DU?$char_traits@D@std@@V?$allocator@D@2@@std@@@boost@@@3@@2@@Z 004055f0 f i basefunc.obj
 0001:00004820       ?sv_split@@YAHPBD0AAV?$list@V?$basic_string@DU?$char_traits@D@std@@V?$allocator@D@2@@std@@V?$allocator@V?$basic_string@DU?$char_traits@D@std@@V?$allocator@D@2@@std@@@2@@std@@_N@Z 00405820 f   basefunc.obj
 0001:000049e0       ?_Tidy@?$list@V?$basic_string@DU?$char_traits@D@std@@V?$allocator@D@2@@std@@V?$allocator@V?$basic_string@DU?$char_traits@D@std@@V?$allocator@D@2@@std@@@2@@std@@IAEXXZ 004059e0 f i basefunc.obj
 0001:000049e0       ??1?$list@V?$basic_string@DU?$char_traits@D@std@@V?$allocator@D@2@@std@@V?$allocator@V?$basic_string@DU?$char_traits@D@std@@V?$allocator@D@2@@std@@@2@@std@@QAE@XZ 004059e0 f i basefunc.obj
 0001:00004a00       ??1?$match_results@Vconst_iterator@?$basic_string@DU?$char_traits@D@std@@V?$allocator@D@2@@std@@V?$allocator@U?$sub_match@Vconst_iterator@?$basic_string@DU?$char_traits@D@std@@V?$allocator@D@2@@std@@@boost@@@3@@boost@@QAE@XZ 00405a00 f i basefunc.obj
 0001:00004a00       ??1?$vector@U?$pair@_NPAUre_syntax_base@re_detail@boost@@@std@@V?$allocator@U?$pair@_NPAUre_syntax_base@re_detail@boost@@@std@@@2@@std@@QAE@XZ 00405a00 f i libboost_regex-vc71-mt-1_33_1:instances.obj
 0001:00004a00       ?_Tidy@?$vector@PAVWMessageResources@@V?$allocator@PAVWMessageResources@@@std@@@std@@IAEXXZ 00405a00 f i main.obj
 0001:00004a00       ??1?$vector@PAVDomElement@@V?$allocator@PAVDomElement@@@std@@@std@@QAE@XZ 00405a00 f i libwt:WWebWidget.obj
 0001:00004a00       ??1?$vector@PAVWTableRow@@V?$allocator@PAVWTableRow@@@std@@@std@@QAE@XZ 00405a00 f i libwt:WTable.obj
 0001:00004a00       ??1?$vector@PAVWObject@@V?$allocator@PAVWObject@@@std@@@std@@QAE@XZ 00405a00 f i main.obj
 0001:00004a00       ??1?$vector@PAVWScrollBar@@V?$allocator@PAVWScrollBar@@@std@@@std@@QAE@XZ 00405a00 f i libwt:WScrollBar.obj
 0001:00004a00       ??1WMessageResourceBundle@@QAE@XZ 00405a00 f i main.obj
 0001:00004a00       ??1?$vector@PAVWWidget@@V?$allocator@PAVWWidget@@@std@@@std@@QAE@XZ 00405a00 f i main.obj
 0001:00004a00       ??1?$vector@PAVWConnection_@@V?$allocator@PAVWConnection_@@@std@@@std@@QAE@XZ 00405a00 f i mainviewwt.obj
 0001:00004a00       ??1?$vector@PAVWRadioButton@@V?$allocator@PAVWRadioButton@@@std@@@std@@QAE@XZ 00405a00 f i libwt:WButtonGroup.obj
 0001:00004a00       ?_Tidy@?$vector@PAVWObject@@V?$allocator@PAVWObject@@@std@@@std@@IAEXXZ 00405a00 f i main.obj
 0001:00004a00       ?_Tidy@?$vector@U?$sub_match@Vconst_iterator@?$basic_string@DU?$char_traits@D@std@@V?$allocator@D@2@@std@@@boost@@V?$allocator@U?$sub_match@Vconst_iterator@?$basic_string@DU?$char_traits@D@std@@V?$allocator@D@2@@std@@@boost@@@std@@@std@@IAEXXZ 00405a00 f i basefunc.obj
 0001:00004a00       ?_Tidy@?$vector@PAVWConnection_@@V?$allocator@PAVWConnection_@@@std@@@std@@IAEXXZ 00405a00 f i mainviewwt.obj
 0001:00004a00       ??1?$vector@U?$digraph@D@re_detail@boost@@V?$allocator@U?$digraph@D@re_detail@boost@@@std@@@std@@QAE@XZ 00405a00 f i libboost_regex-vc71-mt-1_33_1:instances.obj
 0001:00004a00       ??1?$vector@UTableData@WTableRow@@V?$allocator@UTableData@WTableRow@@@std@@@std@@QAE@XZ 00405a00 f i main.obj
 0001:00004a30       ??$_Ucopy@PAU?$sub_match@Vconst_iterator@?$basic_string@DU?$char_traits@D@std@@V?$allocator@D@2@@std@@@boost@@@?$vector@U?$sub_match@Vconst_iterator@?$basic_string@DU?$char_traits@D@std@@V?$allocator@D@2@@std@@@boost@@V?$allocator@U?$sub_match@Vconst_iterator@?$basic_string@DU?$char_traits@D@std@@V?$allocator@D@2@@std@@@boost@@@std@@@std@@IAEPAU?$sub_match@Vconst_iterator@?$basic_string@DU?$char_traits@D@std@@V?$allocator@D@2@@std@@@boost@@PAU23@00@Z 00405a30 f i basefunc.obj
 0001:00004a50       ??0?$vector@U?$sub_match@Vconst_iterator@?$basic_string@DU?$char_traits@D@std@@V?$allocator@D@2@@std@@@boost@@V?$allocator@U?$sub_match@Vconst_iterator@?$basic_string@DU?$char_traits@D@std@@V?$allocator@D@2@@std@@@boost@@@std@@@std@@QAE@ABV01@@Z 00405a50 f i basefunc.obj
 0001:00004b20       ??4?$vector@U?$sub_match@Vconst_iterator@?$basic_string@DU?$char_traits@D@std@@V?$allocator@D@2@@std@@@boost@@V?$allocator@U?$sub_match@Vconst_iterator@?$basic_string@DU?$char_traits@D@std@@V?$allocator@D@2@@std@@@boost@@@std@@@std@@QAEAAV01@ABV01@@Z 00405b20 f i basefunc.obj
 0001:00004c90       ?getOperatePostion@@YAIV?$basic_string@DU?$char_traits@D@std@@V?$allocator@D@2@@std@@V?$list@V?$basic_string@DU?$char_traits@D@std@@V?$allocator@D@2@@std@@V?$allocator@V?$basic_string@DU?$char_traits@D@std@@V?$allocator@D@2@@std@@@2@@2@AAV12@@Z 00405c90 f   basefunc.obj
 0001:00004ea0       ??1?$scoped_ptr@V?$match_results@Vconst_iterator@?$basic_string@DU?$char_traits@D@std@@V?$allocator@D@2@@std@@V?$allocator@U?$sub_match@Vconst_iterator@?$basic_string@DU?$char_traits@D@std@@V?$allocator@D@2@@std@@@boost@@@3@@boost@@@boost@@QAE@XZ 00405ea0 f i basefunc.obj
 0001:00004ec0       ??1?$perl_matcher@Vconst_iterator@?$basic_string@DU?$char_traits@D@std@@V?$allocator@D@2@@std@@V?$allocator@U?$sub_match@Vconst_iterator@?$basic_string@DU?$char_traits@D@std@@V?$allocator@D@2@@std@@@boost@@@3@U?$regex_traits@DV?$w32_regex_traits@D@boost@@@boost@@@re_detail@boost@@QAE@XZ 00405ec0 f i basefunc.obj
 0001:00004f00       ??$regex_grep@V?$split_pred@V?$back_insert_iterator@V?$list@V?$basic_string@DU?$char_traits@D@std@@V?$allocator@D@2@@std@@V?$allocator@V?$basic_string@DU?$char_traits@D@std@@V?$allocator@D@2@@std@@@2@@std@@@std@@DU?$char_traits@D@2@V?$allocator@D@2@@re_detail@boost@@Vconst_iterator@?$basic_string@DU?$char_traits@D@std@@V?$allocator@D@2@@std@@DU?$regex_traits@DV?$w32_regex_traits@D@boost@@@3@@boost@@YAIV?$split_pred@V?$back_insert_iterator@V?$list@V?$basic_string@DU?$char_traits@D@std@@V?$allocator@D@2@@std@@V?$allocator@V?$basic_string@DU?$char_traits@D@std@@V?$allocator@D@2@@std@@@2@@std@@@std@@DU?$char_traits@D@2@V?$allocator@D@2@@re_detail@0@Vconst_iterator@?$basic_string@DU?$char_traits@D@std@@V?$allocator@D@2@@std@@1ABV?$basic_regex@DU?$regex_traits@DV?$w32_regex_traits@D@boost@@@boost@@@0@W4_match_flags@regex_constants@0@@Z 00405f00 f i basefunc.obj
 0001:00005160       ??$regex_split@V?$back_insert_iterator@V?$list@V?$basic_string@DU?$char_traits@D@std@@V?$allocator@D@2@@std@@V?$allocator@V?$basic_string@DU?$char_traits@D@std@@V?$allocator@D@2@@std@@@2@@std@@@std@@DU?$char_traits@D@2@V?$allocator@D@2@U?$regex_traits@DV?$w32_regex_traits@D@boost@@@boost@@@boost@@YAIV?$back_insert_iterator@V?$list@V?$basic_string@DU?$char_traits@D@std@@V?$allocator@D@2@@std@@V?$allocator@V?$basic_string@DU?$char_traits@D@std@@V?$allocator@D@2@@std@@@2@@std@@@std@@AAV?$basic_string@DU?$char_traits@D@std@@V?$allocator@D@2@@2@ABV?$basic_regex@DU?$regex_traits@DV?$w32_regex_traits@D@boost@@@boost@@@0@W4_match_flags@regex_constants@0@I@Z 00406160 f i basefunc.obj
 0001:000052c0       ??$regex_match@Vconst_iterator@?$basic_string@DU?$char_traits@D@std@@V?$allocator@D@2@@std@@V?$allocator@U?$sub_match@Vconst_iterator@?$basic_string@DU?$char_traits@D@std@@V?$allocator@D@2@@std@@@boost@@@3@DU?$regex_traits@DV?$w32_regex_traits@D@boost@@@boost@@@boost@@YA_NVconst_iterator@?$basic_string@DU?$char_traits@D@std@@V?$allocator@D@2@@std@@0AAV?$match_results@Vconst_iterator@?$basic_string@DU?$char_traits@D@std@@V?$allocator@D@2@@std@@V?$allocator@U?$sub_match@Vconst_iterator@?$basic_string@DU?$char_traits@D@std@@V?$allocator@D@2@@std@@@boost@@@3@@0@ABV?$basic_regex@DU?$regex_traits@DV?$w32_regex_traits@D@boost@@@boost@@@0@W4_match_flags@regex_constants@0@@Z 004062c0 f i basefunc.obj
 0001:00005370       ??$regex_match@U?$char_traits@D@std@@V?$allocator@D@2@DU?$regex_traits@DV?$w32_regex_traits@D@boost@@@boost@@@boost@@YA_NABV?$basic_string@DU?$char_traits@D@std@@V?$allocator@D@2@@std@@ABV?$basic_regex@DU?$regex_traits@DV?$w32_regex_traits@D@boost@@@boost@@@0@W4_match_flags@regex_constants@0@@Z 00406370 f i basefunc.obj
 0001:00005420       ?getCondition@@YAIAAV?$list@V?$basic_string@DU?$char_traits@D@std@@V?$allocator@D@2@@std@@V?$allocator@V?$basic_string@DU?$char_traits@D@std@@V?$allocator@D@2@@std@@@2@@std@@V?$basic_string@DU?$char_traits@D@std@@V?$allocator@D@2@@2@@Z 00406420 f   basefunc.obj
 0001:000054c0       ?getParam@@YAIAAV?$list@V?$basic_string@DU?$char_traits@D@std@@V?$allocator@D@2@@std@@V?$allocator@V?$basic_string@DU?$char_traits@D@std@@V?$allocator@D@2@@std@@@2@@std@@V?$basic_string@DU?$char_traits@D@std@@V?$allocator@D@2@@2@@Z 004064c0 f   basefunc.obj
 0001:00005560       ?SV_IsNumeric@@YA_NAAV?$basic_string@DU?$char_traits@D@std@@V?$allocator@D@2@@std@@@Z 00406560 f   basefunc.obj
 0001:000055e0       ?PrintDebugString@@YAXPBD@Z 004065e0 f   debuginfor.obj
 0001:00005610       ?PrintDebugString@@YAXABV?$basic_string@DU?$char_traits@D@std@@V?$allocator@D@2@@std@@@Z 00406610 f   debuginfor.obj
 0001:00005650       ??1?$pair@$$CBV?$basic_string@DU?$char_traits@D@std@@V?$allocator@D@2@@std@@V12@@std@@QAE@XZ 00406650 f i eccobjfunc.obj
 0001:00005650       ??1sv_pair@@QAE@XZ         00406650 f i eccobjfunc.obj
 0001:000056a0       ??0TTime@chen@@QAE@HHHHHHH@Z 004066a0 f i eccobjfunc.obj
 0001:00005770       ?GetCurrentTimeEx@TTime@chen@@SA?AV12@XZ 00406770 f i eccobjfunc.obj
 0001:00005a20       ?label@WFormWidget@@QBEPAVWLabel@@XZ 00406a20 f i eccobjfunc.obj
 0001:00005a20       ?contentAlignment@WContainerWidget@@QBE?AW4HorizontalAlignment@WWidget@@XZ 00406a20 f i main.obj
 0001:00005a20       ?buddy@WLabel@@QBEPAVWFormWidget@@XZ 00406a20 f i adddevice3rd.obj
 0001:00005a30       ?isEnabled@WFormWidget@@QBE_NXZ 00406a30 f i eccobjfunc.obj
 0001:00005a40       ??_FWFormWidget@@QAEXXZ    00406a40 f i eccobjfunc.obj
 0001:00005a50       ??_FWComboBox@@QAEXXZ      00406a50 f i eccobjfunc.obj
 0001:00005a60       ?saveDisableByParent@@YA_NAAPAXHV?$basic_string@DU?$char_traits@D@std@@V?$allocator@D@2@@std@@@Z 00406a60 f   eccobjfunc.obj
 0001:00005da0       ?checkNetworkPoint@@YA_NH@Z 00406da0 f   eccobjfunc.obj
 0001:00006030       ?checkMonitorsPoint@@YA_NH@Z 00407030 f   eccobjfunc.obj
 0001:000062c0       ?isDisable@@YA_NABV?$basic_string@DU?$char_traits@D@std@@V?$allocator@D@2@@std@@H@Z 004072c0 f   eccobjfunc.obj
 0001:00006660       ?getMonitorNameMTID@@YA?AV?$basic_string@DU?$char_traits@D@std@@V?$allocator@D@2@@std@@ABV12@AAH@Z 00407660 f   eccobjfunc.obj
 0001:00006800       ??R?$less@V?$basic_string@DU?$char_traits@D@std@@V?$allocator@D@2@@std@@@std@@QBE_NABV?$basic_string@DU?$char_traits@D@std@@V?$allocator@D@2@@1@0@Z 00407800 f i eccobjfunc.obj
 0001:00006820       ?size@?$vector@V?$basic_string@DU?$char_traits@D@std@@V?$allocator@D@2@@std@@V?$allocator@V?$basic_string@DU?$char_traits@D@std@@V?$allocator@D@2@@std@@@2@@std@@QBEIXZ 00407820 f i eccobjfunc.obj
 0001:00006850       ??0?$pair@$$CBV?$basic_string@DU?$char_traits@D@std@@V?$allocator@D@2@@std@@V12@@std@@QAE@ABV?$basic_string@DU?$char_traits@D@std@@V?$allocator@D@2@@1@0@Z 00407850 f i eccobjfunc.obj
 0001:000068b0       ?_Xlen@?$vector@V?$basic_string@DU?$char_traits@D@std@@V?$allocator@D@2@@std@@V?$allocator@V?$basic_string@DU?$char_traits@D@std@@V?$allocator@D@2@@std@@@2@@std@@IBEXXZ 004078b0 f i eccobjfunc.obj
 0001:00006930       ?_Rrotate@?$_Tree@V?$_Tmap_traits@V?$basic_string@DU?$char_traits@D@std@@V?$allocator@D@2@@std@@V12@U?$less@V?$basic_string@DU?$char_traits@D@std@@V?$allocator@D@2@@std@@@2@V?$allocator@U?$pair@$$CBV?$basic_string@DU?$char_traits@D@std@@V?$allocator@D@2@@std@@V12@@std@@@2@$0A@@std@@@std@@IAEXPAU_Node@?$_Tree_nod@V?$_Tmap_traits@V?$basic_string@DU?$char_traits@D@std@@V?$allocator@D@2@@std@@V12@U?$less@V?$basic_string@DU?$char_traits@D@std@@V?$allocator@D@2@@std@@@2@V?$allocator@U?$pair@$$CBV?$basic_string@DU?$char_traits@D@std@@V?$allocator@D@2@@std@@V12@@std@@@2@$0A@@std@@@2@@Z 00407930 f i eccobjfunc.obj
 0001:00006990       ?_Max@?$_Tree@V?$_Tmap_traits@V?$basic_string@DU?$char_traits@D@std@@V?$allocator@D@2@@std@@V12@U?$less@V?$basic_string@DU?$char_traits@D@std@@V?$allocator@D@2@@std@@@2@V?$allocator@U?$pair@$$CBV?$basic_string@DU?$char_traits@D@std@@V?$allocator@D@2@@std@@V12@@std@@@2@$0A@@std@@@std@@KAPAU_Node@?$_Tree_nod@V?$_Tmap_traits@V?$basic_string@DU?$char_traits@D@std@@V?$allocator@D@2@@std@@V12@U?$less@V?$basic_string@DU?$char_traits@D@std@@V?$allocator@D@2@@std@@@2@V?$allocator@U?$pair@$$CBV?$basic_string@DU?$char_traits@D@std@@V?$allocator@D@2@@std@@V12@@std@@@2@$0A@@std@@@2@PAU342@@Z 00407990 f i eccobjfunc.obj
 0001:000069b0       ?_Min@?$_Tree@V?$_Tmap_traits@V?$basic_string@DU?$char_traits@D@std@@V?$allocator@D@2@@std@@V12@U?$less@V?$basic_string@DU?$char_traits@D@std@@V?$allocator@D@2@@std@@@2@V?$allocator@U?$pair@$$CBV?$basic_string@DU?$char_traits@D@std@@V?$allocator@D@2@@std@@V12@@std@@@2@$0A@@std@@@std@@KAPAU_Node@?$_Tree_nod@V?$_Tmap_traits@V?$basic_string@DU?$char_traits@D@std@@V?$allocator@D@2@@std@@V12@U?$less@V?$basic_string@DU?$char_traits@D@std@@V?$allocator@D@2@@std@@@2@V?$allocator@U?$pair@$$CBV?$basic_string@DU?$char_traits@D@std@@V?$allocator@D@2@@std@@V12@@std@@@2@$0A@@std@@@2@PAU342@@Z 004079b0 f i eccobjfunc.obj
 0001:000069d0       ?_Dec@const_iterator@?$_Tree@V?$_Tmap_traits@V?$basic_string@DU?$char_traits@D@std@@V?$allocator@D@2@@std@@V12@U?$less@V?$basic_string@DU?$char_traits@D@std@@V?$allocator@D@2@@std@@@2@V?$allocator@U?$pair@$$CBV?$basic_string@DU?$char_traits@D@std@@V?$allocator@D@2@@std@@V12@@std@@@2@$0A@@std@@@std@@QAEXXZ 004079d0 f i eccobjfunc.obj
 0001:00006a30       ??0?$pair@$$CBV?$basic_string@DU?$char_traits@D@std@@V?$allocator@D@2@@std@@V12@@std@@QAE@ABU01@@Z 00407a30 f i eccobjfunc.obj
 0001:00006a90       ??1_Node@?$_List_nod@Usv_pair@@V?$allocator@Usv_pair@@@std@@@std@@QAE@XZ 00407a90 f i eccobjfunc.obj
 0001:00006aa0       ??1_Node@?$_Tree_nod@V?$_Tmap_traits@V?$basic_string@DU?$char_traits@D@std@@V?$allocator@D@2@@std@@V12@U?$less@V?$basic_string@DU?$char_traits@D@std@@V?$allocator@D@2@@std@@@2@V?$allocator@U?$pair@$$CBV?$basic_string@DU?$char_traits@D@std@@V?$allocator@D@2@@std@@V12@@std@@@2@$0A@@std@@@std@@QAE@XZ 00407aa0 f i eccobjfunc.obj
 0001:00006ab0       ??$_Copy_opt@PAV?$basic_string@DU?$char_traits@D@std@@V?$allocator@D@2@@std@@PAV12@@std@@YAPAV?$basic_string@DU?$char_traits@D@std@@V?$allocator@D@2@@0@PAV10@00U_Nonscalar_ptr_iterator_tag@0@@Z 00407ab0 f i eccobjfunc.obj
 0001:00006af0       ?makeDllName@@YA?AV?$basic_string@DU?$char_traits@D@std@@V?$allocator@D@2@@std@@ABV12@@Z 00407af0 f   eccobjfunc.obj
 0001:00006c70       ?ReadFromRetQueue@@YA_NABV?$basic_string@DU?$char_traits@D@std@@V?$allocator@D@2@@std@@PADAAH@Z 00407c70 f   eccobjfunc.obj
 0001:00006e80       ?_Lbound@?$_Tree@V?$_Tmap_traits@V?$basic_string@DU?$char_traits@D@std@@V?$allocator@D@2@@std@@V12@U?$less@V?$basic_string@DU?$char_traits@D@std@@V?$allocator@D@2@@std@@@2@V?$allocator@U?$pair@$$CBV?$basic_string@DU?$char_traits@D@std@@V?$allocator@D@2@@std@@V12@@std@@@2@$0A@@std@@@std@@IBEPAU_Node@?$_Tree_nod@V?$_Tmap_traits@V?$basic_string@DU?$char_traits@D@std@@V?$allocator@D@2@@std@@V12@U?$less@V?$basic_string@DU?$char_traits@D@std@@V?$allocator@D@2@@std@@@2@V?$allocator@U?$pair@$$CBV?$basic_string@DU?$char_traits@D@std@@V?$allocator@D@2@@std@@V12@@std@@@2@$0A@@std@@@2@ABV?$basic_string@DU?$char_traits@D@std@@V?$allocator@D@2@@2@@Z 00407e80 f i eccobjfunc.obj
 0001:00006ed0       ?_Lrotate@?$_Tree@V?$_Tmap_traits@V?$basic_string@DU?$char_traits@D@std@@V?$allocator@D@2@@std@@V12@U?$less@V?$basic_string@DU?$char_traits@D@std@@V?$allocator@D@2@@std@@@2@V?$allocator@U?$pair@$$CBV?$basic_string@DU?$char_traits@D@std@@V?$allocator@D@2@@std@@V12@@std@@@2@$0A@@std@@@std@@IAEXPAU_Node@?$_Tree_nod@V?$_Tmap_traits@V?$basic_string@DU?$char_traits@D@std@@V?$allocator@D@2@@std@@V12@U?$less@V?$basic_string@DU?$char_traits@D@std@@V?$allocator@D@2@@std@@@2@V?$allocator@U?$pair@$$CBV?$basic_string@DU?$char_traits@D@std@@V?$allocator@D@2@@std@@V12@@std@@@2@$0A@@std@@@2@@Z 00407ed0 f i eccobjfunc.obj
 0001:00006f30       ?_Inc@const_iterator@?$_Tree@V?$_Tmap_traits@V?$basic_string@DU?$char_traits@D@std@@V?$allocator@D@2@@std@@V12@U?$less@V?$basic_string@DU?$char_traits@D@std@@V?$allocator@D@2@@std@@@2@V?$allocator@U?$pair@$$CBV?$basic_string@DU?$char_traits@D@std@@V?$allocator@D@2@@std@@V12@@std@@@2@$0A@@std@@@std@@QAEXXZ 00407f30 f i eccobjfunc.obj
 0001:00006f90       ?ReadWriteDynQueue@@YA_NABV?$basic_string@DU?$char_traits@D@std@@V?$allocator@D@2@@std@@00PBDABHPADAAH@Z 00407f90 f   eccobjfunc.obj
 0001:000076b0       ?_Buy@?$vector@V?$basic_string@DU?$char_traits@D@std@@V?$allocator@D@2@@std@@V?$allocator@V?$basic_string@DU?$char_traits@D@std@@V?$allocator@D@2@@std@@@2@@std@@IAE_NI@Z 004086b0 f i eccobjfunc.obj
 0001:00007700       ?_Buynode@?$list@Uecc_value_list@@V?$allocator@Uecc_value_list@@@std@@@std@@IAEPAU_Node@?$_List_nod@Uecc_value_list@@V?$allocator@Uecc_value_list@@@std@@@2@XZ 00408700 f i addmonitor2nd.obj
 0001:00007700       ?_Buynode@?$list@Usv_pair@@V?$allocator@Usv_pair@@@std@@@std@@IAEPAU_Node@?$_List_nod@Usv_pair@@V?$allocator@Usv_pair@@@std@@@2@XZ 00408700 f i eccobjfunc.obj
 0001:00007720       ?_Buynode@?$list@V?$basic_string@DU?$char_traits@D@std@@V?$allocator@D@2@@std@@V?$allocator@V?$basic_string@DU?$char_traits@D@std@@V?$allocator@D@2@@std@@@2@@std@@IAEPAU_Node@?$_List_nod@V?$basic_string@DU?$char_traits@D@std@@V?$allocator@D@2@@std@@V?$allocator@V?$basic_string@DU?$char_traits@D@std@@V?$allocator@D@2@@std@@@2@@2@XZ 00408720 f i eccobjfunc.obj
 0001:00007740       ?_Buynode@?$_Tree@V?$_Tmap_traits@V?$basic_string@DU?$char_traits@D@std@@V?$allocator@D@2@@std@@V12@U?$less@V?$basic_string@DU?$char_traits@D@std@@V?$allocator@D@2@@std@@@2@V?$allocator@U?$pair@$$CBV?$basic_string@DU?$char_traits@D@std@@V?$allocator@D@2@@std@@V12@@std@@@2@$0A@@std@@@std@@IAEPAU_Node@?$_Tree_nod@V?$_Tmap_traits@V?$basic_string@DU?$char_traits@D@std@@V?$allocator@D@2@@std@@V12@U?$less@V?$basic_string@DU?$char_traits@D@std@@V?$allocator@D@2@@std@@@2@V?$allocator@U?$pair@$$CBV?$basic_string@DU?$char_traits@D@std@@V?$allocator@D@2@@std@@V12@@std@@@2@$0A@@std@@@2@XZ 00408740 f i eccobjfunc.obj
 0001:00007780       ?_Buynode@?$_Tree@V?$_Tmap_traits@V?$basic_string@DU?$char_traits@D@std@@V?$allocator@D@2@@std@@V12@U?$less@V?$basic_string@DU?$char_traits@D@std@@V?$allocator@D@2@@std@@@2@V?$allocator@U?$pair@$$CBV?$basic_string@DU?$char_traits@D@std@@V?$allocator@D@2@@std@@V12@@std@@@2@$0A@@std@@@std@@IAEPAU_Node@?$_Tree_nod@V?$_Tmap_traits@V?$basic_string@DU?$char_traits@D@std@@V?$allocator@D@2@@std@@V12@U?$less@V?$basic_string@DU?$char_traits@D@std@@V?$allocator@D@2@@std@@@2@V?$allocator@U?$pair@$$CBV?$basic_string@DU?$char_traits@D@std@@V?$allocator@D@2@@std@@V12@@std@@@2@$0A@@std@@@2@PAU342@00ABU?$pair@$$CBV?$basic_string@DU?$char_traits@D@std@@V?$allocator@D@2@@std@@V12@@2@D@Z 00408780 f i eccobjfunc.obj
 0001:00007820       ??$_Uninit_copy@PAV?$basic_string@DU?$char_traits@D@std@@V?$allocator@D@2@@std@@PAV12@V?$allocator@V?$basic_string@DU?$char_traits@D@std@@V?$allocator@D@2@@std@@@2@@std@@YAPAV?$basic_string@DU?$char_traits@D@std@@V?$allocator@D@2@@0@PAV10@00AAV?$allocator@V?$basic_string@DU?$char_traits@D@std@@V?$allocator@D@2@@std@@@0@U_Nonscalar_ptr_iterator_tag@0@@Z 00408820 f i eccobjfunc.obj
 0001:000078b0       ?_Insert@?$_Tree@V?$_Tmap_traits@V?$basic_string@DU?$char_traits@D@std@@V?$allocator@D@2@@std@@V12@U?$less@V?$basic_string@DU?$char_traits@D@std@@V?$allocator@D@2@@std@@@2@V?$allocator@U?$pair@$$CBV?$basic_string@DU?$char_traits@D@std@@V?$allocator@D@2@@std@@V12@@std@@@2@$0A@@std@@@std@@IAE?AViterator@12@_NPAU_Node@?$_Tree_nod@V?$_Tmap_traits@V?$basic_string@DU?$char_traits@D@std@@V?$allocator@D@2@@std@@V12@U?$less@V?$basic_string@DU?$char_traits@D@std@@V?$allocator@D@2@@std@@@2@V?$allocator@U?$pair@$$CBV?$basic_string@DU?$char_traits@D@std@@V?$allocator@D@2@@std@@V12@@std@@@2@$0A@@std@@@2@ABU?$pair@$$CBV?$basic_string@DU?$char_traits@D@std@@V?$allocator@D@2@@std@@V12@@2@@Z 004088b0 f i eccobjfunc.obj
 0001:00007a70       ?insert@?$_Tree@V?$_Tmap_traits@V?$basic_string@DU?$char_traits@D@std@@V?$allocator@D@2@@std@@V12@U?$less@V?$basic_string@DU?$char_traits@D@std@@V?$allocator@D@2@@std@@@2@V?$allocator@U?$pair@$$CBV?$basic_string@DU?$char_traits@D@std@@V?$allocator@D@2@@std@@V12@@std@@@2@$0A@@std@@@std@@QAE?AU?$pair@Viterator@?$_Tree@V?$_Tmap_traits@V?$basic_string@DU?$char_traits@D@std@@V?$allocator@D@2@@std@@V12@U?$less@V?$basic_string@DU?$char_traits@D@std@@V?$allocator@D@2@@std@@@2@V?$allocator@U?$pair@$$CBV?$basic_string@DU?$char_traits@D@std@@V?$allocator@D@2@@std@@V12@@std@@@2@$0A@@std@@@std@@_N@2@ABU?$pair@$$CBV?$basic_string@DU?$char_traits@D@std@@V?$allocator@D@2@@std@@V12@@2@@Z 00408a70 f i eccobjfunc.obj
 0001:00007b50       ?clear@?$list@Usv_pair@@V?$allocator@Usv_pair@@@std@@@std@@QAEXXZ 00408b50 f i eccobjfunc.obj
 0001:00007b90       ?erase@?$_Tree@V?$_Tmap_traits@V?$basic_string@DU?$char_traits@D@std@@V?$allocator@D@2@@std@@V12@U?$less@V?$basic_string@DU?$char_traits@D@std@@V?$allocator@D@2@@std@@@2@V?$allocator@U?$pair@$$CBV?$basic_string@DU?$char_traits@D@std@@V?$allocator@D@2@@std@@V12@@std@@@2@$0A@@std@@@std@@QAE?AViterator@12@V312@@Z 00408b90 f i eccobjfunc.obj
 0001:00007e90       ?_Erase@?$_Tree@V?$_Tmap_traits@V?$basic_string@DU?$char_traits@D@std@@V?$allocator@D@2@@std@@V12@U?$less@V?$basic_string@DU?$char_traits@D@std@@V?$allocator@D@2@@std@@@2@V?$allocator@U?$pair@$$CBV?$basic_string@DU?$char_traits@D@std@@V?$allocator@D@2@@std@@V12@@std@@@2@$0A@@std@@@std@@IAEXPAU_Node@?$_Tree_nod@V?$_Tmap_traits@V?$basic_string@DU?$char_traits@D@std@@V?$allocator@D@2@@std@@V12@U?$less@V?$basic_string@DU?$char_traits@D@std@@V?$allocator@D@2@@std@@@2@V?$allocator@U?$pair@$$CBV?$basic_string@DU?$char_traits@D@std@@V?$allocator@D@2@@std@@V12@@std@@@2@$0A@@std@@@2@@Z 00408e90 f i eccobjfunc.obj
 0001:00007ed0       ??$_Ucopy@PAV?$basic_string@DU?$char_traits@D@std@@V?$allocator@D@2@@std@@@?$vector@V?$basic_string@DU?$char_traits@D@std@@V?$allocator@D@2@@std@@V?$allocator@V?$basic_string@DU?$char_traits@D@std@@V?$allocator@D@2@@std@@@2@@std@@IAEPAV?$basic_string@DU?$char_traits@D@std@@V?$allocator@D@2@@1@PAV21@00@Z 00408ed0 f i eccobjfunc.obj
 0001:00007ef0       ??4WFormWidget@@QAEAAV0@ABV0@@Z 00408ef0 f i eccobjfunc.obj
 0001:00007f40       ?insert@?$_Tree@V?$_Tmap_traits@V?$basic_string@DU?$char_traits@D@std@@V?$allocator@D@2@@std@@V12@U?$less@V?$basic_string@DU?$char_traits@D@std@@V?$allocator@D@2@@std@@@2@V?$allocator@U?$pair@$$CBV?$basic_string@DU?$char_traits@D@std@@V?$allocator@D@2@@std@@V12@@std@@@2@$0A@@std@@@std@@QAE?AViterator@12@V312@ABU?$pair@$$CBV?$basic_string@DU?$char_traits@D@std@@V?$allocator@D@2@@std@@V12@@2@@Z 00408f40 f i eccobjfunc.obj
 0001:00008100       ?_Destroy@?$vector@V?$basic_string@DU?$char_traits@D@std@@V?$allocator@D@2@@std@@V?$allocator@V?$basic_string@DU?$char_traits@D@std@@V?$allocator@D@2@@std@@@2@@std@@IAEXPAV?$basic_string@DU?$char_traits@D@std@@V?$allocator@D@2@@2@0@Z 00409100 f i eccobjfunc.obj
 0001:00008130       ?_Tidy@?$vector@V?$basic_string@DU?$char_traits@D@std@@V?$allocator@D@2@@std@@V?$allocator@V?$basic_string@DU?$char_traits@D@std@@V?$allocator@D@2@@std@@@2@@std@@IAEXXZ 00409130 f i eccobjfunc.obj
 0001:00008180       ?AddTaskList@@YAXPAVWComboBox@@@Z 00409180 f   eccobjfunc.obj
 0001:000082a0       ?createAllTableOfDevice@@YAXABV?$basic_string@DU?$char_traits@D@std@@V?$allocator@D@2@@std@@@Z 004092a0 f   eccobjfunc.obj
 0001:000084c0       ??A?$map@V?$basic_string@DU?$char_traits@D@std@@V?$allocator@D@2@@std@@V12@U?$less@V?$basic_string@DU?$char_traits@D@std@@V?$allocator@D@2@@std@@@2@V?$allocator@U?$pair@$$CBV?$basic_string@DU?$char_traits@D@std@@V?$allocator@D@2@@std@@V12@@std@@@2@@std@@QAEAAV?$basic_string@DU?$char_traits@D@std@@V?$allocator@D@2@@1@ABV21@@Z 004094c0 f i eccobjfunc.obj
 0001:00008570       ??1?$vector@V?$basic_string@DU?$char_traits@D@std@@V?$allocator@D@2@@std@@V?$allocator@V?$basic_string@DU?$char_traits@D@std@@V?$allocator@D@2@@std@@@2@@std@@QAE@XZ 00409570 f i eccobjfunc.obj
 0001:00008580       ??1?$list@Usv_pair@@V?$allocator@Usv_pair@@@std@@@std@@QAE@XZ 00409580 f i eccobjfunc.obj
 0001:000085a0       ?erase@?$_Tree@V?$_Tmap_traits@V?$basic_string@DU?$char_traits@D@std@@V?$allocator@D@2@@std@@V12@U?$less@V?$basic_string@DU?$char_traits@D@std@@V?$allocator@D@2@@std@@@2@V?$allocator@U?$pair@$$CBV?$basic_string@DU?$char_traits@D@std@@V?$allocator@D@2@@std@@V12@@std@@@2@$0A@@std@@@std@@QAE?AViterator@12@V312@0@Z 004095a0 f i eccobjfunc.obj
 0001:00008660       ??1WComboBox@@UAE@XZ       00409660 f i eccobjfunc.obj
 0001:000086b0       ?getUsingNetworkCount@@YAHV?$basic_string@DU?$char_traits@D@std@@V?$allocator@D@2@@std@@@Z 004096b0 f   eccobjfunc.obj
 0001:00008970       ?getUsingMonitorCount@@YAHXZ 00409970 f   eccobjfunc.obj
 0001:00008ad0       ?isCanBePasteDevice@@YA_NABV?$basic_string@DU?$char_traits@D@std@@V?$allocator@D@2@@std@@@Z 00409ad0 f   eccobjfunc.obj
 0001:00008c00       ?PasteDevice@@YA?AV?$basic_string@DU?$char_traits@D@std@@V?$allocator@D@2@@std@@ABV12@0@Z 00409c00 f   eccobjfunc.obj
 0001:00008eb0       ??4?$vector@V?$basic_string@DU?$char_traits@D@std@@V?$allocator@D@2@@std@@V?$allocator@V?$basic_string@DU?$char_traits@D@std@@V?$allocator@D@2@@std@@@2@@std@@QAEAAV01@ABV01@@Z 00409eb0 f i eccobjfunc.obj
 0001:00009040       ??4WComboBox@@QAEAAV0@ABV0@@Z 0040a040 f i eccobjfunc.obj
 0001:000090e0       ??1?$map@V?$basic_string@DU?$char_traits@D@std@@V?$allocator@D@2@@std@@V12@U?$less@V?$basic_string@DU?$char_traits@D@std@@V?$allocator@D@2@@std@@@2@V?$allocator@U?$pair@$$CBV?$basic_string@DU?$char_traits@D@std@@V?$allocator@D@2@@std@@V12@@std@@@2@@std@@QAE@XZ 0040a0e0 f i eccobjfunc.obj
 0001:000090e0       ?_Tidy@?$_Tree@V?$_Tmap_traits@V?$basic_string@DU?$char_traits@D@std@@V?$allocator@D@2@@std@@V12@U?$less@V?$basic_string@DU?$char_traits@D@std@@V?$allocator@D@2@@std@@@2@V?$allocator@U?$pair@$$CBV?$basic_string@DU?$char_traits@D@std@@V?$allocator@D@2@@std@@V12@@std@@@2@$0A@@std@@@std@@IAEXXZ 0040a0e0 f i eccobjfunc.obj
 0001:00009110       ?MakeRunParamStringByID@@YA?AV?$basic_string@DU?$char_traits@D@std@@V?$allocator@D@2@@std@@ABV12@H@Z 0040a110 f   eccobjfunc.obj
 0001:00009770       ?enumDeviceRunParam@@YA?AV?$basic_string@DU?$char_traits@D@std@@V?$allocator@D@2@@std@@ABV12@@Z 0040a770 f   eccobjfunc.obj
 0001:00009e40       ?Format@TTime@chen@@QBE?AV?$basic_string@DU?$char_traits@D@std@@V?$allocator@D@2@@std@@XZ 0040ae40 f i OperateLog.obj
 0001:00009ed0       ?loadString@OperateLog@@AAEXXZ 0040aed0 f   OperateLog.obj
 0001:00009f90       ?buildbuf@@YAPADV?$basic_string@DU?$char_traits@D@std@@V?$allocator@D@2@@std@@PADH@Z 0040af90 f   OperateLog.obj
 0001:0000a050       ??$fill@PAV?$basic_string@DU?$char_traits@D@std@@V?$allocator@D@2@@std@@V12@@std@@YAXPAV?$basic_string@DU?$char_traits@D@std@@V?$allocator@D@2@@0@0ABV10@@Z 0040b050 f i OperateLog.obj
 0001:0000a080       ??$_Copy_backward_opt@PAV?$basic_string@DU?$char_traits@D@std@@V?$allocator@D@2@@std@@PAV12@@std@@YAPAV?$basic_string@DU?$char_traits@D@std@@V?$allocator@D@2@@0@PAV10@00U_Nonscalar_ptr_iterator_tag@0@@Z 0040b080 f i OperateLog.obj
 0001:0000a0c0       ?InsertHitRecord@@YA_NV?$basic_string@DU?$char_traits@D@std@@V?$allocator@D@2@@std@@000HH@Z 0040b0c0 f   OperateLog.obj
 0001:0000a3a0       ?QueryOperateTypeNum@OperateLog@@AAEHV?$basic_string@DU?$char_traits@D@std@@V?$allocator@D@2@@std@@@Z 0040b3a0 f   OperateLog.obj
 0001:0000a480       ?QueryOperateObjNameNum@OperateLog@@AAEHV?$basic_string@DU?$char_traits@D@std@@V?$allocator@D@2@@std@@@Z 0040b480 f   OperateLog.obj
 0001:0000a550       ?InsertOperateRecord@OperateLog@@QAE_NV?$basic_string@DU?$char_traits@D@std@@V?$allocator@D@2@@std@@00000@Z 0040b550 f   OperateLog.obj
 0001:0000a930       ??$_Uninit_fill_n@PAV?$basic_string@DU?$char_traits@D@std@@V?$allocator@D@2@@std@@IV12@V?$allocator@V?$basic_string@DU?$char_traits@D@std@@V?$allocator@D@2@@std@@@2@@std@@YAXPAV?$basic_string@DU?$char_traits@D@std@@V?$allocator@D@2@@0@IABV10@AAV?$allocator@V?$basic_string@DU?$char_traits@D@std@@V?$allocator@D@2@@std@@@0@U_Nonscalar_ptr_iterator_tag@0@@Z 0040b930 f i OperateLog.obj
 0001:0000a9c0       ?_Ufill@?$vector@V?$basic_string@DU?$char_traits@D@std@@V?$allocator@D@2@@std@@V?$allocator@V?$basic_string@DU?$char_traits@D@std@@V?$allocator@D@2@@std@@@2@@std@@IAEPAV?$basic_string@DU?$char_traits@D@std@@V?$allocator@D@2@@2@PAV32@IABV32@@Z 0040b9c0 f i OperateLog.obj
 0001:0000a9f0       ?_Insert_n@?$vector@V?$basic_string@DU?$char_traits@D@std@@V?$allocator@D@2@@std@@V?$allocator@V?$basic_string@DU?$char_traits@D@std@@V?$allocator@D@2@@std@@@2@@std@@IAEXViterator@12@IABV?$basic_string@DU?$char_traits@D@std@@V?$allocator@D@2@@2@@Z 0040b9f0 f i OperateLog.obj
 0001:0000ad20       ?insert@?$vector@V?$basic_string@DU?$char_traits@D@std@@V?$allocator@D@2@@std@@V?$allocator@V?$basic_string@DU?$char_traits@D@std@@V?$allocator@D@2@@std@@@2@@std@@QAE?AViterator@12@V312@ABV?$basic_string@DU?$char_traits@D@std@@V?$allocator@D@2@@2@@Z 0040bd20 f i OperateLog.obj
 0001:0000ad90       ?push_back@?$vector@V?$basic_string@DU?$char_traits@D@std@@V?$allocator@D@2@@std@@V?$allocator@V?$basic_string@DU?$char_traits@D@std@@V?$allocator@D@2@@std@@@2@@std@@QAEXABV?$basic_string@DU?$char_traits@D@std@@V?$allocator@D@2@@2@@Z 0040bd90 f i OperateLog.obj
 0001:0000ae20       ??1OperateLog@@QAE@XZ      0040be20 f   OperateLog.obj
 0001:0000ae80       ?OperateTypeInit@OperateLog@@AAEXXZ 0040be80 f   OperateLog.obj
 0001:0000b220       ?OperateObjNameInit@OperateLog@@AAEXXZ 0040c220 f   OperateLog.obj
 0001:0000b7a0       ??0OperateLog@@QAE@XZ      0040c7a0 f   OperateLog.obj
 0001:0000b820       ?loadTreeviewStrings@SVResString@@AAEXAAPAX@Z 0040c820 f   resstring.obj
 0001:0000bc00       ?getStringFromRes@SVResString@@AAE?BV?$basic_string@DU?$char_traits@D@std@@V?$allocator@D@2@@std@@PBD@Z 0040cc00 f   resstring.obj
 0001:0000bd50       ??1SVResString@@QAE@XZ     0040cd50 f   resstring.obj
 0001:0000be10       ?getResString@SVResString@@SA?BV?$basic_string@DU?$char_traits@D@std@@V?$allocator@D@2@@std@@PBD@Z 0040ce10 f   resstring.obj
 0001:0000bf00       ?loadStrings@SVResString@@AAEXXZ 0040cf00 f   resstring.obj
 0001:0000bf90       ??0SVResString@@QAE@V?$basic_string@DU?$char_traits@D@std@@V?$allocator@D@2@@std@@0@Z 0040cf90 f   resstring.obj
 0001:0000c050       ??4SVTableCell@@QAEABV0@ABV0@@Z 0040d050 f i SVTable.obj
 0001:0000c100       ??0SVTableCell@@QAE@XZ     0040d100 f   SVTable.obj
 0001:0000c180       ??0SVTableCell@@QAE@ABV0@@Z 0040d180 f   SVTable.obj
 0001:0000c250       ??1SVTableCell@@QAE@XZ     0040d250 f   SVTable.obj
 0001:0000c2c0       ?setValue@SVTableCell@@QAEXPBX@Z 0040d2c0 f   SVTable.obj
 0001:0000c360       ?setType@SVTableCell@@QAEXH@Z 0040d360 f   SVTable.obj
 0001:0000c3b0       ?Type@SVTableCell@@QAE?BHXZ 0040d3b0 f   SVTable.obj
 0001:0000c3c0       ?Value@SVTableCell@@QAEPBXXZ 0040d3c0 f   SVTable.obj
 0001:0000c3d0       ?setProperty@SVTableCell@@QAEXPBD@Z 0040d3d0 f   SVTable.obj
 0001:0000c3e0       ?Property@SVTableCell@@QAEPBDXZ 0040d3e0 f   SVTable.obj
 0001:0000c3f0       ?setProperty@SVTableRow@@QAEXPBD@Z 0040d3f0 f   SVTable.obj
 0001:0000c400       ?setTag@SVTableRow@@QAEXH@Z 0040d400 f   SVTable.obj
 0001:0000c410       ?getProperty@SVTableRow@@QAEPBDXZ 0040d410 f   SVTable.obj
 0001:0000c420       ?getTag@SVTableRow@@QAEHXZ 0040d420 f   SVTable.obj
 0001:0000c430       ??1?$pair@$$CBHVSVTableCell@@@std@@QAE@XZ 0040d430 f i SVTable.obj
 0001:0000c440       ?_Max@?$_Tree@V?$_Tmap_traits@HVSVTableCell@@U?$less@H@std@@V?$allocator@U?$pair@$$CBHVSVTableCell@@@std@@@3@$0A@@std@@@std@@KAPAU_Node@?$_Tree_nod@V?$_Tmap_traits@HVSVTableCell@@U?$less@H@std@@V?$allocator@U?$pair@$$CBHVSVTableCell@@@std@@@3@$0A@@std@@@2@PAU342@@Z 0040d440 f i SVTable.obj
 0001:0000c440       ?_Max@?$_Tree@V?$_Tmap_traits@HVSVTableRow@@U?$less@H@std@@V?$allocator@U?$pair@$$CBHVSVTableRow@@@std@@@3@$0A@@std@@@std@@KAPAU_Node@?$_Tree_nod@V?$_Tmap_traits@HVSVTableRow@@U?$less@H@std@@V?$allocator@U?$pair@$$CBHVSVTableRow@@@std@@@3@$0A@@std@@@2@PAU342@@Z 0040d440 f i SVTable.obj
 0001:0000c460       ?_Rrotate@?$_Tree@V?$_Tmap_traits@HVSVTableCell@@U?$less@H@std@@V?$allocator@U?$pair@$$CBHVSVTableCell@@@std@@@3@$0A@@std@@@std@@IAEXPAU_Node@?$_Tree_nod@V?$_Tmap_traits@HVSVTableCell@@U?$less@H@std@@V?$allocator@U?$pair@$$CBHVSVTableCell@@@std@@@3@$0A@@std@@@2@@Z 0040d460 f i SVTable.obj
 0001:0000c460       ?_Rrotate@?$_Tree@V?$_Tmap_traits@HVSVTableRow@@U?$less@H@std@@V?$allocator@U?$pair@$$CBHVSVTableRow@@@std@@@3@$0A@@std@@@std@@IAEXPAU_Node@?$_Tree_nod@V?$_Tmap_traits@HVSVTableRow@@U?$less@H@std@@V?$allocator@U?$pair@$$CBHVSVTableRow@@@std@@@3@$0A@@std@@@2@@Z 0040d460 f i SVTable.obj
 0001:0000c4c0       ?_Min@?$_Tree@V?$_Tmap_traits@HVSVTableRow@@U?$less@H@std@@V?$allocator@U?$pair@$$CBHVSVTableRow@@@std@@@3@$0A@@std@@@std@@KAPAU_Node@?$_Tree_nod@V?$_Tmap_traits@HVSVTableRow@@U?$less@H@std@@V?$allocator@U?$pair@$$CBHVSVTableRow@@@std@@@3@$0A@@std@@@2@PAU342@@Z 0040d4c0 f i SVTable.obj
 0001:0000c4c0       ?_Min@?$_Tree@V?$_Tmap_traits@HVSVTableCell@@U?$less@H@std@@V?$allocator@U?$pair@$$CBHVSVTableCell@@@std@@@3@$0A@@std@@@std@@KAPAU_Node@?$_Tree_nod@V?$_Tmap_traits@HVSVTableCell@@U?$less@H@std@@V?$allocator@U?$pair@$$CBHVSVTableCell@@@std@@@3@$0A@@std@@@2@PAU342@@Z 0040d4c0 f i SVTable.obj
 0001:0000c4e0       ?_Inc@const_iterator@?$_Tree@V?$_Tmap_traits@HVSVTableRow@@U?$less@H@std@@V?$allocator@U?$pair@$$CBHVSVTableRow@@@std@@@3@$0A@@std@@@std@@QAEXXZ 0040d4e0 f i SVTable.obj
 0001:0000c4e0       ?_Inc@const_iterator@?$_Tree@V?$_Tmap_traits@HVSVTableCell@@U?$less@H@std@@V?$allocator@U?$pair@$$CBHVSVTableCell@@@std@@@3@$0A@@std@@@std@@QAEXXZ 0040d4e0 f i SVTable.obj
 0001:0000c540       ?_Dec@const_iterator@?$_Tree@V?$_Tmap_traits@HVSVTableRow@@U?$less@H@std@@V?$allocator@U?$pair@$$CBHVSVTableRow@@@std@@@3@$0A@@std@@@std@@QAEXXZ 0040d540 f i SVTable.obj
 0001:0000c540       ?_Dec@const_iterator@?$_Tree@V?$_Tmap_traits@HVSVTableCell@@U?$less@H@std@@V?$allocator@U?$pair@$$CBHVSVTableCell@@@std@@@3@$0A@@std@@@std@@QAEXXZ 0040d540 f i SVTable.obj
 0001:0000c5a0       ??1_Node@?$_Tree_nod@V?$_Tmap_traits@HVSVTableCell@@U?$less@H@std@@V?$allocator@U?$pair@$$CBHVSVTableCell@@@std@@@3@$0A@@std@@@std@@QAE@XZ 0040d5a0 f i SVTable.obj
 0001:0000c5b0       ?_Lrotate@?$_Tree@V?$_Tmap_traits@HVSVTableCell@@U?$less@H@std@@V?$allocator@U?$pair@$$CBHVSVTableCell@@@std@@@3@$0A@@std@@@std@@IAEXPAU_Node@?$_Tree_nod@V?$_Tmap_traits@HVSVTableCell@@U?$less@H@std@@V?$allocator@U?$pair@$$CBHVSVTableCell@@@std@@@3@$0A@@std@@@2@@Z 0040d5b0 f i SVTable.obj
 0001:0000c5b0       ?_Lrotate@?$_Tree@V?$_Tmap_traits@HVSVTableRow@@U?$less@H@std@@V?$allocator@U?$pair@$$CBHVSVTableRow@@@std@@@3@$0A@@std@@@std@@IAEXPAU_Node@?$_Tree_nod@V?$_Tmap_traits@HVSVTableRow@@U?$less@H@std@@V?$allocator@U?$pair@$$CBHVSVTableRow@@@std@@@3@$0A@@std@@@2@@Z 0040d5b0 f i SVTable.obj
 0001:0000c610       ?_Buynode@?$_Tree@V?$_Tmap_traits@HVSVTableCell@@U?$less@H@std@@V?$allocator@U?$pair@$$CBHVSVTableCell@@@std@@@3@$0A@@std@@@std@@IAEPAU_Node@?$_Tree_nod@V?$_Tmap_traits@HVSVTableCell@@U?$less@H@std@@V?$allocator@U?$pair@$$CBHVSVTableCell@@@std@@@3@$0A@@std@@@2@XZ 0040d610 f i SVTable.obj
 0001:0000c610       ?_Buynode@?$_Tree@V?$_Tmap_traits@HVSVTableRow@@U?$less@H@std@@V?$allocator@U?$pair@$$CBHVSVTableRow@@@std@@@3@$0A@@std@@@std@@IAEPAU_Node@?$_Tree_nod@V?$_Tmap_traits@HVSVTableRow@@U?$less@H@std@@V?$allocator@U?$pair@$$CBHVSVTableRow@@@std@@@3@$0A@@std@@@2@XZ 0040d610 f i SVTable.obj
 0001:0000c650       ?_Buynode@?$_Tree@V?$_Tmap_traits@HVSVTableCell@@U?$less@H@std@@V?$allocator@U?$pair@$$CBHVSVTableCell@@@std@@@3@$0A@@std@@@std@@IAEPAU_Node@?$_Tree_nod@V?$_Tmap_traits@HVSVTableCell@@U?$less@H@std@@V?$allocator@U?$pair@$$CBHVSVTableCell@@@std@@@3@$0A@@std@@@2@PAU342@00ABU?$pair@$$CBHVSVTableCell@@@2@D@Z 0040d650 f i SVTable.obj
 0001:0000c6f0       ?find@?$_Tree@V?$_Tmap_traits@HVSVTableCell@@U?$less@H@std@@V?$allocator@U?$pair@$$CBHVSVTableCell@@@std@@@3@$0A@@std@@@std@@QAE?AViterator@12@ABH@Z 0040d6f0 f i SVTable.obj
 0001:0000c6f0       ?find@?$_Tree@V?$_Tmap_traits@HVSVTableRow@@U?$less@H@std@@V?$allocator@U?$pair@$$CBHVSVTableRow@@@std@@@3@$0A@@std@@@std@@QAE?AViterator@12@ABH@Z 0040d6f0 f i SVTable.obj
 0001:0000c760       ?_Insert@?$_Tree@V?$_Tmap_traits@HVSVTableCell@@U?$less@H@std@@V?$allocator@U?$pair@$$CBHVSVTableCell@@@std@@@3@$0A@@std@@@std@@IAE?AViterator@12@_NPAU_Node@?$_Tree_nod@V?$_Tmap_traits@HVSVTableCell@@U?$less@H@std@@V?$allocator@U?$pair@$$CBHVSVTableCell@@@std@@@3@$0A@@std@@@2@ABU?$pair@$$CBHVSVTableCell@@@2@@Z 0040d760 f i SVTable.obj
 0001:0000c920       ?Cell@SVTableRow@@QAEPAVSVTableCell@@H@Z 0040d920 f   SVTable.obj
 0001:0000c920       ?Row@SVIntTable@@QAEPAVSVTableRow@@H@Z 0040d920 f   SVTable.obj
 0001:0000c950       ?erase@?$_Tree@V?$_Tmap_traits@HVSVTableCell@@U?$less@H@std@@V?$allocator@U?$pair@$$CBHVSVTableCell@@@std@@@3@$0A@@std@@@std@@QAE?AViterator@12@V312@@Z 0040d950 f i SVTable.obj
 0001:0000cc30       ?_Erase@?$_Tree@V?$_Tmap_traits@HVSVTableCell@@U?$less@H@std@@V?$allocator@U?$pair@$$CBHVSVTableCell@@@std@@@3@$0A@@std@@@std@@IAEXPAU_Node@?$_Tree_nod@V?$_Tmap_traits@HVSVTableCell@@U?$less@H@std@@V?$allocator@U?$pair@$$CBHVSVTableCell@@@std@@@3@$0A@@std@@@2@@Z 0040dc30 f i SVTable.obj
 0001:0000cc70       ?insert@?$_Tree@V?$_Tmap_traits@HVSVTableCell@@U?$less@H@std@@V?$allocator@U?$pair@$$CBHVSVTableCell@@@std@@@3@$0A@@std@@@std@@QAE?AU?$pair@Viterator@?$_Tree@V?$_Tmap_traits@HVSVTableCell@@U?$less@H@std@@V?$allocator@U?$pair@$$CBHVSVTableCell@@@std@@@3@$0A@@std@@@std@@_N@2@ABU?$pair@$$CBHVSVTableCell@@@2@@Z 0040dc70 f i SVTable.obj
 0001:0000cd30       ?_Copy@?$_Tree@V?$_Tmap_traits@HVSVTableCell@@U?$less@H@std@@V?$allocator@U?$pair@$$CBHVSVTableCell@@@std@@@3@$0A@@std@@@std@@IAEPAU_Node@?$_Tree_nod@V?$_Tmap_traits@HVSVTableCell@@U?$less@H@std@@V?$allocator@U?$pair@$$CBHVSVTableCell@@@std@@@3@$0A@@std@@@2@PAU342@0@Z 0040dd30 f i SVTable.obj
 0001:0000cde0       ?insert@?$_Tree@V?$_Tmap_traits@HVSVTableCell@@U?$less@H@std@@V?$allocator@U?$pair@$$CBHVSVTableCell@@@std@@@3@$0A@@std@@@std@@QAE?AViterator@12@V312@ABU?$pair@$$CBHVSVTableCell@@@2@@Z 0040dde0 f i SVTable.obj
 0001:0000cf50       ?erase@?$_Tree@V?$_Tmap_traits@HVSVTableCell@@U?$less@H@std@@V?$allocator@U?$pair@$$CBHVSVTableCell@@@std@@@3@$0A@@std@@@std@@QAE?AViterator@12@V312@0@Z 0040df50 f i SVTable.obj
 0001:0000d010       ?_Copy@?$_Tree@V?$_Tmap_traits@HVSVTableCell@@U?$less@H@std@@V?$allocator@U?$pair@$$CBHVSVTableCell@@@std@@@3@$0A@@std@@@std@@IAEXABV12@@Z 0040e010 f i SVTable.obj
 0001:0000d0a0       ??0?$_Tree@V?$_Tmap_traits@HVSVTableCell@@U?$less@H@std@@V?$allocator@U?$pair@$$CBHVSVTableCell@@@std@@@3@$0A@@std@@@std@@QAE@ABV01@@Z 0040e0a0 f i SVTable.obj
 0001:0000d130       ??A?$map@HVSVTableCell@@U?$less@H@std@@V?$allocator@U?$pair@$$CBHVSVTableCell@@@std@@@3@@std@@QAEAAVSVTableCell@@ABH@Z 0040e130 f i SVTable.obj
 0001:0000d220       ??1?$map@HVSVTableCell@@U?$less@H@std@@V?$allocator@U?$pair@$$CBHVSVTableCell@@@std@@@3@@std@@QAE@XZ 0040e220 f i SVTable.obj
 0001:0000d220       ?_Tidy@?$_Tree@V?$_Tmap_traits@HVSVTableCell@@U?$less@H@std@@V?$allocator@U?$pair@$$CBHVSVTableCell@@@std@@@3@$0A@@std@@@std@@IAEXXZ 0040e220 f i SVTable.obj
 0001:0000d250       ??1SVTableRow@@QAE@XZ      0040e250 f   SVTable.obj
 0001:0000d300       ?WriteCell@SVTableRow@@AAEXHAAVSVTableCell@@@Z 0040e300 f   SVTable.obj
 0001:0000d370       ??1?$pair@$$CBHVSVTableRow@@@std@@QAE@XZ 0040e370 f i SVTable.obj
 0001:0000d380       ??0SVTableRow@@QAE@ABV0@@Z 0040e380 f i SVTable.obj
 0001:0000d3f0       ??1_Node@?$_Tree_nod@V?$_Tmap_traits@HVSVTableRow@@U?$less@H@std@@V?$allocator@U?$pair@$$CBHVSVTableRow@@@std@@@3@$0A@@std@@@std@@QAE@XZ 0040e3f0 f i SVTable.obj
 0001:0000d400       ??4SVTableRow@@QAEAAV0@ABV0@@Z 0040e400 f i SVTable.obj
 0001:0000d460       ??0SVTableRow@@QAE@XZ      0040e460 f   SVTable.obj
 0001:0000d510       ?_Buynode@?$_Tree@V?$_Tmap_traits@HVSVTableRow@@U?$less@H@std@@V?$allocator@U?$pair@$$CBHVSVTableRow@@@std@@@3@$0A@@std@@@std@@IAEPAU_Node@?$_Tree_nod@V?$_Tmap_traits@HVSVTableRow@@U?$less@H@std@@V?$allocator@U?$pair@$$CBHVSVTableRow@@@std@@@3@$0A@@std@@@2@PAU342@00ABU?$pair@$$CBHVSVTableRow@@@2@D@Z 0040e510 f i SVTable.obj
 0001:0000d5b0       ?_Insert@?$_Tree@V?$_Tmap_traits@HVSVTableRow@@U?$less@H@std@@V?$allocator@U?$pair@$$CBHVSVTableRow@@@std@@@3@$0A@@std@@@std@@IAE?AViterator@12@_NPAU_Node@?$_Tree_nod@V?$_Tmap_traits@HVSVTableRow@@U?$less@H@std@@V?$allocator@U?$pair@$$CBHVSVTableRow@@@std@@@3@$0A@@std@@@2@ABU?$pair@$$CBHVSVTableRow@@@2@@Z 0040e5b0 f i SVTable.obj
 0001:0000d770       ?erase@?$_Tree@V?$_Tmap_traits@HVSVTableRow@@U?$less@H@std@@V?$allocator@U?$pair@$$CBHVSVTableRow@@@std@@@3@$0A@@std@@@std@@QAE?AViterator@12@V312@@Z 0040e770 f i SVTable.obj
 0001:0000da50       ?_Erase@?$_Tree@V?$_Tmap_traits@HVSVTableRow@@U?$less@H@std@@V?$allocator@U?$pair@$$CBHVSVTableRow@@@std@@@3@$0A@@std@@@std@@IAEXPAU_Node@?$_Tree_nod@V?$_Tmap_traits@HVSVTableRow@@U?$less@H@std@@V?$allocator@U?$pair@$$CBHVSVTableRow@@@std@@@3@$0A@@std@@@2@@Z 0040ea50 f i SVTable.obj
 0001:0000da90       ?insert@?$_Tree@V?$_Tmap_traits@HVSVTableRow@@U?$less@H@std@@V?$allocator@U?$pair@$$CBHVSVTableRow@@@std@@@3@$0A@@std@@@std@@QAE?AU?$pair@Viterator@?$_Tree@V?$_Tmap_traits@HVSVTableRow@@U?$less@H@std@@V?$allocator@U?$pair@$$CBHVSVTableRow@@@std@@@3@$0A@@std@@@std@@_N@2@ABU?$pair@$$CBHVSVTableRow@@@2@@Z 0040ea90 f i SVTable.obj
 0001:0000db50       ?insert@?$_Tree@V?$_Tmap_traits@HVSVTableRow@@U?$less@H@std@@V?$allocator@U?$pair@$$CBHVSVTableRow@@@std@@@3@$0A@@std@@@std@@QAE?AViterator@12@V312@ABU?$pair@$$CBHVSVTableRow@@@2@@Z 0040eb50 f i SVTable.obj
 0001:0000dcc0       ?erase@?$_Tree@V?$_Tmap_traits@HVSVTableRow@@U?$less@H@std@@V?$allocator@U?$pair@$$CBHVSVTableRow@@@std@@@3@$0A@@std@@@std@@QAE?AViterator@12@V312@0@Z 0040ecc0 f i SVTable.obj
 0001:0000dd80       ?clear@SVIntTable@@QAEXXZ  0040ed80 f   SVTable.obj
 0001:0000ddb0       ??A?$map@HVSVTableRow@@U?$less@H@std@@V?$allocator@U?$pair@$$CBHVSVTableRow@@@std@@@3@@std@@QAEAAVSVTableRow@@ABH@Z 0040edb0 f i SVTable.obj
 0001:0000dea0       ?WriteCell@SVIntTable@@QAEXHHAAVSVTableCell@@@Z 0040eea0 f   SVTable.obj
 0001:0000df80       ??1?$map@HVSVTableRow@@U?$less@H@std@@V?$allocator@U?$pair@$$CBHVSVTableRow@@@std@@@3@@std@@QAE@XZ 0040ef80 f i SVTable.obj
 0001:0000dfb0       ??1SVIntTable@@QAE@XZ      0040efb0 f   SVTable.obj
 0001:0000e040       ??0SVIntTable@@QAE@XZ      0040f040 f   SVTable.obj
 0001:0000e070       ?haveGroupRight@CUser@@QAE_NV?$basic_string@DU?$char_traits@D@std@@V?$allocator@D@2@@std@@H@Z 0040f070 f   User.obj
 0001:0000e220       ?_Buynode@?$_Tree@V?$_Tmap_traits@V?$basic_string@DU?$char_traits@D@std@@V?$allocator@D@2@@std@@_NU?$less@V?$basic_string@DU?$char_traits@D@std@@V?$allocator@D@2@@std@@@2@V?$allocator@U?$pair@$$CBV?$basic_string@DU?$char_traits@D@std@@V?$allocator@D@2@@std@@_N@std@@@2@$0A@@std@@@std@@IAEPAU_Node@?$_Tree_nod@V?$_Tmap_traits@V?$basic_string@DU?$char_traits@D@std@@V?$allocator@D@2@@std@@_NU?$less@V?$basic_string@DU?$char_traits@D@std@@V?$allocator@D@2@@std@@@2@V?$allocator@U?$pair@$$CBV?$basic_string@DU?$char_traits@D@std@@V?$allocator@D@2@@std@@_N@std@@@2@$0A@@std@@@2@PAU342@00ABU?$pair@$$CBV?$basic_string@DU?$char_traits@D@std@@V?$allocator@D@2@@std@@_N@2@D@Z 0040f220 f i User.obj
 0001:0000e2c0       ?_Buynode@?$_Tree@V?$_Tmap_traits@V?$basic_string@DU?$char_traits@D@std@@V?$allocator@D@2@@std@@PAUScopeFunc@@U?$less@V?$basic_string@DU?$char_traits@D@std@@V?$allocator@D@2@@std@@@2@V?$allocator@U?$pair@$$CBV?$basic_string@DU?$char_traits@D@std@@V?$allocator@D@2@@std@@PAUScopeFunc@@@std@@@2@$0A@@std@@@std@@IAEPAU_Node@?$_Tree_nod@V?$_Tmap_traits@V?$basic_string@DU?$char_traits@D@std@@V?$allocator@D@2@@std@@PAUScopeFunc@@U?$less@V?$basic_string@DU?$char_traits@D@std@@V?$allocator@D@2@@std@@@2@V?$allocator@U?$pair@$$CBV?$basic_string@DU?$char_traits@D@std@@V?$allocator@D@2@@std@@PAUScopeFunc@@@std@@@2@$0A@@std@@@2@PAU342@00ABU?$pair@$$CBV?$basic_string@DU?$char_traits@D@std@@V?$allocator@D@2@@std@@PAUScopeFunc@@@2@D@Z 0040f2c0 f i User.obj
 0001:0000e360       ?_Insert@?$_Tree@V?$_Tmap_traits@V?$basic_string@DU?$char_traits@D@std@@V?$allocator@D@2@@std@@_NU?$less@V?$basic_string@DU?$char_traits@D@std@@V?$allocator@D@2@@std@@@2@V?$allocator@U?$pair@$$CBV?$basic_string@DU?$char_traits@D@std@@V?$allocator@D@2@@std@@_N@std@@@2@$0A@@std@@@std@@IAE?AViterator@12@_NPAU_Node@?$_Tree_nod@V?$_Tmap_traits@V?$basic_string@DU?$char_traits@D@std@@V?$allocator@D@2@@std@@_NU?$less@V?$basic_string@DU?$char_traits@D@std@@V?$allocator@D@2@@std@@@2@V?$allocator@U?$pair@$$CBV?$basic_string@DU?$char_traits@D@std@@V?$allocator@D@2@@std@@_N@std@@@2@$0A@@std@@@2@ABU?$pair@$$CBV?$basic_string@DU?$char_traits@D@std@@V?$allocator@D@2@@std@@_N@2@@Z 0040f360 f i User.obj
 0001:0000e520       ?_Insert@?$_Tree@V?$_Tmap_traits@V?$basic_string@DU?$char_traits@D@std@@V?$allocator@D@2@@std@@PAUScopeFunc@@U?$less@V?$basic_string@DU?$char_traits@D@std@@V?$allocator@D@2@@std@@@2@V?$allocator@U?$pair@$$CBV?$basic_string@DU?$char_traits@D@std@@V?$allocator@D@2@@std@@PAUScopeFunc@@@std@@@2@$0A@@std@@@std@@IAE?AViterator@12@_NPAU_Node@?$_Tree_nod@V?$_Tmap_traits@V?$basic_string@DU?$char_traits@D@std@@V?$allocator@D@2@@std@@PAUScopeFunc@@U?$less@V?$basic_string@DU?$char_traits@D@std@@V?$allocator@D@2@@std@@@2@V?$allocator@U?$pair@$$CBV?$basic_string@DU?$char_traits@D@std@@V?$allocator@D@2@@std@@PAUScopeFunc@@@std@@@2@$0A@@std@@@2@ABU?$pair@$$CBV?$basic_string@DU?$char_traits@D@std@@V?$allocator@D@2@@std@@PAUScopeFunc@@@2@@Z 0040f520 f i User.obj
 0001:0000e6e0       ?haveUserRight@CUser@@QAE_NV?$basic_string@DU?$char_traits@D@std@@V?$allocator@D@2@@std@@0@Z 0040f6e0 f   User.obj
 0001:0000e820       ?insert@?$_Tree@V?$_Tmap_traits@V?$basic_string@DU?$char_traits@D@std@@V?$allocator@D@2@@std@@_NU?$less@V?$basic_string@DU?$char_traits@D@std@@V?$allocator@D@2@@std@@@2@V?$allocator@U?$pair@$$CBV?$basic_string@DU?$char_traits@D@std@@V?$allocator@D@2@@std@@_N@std@@@2@$0A@@std@@@std@@QAE?AU?$pair@Viterator@?$_Tree@V?$_Tmap_traits@V?$basic_string@DU?$char_traits@D@std@@V?$allocator@D@2@@std@@_NU?$less@V?$basic_string@DU?$char_traits@D@std@@V?$allocator@D@2@@std@@@2@V?$allocator@U?$pair@$$CBV?$basic_string@DU?$char_traits@D@std@@V?$allocator@D@2@@std@@_N@std@@@2@$0A@@std@@@std@@_N@2@ABU?$pair@$$CBV?$basic_string@DU?$char_traits@D@std@@V?$allocator@D@2@@std@@_N@2@@Z 0040f820 f i User.obj
 0001:0000e900       ?insert@?$_Tree@V?$_Tmap_traits@V?$basic_string@DU?$char_traits@D@std@@V?$allocator@D@2@@std@@PAUScopeFunc@@U?$less@V?$basic_string@DU?$char_traits@D@std@@V?$allocator@D@2@@std@@@2@V?$allocator@U?$pair@$$CBV?$basic_string@DU?$char_traits@D@std@@V?$allocator@D@2@@std@@PAUScopeFunc@@@std@@@2@$0A@@std@@@std@@QAE?AU?$pair@Viterator@?$_Tree@V?$_Tmap_traits@V?$basic_string@DU?$char_traits@D@std@@V?$allocator@D@2@@std@@PAUScopeFunc@@U?$less@V?$basic_string@DU?$char_traits@D@std@@V?$allocator@D@2@@std@@@2@V?$allocator@U?$pair@$$CBV?$basic_string@DU?$char_traits@D@std@@V?$allocator@D@2@@std@@PAUScopeFunc@@@std@@@2@$0A@@std@@@std@@_N@2@ABU?$pair@$$CBV?$basic_string@DU?$char_traits@D@std@@V?$allocator@D@2@@std@@PAUScopeFunc@@@2@@Z 0040f900 f i User.obj
 0001:0000e9e0       ?_Erase@?$_Tree@V?$_Tmap_traits@V?$basic_string@DU?$char_traits@D@std@@V?$allocator@D@2@@std@@PAUScopeFunc@@U?$less@V?$basic_string@DU?$char_traits@D@std@@V?$allocator@D@2@@std@@@2@V?$allocator@U?$pair@$$CBV?$basic_string@DU?$char_traits@D@std@@V?$allocator@D@2@@std@@PAUScopeFunc@@@std@@@2@$0A@@std@@@std@@IAEXPAU_Node@?$_Tree_nod@V?$_Tmap_traits@V?$basic_string@DU?$char_traits@D@std@@V?$allocator@D@2@@std@@PAUScopeFunc@@U?$less@V?$basic_string@DU?$char_traits@D@std@@V?$allocator@D@2@@std@@@2@V?$allocator@U?$pair@$$CBV?$basic_string@DU?$char_traits@D@std@@V?$allocator@D@2@@std@@PAUScopeFunc@@@std@@@2@$0A@@std@@@2@@Z 0040f9e0 f i User.obj
 0001:0000ea20       ?erase@?$_Tree@V?$_Tmap_traits@V?$basic_string@DU?$char_traits@D@std@@V?$allocator@D@2@@std@@PAUScopeFunc@@U?$less@V?$basic_string@DU?$char_traits@D@std@@V?$allocator@D@2@@std@@@2@V?$allocator@U?$pair@$$CBV?$basic_string@DU?$char_traits@D@std@@V?$allocator@D@2@@std@@PAUScopeFunc@@@std@@@2@$0A@@std@@@std@@QAE?AViterator@12@V312@@Z 0040fa20 f i User.obj
 0001:0000ea20       ?erase@?$_Tree@V?$_Tmap_traits@V?$basic_string@DU?$char_traits@D@std@@V?$allocator@D@2@@std@@_NU?$less@V?$basic_string@DU?$char_traits@D@std@@V?$allocator@D@2@@std@@@2@V?$allocator@U?$pair@$$CBV?$basic_string@DU?$char_traits@D@std@@V?$allocator@D@2@@std@@_N@std@@@2@$0A@@std@@@std@@QAE?AViterator@12@V312@@Z 0040fa20 f i User.obj
 0001:0000ed00       ?_Erase@?$_Tree@V?$_Tmap_traits@V?$basic_string@DU?$char_traits@D@std@@V?$allocator@D@2@@std@@_NU?$less@V?$basic_string@DU?$char_traits@D@std@@V?$allocator@D@2@@std@@@2@V?$allocator@U?$pair@$$CBV?$basic_string@DU?$char_traits@D@std@@V?$allocator@D@2@@std@@_N@std@@@2@$0A@@std@@@std@@IAEXPAU_Node@?$_Tree_nod@V?$_Tmap_traits@V?$basic_string@DU?$char_traits@D@std@@V?$allocator@D@2@@std@@_NU?$less@V?$basic_string@DU?$char_traits@D@std@@V?$allocator@D@2@@std@@@2@V?$allocator@U?$pair@$$CBV?$basic_string@DU?$char_traits@D@std@@V?$allocator@D@2@@std@@_N@std@@@2@$0A@@std@@@2@@Z 0040fd00 f i User.obj
 0001:0000ed40       ?insert@?$_Tree@V?$_Tmap_traits@V?$basic_string@DU?$char_traits@D@std@@V?$allocator@D@2@@std@@_NU?$less@V?$basic_string@DU?$char_traits@D@std@@V?$allocator@D@2@@std@@@2@V?$allocator@U?$pair@$$CBV?$basic_string@DU?$char_traits@D@std@@V?$allocator@D@2@@std@@_N@std@@@2@$0A@@std@@@std@@QAE?AViterator@12@V312@ABU?$pair@$$CBV?$basic_string@DU?$char_traits@D@std@@V?$allocator@D@2@@std@@_N@2@@Z 0040fd40 f i User.obj
 0001:0000ef00       ?insert@?$_Tree@V?$_Tmap_traits@V?$basic_string@DU?$char_traits@D@std@@V?$allocator@D@2@@std@@PAUScopeFunc@@U?$less@V?$basic_string@DU?$char_traits@D@std@@V?$allocator@D@2@@std@@@2@V?$allocator@U?$pair@$$CBV?$basic_string@DU?$char_traits@D@std@@V?$allocator@D@2@@std@@PAUScopeFunc@@@std@@@2@$0A@@std@@@std@@QAE?AViterator@12@V312@ABU?$pair@$$CBV?$basic_string@DU?$char_traits@D@std@@V?$allocator@D@2@@std@@PAUScopeFunc@@@2@@Z 0040ff00 f i User.obj
 0001:0000f0c0       ??A?$map@V?$basic_string@DU?$char_traits@D@std@@V?$allocator@D@2@@std@@_NU?$less@V?$basic_string@DU?$char_traits@D@std@@V?$allocator@D@2@@std@@@2@V?$allocator@U?$pair@$$CBV?$basic_string@DU?$char_traits@D@std@@V?$allocator@D@2@@std@@_N@std@@@2@@std@@QAEAA_NABV?$basic_string@DU?$char_traits@D@std@@V?$allocator@D@2@@1@@Z 004100c0 f i User.obj
 0001:0000f160       ??A?$map@V?$basic_string@DU?$char_traits@D@std@@V?$allocator@D@2@@std@@PAUScopeFunc@@U?$less@V?$basic_string@DU?$char_traits@D@std@@V?$allocator@D@2@@std@@@2@V?$allocator@U?$pair@$$CBV?$basic_string@DU?$char_traits@D@std@@V?$allocator@D@2@@std@@PAUScopeFunc@@@std@@@2@@std@@QAEAAPAUScopeFunc@@ABV?$basic_string@DU?$char_traits@D@std@@V?$allocator@D@2@@1@@Z 00410160 f i User.obj
 0001:0000f200       ?erase@?$_Tree@V?$_Tmap_traits@V?$basic_string@DU?$char_traits@D@std@@V?$allocator@D@2@@std@@PAUScopeFunc@@U?$less@V?$basic_string@DU?$char_traits@D@std@@V?$allocator@D@2@@std@@@2@V?$allocator@U?$pair@$$CBV?$basic_string@DU?$char_traits@D@std@@V?$allocator@D@2@@std@@PAUScopeFunc@@@std@@@2@$0A@@std@@@std@@QAE?AViterator@12@V312@0@Z 00410200 f i User.obj
 0001:0000f2c0       ?erase@?$_Tree@V?$_Tmap_traits@V?$basic_string@DU?$char_traits@D@std@@V?$allocator@D@2@@std@@_NU?$less@V?$basic_string@DU?$char_traits@D@std@@V?$allocator@D@2@@std@@@2@V?$allocator@U?$pair@$$CBV?$basic_string@DU?$char_traits@D@std@@V?$allocator@D@2@@std@@_N@std@@@2@$0A@@std@@@std@@QAE?AViterator@12@V312@0@Z 004102c0 f i User.obj
 0001:0000f380       ??1?$map@V?$basic_string@DU?$char_traits@D@std@@V?$allocator@D@2@@std@@PAUScopeFunc@@U?$less@V?$basic_string@DU?$char_traits@D@std@@V?$allocator@D@2@@std@@@2@V?$allocator@U?$pair@$$CBV?$basic_string@DU?$char_traits@D@std@@V?$allocator@D@2@@std@@PAUScopeFunc@@@std@@@2@@std@@QAE@XZ 00410380 f i User.obj
 0001:0000f3b0       ?ParserToken@CUser@@AAE_NAAV?$vector@V?$basic_string@DU?$char_traits@D@std@@V?$allocator@D@2@@std@@V?$allocator@V?$basic_string@DU?$char_traits@D@std@@V?$allocator@D@2@@std@@@2@@std@@PBDPAD@Z 004103b0 f   User.obj
 0001:0000f480       ??0CUser@@QAE@XZ           00410480 f   User.obj
 0001:0000f520       ??1ScopeFunc@@QAE@XZ       00410520 f i User.obj
 0001:0000f5a0       ??0ScopeFunc@@QAE@XZ       004105a0 f i User.obj
 0001:0000f610       ?AddScopeRight@CUser@@QAE_NV?$basic_string@DU?$char_traits@D@std@@V?$allocator@D@2@@std@@0AAV23@@Z 00410610 f   User.obj
 0001:0000f7d0       ?MakeGroupFunc@CUser@@AAEXXZ 004107d0 f   User.obj
 0001:0000fc60       ?AddUserScopeAllRight@CUser@@QAE_NV?$basic_string@DU?$char_traits@D@std@@V?$allocator@D@2@@std@@H@Z 00410c60 f   User.obj
 0001:00010240       ?ClearScopeFuncList@CUser@@AAEXXZ 00411240 f   User.obj
 0001:000102a0       ??1CUser@@QAE@XZ           004112a0 f   User.obj
 0001:00010340       ?setUserID@CUser@@QAEXV?$basic_string@DU?$char_traits@D@std@@V?$allocator@D@2@@std@@@Z 00411340 f   User.obj
 0001:00010830       ?alternateText@WImage@@QBE?BV?$basic_string@DU?$char_traits@D@std@@V?$allocator@D@2@@std@@XZ 00411830 f i mainview.obj
 0001:00010860       ?resource@WImage@@QBEPAVWResource@@XZ 00411860 f i mainview.obj
 0001:00010860       ?formatting@WText@@QBE?AW4Formatting@1@XZ 00411860 f i main.obj
 0001:00010870       ??1WImage@@UAE@XZ          00411870 f i mainview.obj
 0001:000108e0       ??_FWImage@@QAEXXZ         004118e0 f i mainview.obj
 0001:000108f0       ?columnSpan@WTableCell@@QBEHXZ 004118f0 f i mainview.obj
 0001:00010900       ?column@WTableCell@@QBEHXZ 00411900 f i mainview.obj
 0001:00010910       ?textSize@WLineEdit@@QBEHXZ 00411910 f i mainview.obj
 0001:00010920       ?text@WLineEdit@@QBE?BV?$basic_string@DU?$char_traits@D@std@@V?$allocator@D@2@@std@@XZ 00411920 f i mainview.obj
 0001:00010920       ?text@WTextArea@@QBE?BV?$basic_string@DU?$char_traits@D@std@@V?$allocator@D@2@@std@@XZ 00411920 f i advanceparam.obj
 0001:00010950       ?echoMode@WLineEdit@@QBE?AW4EchoMode@1@XZ 00411950 f i mainview.obj
 0001:00010960       ??1WLineEdit@@UAE@XZ       00411960 f i mainview.obj
 0001:000109b0       ??_FWLineEdit@@QAEXXZ      004119b0 f i mainview.obj
 0001:000109c0       ?text@WPushButton@@QBE?AV?$basic_string@DU?$char_traits@D@std@@V?$allocator@D@2@@std@@XZ 004119c0 f i mainview.obj
 0001:000109f0       ?message@WPushButton@@QBEABVWMessage@@XZ 004119f0 f i mainview.obj
 0001:00010a00       ??1WPushButton@@UAE@XZ     00411a00 f i mainview.obj
 0001:00010a70       ??_FWPushButton@@QAEXXZ    00411a70 f i mainview.obj
 0001:00010a80       ?getUserID@CUser@@QAE?BV?$basic_string@DU?$char_traits@D@std@@V?$allocator@D@2@@std@@XZ 00411a80 f i mainview.obj
 0001:00010ab0       ?createFrame@CEccMainView@@AAEXXZ 00411ab0 f   mainview.obj
 0001:00010d10       ?getTreeTableName@CEccMainView@@QAE?AV?$basic_string@DU?$char_traits@D@std@@V?$allocator@D@2@@std@@XZ 00411d10 f   mainview.obj
 0001:00010d50       ?AddJsParam@CEccMainView@@AAEXV?$basic_string@DU?$char_traits@D@std@@V?$allocator@D@2@@std@@0@Z 00411d50 f   mainview.obj
 0001:00010e80       ?createHideObject@CEccMainView@@AAEXXZ 00411e80 f   mainview.obj
 0001:00011270       ?RefreshState@CEccMainView@@AAEXXZ 00412270 f   mainview.obj
 0001:000112a0       ?refresh@CEccMainView@@UAEXXZ 004122a0 f   mainview.obj
 0001:00011650       ?_Max@?$_Tree@V?$_Tmap_traits@HVCECCMonitor@@U?$less@H@std@@V?$allocator@U?$pair@$$CBHVCECCMonitor@@@std@@@3@$0A@@std@@@std@@KAPAU_Node@?$_Tree_nod@V?$_Tmap_traits@HVCECCMonitor@@U?$less@H@std@@V?$allocator@U?$pair@$$CBHVCECCMonitor@@@std@@@3@$0A@@std@@@2@PAU342@@Z 00412650 f i mainview.obj
 0001:00011670       ?_Min@?$_Tree@V?$_Tmap_traits@HVCECCMonitor@@U?$less@H@std@@V?$allocator@U?$pair@$$CBHVCECCMonitor@@@std@@@3@$0A@@std@@@std@@KAPAU_Node@?$_Tree_nod@V?$_Tmap_traits@HVCECCMonitor@@U?$less@H@std@@V?$allocator@U?$pair@$$CBHVCECCMonitor@@@std@@@3@$0A@@std@@@2@PAU342@@Z 00412670 f i mainview.obj
 0001:00011690       ?_Rrotate@?$_Tree@V?$_Tmap_traits@HVCECCMonitor@@U?$less@H@std@@V?$allocator@U?$pair@$$CBHVCECCMonitor@@@std@@@3@$0A@@std@@@std@@IAEXPAU_Node@?$_Tree_nod@V?$_Tmap_traits@HVCECCMonitor@@U?$less@H@std@@V?$allocator@U?$pair@$$CBHVCECCMonitor@@@std@@@3@$0A@@std@@@2@@Z 00412690 f i mainview.obj
 0001:000116f0       ?_Inc@const_iterator@?$_Tree@V?$_Tmap_traits@HVCECCMonitor@@U?$less@H@std@@V?$allocator@U?$pair@$$CBHVCECCMonitor@@@std@@@3@$0A@@std@@@std@@QAEXXZ 004126f0 f i mainview.obj
 0001:00011750       ??1?$pair@$$CBHVCECCMonitor@@@std@@QAE@XZ 00412750 f i mainview.obj
 0001:00011760       ??0CEccMainView@@QAE@PAVWContainerWidget@@@Z 00412760 f   mainview.obj
 0001:00011880       ??_GCEccMainView@@UAEPAXI@Z 00412880 f i mainview.obj
 0001:00011880       ??_ECEccMainView@@UAEPAXI@Z 00412880 f i mainview.obj
 0001:000118a0       ?EccObjectClick@CEccMainView@@AAEXXZ 004128a0 f   mainview.obj
 0001:00011bc0       ?TestDevice@CEccMainView@@AAEXABV?$basic_string@DU?$char_traits@D@std@@V?$allocator@D@2@@std@@@Z 00412bc0 f   mainview.obj
 0001:00011cf0       ?_Lrotate@?$_Tree@V?$_Tmap_traits@HVCECCMonitor@@U?$less@H@std@@V?$allocator@U?$pair@$$CBHVCECCMonitor@@@std@@@3@$0A@@std@@@std@@IAEXPAU_Node@?$_Tree_nod@V?$_Tmap_traits@HVCECCMonitor@@U?$less@H@std@@V?$allocator@U?$pair@$$CBHVCECCMonitor@@@std@@@3@$0A@@std@@@2@@Z 00412cf0 f i mainview.obj
 0001:00011d50       ??1_Node@?$_Tree_nod@V?$_Tmap_traits@HVCECCMonitor@@U?$less@H@std@@V?$allocator@U?$pair@$$CBHVCECCMonitor@@@std@@@3@$0A@@std@@@std@@QAE@XZ 00412d50 f i mainview.obj
 0001:00011d60       ?RefreshDevice@CEccMainView@@AAEXPBVCEccTreeDevice@@@Z 00412d60 f   mainview.obj
 0001:00012340       ?EccMenuClick@CEccMainView@@AAEXXZ 00413340 f   mainview.obj
 0001:00013d00       ??4WImage@@QAEAAV0@ABV0@@Z 00414d00 f i mainview.obj
 0001:00013d60       ??4WTableCell@@QAEAAV0@ABV0@@Z 00414d60 f i mainview.obj
 0001:00013dc0       ??4WLineEdit@@QAEAAV0@ABV0@@Z 00414dc0 f i mainview.obj
 0001:00013e60       ??4WPushButton@@QAEAAV0@ABV0@@Z 00414e60 f i mainview.obj
 0001:00013ef0       ?erase@?$_Tree@V?$_Tmap_traits@HVCECCMonitor@@U?$less@H@std@@V?$allocator@U?$pair@$$CBHVCECCMonitor@@@std@@@3@$0A@@std@@@std@@QAE?AViterator@12@V312@@Z 00414ef0 f i mainview.obj
 0001:000141d0       ?ConfirmDelete@CEccMainView@@AAEXXZ 004151d0 f   mainview.obj
 0001:00014790       ?good@WSignal_@@QBE_NXZ    00415790 f i mainviewwt.obj
 0001:00014790       ?good@WSlot_@@QAE_NXZ      00415790 f i mainviewwt.obj
 0001:000147a0       ?staticCodeChanged@WSignalInstance_@@QBE_NXZ 004157a0 f i mainviewwt.obj
 0001:000147b0       ?connectivityChanged@WSignalInstance_@@QBE_NXZ 004157b0 f i mainviewwt.obj
 0001:000147c0       ?exposable@WSignal_@@QBE_NXZ 004157c0 f i mainviewwt.obj
 0001:000147c0       ?canStatic@WSlot_@@QBE_NXZ 004157c0 f i mainviewwt.obj
 0001:000147d0       ??0WSignal_@@QAE@ABV0@@Z   004157d0 f i mainviewwt.obj
 0001:000147d0       ??0WSlot_@@QAE@ABV0@@Z     004157d0 f i mainviewwt.obj
 0001:000147f0       ??4WSlot_@@QAEAAV0@ABV0@@Z 004157f0 f i mainviewwt.obj
 0001:000147f0       ??4WSignal_@@QAEAAV0@ABV0@@Z 004157f0 f i mainviewwt.obj
 0001:00014810       ?staticCodeCollected@WSlotInstance_@@QBE_NXZ 00415810 f i mainviewwt.obj
 0001:00014820       ?buildSlotMap@CEccMainView@@MAEXAAV?$map@V?$basic_string@DU?$char_traits@D@std@@V?$allocator@D@2@@std@@PAVWSlotInstance_@@U?$less@V?$basic_string@DU?$char_traits@D@std@@V?$allocator@D@2@@std@@@2@V?$allocator@U?$pair@$$CBV?$basic_string@DU?$char_traits@D@std@@V?$allocator@D@2@@std@@PAVWSlotInstance_@@@std@@@2@@std@@@Z 00415820 f   mainviewwt.obj
 0001:00014910       ?triggerSlot@CEccMainView@@MAE_NPAVWObject@@PBVWSlot_@@PAPAX@Z 00415910 f   mainviewwt.obj
 0001:00014980       ?_Xlen@?$vector@PAVWConnection_@@V?$allocator@PAVWConnection_@@@std@@@std@@IBEXXZ 00415980 f i mainviewwt.obj
 0001:00014a00       ?isConnected@WSignalInstance_@@ABE_NXZ 00415a00 f i mainviewwt.obj
 0001:00014a30       ?_Buy@?$vector@PAVWConnection_@@V?$allocator@PAVWConnection_@@@std@@@std@@IAE_NI@Z 00415a30 f i mainviewwt.obj
 0001:00014a80       ?_Buynode@?$_Tree@V?$_Tmap_traits@V?$basic_string@DU?$char_traits@D@std@@V?$allocator@D@2@@std@@PAVWSignalInstance_@@U?$less@V?$basic_string@DU?$char_traits@D@std@@V?$allocator@D@2@@std@@@2@V?$allocator@U?$pair@$$CBV?$basic_string@DU?$char_traits@D@std@@V?$allocator@D@2@@std@@PAVWSignalInstance_@@@std@@@2@$0A@@std@@@std@@IAEPAU_Node@?$_Tree_nod@V?$_Tmap_traits@V?$basic_string@DU?$char_traits@D@std@@V?$allocator@D@2@@std@@PAVWSignalInstance_@@U?$less@V?$basic_string@DU?$char_traits@D@std@@V?$allocator@D@2@@std@@@2@V?$allocator@U?$pair@$$CBV?$basic_string@DU?$char_traits@D@std@@V?$allocator@D@2@@std@@PAVWSignalInstance_@@@std@@@2@$0A@@std@@@2@PAU342@00ABU?$pair@$$CBV?$basic_string@DU?$char_traits@D@std@@V?$allocator@D@2@@std@@PAVWSignalInstance_@@@2@D@Z 00415a80 f i mainviewwt.obj
 0001:00014b20       ?_Insert@?$_Tree@V?$_Tmap_traits@V?$basic_string@DU?$char_traits@D@std@@V?$allocator@D@2@@std@@PAVWSignalInstance_@@U?$less@V?$basic_string@DU?$char_traits@D@std@@V?$allocator@D@2@@std@@@2@V?$allocator@U?$pair@$$CBV?$basic_string@DU?$char_traits@D@std@@V?$allocator@D@2@@std@@PAVWSignalInstance_@@@std@@@2@$0A@@std@@@std@@IAE?AViterator@12@_NPAU_Node@?$_Tree_nod@V?$_Tmap_traits@V?$basic_string@DU?$char_traits@D@std@@V?$allocator@D@2@@std@@PAVWSignalInstance_@@U?$less@V?$basic_string@DU?$char_traits@D@std@@V?$allocator@D@2@@std@@@2@V?$allocator@U?$pair@$$CBV?$basic_string@DU?$char_traits@D@std@@V?$allocator@D@2@@std@@PAVWSignalInstance_@@@std@@@2@$0A@@std@@@2@ABU?$pair@$$CBV?$basic_string@DU?$char_traits@D@std@@V?$allocator@D@2@@std@@PAVWSignalInstance_@@@2@@Z 00415b20 f i mainviewwt.obj
 0001:00014ce0       ??4?$vector@PAVWConnection_@@V?$allocator@PAVWConnection_@@@std@@@std@@QAEAAV01@ABV01@@Z 00415ce0 f i mainviewwt.obj
 0001:00014e30       ?insert@?$_Tree@V?$_Tmap_traits@V?$basic_string@DU?$char_traits@D@std@@V?$allocator@D@2@@std@@PAVWSignalInstance_@@U?$less@V?$basic_string@DU?$char_traits@D@std@@V?$allocator@D@2@@std@@@2@V?$allocator@U?$pair@$$CBV?$basic_string@DU?$char_traits@D@std@@V?$allocator@D@2@@std@@PAVWSignalInstance_@@@std@@@2@$0A@@std@@@std@@QAE?AU?$pair@Viterator@?$_Tree@V?$_Tmap_traits@V?$basic_string@DU?$char_traits@D@std@@V?$allocator@D@2@@std@@PAVWSignalInstance_@@U?$less@V?$basic_string@DU?$char_traits@D@std@@V?$allocator@D@2@@std@@@2@V?$allocator@U?$pair@$$CBV?$basic_string@DU?$char_traits@D@std@@V?$allocator@D@2@@std@@PAVWSignalInstance_@@@std@@@2@$0A@@std@@@std@@_N@2@ABU?$pair@$$CBV?$basic_string@DU?$char_traits@D@std@@V?$allocator@D@2@@std@@PAVWSignalInstance_@@@2@@Z 00415e30 f i mainviewwt.obj
 0001:00014f10       ??4WSignalInstance_@@QAEAAV0@ABV0@@Z 00415f10 f i mainviewwt.obj
 0001:00014f60       ??4WSlotInstance_@@QAEAAV0@ABV0@@Z 00415f60 f i mainviewwt.obj
 0001:00014fa0       ??0?$vector@PAVWConnection_@@V?$allocator@PAVWConnection_@@@std@@@std@@QAE@ABV01@@Z 00415fa0 f i mainviewwt.obj
 0001:00015060       ?insert@?$_Tree@V?$_Tmap_traits@V?$basic_string@DU?$char_traits@D@std@@V?$allocator@D@2@@std@@PAVWSignalInstance_@@U?$less@V?$basic_string@DU?$char_traits@D@std@@V?$allocator@D@2@@std@@@2@V?$allocator@U?$pair@$$CBV?$basic_string@DU?$char_traits@D@std@@V?$allocator@D@2@@std@@PAVWSignalInstance_@@@std@@@2@$0A@@std@@@std@@QAE?AViterator@12@V312@ABU?$pair@$$CBV?$basic_string@DU?$char_traits@D@std@@V?$allocator@D@2@@std@@PAVWSignalInstance_@@@2@@Z 00416060 f i mainviewwt.obj
 0001:00015220       ??0WSignalInstance_@@QAE@ABV0@@Z 00416220 f i mainviewwt.obj
 0001:000152a0       ??0WSlotInstance_@@QAE@ABV0@@Z 004162a0 f i mainviewwt.obj
 0001:00015310       ??A?$map@V?$basic_string@DU?$char_traits@D@std@@V?$allocator@D@2@@std@@PAVWSignalInstance_@@U?$less@V?$basic_string@DU?$char_traits@D@std@@V?$allocator@D@2@@std@@@2@V?$allocator@U?$pair@$$CBV?$basic_string@DU?$char_traits@D@std@@V?$allocator@D@2@@std@@PAVWSignalInstance_@@@std@@@2@@std@@QAEAAPAVWSignalInstance_@@ABV?$basic_string@DU?$char_traits@D@std@@V?$allocator@D@2@@1@@Z 00416310 f i mainviewwt.obj
 0001:000153b0       ?buildSignalMap@CEccMainView@@MAEXAAV?$map@V?$basic_string@DU?$char_traits@D@std@@V?$allocator@D@2@@std@@PAVWSignalInstance_@@U?$less@V?$basic_string@DU?$char_traits@D@std@@V?$allocator@D@2@@std@@@2@V?$allocator@U?$pair@$$CBV?$basic_string@DU?$char_traits@D@std@@V?$allocator@D@2@@std@@PAVWSignalInstance_@@@std@@@2@@std@@@Z 004163b0 f   mainviewwt.obj
 0001:00015470       ??0sv_pair@@QAE@XZ         00416470 f i advanceparam.obj
 0001:000154c0       ?widget@WScrollArea@@QBEPAVWWidget@@XZ 004164c0 f i advanceparam.obj
 0001:000154c0       ?data@WInteractWidget@@QAEPAXXZ 004164c0 f i main.obj
 0001:000154d0       ?horizontalScrollBar@WScrollArea@@QBEPAVWScrollBar@@XZ 004164d0 f i advanceparam.obj
 0001:000154e0       ?verticalScrollBar@WScrollArea@@QBEPAVWScrollBar@@XZ 004164e0 f i advanceparam.obj
 0001:000154f0       ??_FWScrollArea@@QAEXXZ    004164f0 f i advanceparam.obj
 0001:00015500       ?isChecked@WAbstractToggleButton@@QBE_NXZ 00416500 f i advanceparam.obj
 0001:00015510       ??_FWAbstractToggleButton@@QAEXXZ 00416510 f i advanceparam.obj
 0001:00015520       ??_FWRadioButton@@QAEXXZ   00416520 f i advanceparam.obj
 0001:00015530       ?createTitle@CEccAdvanceTable@@AAEXXZ 00416530 f   advanceparam.obj
 0001:00015740       ?ShowHideSub@CEccAdvanceTable@@AAEXXZ 00416740 f   advanceparam.obj
 0001:000157d0       ?createSubTable@CEccAdvanceTable@@AAEXPAVWTable@@@Z 004167d0 f   advanceparam.obj
 0001:00015950       ?createHide@CEccAdvanceTable@@AAEXXZ 00416950 f   advanceparam.obj
 0001:00015a70       ?getConditon@CEccAdvanceTable@@QAE?AV?$basic_string@DU?$char_traits@D@std@@V?$allocator@D@2@@std@@XZ 00416a70 f   advanceparam.obj
 0001:00015b50       ?getDepends@CEccAdvanceTable@@QAE?AV?$basic_string@DU?$char_traits@D@std@@V?$allocator@D@2@@std@@XZ 00416b50 f   advanceparam.obj
 0001:00015c40       ?getDescription@CEccAdvanceTable@@QAE?AV?$basic_string@DU?$char_traits@D@std@@V?$allocator@D@2@@std@@XZ 00416c40 f   advanceparam.obj
 0001:00015d00       ?setCondition@CEccAdvanceTable@@QAEXABV?$basic_string@DU?$char_traits@D@std@@V?$allocator@D@2@@std@@@Z 00416d00 f   advanceparam.obj
 0001:00015d90       ?setDescription@CEccAdvanceTable@@QAEXABV?$basic_string@DU?$char_traits@D@std@@V?$allocator@D@2@@std@@@Z 00416d90 f   advanceparam.obj
 0001:00015dd0       ?ResetData@CEccAdvanceTable@@QAEXXZ 00416dd0 f   advanceparam.obj
 0001:00015ea0       ?setSEID@CEccAdvanceTable@@QAEXABV?$basic_string@DU?$char_traits@D@std@@V?$allocator@D@2@@std@@@Z 00416ea0 f   advanceparam.obj
 0001:00015eb0       ?SaveAdvanceParam@CEccAdvanceTable@@QAE_NAAPAX@Z 00416eb0 f   advanceparam.obj
 0001:00016100       ?isDependsChanged@CEccAdvanceTable@@QAE_NXZ 00417100 f   advanceparam.obj
 0001:000161e0       ?_Xlen@?$vector@PAVWRadioButton@@V?$allocator@PAVWRadioButton@@@std@@@std@@IBEXXZ 004171e0 f i advanceparam.obj
 0001:00016260       ?showDepend@CEccAdvanceTable@@AAEXXZ 00417260 f   advanceparam.obj
 0001:00016480       ?_Buy@?$vector@PAVWRadioButton@@V?$allocator@PAVWRadioButton@@@std@@@std@@IAE_NI@Z 00417480 f i advanceparam.obj
 0001:000164d0       ?_Buynode@?$list@PAVWCheckBox@@V?$allocator@PAVWCheckBox@@@std@@@std@@IAEPAU_Node@?$_List_nod@PAVWCheckBox@@V?$allocator@PAVWCheckBox@@@std@@@2@PAU342@0ABQAVWCheckBox@@@Z 004174d0 f i adddevice3rd.obj
 0001:000164d0       ?_Buynode@?$list@HV?$allocator@H@std@@@std@@IAEPAU_Node@?$_List_nod@HV?$allocator@H@std@@@2@PAU342@0ABH@Z 004174d0 f i groupview.obj
 0001:000164d0       ?_Buynode@?$list@PAVSVReturnItem@@V?$allocator@PAVSVReturnItem@@@std@@@std@@IAEPAU_Node@?$_List_nod@PAVSVReturnItem@@V?$allocator@PAVSVReturnItem@@@std@@@2@PAU342@0ABQAVSVReturnItem@@@Z 004174d0 f i conditionparam.obj
 0001:000164d0       ?_Buynode@?$list@PAVWText@@V?$allocator@PAVWText@@@std@@@std@@IAEPAU_Node@?$_List_nod@PAVWText@@V?$allocator@PAVWText@@@std@@@2@PAU342@0ABQAVWText@@@Z 004174d0 f i advanceparam.obj
 0001:000164d0       ?_Buynode@?$list@PAVCEccParamItem@@V?$allocator@PAVCEccParamItem@@@std@@@std@@IAEPAU_Node@?$_List_nod@PAVCEccParamItem@@V?$allocator@PAVCEccParamItem@@@std@@@2@PAU342@0ABQAVCEccParamItem@@@Z 004174d0 f i adddevice2nd.obj
 0001:00016500       ?_Incsize@?$list@PAVWText@@V?$allocator@PAVWText@@@std@@@std@@IAEXI@Z 00417500 f i advanceparam.obj
 0001:000165a0       ?ShowHideHelp@CEccAdvanceTable@@QAEX_N@Z 004175a0 f   advanceparam.obj
 0001:000165e0       ?push_back@?$list@PAVWText@@V?$allocator@PAVWText@@@std@@@std@@QAEXABQAVWText@@@Z 004175e0 f i advanceparam.obj
 0001:00016620       ??4?$vector@PAVWRadioButton@@V?$allocator@PAVWRadioButton@@@std@@@std@@QAEAAV01@ABV01@@Z 00417620 f i advanceparam.obj
 0001:00016770       ??4WScrollArea@@QAEAAV0@ABV0@@Z 00417770 f i advanceparam.obj
 0001:000167e0       ??4WButtonGroup@@QAEAAV0@ABV0@@Z 004177e0 f i advanceparam.obj
 0001:00016820       ??4WAbstractToggleButton@@QAEAAV0@ABV0@@Z 00417820 f i advanceparam.obj
 0001:00016890       ??4WRadioButton@@QAEAAV0@ABV0@@Z 00417890 f i advanceparam.obj
 0001:000168c0       ?createCondition@CEccAdvanceTable@@AAEXXZ 004178c0 f   advanceparam.obj
 0001:00016c30       ?createDescription@CEccAdvanceTable@@AAEXXZ 00417c30 f   advanceparam.obj
 0001:00016eb0       ?createDepends@CEccAdvanceTable@@AAEXXZ 00417eb0 f   advanceparam.obj
 0001:00017230       ?pop_front@?$list@Usv_pair@@V?$allocator@Usv_pair@@@std@@@std@@QAEXXZ 00418230 f i advanceparam.obj
 0001:00017270       ?initForm@CEccAdvanceTable@@AAEXXZ 00418270 f   advanceparam.obj
 0001:00017650       ?setDepends@CEccAdvanceTable@@QAEXABV?$basic_string@DU?$char_traits@D@std@@V?$allocator@D@2@@std@@@Z 00418650 f   advanceparam.obj
 0001:000178b0       ?changePath@CEccAdvanceTable@@AAEXXZ 004188b0 f   advanceparam.obj
 0001:00017c30       ??0CEccAdvanceTable@@QAE@PAVWContainerWidget@@@Z 00418c30 f   advanceparam.obj
 0001:00017cf0       ??_GCEccAdvanceTable@@UAEPAXI@Z 00418cf0 f i advanceparam.obj
 0001:00017cf0       ??_ECEccAdvanceTable@@UAEPAXI@Z 00418cf0 f i advanceparam.obj
 0001:00017d10       ??1CEccAdvanceTable@@UAE@XZ 00418d10 f i advanceparam.obj
 0001:00017da0       ?buildSlotMap@CEccAdvanceTable@@MAEXAAV?$map@V?$basic_string@DU?$char_traits@D@std@@V?$allocator@D@2@@std@@PAVWSlotInstance_@@U?$less@V?$basic_string@DU?$char_traits@D@std@@V?$allocator@D@2@@std@@@2@V?$allocator@U?$pair@$$CBV?$basic_string@DU?$char_traits@D@std@@V?$allocator@D@2@@std@@PAVWSlotInstance_@@@std@@@2@@std@@@Z 00418da0 f   advanceparamwt.obj
 0001:00017e90       ?triggerSlot@CEccAdvanceTable@@MAE_NPAVWObject@@PBVWSlot_@@PAPAX@Z 00418e90 f   advanceparamwt.obj
 0001:00017ef0       ?buildSignalMap@CEccAdvanceTable@@MAEXAAV?$map@V?$basic_string@DU?$char_traits@D@std@@V?$allocator@D@2@@std@@PAVWSignalInstance_@@U?$less@V?$basic_string@DU?$char_traits@D@std@@V?$allocator@D@2@@std@@@2@V?$allocator@U?$pair@$$CBV?$basic_string@DU?$char_traits@D@std@@V?$allocator@D@2@@std@@PAVWSignalInstance_@@@std@@@2@@std@@@Z 00418ef0 f   advanceparamwt.obj
 0001:00017fb0       ?title@WApplication@@QBE?AV?$basic_string@DU?$char_traits@D@std@@V?$allocator@D@2@@std@@XZ 00418fb0 f i main.obj
 0001:00017fb0       ?getLabel@SVReturnItem@@QAE?BV?$basic_string@DU?$char_traits@D@std@@V?$allocator@D@2@@std@@XZ 00418fb0 f i conditionparam.obj
 0001:00017fe0       ?createButtonGroup@SVConditionParam@@AAEXXZ 00418fe0 f   conditionparam.obj
 0001:000181e0       ?createHideButton@SVConditionParam@@AAEXXZ 004191e0 f   conditionparam.obj
 0001:000182d0       ?createShowButton@SVConditionParam@@AAEXH@Z 004192d0 f   conditionparam.obj
 0001:00018390       ?EnumParam@SVConditionParam@@AAEXAAPAX@Z 00419390 f   conditionparam.obj
 0001:00018570       ?showAddCondition@SVConditionParam@@AAEXXZ 00419570 f   conditionparam.obj
 0001:00018590       ?hideAddCondition@SVConditionParam@@AAEXXZ 00419590 f   conditionparam.obj
 0001:000185b0       ?showHelp@SVConditionParam@@QAEX_N@Z 004195b0 f   conditionparam.obj
 0001:000185e0       ?createHelp@SVConditionParam@@AAEXH@Z 004195e0 f   conditionparam.obj
 0001:00018770       ?_Incsize@?$list@PAVSVReturnItem@@V?$allocator@PAVSVReturnItem@@@std@@@std@@IAEXI@Z 00419770 f i conditionparam.obj
 0001:00018810       ?createAddButton@SVConditionParam@@AAEXH@Z 00419810 f   conditionparam.obj
 0001:00018c40       ?createCondition@SVConditionParam@@AAEXXZ 00419c40 f   conditionparam.obj
 0001:00018f50       ?checkParamValue@SVConditionParam@@AAE_NAAV?$basic_string@DU?$char_traits@D@std@@V?$allocator@D@2@@std@@0@Z 00419f50 f   conditionparam.obj
 0001:00019140       ?getParamLabel@SVConditionParam@@AAEXAAV?$basic_string@DU?$char_traits@D@std@@V?$allocator@D@2@@std@@@Z 0041a140 f   conditionparam.obj
 0001:00019220       ?setDefaultValue@SVConditionParam@@QAEXXZ 0041a220 f   conditionparam.obj
 0001:00019330       ?SetCondition@SVConditionParam@@QAEXAAPAX@Z 0041a330 f   conditionparam.obj
 0001:00019a60       ?SetMapNode@SVConditionParam@@QAEXAAPAX@Z 0041aa60 f   conditionparam.obj
 0001:00019a90       ?addCondition@SVConditionParam@@AAEXXZ 0041aa90 f   conditionparam.obj
 0001:00019f50       ?erase@?$list@V?$basic_string@DU?$char_traits@D@std@@V?$allocator@D@2@@std@@V?$allocator@V?$basic_string@DU?$char_traits@D@std@@V?$allocator@D@2@@std@@@2@@std@@QAE?AViterator@12@V312@@Z 0041af50 f i conditionparam.obj
 0001:00019fa0       ??$_Insert@Vconst_iterator@?$list@V?$basic_string@DU?$char_traits@D@std@@V?$allocator@D@2@@std@@V?$allocator@V?$basic_string@DU?$char_traits@D@std@@V?$allocator@D@2@@std@@@2@@std@@@?$list@V?$basic_string@DU?$char_traits@D@std@@V?$allocator@D@2@@std@@V?$allocator@V?$basic_string@DU?$char_traits@D@std@@V?$allocator@D@2@@std@@@2@@std@@QAEXViterator@01@Vconst_iterator@01@1Uforward_iterator_tag@1@@Z 0041afa0 f i conditionparam.obj
 0001:0001a050       ?SetReturnList@SVConditionParam@@QAEXAAV?$list@PAVSVReturnItem@@V?$allocator@PAVSVReturnItem@@@std@@@std@@@Z 0041b050 f   conditionparam.obj
 0001:0001a0b0       ?loadCondition@SVConditionParam@@AAEXXZ 0041b0b0 f   conditionparam.obj
 0001:0001a350       ?pop_front@?$list@V?$basic_string@DU?$char_traits@D@std@@V?$allocator@D@2@@std@@V?$allocator@V?$basic_string@DU?$char_traits@D@std@@V?$allocator@D@2@@std@@@2@@std@@QAEXXZ 0041b350 f i conditionparam.obj
 0001:0001a390       ??0?$list@V?$basic_string@DU?$char_traits@D@std@@V?$allocator@D@2@@std@@V?$allocator@V?$basic_string@DU?$char_traits@D@std@@V?$allocator@D@2@@std@@@2@@std@@QAE@ABV01@@Z 0041b390 f i conditionparam.obj
 0001:0001a410       ??0SVConditionParam@@QAE@PAVWContainerWidget@@H@Z 0041b410 f   conditionparam.obj
 0001:0001a5b0       ?checkCondition@SVConditionParam@@QAE_NAAPAX@Z 0041b5b0 f   conditionparam.obj
 0001:0001ae80       ?SaveCondition@SVConditionParam@@QAE_NAAPAX@Z 0041be80 f   conditionparam.obj
 0001:0001bbb0       ??_ESVConditionParam@@UAEPAXI@Z 0041cbb0 f i conditionparam.obj
 0001:0001bbb0       ??_GSVConditionParam@@UAEPAXI@Z 0041cbb0 f i conditionparam.obj
 0001:0001bbd0       ??1SVConditionParam@@UAE@XZ 0041cbd0 f i conditionparam.obj
 0001:0001bcc0       ?buildSlotMap@SVConditionParam@@MAEXAAV?$map@V?$basic_string@DU?$char_traits@D@std@@V?$allocator@D@2@@std@@PAVWSlotInstance_@@U?$less@V?$basic_string@DU?$char_traits@D@std@@V?$allocator@D@2@@std@@@2@V?$allocator@U?$pair@$$CBV?$basic_string@DU?$char_traits@D@std@@V?$allocator@D@2@@std@@PAVWSlotInstance_@@@std@@@2@@std@@@Z 0041ccc0 f   conditionparamwt.obj
 0001:0001bdb0       ?triggerSlot@SVConditionParam@@MAE_NPAVWObject@@PBVWSlot_@@PAPAX@Z 0041cdb0 f   conditionparamwt.obj
 0001:0001be10       ?buildSignalMap@SVConditionParam@@MAEXAAV?$map@V?$basic_string@DU?$char_traits@D@std@@V?$allocator@D@2@@std@@PAVWSignalInstance_@@U?$less@V?$basic_string@DU?$char_traits@D@std@@V?$allocator@D@2@@std@@@2@V?$allocator@U?$pair@$$CBV?$basic_string@DU?$char_traits@D@std@@V?$allocator@D@2@@std@@PAVWSignalInstance_@@@std@@@2@@std@@@Z 0041ce10 f   conditionparamwt.obj
 0001:0001bed0       ?createTitle@CEccBaseTable@@AAEX_N@Z 0041ced0 f   ecctable.obj
 0001:0001c0d0       ?createOperate@CEccBaseTable@@AAEXXZ 0041d0d0 f   ecctable.obj
 0001:0001c1a0       ?createContent@CEccBaseTable@@AAEXXZ 0041d1a0 f   ecctable.obj
 0001:0001c310       ?setTitle@CEccBaseTable@@QAEXV?$basic_string@DU?$char_traits@D@std@@V?$allocator@D@2@@std@@@Z 0041d310 f   ecctable.obj
 0001:0001c380       ?setContentCellStyle@CEccBaseTable@@AAEXV?$basic_string@DU?$char_traits@D@std@@V?$allocator@D@2@@std@@@Z 0041d380 f   ecctable.obj
 0001:0001c400       ?initForm@CEccBaseTable@@EAEX_N@Z 0041d400 f   ecctable.obj
 0001:0001c420       ??0CEccBaseTable@@QAE@PAVWContainerWidget@@@Z 0041d420 f   ecctable.obj
 0001:0001c4a0       ??_GCEccBaseTable@@UAEPAXI@Z 0041d4a0 f i ecctable.obj
 0001:0001c4a0       ??_ECEccBaseTable@@UAEPAXI@Z 0041d4a0 f i ecctable.obj
 0001:0001c4c0       ??1CEccBaseTable@@UAE@XZ   0041d4c0 f i ecctable.obj
 0001:0001c4f0       ?buildSlotMap@CEccBaseTable@@MAEXAAV?$map@V?$basic_string@DU?$char_traits@D@std@@V?$allocator@D@2@@std@@PAVWSlotInstance_@@U?$less@V?$basic_string@DU?$char_traits@D@std@@V?$allocator@D@2@@std@@@2@V?$allocator@U?$pair@$$CBV?$basic_string@DU?$char_traits@D@std@@V?$allocator@D@2@@std@@PAVWSlotInstance_@@@std@@@2@@std@@@Z 0041d4f0 f   ecctablewt.obj
 0001:0001c5e0       ?triggerSlot@CEccBaseTable@@MAE_NPAVWObject@@PBVWSlot_@@PAPAX@Z 0041d5e0 f   ecctablewt.obj
 0001:0001c610       ?buildSignalMap@CEccBaseTable@@MAEXAAV?$map@V?$basic_string@DU?$char_traits@D@std@@V?$allocator@D@2@@std@@PAVWSignalInstance_@@U?$less@V?$basic_string@DU?$char_traits@D@std@@V?$allocator@D@2@@std@@@2@V?$allocator@U?$pair@$$CBV?$basic_string@DU?$char_traits@D@std@@V?$allocator@D@2@@std@@PAVWSignalInstance_@@@std@@@2@@std@@@Z 0041d610 f   ecctablewt.obj
 0001:0001c6d0       ?setTitle@CEccGenTitle@@QAEXABV?$basic_string@DU?$char_traits@D@std@@V?$allocator@D@2@@std@@@Z 0041d6d0 f   gentitle.obj
 0001:0001c7a0       ?initForm@CEccGenTitle@@AAEXXZ 0041d7a0 f   gentitle.obj
 0001:0001c9a0       ?refreshTime@CEccGenTitle@@QAEXXZ 0041d9a0 f   gentitle.obj
 0001:0001ca50       ??0CEccGenTitle@@QAE@PAVWContainerWidget@@@Z 0041da50 f   gentitle.obj
 0001:0001cac0       ?setCurIndex@CEccGenTitle@@QAEXABV?$basic_string@DU?$char_traits@D@std@@V?$allocator@D@2@@std@@@Z 0041dac0 f   gentitle.obj
 0001:0001ce90       ?buildSlotMap@CEccGenTitle@@MAEXAAV?$map@V?$basic_string@DU?$char_traits@D@std@@V?$allocator@D@2@@std@@PAVWSlotInstance_@@U?$less@V?$basic_string@DU?$char_traits@D@std@@V?$allocator@D@2@@std@@@2@V?$allocator@U?$pair@$$CBV?$basic_string@DU?$char_traits@D@std@@V?$allocator@D@2@@std@@PAVWSlotInstance_@@@std@@@2@@std@@@Z 0041de90 f   gentitlewt.obj
 0001:0001cf80       ?buildSignalMap@CEccGenTitle@@MAEXAAV?$map@V?$basic_string@DU?$char_traits@D@std@@V?$allocator@D@2@@std@@PAVWSignalInstance_@@U?$less@V?$basic_string@DU?$char_traits@D@std@@V?$allocator@D@2@@std@@@2@V?$allocator@U?$pair@$$CBV?$basic_string@DU?$char_traits@D@std@@V?$allocator@D@2@@std@@PAVWSignalInstance_@@@std@@@2@@std@@@Z 0041df80 f   gentitlewt.obj
 0001:0001d040       ??1WCheckBox@@UAE@XZ       0041e040 f i listtable.obj
 0001:0001d040       ??1WAbstractToggleButton@@UAE@XZ 0041e040 f i advanceparam.obj
 0001:0001d040       ??1WRadioButton@@UAE@XZ    0041e040 f i advanceparam.obj
 0001:0001d050       ??_FWCheckBox@@QAEXXZ      0041e050 f i listtable.obj
 0001:0001d2e0       ?setTitle@CEccListTable@@QAEXV?$basic_string@DU?$char_traits@D@std@@V?$allocator@D@2@@std@@@Z 0041e2e0 f   listtable.obj
 0001:0001d350       ?createOpaerate@CEccListTable@@AAEXPAVWTable@@@Z 0041e350 f   listtable.obj
 0001:0001d7d0       ?createSubTable@CEccListTable@@AAEXPAVWTable@@_N@Z 0041e7d0 f   listtable.obj
 0001:0001d920       ?createTitle@CEccListTable@@AAEX_N@Z 0041e920 f   listtable.obj
 0001:0001dbe0       ?getListTable@CEccListTable@@QAEPAVWTable@@XZ 0041ebe0 f   listtable.obj
 0001:0001dbf0       ?ShowHideSub@CEccListTable@@AAEXXZ 0041ebf0 f   listtable.obj
 0001:0001dd60       ?hideNoChild@CEccListTable@@QAEXXZ 0041ed60 f   listtable.obj
 0001:0001dd80       ?setAddNewTitle@CEccListTable@@QAEXV?$basic_string@DU?$char_traits@D@std@@V?$allocator@D@2@@std@@@Z 0041ed80 f   listtable.obj
 0001:0001de00       ?setAddNewTip@CEccListTable@@QAEXV?$basic_string@DU?$char_traits@D@std@@V?$allocator@D@2@@std@@@Z 0041ee00 f   listtable.obj
 0001:0001de80       ?AddNew@CEccListTable@@AAEXXZ 0041ee80 f   listtable.obj
 0001:0001e060       ?setAddNewFunc@CEccListTable@@QAEXP6AXV?$basic_string@DU?$char_traits@D@std@@V?$allocator@D@2@@std@@@Z@Z 0041f060 f   listtable.obj
 0001:0001e080       ?setCurrentID@CEccListTable@@QAEXV?$basic_string@DU?$char_traits@D@std@@V?$allocator@D@2@@std@@@Z 0041f080 f   listtable.obj
 0001:0001e0d0       ?showSubTable@CEccListTable@@QAEXXZ 0041f0d0 f   listtable.obj
 0001:0001e120       ?hideSubTable@CEccListTable@@QAEXXZ 0041f120 f   listtable.obj
 0001:0001e170       ?Sort@CEccListTable@@AAEXXZ 0041f170 f   listtable.obj
 0001:0001e370       ?createHideConfirm@CEccListTable@@AAEXPAVWTable@@@Z 0041f370 f   listtable.obj
 0001:0001e430       ?_Dec@const_iterator@?$_Tree@V?$_Tmap_traits@KViterator@?$list@U?$pair@V?$shared_ptr@V?$w32_regex_traits_implementation@D@re_detail@boost@@@boost@@PBK@std@@V?$allocator@U?$pair@V?$shared_ptr@V?$w32_regex_traits_implementation@D@re_detail@boost@@@boost@@PBK@std@@@2@@std@@U?$less@K@3@V?$allocator@U?$pair@$$CBKViterator@?$list@U?$pair@V?$shared_ptr@V?$w32_regex_traits_implementation@D@re_detail@boost@@@boost@@PBK@std@@V?$allocator@U?$pair@V?$shared_ptr@V?$w32_regex_traits_implementation@D@re_detail@boost@@@boost@@PBK@std@@@2@@std@@@std@@@3@$0A@@std@@@std@@QAEXXZ 0041f430 f i libboost_regex-vc71-mt-1_33_1:instances.obj
 0001:0001e430       ?_Dec@const_iterator@?$_Tree@V?$_Tmap_traits@HPAVWLineEdit@@U?$less@H@std@@V?$allocator@U?$pair@$$CBHPAVWLineEdit@@@std@@@3@$0A@@std@@@std@@QAEXXZ 0041f430 f i sortlist.obj
 0001:0001e430       ?_Dec@const_iterator@?$_Tree@V?$_Tmap_traits@PAVWObject@@HU?$less@PAVWObject@@@std@@V?$allocator@U?$pair@QAVWObject@@H@std@@@3@$0A@@std@@@std@@QAEXXZ 0041f430 f i libwt:WSignalMapper.obj
 0001:0001e430       ?_Dec@const_iterator@?$_Tree@V?$_Tmap_traits@HPAVCEccButton@@U?$less@H@std@@V?$allocator@U?$pair@$$CBHPAVCEccButton@@@std@@@3@$0A@@std@@@std@@QAEXXZ 0041f430 f i listtable.obj
 0001:0001e490       ?initForm@CEccListTable@@AAEX_N000@Z 0041f490 f   listtable.obj
 0001:0001e8d0       ?setNoChild@CEccListTable@@QAEXV?$basic_string@DU?$char_traits@D@std@@V?$allocator@D@2@@std@@@Z 0041f8d0 f   listtable.obj
 0001:0001e950       ?_Buynode@?$_Tree@V?$_Tmap_traits@HPAVWLineEdit@@U?$less@H@std@@V?$allocator@U?$pair@$$CBHPAVWLineEdit@@@std@@@3@$0A@@std@@@std@@IAEPAU_Node@?$_Tree_nod@V?$_Tmap_traits@HPAVWLineEdit@@U?$less@H@std@@V?$allocator@U?$pair@$$CBHPAVWLineEdit@@@std@@@3@$0A@@std@@@2@PAU342@00ABU?$pair@$$CBHPAVWLineEdit@@@2@D@Z 0041f950 f i sortlist.obj
 0001:0001e950       ?_Buynode@?$_Tree@V?$_Tmap_traits@KViterator@?$list@U?$pair@V?$shared_ptr@V?$w32_regex_traits_implementation@D@re_detail@boost@@@boost@@PBK@std@@V?$allocator@U?$pair@V?$shared_ptr@V?$w32_regex_traits_implementation@D@re_detail@boost@@@boost@@PBK@std@@@2@@std@@U?$less@K@3@V?$allocator@U?$pair@$$CBKViterator@?$list@U?$pair@V?$shared_ptr@V?$w32_regex_traits_implementation@D@re_detail@boost@@@boost@@PBK@std@@V?$allocator@U?$pair@V?$shared_ptr@V?$w32_regex_traits_implementation@D@re_detail@boost@@@boost@@PBK@std@@@2@@std@@@std@@@3@$0A@@std@@@std@@IAEPAU_Node@?$_Tree_nod@V?$_Tmap_traits@KViterator@?$list@U?$pair@V?$shared_ptr@V?$w32_regex_traits_implementation@D@re_detail@boost@@@boost@@PBK@std@@V?$allocator@U?$pair@V?$shared_ptr@V?$w32_regex_traits_implementation@D@re_detail@boost@@@boost@@PBK@std@@@2@@std@@U?$less@K@3@V?$allocator@U?$pair@$$CBKViterator@?$list@U?$pair@V?$shared_ptr@V?$w32_regex_traits_implementation@D@re_detail@boost@@@boost@@PBK@std@@V?$allocator@U?$pair@V?$shared_ptr@V?$w32_regex_traits_implementation@D@re_detail@boost@@@boost@@PBK@std@@@2@@std@@@std@@@3@$0A@@std@@@2@PAU342@00ABU?$pair@$$CBKViterator@?$list@U?$pair@V?$shared_ptr@V?$w32_regex_traits_implementation@D@re_detail@boost@@@boost@@PBK@std@@V?$allocator@U?$pair@V?$shared_ptr@V?$w32_regex_traits_implementation@D@re_detail@boost@@@boost@@PBK@std@@@2@@std@@@2@D@Z 0041f950 f i libboost_regex-vc71-mt-1_33_1:instances.obj
 0001:0001e950       ?_Buynode@?$_Tree@V?$_Tmap_traits@PAVWObject@@HU?$less@PAVWObject@@@std@@V?$allocator@U?$pair@QAVWObject@@H@std@@@3@$0A@@std@@@std@@IAEPAU_Node@?$_Tree_nod@V?$_Tmap_traits@PAVWObject@@HU?$less@PAVWObject@@@std@@V?$allocator@U?$pair@QAVWObject@@H@std@@@3@$0A@@std@@@2@PAU342@00ABU?$pair@QAVWObject@@H@2@D@Z 0041f950 f i libwt:WSignalMapper.obj
 0001:0001e950       ?_Buynode@?$_Tree@V?$_Tmap_traits@HPAVCEccButton@@U?$less@H@std@@V?$allocator@U?$pair@$$CBHPAVCEccButton@@@std@@@3@$0A@@std@@@std@@IAEPAU_Node@?$_Tree_nod@V?$_Tmap_traits@HPAVCEccButton@@U?$less@H@std@@V?$allocator@U?$pair@$$CBHPAVCEccButton@@@std@@@3@$0A@@std@@@2@PAU342@00ABU?$pair@$$CBHPAVCEccButton@@@2@D@Z 0041f950 f i listtable.obj
 0001:0001e990       ?_Buynode@?$_Tree@V?$_Tmap_traits@V?$basic_string@DU?$char_traits@D@std@@V?$allocator@D@2@@std@@PAVWCheckBox@@U?$less@V?$basic_string@DU?$char_traits@D@std@@V?$allocator@D@2@@std@@@2@V?$allocator@U?$pair@$$CBV?$basic_string@DU?$char_traits@D@std@@V?$allocator@D@2@@std@@PAVWCheckBox@@@std@@@2@$0A@@std@@@std@@IAEPAU_Node@?$_Tree_nod@V?$_Tmap_traits@V?$basic_string@DU?$char_traits@D@std@@V?$allocator@D@2@@std@@PAVWCheckBox@@U?$less@V?$basic_string@DU?$char_traits@D@std@@V?$allocator@D@2@@std@@@2@V?$allocator@U?$pair@$$CBV?$basic_string@DU?$char_traits@D@std@@V?$allocator@D@2@@std@@PAVWCheckBox@@@std@@@2@$0A@@std@@@2@PAU342@00ABU?$pair@$$CBV?$basic_string@DU?$char_traits@D@std@@V?$allocator@D@2@@std@@PAVWCheckBox@@@2@D@Z 0041f990 f i listtable.obj
 0001:0001ea30       ?_Erase@?$_Tree@V?$_Tmap_traits@HPAVCEccButton@@U?$less@H@std@@V?$allocator@U?$pair@$$CBHPAVCEccButton@@@std@@@3@$0A@@std@@@std@@IAEXPAU_Node@?$_Tree_nod@V?$_Tmap_traits@HPAVCEccButton@@U?$less@H@std@@V?$allocator@U?$pair@$$CBHPAVCEccButton@@@std@@@3@$0A@@std@@@2@@Z 0041fa30 f i listtable.obj
 0001:0001ea70       ?pasteDevice@CEccListTable@@AAEXXZ 0041fa70 f   listtable.obj
 0001:0001eb00       ?pasteMonitor@CEccListTable@@AAEXXZ 0041fb00 f   listtable.obj
 0001:0001ee50       ?IsCanBePaste@CEccListTable@@AAE_NXZ 0041fe50 f   listtable.obj
 0001:0001f0b0       ?find@?$_Tree@V?$_Tmap_traits@HPAVCEccButton@@U?$less@H@std@@V?$allocator@U?$pair@$$CBHPAVCEccButton@@@std@@@3@$0A@@std@@@std@@QAE?AViterator@12@ABH@Z 004200b0 f i listtable.obj
 0001:0001f120       ?_Insert@?$_Tree@V?$_Tmap_traits@HPAVCEccButton@@U?$less@H@std@@V?$allocator@U?$pair@$$CBHPAVCEccButton@@@std@@@3@$0A@@std@@@std@@IAE?AViterator@12@_NPAU_Node@?$_Tree_nod@V?$_Tmap_traits@HPAVCEccButton@@U?$less@H@std@@V?$allocator@U?$pair@$$CBHPAVCEccButton@@@std@@@3@$0A@@std@@@2@ABU?$pair@$$CBHPAVCEccButton@@@2@@Z 00420120 f i listtable.obj
 0001:0001f2e0       ?_Insert@?$_Tree@V?$_Tmap_traits@V?$basic_string@DU?$char_traits@D@std@@V?$allocator@D@2@@std@@PAVWCheckBox@@U?$less@V?$basic_string@DU?$char_traits@D@std@@V?$allocator@D@2@@std@@@2@V?$allocator@U?$pair@$$CBV?$basic_string@DU?$char_traits@D@std@@V?$allocator@D@2@@std@@PAVWCheckBox@@@std@@@2@$0A@@std@@@std@@IAE?AViterator@12@_NPAU_Node@?$_Tree_nod@V?$_Tmap_traits@V?$basic_string@DU?$char_traits@D@std@@V?$allocator@D@2@@std@@PAVWCheckBox@@U?$less@V?$basic_string@DU?$char_traits@D@std@@V?$allocator@D@2@@std@@@2@V?$allocator@U?$pair@$$CBV?$basic_string@DU?$char_traits@D@std@@V?$allocator@D@2@@std@@PAVWCheckBox@@@std@@@2@$0A@@std@@@2@ABU?$pair@$$CBV?$basic_string@DU?$char_traits@D@std@@V?$allocator@D@2@@std@@PAVWCheckBox@@@2@@Z 004202e0 f i listtable.obj
 0001:0001f4a0       ?erase@?$_Tree@V?$_Tmap_traits@HPAVCEccButton@@U?$less@H@std@@V?$allocator@U?$pair@$$CBHPAVCEccButton@@@std@@@3@$0A@@std@@@std@@QAE?AViterator@12@V312@@Z 004204a0 f i listtable.obj
 0001:0001f770       ?SelectAll@CEccListTable@@AAEXXZ 00420770 f   listtable.obj
 0001:0001f7b0       ?SelectNone@CEccListTable@@AAEXXZ 004207b0 f   listtable.obj
 0001:0001f7f0       ?InvertSelect@CEccListTable@@AAEXXZ 004207f0 f   listtable.obj
 0001:0001f830       ?DelSelect@CEccListTable@@AAEXXZ 00420830 f   listtable.obj
 0001:00020140       ?Paste@CEccListTable@@AAEXXZ 00421140 f   listtable.obj
 0001:00020460       ?showHideSort@CEccListTable@@QAEX_N@Z 00421460 f   listtable.obj
 0001:000204c0       ?erase@?$_Tree@V?$_Tmap_traits@V?$basic_string@DU?$char_traits@D@std@@V?$allocator@D@2@@std@@PAVWCheckBox@@U?$less@V?$basic_string@DU?$char_traits@D@std@@V?$allocator@D@2@@std@@@2@V?$allocator@U?$pair@$$CBV?$basic_string@DU?$char_traits@D@std@@V?$allocator@D@2@@std@@PAVWCheckBox@@@std@@@2@$0A@@std@@@std@@QAE?AViterator@12@V312@@Z 004214c0 f i listtable.obj
 0001:000207a0       ?_Erase@?$_Tree@V?$_Tmap_traits@V?$basic_string@DU?$char_traits@D@std@@V?$allocator@D@2@@std@@PAVWCheckBox@@U?$less@V?$basic_string@DU?$char_traits@D@std@@V?$allocator@D@2@@std@@@2@V?$allocator@U?$pair@$$CBV?$basic_string@DU?$char_traits@D@std@@V?$allocator@D@2@@std@@PAVWCheckBox@@@std@@@2@$0A@@std@@@std@@IAEXPAU_Node@?$_Tree_nod@V?$_Tmap_traits@V?$basic_string@DU?$char_traits@D@std@@V?$allocator@D@2@@std@@PAVWCheckBox@@U?$less@V?$basic_string@DU?$char_traits@D@std@@V?$allocator@D@2@@std@@@2@V?$allocator@U?$pair@$$CBV?$basic_string@DU?$char_traits@D@std@@V?$allocator@D@2@@std@@PAVWCheckBox@@@std@@@2@$0A@@std@@@2@@Z 004217a0 f i listtable.obj
 0001:000207e0       ?insert@?$_Tree@V?$_Tmap_traits@HPAVCEccButton@@U?$less@H@std@@V?$allocator@U?$pair@$$CBHPAVCEccButton@@@std@@@3@$0A@@std@@@std@@QAE?AU?$pair@Viterator@?$_Tree@V?$_Tmap_traits@HPAVCEccButton@@U?$less@H@std@@V?$allocator@U?$pair@$$CBHPAVCEccButton@@@std@@@3@$0A@@std@@@std@@_N@2@ABU?$pair@$$CBHPAVCEccButton@@@2@@Z 004217e0 f i listtable.obj
 0001:000208a0       ?erase@?$_Tree@V?$_Tmap_traits@HPAVCEccButton@@U?$less@H@std@@V?$allocator@U?$pair@$$CBHPAVCEccButton@@@std@@@3@$0A@@std@@@std@@QAE?AViterator@12@V312@0@Z 004218a0 f i listtable.obj
 0001:00020960       ?insert@?$_Tree@V?$_Tmap_traits@V?$basic_string@DU?$char_traits@D@std@@V?$allocator@D@2@@std@@PAVWCheckBox@@U?$less@V?$basic_string@DU?$char_traits@D@std@@V?$allocator@D@2@@std@@@2@V?$allocator@U?$pair@$$CBV?$basic_string@DU?$char_traits@D@std@@V?$allocator@D@2@@std@@PAVWCheckBox@@@std@@@2@$0A@@std@@@std@@QAE?AU?$pair@Viterator@?$_Tree@V?$_Tmap_traits@V?$basic_string@DU?$char_traits@D@std@@V?$allocator@D@2@@std@@PAVWCheckBox@@U?$less@V?$basic_string@DU?$char_traits@D@std@@V?$allocator@D@2@@std@@@2@V?$allocator@U?$pair@$$CBV?$basic_string@DU?$char_traits@D@std@@V?$allocator@D@2@@std@@PAVWCheckBox@@@std@@@2@$0A@@std@@@std@@_N@2@ABU?$pair@$$CBV?$basic_string@DU?$char_traits@D@std@@V?$allocator@D@2@@std@@PAVWCheckBox@@@2@@Z 00421960 f i listtable.obj
 0001:00020a40       ??4WCheckBox@@QAEAAV0@ABV0@@Z 00421a40 f i listtable.obj
 0001:00020ac0       ?showNoChild@CEccListTable@@QAEXXZ 00421ac0 f   listtable.obj
 0001:00020b20       ?Copy@CEccListTable@@AAEXXZ 00421b20 f   listtable.obj
 0001:00020d60       ?setOperatePurview@CEccListTable@@QAEXHH@Z 00421d60 f   listtable.obj
 0001:00020f70       ?insert@?$_Tree@V?$_Tmap_traits@HPAVCEccButton@@U?$less@H@std@@V?$allocator@U?$pair@$$CBHPAVCEccButton@@@std@@@3@$0A@@std@@@std@@QAE?AViterator@12@V312@ABU?$pair@$$CBHPAVCEccButton@@@2@@Z 00421f70 f i listtable.obj
 0001:000210e0       ?insert@?$_Tree@V?$_Tmap_traits@V?$basic_string@DU?$char_traits@D@std@@V?$allocator@D@2@@std@@PAVWCheckBox@@U?$less@V?$basic_string@DU?$char_traits@D@std@@V?$allocator@D@2@@std@@@2@V?$allocator@U?$pair@$$CBV?$basic_string@DU?$char_traits@D@std@@V?$allocator@D@2@@std@@PAVWCheckBox@@@std@@@2@$0A@@std@@@std@@QAE?AViterator@12@V312@ABU?$pair@$$CBV?$basic_string@DU?$char_traits@D@std@@V?$allocator@D@2@@std@@PAVWCheckBox@@@2@@Z 004220e0 f i listtable.obj
 0001:000212a0       ?erase@?$_Tree@V?$_Tmap_traits@V?$basic_string@DU?$char_traits@D@std@@V?$allocator@D@2@@std@@PAVWCheckBox@@U?$less@V?$basic_string@DU?$char_traits@D@std@@V?$allocator@D@2@@std@@@2@V?$allocator@U?$pair@$$CBV?$basic_string@DU?$char_traits@D@std@@V?$allocator@D@2@@std@@PAVWCheckBox@@@std@@@2@$0A@@std@@@std@@QAE?AViterator@12@V312@0@Z 004222a0 f i listtable.obj
 0001:00021360       ?setCols@CEccListTable@@QAEXAAV?$list@V?$basic_string@DU?$char_traits@D@std@@V?$allocator@D@2@@std@@V?$allocator@V?$basic_string@DU?$char_traits@D@std@@V?$allocator@D@2@@std@@@2@@std@@@Z 00422360 f   listtable.obj
 0001:000215e0       ?clearCheckList@CEccListTable@@QAEXXZ 004225e0 f   listtable.obj
 0001:00021620       ?Disable@CEccListTable@@AAEXXZ 00422620 f   listtable.obj
 0001:00022040       ?Enable@CEccListTable@@AAEXXZ 00423040 f   listtable.obj
 0001:00022a60       ?RefreshSel@CEccListTable@@AAEXXZ 00423a60 f   listtable.obj
 0001:00023260       ?Confirm@CEccListTable@@AAEXXZ 00424260 f   listtable.obj
 0001:00023a50       ??A?$map@HPAVCEccButton@@U?$less@H@std@@V?$allocator@U?$pair@$$CBHPAVCEccButton@@@std@@@3@@std@@QAEAAPAVCEccButton@@ABH@Z 00424a50 f i listtable.obj
 0001:00023ad0       ??A?$map@V?$basic_string@DU?$char_traits@D@std@@V?$allocator@D@2@@std@@PAVWCheckBox@@U?$less@V?$basic_string@DU?$char_traits@D@std@@V?$allocator@D@2@@std@@@2@V?$allocator@U?$pair@$$CBV?$basic_string@DU?$char_traits@D@std@@V?$allocator@D@2@@std@@PAVWCheckBox@@@std@@@2@@std@@QAEAAPAVWCheckBox@@ABV?$basic_string@DU?$char_traits@D@std@@V?$allocator@D@2@@1@@Z 00424ad0 f i listtable.obj
 0001:00023b70       ??1?$map@HPAVCEccButton@@U?$less@H@std@@V?$allocator@U?$pair@$$CBHPAVCEccButton@@@std@@@3@@std@@QAE@XZ 00424b70 f i listtable.obj
 0001:00023ba0       ?setOperaters@CEccListTable@@QAEXAAV?$list@HV?$allocator@H@std@@@std@@H@Z 00424ba0 f   listtable.obj
 0001:000242c0       ?addCheckList@CEccListTable@@QAEXV?$basic_string@DU?$char_traits@D@std@@V?$allocator@D@2@@std@@PAVWCheckBox@@@Z 004252c0 f   listtable.obj
 0001:00024320       ??1?$map@V?$basic_string@DU?$char_traits@D@std@@V?$allocator@D@2@@std@@PAVWCheckBox@@U?$less@V?$basic_string@DU?$char_traits@D@std@@V?$allocator@D@2@@std@@@2@V?$allocator@U?$pair@$$CBV?$basic_string@DU?$char_traits@D@std@@V?$allocator@D@2@@std@@PAVWCheckBox@@@std@@@2@@std@@QAE@XZ 00425320 f i listtable.obj
 0001:00024350       ??0CEccListTable@@QAE@PAVWContainerWidget@@_N111@Z 00425350 f   listtable.obj
 0001:00024490       ??_ECEccListTable@@UAEPAXI@Z 00425490 f i listtable.obj
 0001:00024490       ??_GCEccListTable@@UAEPAXI@Z 00425490 f i listtable.obj
 0001:000244b0       ??1CEccListTable@@UAE@XZ   004254b0 f i listtable.obj
 0001:00024590       ?buildSlotMap@CEccListTable@@MAEXAAV?$map@V?$basic_string@DU?$char_traits@D@std@@V?$allocator@D@2@@std@@PAVWSlotInstance_@@U?$less@V?$basic_string@DU?$char_traits@D@std@@V?$allocator@D@2@@std@@@2@V?$allocator@U?$pair@$$CBV?$basic_string@DU?$char_traits@D@std@@V?$allocator@D@2@@std@@PAVWSlotInstance_@@@std@@@2@@std@@@Z 00425590 f   listtablewt.obj
 0001:00024680       ?triggerSlot@CEccListTable@@MAE_NPAVWObject@@PBVWSlot_@@PAPAX@Z 00425680 f   listtablewt.obj
 0001:000247d0       ?buildSignalMap@CEccListTable@@MAEXAAV?$map@V?$basic_string@DU?$char_traits@D@std@@V?$allocator@D@2@@std@@PAVWSignalInstance_@@U?$less@V?$basic_string@DU?$char_traits@D@std@@V?$allocator@D@2@@std@@@2@V?$allocator@U?$pair@$$CBV?$basic_string@DU?$char_traits@D@std@@V?$allocator@D@2@@std@@PAVWSignalInstance_@@@std@@@2@@std@@@Z 004257d0 f   listtablewt.obj
 0001:00024890       ??0ecc_value_list@@QAE@ABV?$basic_string@DU?$char_traits@D@std@@V?$allocator@D@2@@std@@0@Z 00425890 f i paramitem.obj
 0001:000248f0       ?showTip@CEccParamItem@@QAEXXZ 004258f0 f   paramitem.obj
 0001:00024930       ?hideTip@CEccParamItem@@QAEXXZ 00425930 f   paramitem.obj
 0001:00024970       ?resetDynData@CEccParamItem@@QAEXXZ 00425970 f   paramitem.obj
 0001:000249c0       ?setDefaultValue@CEccParamItem@@QAEXXZ 004259c0 f   paramitem.obj
 0001:00024b20       ?EidtQueryString@CEccParamItem@@AAEXABV?$basic_string@DU?$char_traits@D@std@@V?$allocator@D@2@@std@@PAD@Z 00425b20 f   paramitem.obj
 0001:00024b70       ??1ecc_value_list@@QAE@XZ  00425b70 f i paramitem.obj
 0001:00024bc0       ?addNoSortList@CEccParamItem@@AAEXAAV?$basic_string@DU?$char_traits@D@std@@V?$allocator@D@2@@std@@0@Z 00425bc0 f   paramitem.obj
 0001:00024c90       ?getNoSortString@CEccParamItem@@AAEPBDXZ 00425c90 f   paramitem.obj
 0001:00024cd0       ??0ecc_value_list@@QAE@ABU0@@Z 00425cd0 f i paramitem.obj
 0001:00024d30       ?checkTextEdit@CEccParamItem@@AAE_NXZ 00425d30 f   paramitem.obj
 0001:00024d30       ?checkTextArea@CEccParamItem@@AAE_NXZ 00425d30 f   paramitem.obj
 0001:00024e10       ?_Buynode@?$list@Uecc_value_list@@V?$allocator@Uecc_value_list@@@std@@@std@@IAEPAU_Node@?$_List_nod@Uecc_value_list@@V?$allocator@Uecc_value_list@@@std@@@2@PAU342@0ABUecc_value_list@@@Z 00425e10 f i paramitem.obj
 0001:00024ea0       ?_Incsize@?$list@Uecc_value_list@@V?$allocator@Uecc_value_list@@@std@@@std@@IAEXI@Z 00425ea0 f i paramitem.obj
 0001:00024f40       ?checkComboBox@CEccParamItem@@AAE_NXZ 00425f40 f   paramitem.obj
 0001:000250b0       ?checkValue@CEccParamItem@@QAE_NXZ 004260b0 f   paramitem.obj
 0001:00025160       ?getStringValue@CEccParamItem@@QAEXAAV?$basic_string@DU?$char_traits@D@std@@V?$allocator@D@2@@std@@@Z 00426160 f   paramitem.obj
 0001:00025500       ?CreateControl@CEccParamItem@@QAEXPAVWTable@@AAV?$list@PAVWText@@V?$allocator@PAVWText@@@std@@@std@@_N@Z 00426500 f   paramitem.obj
 0001:00025dd0       ?ParserReturnInList@CEccParamItem@@AAEXPBDAAV?$list@V?$basic_string@DU?$char_traits@D@std@@V?$allocator@D@2@@std@@V?$allocator@V?$basic_string@DU?$char_traits@D@std@@V?$allocator@D@2@@std@@@2@@std@@@Z 00426dd0 f   paramitem.obj
 0001:00025e90       ?MakeValueList@CEccParamItem@@QAEXAAV?$list@Uecc_value_list@@V?$allocator@Uecc_value_list@@@std@@@std@@@Z 00426e90 f   paramitem.obj
 0001:00026110       ?setNoSortString@CEccParamItem@@AAEXAAV?$basic_string@DU?$char_traits@D@std@@V?$allocator@D@2@@std@@@Z 00427110 f   paramitem.obj
 0001:00026280       ?setStringValue@CEccParamItem@@QAEXAAV?$basic_string@DU?$char_traits@D@std@@V?$allocator@D@2@@std@@@Z 00427280 f   paramitem.obj
 0001:00026630       ?clearDynData@CEccParamItem@@QAEXXZ 00427630 f   paramitem.obj
 0001:000266e0       ?TidyReturnList@CEccParamItem@@AAEXAAV?$list@V?$basic_string@DU?$char_traits@D@std@@V?$allocator@D@2@@std@@V?$allocator@V?$basic_string@DU?$char_traits@D@std@@V?$allocator@D@2@@std@@@2@@std@@@Z 004276e0 f   paramitem.obj
 0001:00026ac0       ?enumOS@CEccParamItem@@QAEXXZ 00427ac0 f   paramitem.obj
 0001:00026ed0       ??1CEccParamItem@@QAE@XZ   00427ed0 f   paramitem.obj
 0001:00027110       ?enumProperty@CEccParamItem@@AAEXXZ 00428110 f   paramitem.obj
 0001:000279c0       ?enumDynValue@CEccParamItem@@QAEXABV?$basic_string@DU?$char_traits@D@std@@V?$allocator@D@2@@std@@0@Z 004289c0 f   paramitem.obj
 0001:00027e20       ??0CEccParamItem@@QAE@PAX@Z 00428e20 f   paramitem.obj
 0001:00028040       ??0CEccButton@@QAE@V?$basic_string@DU?$char_traits@D@std@@V?$allocator@D@2@@std@@00PAVWContainerWidget@@@Z 00429040 f   pushbutton.obj
 0001:000283d0       ?setText@CEccButton@@UAEXV?$basic_string@DU?$char_traits@D@std@@V?$allocator@D@2@@std@@@Z 004293d0 f   pushbutton.obj
 0001:000283d0       ?setText@CEccImportButton@@UAEXV?$basic_string@DU?$char_traits@D@std@@V?$allocator@D@2@@std@@@Z 004293d0 f   pushbutton.obj
 0001:00028440       ?setToolTip@CEccImportButton@@UAEXV?$basic_string@DU?$char_traits@D@std@@V?$allocator@D@2@@std@@@Z 00429440 f   pushbutton.obj
 0001:00028440       ?setToolTip@CEccButton@@UAEXV?$basic_string@DU?$char_traits@D@std@@V?$allocator@D@2@@std@@@Z 00429440 f   pushbutton.obj
 0001:000284c0       ??0CEccImportButton@@QAE@V?$basic_string@DU?$char_traits@D@std@@V?$allocator@D@2@@std@@00PAVWContainerWidget@@@Z 004294c0 f   pushbutton.obj
 0001:00028850       ??_GCEccStateDesc@@UAEPAXI@Z 00429850 f i statedesc.obj
 0001:00028850       ??_ECEccSVSEView@@UAEPAXI@Z 00429850 f i svseview.obj
 0001:00028850       ??_GCEccImportButton@@UAEPAXI@Z 00429850 f i pushbutton.obj
 0001:00028850       ??_GCEccSVSEView@@UAEPAXI@Z 00429850 f i svseview.obj
 0001:00028850       ??_ECEccImportButton@@UAEPAXI@Z 00429850 f i pushbutton.obj
 0001:00028850       ??_GCEccButton@@UAEPAXI@Z  00429850 f i pushbutton.obj
 0001:00028850       ??_GCEccGroupView@@UAEPAXI@Z 00429850 f i groupview.obj
 0001:00028850       ??_ECEccStateDesc@@UAEPAXI@Z 00429850 f i statedesc.obj
 0001:00028850       ??_ECEccButton@@UAEPAXI@Z  00429850 f i pushbutton.obj
 0001:00028850       ??_ECEccGenTitle@@UAEPAXI@Z 00429850 f i gentitle.obj
 0001:00028850       ??_GCEccGenTitle@@UAEPAXI@Z 00429850 f i gentitle.obj
 0001:00028850       ??_ECEccGroupView@@UAEPAXI@Z 00429850 f i groupview.obj
 0001:00028870       ??1CEccSVSEView@@UAE@XZ    00429870 f i svseview.obj
 0001:00028870       ??1CEccImportButton@@UAE@XZ 00429870 f i pushbutton.obj
 0001:00028870       ??1CEccGroupView@@UAE@XZ   00429870 f i groupview.obj
 0001:00028870       ??1CEccStateDesc@@UAE@XZ   00429870 f i statedesc.obj
 0001:00028870       ??1CEccButton@@UAE@XZ      00429870 f i pushbutton.obj
 0001:00028870       ??1CEccGenTitle@@UAE@XZ    00429870 f i gentitle.obj
 0001:00028880       ?buildSlotMap@CEccButton@@MAEXAAV?$map@V?$basic_string@DU?$char_traits@D@std@@V?$allocator@D@2@@std@@PAVWSlotInstance_@@U?$less@V?$basic_string@DU?$char_traits@D@std@@V?$allocator@D@2@@std@@@2@V?$allocator@U?$pair@$$CBV?$basic_string@DU?$char_traits@D@std@@V?$allocator@D@2@@std@@PAVWSlotInstance_@@@std@@@2@@std@@@Z 00429880 f   pushbuttonwt.obj
 0001:00028970       ?triggerSlot@CEccButton@@MAE_NPAVWObject@@PBVWSlot_@@PAPAX@Z 00429970 f   pushbuttonwt.obj
 0001:00028970       ?triggerSlot@CEccSVSEView@@MAE_NPAVWObject@@PBVWSlot_@@PAPAX@Z 00429970 f   svseviewwt.obj
 0001:00028970       ?triggerSlot@CEccRightView@@MAE_NPAVWObject@@PBVWSlot_@@PAPAX@Z 00429970 f   rightviewwt.obj
 0001:00028970       ?triggerSlot@WTableCell@@MAE_NPAVWObject@@PBVWSlot_@@PAPAX@Z 00429970 f   libwt:WTableCell.obj
 0001:00028970       ?triggerSlot@CEccStateDesc@@MAE_NPAVWObject@@PBVWSlot_@@PAPAX@Z 00429970 f   statedescwt.obj
 0001:00028970       ?triggerSlot@CEccGroupView@@MAE_NPAVWObject@@PBVWSlot_@@PAPAX@Z 00429970 f   groupviewwt.obj
 0001:00028970       ?triggerSlot@CEccMonitorView@@MAE_NPAVWObject@@PBVWSlot_@@PAPAX@Z 00429970 f   monitorviewwt.obj
 0001:00028970       ?triggerSlot@CEccGenTitle@@MAE_NPAVWObject@@PBVWSlot_@@PAPAX@Z 00429970 f   gentitlewt.obj
 0001:00028970       ?triggerSlot@WTableRow@@MAE_NPAVWObject@@PBVWSlot_@@PAPAX@Z 00429970 f   libwt:WTable.obj
 0001:00028970       ?triggerSlot@CEccImportButton@@MAE_NPAVWObject@@PBVWSlot_@@PAPAX@Z 00429970 f   pushbuttonwt.obj
 0001:00028980       ?undoTriggerSlot@CEccBaseTable@@MAE_NPBVWSlot_@@PAPAX@Z 00429980 f   ecctablewt.obj
 0001:00028980       ?undoTriggerSlot@CEccEidtSVSE@@MAE_NPBVWSlot_@@PAPAX@Z 00429980 f   addsvsewt.obj
 0001:00028980       ?undoTriggerSlot@CEccGenTitle@@MAE_NPBVWSlot_@@PAPAX@Z 00429980 f   gentitlewt.obj
 0001:00028980       ?undoTriggerSlot@CEccMainView@@MAE_NPBVWSlot_@@PAPAX@Z 00429980 f   mainviewwt.obj
 0001:00028980       ?undoTriggerSlot@WTableRow@@MAE_NPBVWSlot_@@PAPAX@Z 00429980 f   libwt:WTable.obj
 0001:00028980       ?undoTriggerSlot@CEccStateDesc@@MAE_NPBVWSlot_@@PAPAX@Z 00429980 f   statedescwt.obj
 0001:00028980       ?undoTriggerSlot@CEccImportButton@@MAE_NPBVWSlot_@@PAPAX@Z 00429980 f   pushbuttonwt.obj
 0001:00028980       ?undoTriggerSlot@CEccButton@@MAE_NPBVWSlot_@@PAPAX@Z 00429980 f   pushbuttonwt.obj
 0001:00028980       ?undoTriggerSlot@CEccRightView@@MAE_NPBVWSlot_@@PAPAX@Z 00429980 f   rightviewwt.obj
 0001:00028980       ?undoTriggerSlot@SVConditionParam@@MAE_NPBVWSlot_@@PAPAX@Z 00429980 f   conditionparamwt.obj
 0001:00028980       ?undoTriggerSlot@CEccMonitorView@@MAE_NPBVWSlot_@@PAPAX@Z 00429980 f   monitorviewwt.obj
 0001:00028980       ?undoTriggerSlot@CEccSVSEView@@MAE_NPBVWSlot_@@PAPAX@Z 00429980 f   svseviewwt.obj
 0001:00028980       ?undoTriggerSlot@CEccListTable@@MAE_NPBVWSlot_@@PAPAX@Z 00429980 f   listtablewt.obj
 0001:00028980       ?undoTriggerSlot@CEccGroupView@@MAE_NPBVWSlot_@@PAPAX@Z 00429980 f   groupviewwt.obj
 0001:00028980       ?undoTriggerSlot@CEccTreeView@@MAE_NPBVWSlot_@@PAPAX@Z 00429980 f   treeviewwt.obj
 0001:00028980       ?undoTriggerSlot@CEccAdvanceTable@@MAE_NPBVWSlot_@@PAPAX@Z 00429980 f   advanceparamwt.obj
 0001:00028980       ?undoTriggerSlot@WStackedWidget@@MAE_NPBVWSlot_@@PAPAX@Z 00429980 f   libwt:WStackedWidget.obj
 0001:00028980       ?undoTriggerSlot@WTableCell@@MAE_NPBVWSlot_@@PAPAX@Z 00429980 f   libwt:WTableCell.obj
 0001:00028990       ?buildSlotMap@CEccImportButton@@MAEXAAV?$map@V?$basic_string@DU?$char_traits@D@std@@V?$allocator@D@2@@std@@PAVWSlotInstance_@@U?$less@V?$basic_string@DU?$char_traits@D@std@@V?$allocator@D@2@@std@@@2@V?$allocator@U?$pair@$$CBV?$basic_string@DU?$char_traits@D@std@@V?$allocator@D@2@@std@@PAVWSlotInstance_@@@std@@@2@@std@@@Z 00429990 f   pushbuttonwt.obj
 0001:00028a80       ?buildSignalMap@CEccButton@@MAEXAAV?$map@V?$basic_string@DU?$char_traits@D@std@@V?$allocator@D@2@@std@@PAVWSignalInstance_@@U?$less@V?$basic_string@DU?$char_traits@D@std@@V?$allocator@D@2@@std@@@2@V?$allocator@U?$pair@$$CBV?$basic_string@DU?$char_traits@D@std@@V?$allocator@D@2@@std@@PAVWSignalInstance_@@@std@@@2@@std@@@Z 00429a80 f   pushbuttonwt.obj
 0001:00028b40       ?buildSignalMap@CEccImportButton@@MAEXAAV?$map@V?$basic_string@DU?$char_traits@D@std@@V?$allocator@D@2@@std@@PAVWSignalInstance_@@U?$less@V?$basic_string@DU?$char_traits@D@std@@V?$allocator@D@2@@std@@@2@V?$allocator@U?$pair@$$CBV?$basic_string@DU?$char_traits@D@std@@V?$allocator@D@2@@std@@PAVWSignalInstance_@@@std@@@2@@std@@@Z 00429b40 f   pushbuttonwt.obj
 0001:00028c00       ??_FWStackedWidget@@QAEXXZ 00429c00 f i rightview.obj
 0001:00028e90       ?initForm@CEccRightView@@AAEXXZ 00429e90 f   rightview.obj
 0001:00029100       ?changeActive@CEccRightView@@QAEXPBVCEccTreeNode@@@Z 0042a100 f   rightview.obj
 0001:00029280       ?showSVSEView@CEccRightView@@QAEXXZ 0042a280 f   rightview.obj
 0001:00029330       ?showAddGroupForm@CEccRightView@@SAXV?$basic_string@DU?$char_traits@D@std@@V?$allocator@D@2@@std@@@Z 0042a330 f   rightview.obj
 0001:00029460       ?UpdateData@CEccRightView@@SAXPBVCEccTreeNode@@@Z 0042a460 f   rightview.obj
 0001:000294a0       ?showAddDevice1st@CEccRightView@@SAXV?$basic_string@DU?$char_traits@D@std@@V?$allocator@D@2@@std@@@Z 0042a4a0 f   rightview.obj
 0001:000295d0       ?showAddDevice2nd@CEccRightView@@SAXV?$basic_string@DU?$char_traits@D@std@@V?$allocator@D@2@@std@@0@Z 0042a5d0 f   rightview.obj
 0001:00029700       ?showAddDevice3rd@CEccRightView@@SAXV?$basic_string@DU?$char_traits@D@std@@V?$allocator@D@2@@std@@00000@Z 0042a700 f   rightview.obj
 0001:00029900       ?showEditMonitor@CEccRightView@@QAEXABV?$basic_string@DU?$char_traits@D@std@@V?$allocator@D@2@@std@@@Z 0042a900 f   rightview.obj
 0001:000299d0       ?showBatchAddForm@CEccRightView@@SAXAAV?$list@Uecc_value_list@@V?$allocator@Uecc_value_list@@@std@@@std@@V?$basic_string@DU?$char_traits@D@std@@V?$allocator@D@2@@3@@Z 0042a9d0 f   rightview.obj
 0001:00029ae0       ?AddMonitorBySel@CEccRightView@@SA?AV?$basic_string@DU?$char_traits@D@std@@V?$allocator@D@2@@std@@AAV?$list@Uecc_value_list@@V?$allocator@Uecc_value_list@@@std@@@3@@Z 0042aae0 f   rightview.obj
 0001:00029b20       ?showSortForm@CEccRightView@@SAXV?$basic_string@DU?$char_traits@D@std@@V?$allocator@D@2@@std@@H@Z 0042ab20 f   rightview.obj
 0001:00029c50       ?refreshCurrentNode@CEccRightView@@QAEXPBVCEccTreeNode@@@Z 0042ac50 f   rightview.obj
 0001:00029c70       ?showEditForm@CEccRightView@@QAEXABV?$basic_string@DU?$char_traits@D@std@@V?$allocator@D@2@@std@@AA_N@Z 0042ac70 f   rightview.obj
 0001:0002a030       ?showAddMonitor1st@CEccRightView@@SAXV?$basic_string@DU?$char_traits@D@std@@V?$allocator@D@2@@std@@00@Z 0042b030 f   rightview.obj
 0001:0002a1b0       ?showAddMonitor2nd@CEccRightView@@SAXHV?$basic_string@DU?$char_traits@D@std@@V?$allocator@D@2@@std@@0@Z 0042b1b0 f   rightview.obj
 0001:0002a2f0       ?isNewMonitorListEmpty@CEccRightView@@QAE_NXZ 0042b2f0 f   rightview.obj
 0001:0002a310       ??1WStackedWidget@@UAE@XZ  0042b310 f i rightview.obj
 0001:0002a370       ??4WStackedWidget@@QAEAAV0@ABV0@@Z 0042b370 f i rightview.obj
 0001:0002a3b0       ?InsertNewMonitorList@CEccRightView@@SAXABV?$basic_string@DU?$char_traits@D@std@@V?$allocator@D@2@@std@@@Z 0042b3b0 f   rightview.obj
 0001:0002a3f0       ?refreshNewMonitors@CEccRightView@@QAE?AV?$basic_string@DU?$char_traits@D@std@@V?$allocator@D@2@@std@@XZ 0042b3f0 f   rightview.obj
 0001:0002aa00       ?clearNewMonitorList@CEccRightView@@QAEXXZ 0042ba00 f   rightview.obj
 0001:0002aa20       ??0CEccRightView@@QAE@PAVWContainerWidget@@@Z 0042ba20 f   rightview.obj
 0001:0002aae0       ?showMainForm@CEccRightView@@SAXXZ 0042bae0 f   rightview.obj
 0001:0002ac30       ?showNewDevice@CEccRightView@@SAXV?$basic_string@DU?$char_traits@D@std@@V?$allocator@D@2@@std@@@Z 0042bc30 f   rightview.obj
 0001:0002ae40       ??_ECEccRightView@@UAEPAXI@Z 0042be40 f i rightview.obj
 0001:0002ae40       ??_GCEccRightView@@UAEPAXI@Z 0042be40 f i rightview.obj
 0001:0002ae60       ??1CEccRightView@@UAE@XZ   0042be60 f i rightview.obj
 0001:0002aed0       ?buildSlotMap@CEccRightView@@MAEXAAV?$map@V?$basic_string@DU?$char_traits@D@std@@V?$allocator@D@2@@std@@PAVWSlotInstance_@@U?$less@V?$basic_string@DU?$char_traits@D@std@@V?$allocator@D@2@@std@@@2@V?$allocator@U?$pair@$$CBV?$basic_string@DU?$char_traits@D@std@@V?$allocator@D@2@@std@@PAVWSlotInstance_@@@std@@@2@@std@@@Z 0042bed0 f   rightviewwt.obj
 0001:0002afc0       ?buildSignalMap@CEccRightView@@MAEXAAV?$map@V?$basic_string@DU?$char_traits@D@std@@V?$allocator@D@2@@std@@PAVWSignalInstance_@@U?$less@V?$basic_string@DU?$char_traits@D@std@@V?$allocator@D@2@@std@@@2@V?$allocator@U?$pair@$$CBV?$basic_string@DU?$char_traits@D@std@@V?$allocator@D@2@@std@@PAVWSignalInstance_@@@std@@@2@@std@@@Z 0042bfc0 f   rightviewwt.obj
 0001:0002b080       ?createListTitle@CEccSortTable@@AAEXXZ 0042c080 f   sortlist.obj
 0001:0002b320       ?createOperate@CEccSortTable@@AAEXXZ 0042c320 f   sortlist.obj
 0001:0002b5b0       ?initForm@CEccSortTable@@EAEX_N@Z 0042c5b0 f   sortlist.obj
 0001:0002b7c0       ??1?$pair@$$CBHV?$basic_string@DU?$char_traits@D@std@@V?$allocator@D@2@@std@@@std@@QAE@XZ 0042c7c0 f i sortlist.obj
 0001:0002b7c0       ??1?$pair@QAVWLineEdit@@V?$basic_string@DU?$char_traits@D@std@@V?$allocator@D@2@@std@@@std@@QAE@XZ 0042c7c0 f i sortlist.obj
 0001:0002b7c0       ??1?$pair@QAVWObject@@V?$basic_string@DU?$char_traits@D@std@@V?$allocator@D@2@@std@@@std@@QAE@XZ 0042c7c0 f i libwt:WSignalMapper.obj
 0001:0002b7c0       ??1?$pair@$$CBW4Property@Wt@@V?$basic_string@DU?$char_traits@D@std@@V?$allocator@D@2@@std@@@std@@QAE@XZ 0042c7c0 f i libwt:WWebWidget.obj
 0001:0002b7d0       ?_Min@?$_Tree@V?$_Tmap_traits@HVCEccTreeGroup@@U?$less@H@std@@V?$allocator@U?$pair@$$CBHVCEccTreeGroup@@@std@@@3@$0A@@std@@@std@@KAPAU_Node@?$_Tree_nod@V?$_Tmap_traits@HVCEccTreeGroup@@U?$less@H@std@@V?$allocator@U?$pair@$$CBHVCEccTreeGroup@@@std@@@3@$0A@@std@@@2@PAU342@@Z 0042c7d0 f i sortlist.obj
 0001:0002b7f0       ?_Min@?$_Tree@V?$_Tmap_traits@HVCEccTreeDevice@@U?$less@H@std@@V?$allocator@U?$pair@$$CBHVCEccTreeDevice@@@std@@@3@$0A@@std@@@std@@KAPAU_Node@?$_Tree_nod@V?$_Tmap_traits@HVCEccTreeDevice@@U?$less@H@std@@V?$allocator@U?$pair@$$CBHVCEccTreeDevice@@@std@@@3@$0A@@std@@@2@PAU342@@Z 0042c7f0 f i sortlist.obj
 0001:0002b810       ?_Min@?$_Tree@V?$_Tmap_traits@V?$basic_string@DU?$char_traits@D@std@@V?$allocator@D@2@@std@@_NU?$less@V?$basic_string@DU?$char_traits@D@std@@V?$allocator@D@2@@std@@@2@V?$allocator@U?$pair@$$CBV?$basic_string@DU?$char_traits@D@std@@V?$allocator@D@2@@std@@_N@std@@@2@$0A@@std@@@std@@KAPAU_Node@?$_Tree_nod@V?$_Tmap_traits@V?$basic_string@DU?$char_traits@D@std@@V?$allocator@D@2@@std@@_NU?$less@V?$basic_string@DU?$char_traits@D@std@@V?$allocator@D@2@@std@@@2@V?$allocator@U?$pair@$$CBV?$basic_string@DU?$char_traits@D@std@@V?$allocator@D@2@@std@@_N@std@@@2@$0A@@std@@@2@PAU342@@Z 0042c810 f i User.obj
 0001:0002b810       ?_Min@?$_Tree@V?$_Tmap_traits@V?$basic_string@DU?$char_traits@D@std@@V?$allocator@D@2@@std@@PAVWSlotInstance_@@U?$less@V?$basic_string@DU?$char_traits@D@std@@V?$allocator@D@2@@std@@@2@V?$allocator@U?$pair@$$CBV?$basic_string@DU?$char_traits@D@std@@V?$allocator@D@2@@std@@PAVWSlotInstance_@@@std@@@2@$0A@@std@@@std@@KAPAU_Node@?$_Tree_nod@V?$_Tmap_traits@V?$basic_string@DU?$char_traits@D@std@@V?$allocator@D@2@@std@@PAVWSlotInstance_@@U?$less@V?$basic_string@DU?$char_traits@D@std@@V?$allocator@D@2@@std@@@2@V?$allocator@U?$pair@$$CBV?$basic_string@DU?$char_traits@D@std@@V?$allocator@D@2@@std@@PAVWSlotInstance_@@@std@@@2@$0A@@std@@@2@PAU342@@Z 0042c810 f i libwt:WWebWidget.obj
 0001:0002b810       ?_Min@?$_Tree@V?$_Tmap_traits@V?$basic_string@DU?$char_traits@D@std@@V?$allocator@D@2@@std@@PAVWCssRule@@U?$less@V?$basic_string@DU?$char_traits@D@std@@V?$allocator@D@2@@std@@@2@V?$allocator@U?$pair@$$CBV?$basic_string@DU?$char_traits@D@std@@V?$allocator@D@2@@std@@PAVWCssRule@@@std@@@2@$0A@@std@@@std@@KAPAU_Node@?$_Tree_nod@V?$_Tmap_traits@V?$basic_string@DU?$char_traits@D@std@@V?$allocator@D@2@@std@@PAVWCssRule@@U?$less@V?$basic_string@DU?$char_traits@D@std@@V?$allocator@D@2@@std@@@2@V?$allocator@U?$pair@$$CBV?$basic_string@DU?$char_traits@D@std@@V?$allocator@D@2@@std@@PAVWCssRule@@@std@@@2@$0A@@std@@@2@PAU342@@Z 0042c810 f i main.obj
 0001:0002b810       ?_Min@?$_Tree@V?$_Tmap_traits@HV?$basic_string@DU?$char_traits@D@std@@V?$allocator@D@2@@std@@U?$less@H@2@V?$allocator@U?$pair@$$CBHV?$basic_string@DU?$char_traits@D@std@@V?$allocator@D@2@@std@@@std@@@2@$0A@@std@@@std@@KAPAU_Node@?$_Tree_nod@V?$_Tmap_traits@HV?$basic_string@DU?$char_traits@D@std@@V?$allocator@D@2@@std@@U?$less@H@2@V?$allocator@U?$pair@$$CBHV?$basic_string@DU?$char_traits@D@std@@V?$allocator@D@2@@std@@@std@@@2@$0A@@std@@@2@PAU342@@Z 0042c810 f i sortlist.obj
 0001:0002b810       ?_Min@?$_Tree@V?$_Tmap_traits@V?$basic_string@DU?$char_traits@D@std@@V?$allocator@D@2@@std@@KU?$less@V?$basic_string@DU?$char_traits@D@std@@V?$allocator@D@2@@std@@@2@V?$allocator@U?$pair@$$CBV?$basic_string@DU?$char_traits@D@std@@V?$allocator@D@2@@std@@K@std@@@2@$0A@@std@@@std@@KAPAU_Node@?$_Tree_nod@V?$_Tmap_traits@V?$basic_string@DU?$char_traits@D@std@@V?$allocator@D@2@@std@@KU?$less@V?$basic_string@DU?$char_traits@D@std@@V?$allocator@D@2@@std@@@2@V?$allocator@U?$pair@$$CBV?$basic_string@DU?$char_traits@D@std@@V?$allocator@D@2@@std@@K@std@@@2@$0A@@std@@@2@PAU342@@Z 0042c810 f i libboost_regex-vc71-mt-1_33_1:instances.obj
 0001:0002b810       ?_Min@?$_Tree@V?$_Tmap_traits@V?$basic_string@DU?$char_traits@D@std@@V?$allocator@D@2@@std@@PAUScopeFunc@@U?$less@V?$basic_string@DU?$char_traits@D@std@@V?$allocator@D@2@@std@@@2@V?$allocator@U?$pair@$$CBV?$basic_string@DU?$char_traits@D@std@@V?$allocator@D@2@@std@@PAUScopeFunc@@@std@@@2@$0A@@std@@@std@@KAPAU_Node@?$_Tree_nod@V?$_Tmap_traits@V?$basic_string@DU?$char_traits@D@std@@V?$allocator@D@2@@std@@PAUScopeFunc@@U?$less@V?$basic_string@DU?$char_traits@D@std@@V?$allocator@D@2@@std@@@2@V?$allocator@U?$pair@$$CBV?$basic_string@DU?$char_traits@D@std@@V?$allocator@D@2@@std@@PAUScopeFunc@@@std@@@2@$0A@@std@@@2@PAU342@@Z 0042c810 f i User.obj
 0001:0002b810       ?_Min@?$_Tree@V?$_Tmap_traits@PAVWObject@@V?$basic_string@DU?$char_traits@D@std@@V?$allocator@D@2@@std@@U?$less@PAVWObject@@@3@V?$allocator@U?$pair@QAVWObject@@V?$basic_string@DU?$char_traits@D@std@@V?$allocator@D@2@@std@@@std@@@3@$0A@@std@@@std@@KAPAU_Node@?$_Tree_nod@V?$_Tmap_traits@PAVWObject@@V?$basic_string@DU?$char_traits@D@std@@V?$allocator@D@2@@std@@U?$less@PAVWObject@@@3@V?$allocator@U?$pair@QAVWObject@@V?$basic_string@DU?$char_traits@D@std@@V?$allocator@D@2@@std@@@std@@@3@$0A@@std@@@2@PAU342@@Z 0042c810 f i libwt:WSignalMapper.obj
 0001:0002b810       ?_Min@?$_Tree@V?$_Tmap_traits@W4Property@Wt@@V?$basic_string@DU?$char_traits@D@std@@V?$allocator@D@2@@std@@U?$less@W4Property@Wt@@@4@V?$allocator@U?$pair@$$CBW4Property@Wt@@V?$basic_string@DU?$char_traits@D@std@@V?$allocator@D@2@@std@@@std@@@4@$0A@@std@@@std@@KAPAU_Node@?$_Tree_nod@V?$_Tmap_traits@W4Property@Wt@@V?$basic_string@DU?$char_traits@D@std@@V?$allocator@D@2@@std@@U?$less@W4Property@Wt@@@4@V?$allocator@U?$pair@$$CBW4Property@Wt@@V?$basic_string@DU?$char_traits@D@std@@V?$allocator@D@2@@std@@@std@@@4@$0A@@std@@@2@PAU342@@Z 0042c810 f i libwt:WWebWidget.obj
 0001:0002b810       ?_Min@?$_Tree@V?$_Tmap_traits@V?$basic_string@DU?$char_traits@D@std@@V?$allocator@D@2@@std@@PAVWSignalInstance_@@U?$less@V?$basic_string@DU?$char_traits@D@std@@V?$allocator@D@2@@std@@@2@V?$allocator@U?$pair@$$CBV?$basic_string@DU?$char_traits@D@std@@V?$allocator@D@2@@std@@PAVWSignalInstance_@@@std@@@2@$0A@@std@@@std@@KAPAU_Node@?$_Tree_nod@V?$_Tmap_traits@V?$basic_string@DU?$char_traits@D@std@@V?$allocator@D@2@@std@@PAVWSignalInstance_@@U?$less@V?$basic_string@DU?$char_traits@D@std@@V?$allocator@D@2@@std@@@2@V?$allocator@U?$pair@$$CBV?$basic_string@DU?$char_traits@D@std@@V?$allocator@D@2@@std@@PAVWSignalInstance_@@@std@@@2@$0A@@std@@@2@PAU342@@Z 0042c810 f i mainviewwt.obj
 0001:0002b810       ?_Min@?$_Tree@V?$_Tmap_traits@PAVWLineEdit@@V?$basic_string@DU?$char_traits@D@std@@V?$allocator@D@2@@std@@U?$less@PAVWLineEdit@@@3@V?$allocator@U?$pair@QAVWLineEdit@@V?$basic_string@DU?$char_traits@D@std@@V?$allocator@D@2@@std@@@std@@@3@$0A@@std@@@std@@KAPAU_Node@?$_Tree_nod@V?$_Tmap_traits@PAVWLineEdit@@V?$basic_string@DU?$char_traits@D@std@@V?$allocator@D@2@@std@@U?$less@PAVWLineEdit@@@3@V?$allocator@U?$pair@QAVWLineEdit@@V?$basic_string@DU?$char_traits@D@std@@V?$allocator@D@2@@std@@@std@@@3@$0A@@std@@@2@PAU342@@Z 0042c810 f i sortlist.obj
 0001:0002b810       ?_Min@?$_Tree@V?$_Tmap_traits@V?$basic_string@DU?$char_traits@D@std@@V?$allocator@D@2@@std@@PAVWCheckBox@@U?$less@V?$basic_string@DU?$char_traits@D@std@@V?$allocator@D@2@@std@@@2@V?$allocator@U?$pair@$$CBV?$basic_string@DU?$char_traits@D@std@@V?$allocator@D@2@@std@@PAVWCheckBox@@@std@@@2@$0A@@std@@@std@@KAPAU_Node@?$_Tree_nod@V?$_Tmap_traits@V?$basic_string@DU?$char_traits@D@std@@V?$allocator@D@2@@std@@PAVWCheckBox@@U?$less@V?$basic_string@DU?$char_traits@D@std@@V?$allocator@D@2@@std@@@2@V?$allocator@U?$pair@$$CBV?$basic_string@DU?$char_traits@D@std@@V?$allocator@D@2@@std@@PAVWCheckBox@@@std@@@2@$0A@@std@@@2@PAU342@@Z 0042c810 f i listtable.obj
 0001:0002b830       ?_Lrotate@?$_Tree@V?$_Tmap_traits@PAVWObject@@PAVWWidget@@U?$less@PAVWObject@@@std@@V?$allocator@U?$pair@QAVWObject@@PAVWWidget@@@std@@@4@$0A@@std@@@std@@IAEXPAU_Node@?$_Tree_nod@V?$_Tmap_traits@PAVWObject@@PAVWWidget@@U?$less@PAVWObject@@@std@@V?$allocator@U?$pair@QAVWObject@@PAVWWidget@@@std@@@4@$0A@@std@@@2@@Z 0042c830 f i libwt:WSignalMapper.obj
 0001:0002b830       ?_Lrotate@?$_Tree@V?$_Tmap_traits@HPAVCEccButton@@U?$less@H@std@@V?$allocator@U?$pair@$$CBHPAVCEccButton@@@std@@@3@$0A@@std@@@std@@IAEXPAU_Node@?$_Tree_nod@V?$_Tmap_traits@HPAVCEccButton@@U?$less@H@std@@V?$allocator@U?$pair@$$CBHPAVCEccButton@@@std@@@3@$0A@@std@@@2@@Z 0042c830 f i listtable.obj
 0001:0002b830       ?_Lrotate@?$_Tree@V?$_Tmap_traits@KViterator@?$list@U?$pair@V?$shared_ptr@V?$w32_regex_traits_implementation@D@re_detail@boost@@@boost@@PBK@std@@V?$allocator@U?$pair@V?$shared_ptr@V?$w32_regex_traits_implementation@D@re_detail@boost@@@boost@@PBK@std@@@2@@std@@U?$less@K@3@V?$allocator@U?$pair@$$CBKViterator@?$list@U?$pair@V?$shared_ptr@V?$w32_regex_traits_implementation@D@re_detail@boost@@@boost@@PBK@std@@V?$allocator@U?$pair@V?$shared_ptr@V?$w32_regex_traits_implementation@D@re_detail@boost@@@boost@@PBK@std@@@2@@std@@@std@@@3@$0A@@std@@@std@@IAEXPAU_Node@?$_Tree_nod@V?$_Tmap_traits@KViterator@?$list@U?$pair@V?$shared_ptr@V?$w32_regex_traits_implementation@D@re_detail@boost@@@boost@@PBK@std@@V?$allocator@U?$pair@V?$shared_ptr@V?$w32_regex_traits_implementation@D@re_detail@boost@@@boost@@PBK@std@@@2@@std@@U?$less@K@3@V?$allocator@U?$pair@$$CBKViterator@?$list@U?$pair@V?$shared_ptr@V?$w32_regex_traits_implementation@D@re_detail@boost@@@boost@@PBK@std@@V?$allocator@U?$pair@V?$shared_ptr@V?$w32_regex_traits_implementation@D@re_detail@boost@@@boost@@PBK@std@@@2@@std@@@std@@@3@$0A@@std@@@2@@Z 0042c830 f i libboost_regex-vc71-mt-1_33_1:instances.obj
 0001:0002b830       ?_Lrotate@?$_Tree@V?$_Tmap_traits@HPAVWLineEdit@@U?$less@H@std@@V?$allocator@U?$pair@$$CBHPAVWLineEdit@@@std@@@3@$0A@@std@@@std@@IAEXPAU_Node@?$_Tree_nod@V?$_Tmap_traits@HPAVWLineEdit@@U?$less@H@std@@V?$allocator@U?$pair@$$CBHPAVWLineEdit@@@std@@@3@$0A@@std@@@2@@Z 0042c830 f i sortlist.obj
 0001:0002b830       ?_Lrotate@?$_Tree@V?$_Tmap_traits@PAVWObject@@HU?$less@PAVWObject@@@std@@V?$allocator@U?$pair@QAVWObject@@H@std@@@3@$0A@@std@@@std@@IAEXPAU_Node@?$_Tree_nod@V?$_Tmap_traits@PAVWObject@@HU?$less@PAVWObject@@@std@@V?$allocator@U?$pair@QAVWObject@@H@std@@@3@$0A@@std@@@2@@Z 0042c830 f i libwt:WSignalMapper.obj
 0001:0002b890       ?_Inc@const_iterator@?$_Tree@V?$_Tmap_traits@HVCEccTreeDevice@@U?$less@H@std@@V?$allocator@U?$pair@$$CBHVCEccTreeDevice@@@std@@@3@$0A@@std@@@std@@QAEXXZ 0042c890 f i sortlist.obj
 0001:0002b8f0       ?_Inc@const_iterator@?$_Tree@V?$_Tmap_traits@HVCEccTreeGroup@@U?$less@H@std@@V?$allocator@U?$pair@$$CBHVCEccTreeGroup@@@std@@@3@$0A@@std@@@std@@QAEXXZ 0042c8f0 f i sortlist.obj
 0001:0002b950       ?_Erase@?$_Tree@V?$_Tmap_traits@HPAVWLineEdit@@U?$less@H@std@@V?$allocator@U?$pair@$$CBHPAVWLineEdit@@@std@@@3@$0A@@std@@@std@@IAEXPAU_Node@?$_Tree_nod@V?$_Tmap_traits@HPAVWLineEdit@@U?$less@H@std@@V?$allocator@U?$pair@$$CBHPAVWLineEdit@@@std@@@3@$0A@@std@@@2@@Z 0042c950 f i sortlist.obj
 0001:0002b990       ?_Buynode@?$_Tree@V?$_Tmap_traits@HV?$basic_string@DU?$char_traits@D@std@@V?$allocator@D@2@@std@@U?$less@H@2@V?$allocator@U?$pair@$$CBHV?$basic_string@DU?$char_traits@D@std@@V?$allocator@D@2@@std@@@std@@@2@$0A@@std@@@std@@IAEPAU_Node@?$_Tree_nod@V?$_Tmap_traits@HV?$basic_string@DU?$char_traits@D@std@@V?$allocator@D@2@@std@@U?$less@H@2@V?$allocator@U?$pair@$$CBHV?$basic_string@DU?$char_traits@D@std@@V?$allocator@D@2@@std@@@std@@@2@$0A@@std@@@2@PAU342@00ABU?$pair@$$CBHV?$basic_string@DU?$char_traits@D@std@@V?$allocator@D@2@@std@@@2@D@Z 0042c990 f i sortlist.obj
 0001:0002b990       ?_Buynode@?$_Tree@V?$_Tmap_traits@PAVWLineEdit@@V?$basic_string@DU?$char_traits@D@std@@V?$allocator@D@2@@std@@U?$less@PAVWLineEdit@@@3@V?$allocator@U?$pair@QAVWLineEdit@@V?$basic_string@DU?$char_traits@D@std@@V?$allocator@D@2@@std@@@std@@@3@$0A@@std@@@std@@IAEPAU_Node@?$_Tree_nod@V?$_Tmap_traits@PAVWLineEdit@@V?$basic_string@DU?$char_traits@D@std@@V?$allocator@D@2@@std@@U?$less@PAVWLineEdit@@@3@V?$allocator@U?$pair@QAVWLineEdit@@V?$basic_string@DU?$char_traits@D@std@@V?$allocator@D@2@@std@@@std@@@3@$0A@@std@@@2@PAU342@00ABU?$pair@QAVWLineEdit@@V?$basic_string@DU?$char_traits@D@std@@V?$allocator@D@2@@std@@@2@D@Z 0042c990 f i sortlist.obj
 0001:0002ba30       ?find@?$_Tree@V?$_Tmap_traits@PAVWLineEdit@@V?$basic_string@DU?$char_traits@D@std@@V?$allocator@D@2@@std@@U?$less@PAVWLineEdit@@@3@V?$allocator@U?$pair@QAVWLineEdit@@V?$basic_string@DU?$char_traits@D@std@@V?$allocator@D@2@@std@@@std@@@3@$0A@@std@@@std@@QAE?AViterator@12@ABQAVWLineEdit@@@Z 0042ca30 f i sortlist.obj
 0001:0002ba30       ?find@?$_Tree@V?$_Tmap_traits@PAVWObject@@V?$basic_string@DU?$char_traits@D@std@@V?$allocator@D@2@@std@@U?$less@PAVWObject@@@3@V?$allocator@U?$pair@QAVWObject@@V?$basic_string@DU?$char_traits@D@std@@V?$allocator@D@2@@std@@@std@@@3@$0A@@std@@@std@@QAE?AViterator@12@ABQAVWObject@@@Z 0042ca30 f i libwt:WSignalMapper.obj
 0001:0002baa0       ?_Insert@?$_Tree@V?$_Tmap_traits@HPAVWLineEdit@@U?$less@H@std@@V?$allocator@U?$pair@$$CBHPAVWLineEdit@@@std@@@3@$0A@@std@@@std@@IAE?AViterator@12@_NPAU_Node@?$_Tree_nod@V?$_Tmap_traits@HPAVWLineEdit@@U?$less@H@std@@V?$allocator@U?$pair@$$CBHPAVWLineEdit@@@std@@@3@$0A@@std@@@2@ABU?$pair@$$CBHPAVWLineEdit@@@2@@Z 0042caa0 f i sortlist.obj
 0001:0002bc60       ?_Insert@?$_Tree@V?$_Tmap_traits@HV?$basic_string@DU?$char_traits@D@std@@V?$allocator@D@2@@std@@U?$less@H@2@V?$allocator@U?$pair@$$CBHV?$basic_string@DU?$char_traits@D@std@@V?$allocator@D@2@@std@@@std@@@2@$0A@@std@@@std@@IAE?AViterator@12@_NPAU_Node@?$_Tree_nod@V?$_Tmap_traits@HV?$basic_string@DU?$char_traits@D@std@@V?$allocator@D@2@@std@@U?$less@H@2@V?$allocator@U?$pair@$$CBHV?$basic_string@DU?$char_traits@D@std@@V?$allocator@D@2@@std@@@std@@@2@$0A@@std@@@2@ABU?$pair@$$CBHV?$basic_string@DU?$char_traits@D@std@@V?$allocator@D@2@@std@@@2@@Z 0042cc60 f i sortlist.obj
 0001:0002bc60       ?_Insert@?$_Tree@V?$_Tmap_traits@PAVWLineEdit@@V?$basic_string@DU?$char_traits@D@std@@V?$allocator@D@2@@std@@U?$less@PAVWLineEdit@@@3@V?$allocator@U?$pair@QAVWLineEdit@@V?$basic_string@DU?$char_traits@D@std@@V?$allocator@D@2@@std@@@std@@@3@$0A@@std@@@std@@IAE?AViterator@12@_NPAU_Node@?$_Tree_nod@V?$_Tmap_traits@PAVWLineEdit@@V?$basic_string@DU?$char_traits@D@std@@V?$allocator@D@2@@std@@U?$less@PAVWLineEdit@@@3@V?$allocator@U?$pair@QAVWLineEdit@@V?$basic_string@DU?$char_traits@D@std@@V?$allocator@D@2@@std@@@std@@@3@$0A@@std@@@2@ABU?$pair@QAVWLineEdit@@V?$basic_string@DU?$char_traits@D@std@@V?$allocator@D@2@@std@@@2@@Z 0042cc60 f i sortlist.obj
 0001:0002be20       ?erase@?$_Tree@V?$_Tmap_traits@HPAVWLineEdit@@U?$less@H@std@@V?$allocator@U?$pair@$$CBHPAVWLineEdit@@@std@@@3@$0A@@std@@@std@@QAE?AViterator@12@V312@@Z 0042ce20 f i sortlist.obj
 0001:0002c0f0       ?erase@?$_Tree@V?$_Tmap_traits@PAVWLineEdit@@V?$basic_string@DU?$char_traits@D@std@@V?$allocator@D@2@@std@@U?$less@PAVWLineEdit@@@3@V?$allocator@U?$pair@QAVWLineEdit@@V?$basic_string@DU?$char_traits@D@std@@V?$allocator@D@2@@std@@@std@@@3@$0A@@std@@@std@@QAE?AViterator@12@V312@@Z 0042d0f0 f i sortlist.obj
 0001:0002c0f0       ?erase@?$_Tree@V?$_Tmap_traits@HV?$basic_string@DU?$char_traits@D@std@@V?$allocator@D@2@@std@@U?$less@H@2@V?$allocator@U?$pair@$$CBHV?$basic_string@DU?$char_traits@D@std@@V?$allocator@D@2@@std@@@std@@@2@$0A@@std@@@std@@QAE?AViterator@12@V312@@Z 0042d0f0 f i sortlist.obj
 0001:0002c3d0       ?_Erase@?$_Tree@V?$_Tmap_traits@PAVWLineEdit@@V?$basic_string@DU?$char_traits@D@std@@V?$allocator@D@2@@std@@U?$less@PAVWLineEdit@@@3@V?$allocator@U?$pair@QAVWLineEdit@@V?$basic_string@DU?$char_traits@D@std@@V?$allocator@D@2@@std@@@std@@@3@$0A@@std@@@std@@IAEXPAU_Node@?$_Tree_nod@V?$_Tmap_traits@PAVWLineEdit@@V?$basic_string@DU?$char_traits@D@std@@V?$allocator@D@2@@std@@U?$less@PAVWLineEdit@@@3@V?$allocator@U?$pair@QAVWLineEdit@@V?$basic_string@DU?$char_traits@D@std@@V?$allocator@D@2@@std@@@std@@@3@$0A@@std@@@2@@Z 0042d3d0 f i sortlist.obj
 0001:0002c410       ?insert@?$_Tree@V?$_Tmap_traits@HPAVWLineEdit@@U?$less@H@std@@V?$allocator@U?$pair@$$CBHPAVWLineEdit@@@std@@@3@$0A@@std@@@std@@QAE?AU?$pair@Viterator@?$_Tree@V?$_Tmap_traits@HPAVWLineEdit@@U?$less@H@std@@V?$allocator@U?$pair@$$CBHPAVWLineEdit@@@std@@@3@$0A@@std@@@std@@_N@2@ABU?$pair@$$CBHPAVWLineEdit@@@2@@Z 0042d410 f i sortlist.obj
 0001:0002c4d0       ?erase@?$_Tree@V?$_Tmap_traits@HPAVWLineEdit@@U?$less@H@std@@V?$allocator@U?$pair@$$CBHPAVWLineEdit@@@std@@@3@$0A@@std@@@std@@QAE?AViterator@12@V312@0@Z 0042d4d0 f i sortlist.obj
 0001:0002c590       ?insert@?$_Tree@V?$_Tmap_traits@PAVWLineEdit@@V?$basic_string@DU?$char_traits@D@std@@V?$allocator@D@2@@std@@U?$less@PAVWLineEdit@@@3@V?$allocator@U?$pair@QAVWLineEdit@@V?$basic_string@DU?$char_traits@D@std@@V?$allocator@D@2@@std@@@std@@@3@$0A@@std@@@std@@QAE?AU?$pair@Viterator@?$_Tree@V?$_Tmap_traits@PAVWLineEdit@@V?$basic_string@DU?$char_traits@D@std@@V?$allocator@D@2@@std@@U?$less@PAVWLineEdit@@@3@V?$allocator@U?$pair@QAVWLineEdit@@V?$basic_string@DU?$char_traits@D@std@@V?$allocator@D@2@@std@@@std@@@3@$0A@@std@@@std@@_N@2@ABU?$pair@QAVWLineEdit@@V?$basic_string@DU?$char_traits@D@std@@V?$allocator@D@2@@std@@@2@@Z 0042d590 f i sortlist.obj
 0001:0002c650       ?insert@?$_Tree@V?$_Tmap_traits@HV?$basic_string@DU?$char_traits@D@std@@V?$allocator@D@2@@std@@U?$less@H@2@V?$allocator@U?$pair@$$CBHV?$basic_string@DU?$char_traits@D@std@@V?$allocator@D@2@@std@@@std@@@2@$0A@@std@@@std@@QAE?AU?$pair@Viterator@?$_Tree@V?$_Tmap_traits@HV?$basic_string@DU?$char_traits@D@std@@V?$allocator@D@2@@std@@U?$less@H@2@V?$allocator@U?$pair@$$CBHV?$basic_string@DU?$char_traits@D@std@@V?$allocator@D@2@@std@@@std@@@2@$0A@@std@@@std@@_N@2@ABU?$pair@$$CBHV?$basic_string@DU?$char_traits@D@std@@V?$allocator@D@2@@std@@@2@@Z 0042d650 f i sortlist.obj
 0001:0002c710       ?_Erase@?$_Tree@V?$_Tmap_traits@HV?$basic_string@DU?$char_traits@D@std@@V?$allocator@D@2@@std@@U?$less@H@2@V?$allocator@U?$pair@$$CBHV?$basic_string@DU?$char_traits@D@std@@V?$allocator@D@2@@std@@@std@@@2@$0A@@std@@@std@@IAEXPAU_Node@?$_Tree_nod@V?$_Tmap_traits@HV?$basic_string@DU?$char_traits@D@std@@V?$allocator@D@2@@std@@U?$less@H@2@V?$allocator@U?$pair@$$CBHV?$basic_string@DU?$char_traits@D@std@@V?$allocator@D@2@@std@@@std@@@2@$0A@@std@@@2@@Z 0042d710 f i sortlist.obj
 0001:0002c750       ?saveGroup@CEccSortTable@@AAEXAAV?$map@HV?$basic_string@DU?$char_traits@D@std@@V?$allocator@D@2@@std@@U?$less@H@2@V?$allocator@U?$pair@$$CBHV?$basic_string@DU?$char_traits@D@std@@V?$allocator@D@2@@std@@@std@@@2@@std@@@Z 0042d750 f   sortlist.obj
 0001:0002c930       ?saveDevice@CEccSortTable@@AAEXAAV?$map@HV?$basic_string@DU?$char_traits@D@std@@V?$allocator@D@2@@std@@U?$less@H@2@V?$allocator@U?$pair@$$CBHV?$basic_string@DU?$char_traits@D@std@@V?$allocator@D@2@@std@@@std@@@2@@std@@@Z 0042d930 f   sortlist.obj
 0001:0002cb10       ?saveMonitor@CEccSortTable@@AAEXAAV?$map@HV?$basic_string@DU?$char_traits@D@std@@V?$allocator@D@2@@std@@U?$less@H@2@V?$allocator@U?$pair@$$CBHV?$basic_string@DU?$char_traits@D@std@@V?$allocator@D@2@@std@@@std@@@2@@std@@@Z 0042db10 f   sortlist.obj
 0001:0002ccf0       ?insert@?$_Tree@V?$_Tmap_traits@HPAVWLineEdit@@U?$less@H@std@@V?$allocator@U?$pair@$$CBHPAVWLineEdit@@@std@@@3@$0A@@std@@@std@@QAE?AViterator@12@V312@ABU?$pair@$$CBHPAVWLineEdit@@@2@@Z 0042dcf0 f i sortlist.obj
 0001:0002ce60       ?insert@?$_Tree@V?$_Tmap_traits@PAVWLineEdit@@V?$basic_string@DU?$char_traits@D@std@@V?$allocator@D@2@@std@@U?$less@PAVWLineEdit@@@3@V?$allocator@U?$pair@QAVWLineEdit@@V?$basic_string@DU?$char_traits@D@std@@V?$allocator@D@2@@std@@@std@@@3@$0A@@std@@@std@@QAE?AViterator@12@V312@ABU?$pair@QAVWLineEdit@@V?$basic_string@DU?$char_traits@D@std@@V?$allocator@D@2@@std@@@2@@Z 0042de60 f i sortlist.obj
 0001:0002cfd0       ?insert@?$_Tree@V?$_Tmap_traits@HV?$basic_string@DU?$char_traits@D@std@@V?$allocator@D@2@@std@@U?$less@H@2@V?$allocator@U?$pair@$$CBHV?$basic_string@DU?$char_traits@D@std@@V?$allocator@D@2@@std@@@std@@@2@$0A@@std@@@std@@QAE?AViterator@12@V312@ABU?$pair@$$CBHV?$basic_string@DU?$char_traits@D@std@@V?$allocator@D@2@@std@@@2@@Z 0042dfd0 f i sortlist.obj
 0001:0002d140       ?erase@?$_Tree@V?$_Tmap_traits@PAVWLineEdit@@V?$basic_string@DU?$char_traits@D@std@@V?$allocator@D@2@@std@@U?$less@PAVWLineEdit@@@3@V?$allocator@U?$pair@QAVWLineEdit@@V?$basic_string@DU?$char_traits@D@std@@V?$allocator@D@2@@std@@@std@@@3@$0A@@std@@@std@@QAE?AViterator@12@V312@0@Z 0042e140 f i sortlist.obj
 0001:0002d200       ??A?$map@HPAVWLineEdit@@U?$less@H@std@@V?$allocator@U?$pair@$$CBHPAVWLineEdit@@@std@@@3@@std@@QAEAAPAVWLineEdit@@ABH@Z 0042e200 f i sortlist.obj
 0001:0002d280       ??A?$map@PAVWLineEdit@@V?$basic_string@DU?$char_traits@D@std@@V?$allocator@D@2@@std@@U?$less@PAVWLineEdit@@@3@V?$allocator@U?$pair@QAVWLineEdit@@V?$basic_string@DU?$char_traits@D@std@@V?$allocator@D@2@@std@@@std@@@3@@std@@QAEAAV?$basic_string@DU?$char_traits@D@std@@V?$allocator@D@2@@1@ABQAVWLineEdit@@@Z 0042e280 f i sortlist.obj
 0001:0002d350       ??A?$map@HV?$basic_string@DU?$char_traits@D@std@@V?$allocator@D@2@@std@@U?$less@H@2@V?$allocator@U?$pair@$$CBHV?$basic_string@DU?$char_traits@D@std@@V?$allocator@D@2@@std@@@std@@@2@@std@@QAEAAV?$basic_string@DU?$char_traits@D@std@@V?$allocator@D@2@@1@ABH@Z 0042e350 f i sortlist.obj
 0001:0002d420       ?erase@?$_Tree@V?$_Tmap_traits@HV?$basic_string@DU?$char_traits@D@std@@V?$allocator@D@2@@std@@U?$less@H@2@V?$allocator@U?$pair@$$CBHV?$basic_string@DU?$char_traits@D@std@@V?$allocator@D@2@@std@@@std@@@2@$0A@@std@@@std@@QAE?AViterator@12@V312@0@Z 0042e420 f i sortlist.obj
 0001:0002d4e0       ??1?$map@HPAVWLineEdit@@U?$less@H@std@@V?$allocator@U?$pair@$$CBHPAVWLineEdit@@@std@@@3@@std@@QAE@XZ 0042e4e0 f i sortlist.obj
 0001:0002d510       ?enumDevice@CEccSortTable@@AAEXPBVCEccTreeNode@@@Z 0042e510 f   sortlist.obj
 0001:0002d780       ?enumGroup@CEccSortTable@@AAEXPBVCEccTreeNode@@@Z 0042e780 f   sortlist.obj
 0001:0002d9f0       ?enumMonitor@CEccSortTable@@AAEXPBVCEccTreeNode@@@Z 0042e9f0 f   sortlist.obj
 0001:0002dc50       ??1?$map@PAVWLineEdit@@V?$basic_string@DU?$char_traits@D@std@@V?$allocator@D@2@@std@@U?$less@PAVWLineEdit@@@3@V?$allocator@U?$pair@QAVWLineEdit@@V?$basic_string@DU?$char_traits@D@std@@V?$allocator@D@2@@std@@@std@@@3@@std@@QAE@XZ 0042ec50 f i sortlist.obj
 0001:0002dc80       ?setSortNode@CEccSortTable@@QAEXPBVCEccTreeNode@@H@Z 0042ec80 f   sortlist.obj
 0001:0002dde0       ??0CEccSortTable@@QAE@PAVWContainerWidget@@@Z 0042ede0 f   sortlist.obj
 0001:0002ded0       ??_GCEccSortTable@@UAEPAXI@Z 0042eed0 f i sortlist.obj
 0001:0002ded0       ??_ECEccSortTable@@UAEPAXI@Z 0042eed0 f i sortlist.obj
 0001:0002def0       ??1CEccSortTable@@UAE@XZ   0042eef0 f i sortlist.obj
 0001:0002dfd0       ??1?$map@HV?$basic_string@DU?$char_traits@D@std@@V?$allocator@D@2@@std@@U?$less@H@2@V?$allocator@U?$pair@$$CBHV?$basic_string@DU?$char_traits@D@std@@V?$allocator@D@2@@std@@@std@@@2@@std@@QAE@XZ 0042efd0 f i sortlist.obj
 0001:0002e000       ?checkDisplayIndex@CEccSortTable@@AAEXXZ 0042f000 f   sortlist.obj
 0001:0002e200       ?Save@CEccSortTable@@AAEXXZ 0042f200 f   sortlist.obj
 0001:0002e220       ?buildSlotMap@CEccSortTable@@MAEXAAV?$map@V?$basic_string@DU?$char_traits@D@std@@V?$allocator@D@2@@std@@PAVWSlotInstance_@@U?$less@V?$basic_string@DU?$char_traits@D@std@@V?$allocator@D@2@@std@@@2@V?$allocator@U?$pair@$$CBV?$basic_string@DU?$char_traits@D@std@@V?$allocator@D@2@@std@@PAVWSlotInstance_@@@std@@@2@@std@@@Z 0042f220 f   sortlistwt.obj
 0001:0002e310       ?triggerSlot@CEccSortTable@@MAE_NPAVWObject@@PBVWSlot_@@PAPAX@Z 0042f310 f   sortlistwt.obj
 0001:0002e350       ?buildSignalMap@CEccSortTable@@MAEXAAV?$map@V?$basic_string@DU?$char_traits@D@std@@V?$allocator@D@2@@std@@PAVWSignalInstance_@@U?$less@V?$basic_string@DU?$char_traits@D@std@@V?$allocator@D@2@@std@@@2@V?$allocator@U?$pair@$$CBV?$basic_string@DU?$char_traits@D@std@@V?$allocator@D@2@@std@@PAVWSignalInstance_@@@std@@@2@@std@@@Z 0042f350 f   sortlistwt.obj
 0001:0002e410       ?initForm@CEccStateDesc@@AAEXXZ 0042f410 f   statedesc.obj
 0001:0002e880       ??0CEccStateDesc@@QAE@PAVWContainerWidget@@@Z 0042f880 f   statedesc.obj
 0001:0002e8d0       ?buildSlotMap@CEccStateDesc@@MAEXAAV?$map@V?$basic_string@DU?$char_traits@D@std@@V?$allocator@D@2@@std@@PAVWSlotInstance_@@U?$less@V?$basic_string@DU?$char_traits@D@std@@V?$allocator@D@2@@std@@@2@V?$allocator@U?$pair@$$CBV?$basic_string@DU?$char_traits@D@std@@V?$allocator@D@2@@std@@PAVWSlotInstance_@@@std@@@2@@std@@@Z 0042f8d0 f   statedescwt.obj
 0001:0002e9c0       ?buildSignalMap@CEccStateDesc@@MAEXAAV?$map@V?$basic_string@DU?$char_traits@D@std@@V?$allocator@D@2@@std@@PAVWSignalInstance_@@U?$less@V?$basic_string@DU?$char_traits@D@std@@V?$allocator@D@2@@std@@@2@V?$allocator@U?$pair@$$CBV?$basic_string@DU?$char_traits@D@std@@V?$allocator@D@2@@std@@PAVWSignalInstance_@@@std@@@2@@std@@@Z 0042f9c0 f   statedescwt.obj
 0001:0002ea80       ?createStateDesc@CEccGroupView@@AAEXXZ 0042fa80 f   groupview.obj
 0001:0002eaf0       ?createTitle@CEccGroupView@@AAEXXZ 0042faf0 f   groupview.obj
 0001:0002eb70       ?createGeneral@CEccGroupView@@AAEXXZ 0042fb70 f   groupview.obj
 0001:0002f190       ?UpdataGeneralData@CEccGroupView@@QAEXPBVCEccTreeGroup@@@Z 00430190 f   groupview.obj
 0001:0002f290       ?clearDeviceList@CEccGroupView@@AAEXXZ 00430290 f   groupview.obj
 0001:0002f2d0       ?clearGroupList@CEccGroupView@@AAEXXZ 004302d0 f   groupview.obj
 0001:0002f2d0       ?clearMonitorList@CEccMonitorView@@AAEXXZ 004302d0 f   monitorview.obj
 0001:0002f310       ?_Incsize@?$list@HV?$allocator@H@std@@@std@@IAEXI@Z 00430310 f i groupview.obj
 0001:0002f3b0       ?EnumGroup@CEccGroupView@@AAEXPBVCEccTreeGroup@@@Z 004303b0 f   groupview.obj
 0001:0002fce0       ?EnumDevice@CEccGroupView@@AAEXPBVCEccTreeGroup@@@Z 00430ce0 f   groupview.obj
 0001:00030770       ?createDeviceList@CEccGroupView@@AAEXXZ 00431770 f   groupview.obj
 0001:00030d10       ?createGroupList@CEccGroupView@@AAEXXZ 00431d10 f   groupview.obj
 0001:00031210       ?changePath@CEccGroupView@@AAEXABV?$basic_string@DU?$char_traits@D@std@@V?$allocator@D@2@@std@@@Z 00432210 f   groupview.obj
 0001:00031630       ?initForm@CEccGroupView@@AAEXXZ 00432630 f   groupview.obj
 0001:000317f0       ?setCurrentObj@CEccGroupView@@QAEXPBVCEccTreeGroup@@@Z 004327f0 f   groupview.obj
 0001:000319c0       ??0CEccGroupView@@QAE@PAVWContainerWidget@@@Z 004329c0 f   groupview.obj
 0001:00031a60       ?buildSlotMap@CEccGroupView@@MAEXAAV?$map@V?$basic_string@DU?$char_traits@D@std@@V?$allocator@D@2@@std@@PAVWSlotInstance_@@U?$less@V?$basic_string@DU?$char_traits@D@std@@V?$allocator@D@2@@std@@@2@V?$allocator@U?$pair@$$CBV?$basic_string@DU?$char_traits@D@std@@V?$allocator@D@2@@std@@PAVWSlotInstance_@@@std@@@2@@std@@@Z 00432a60 f   groupviewwt.obj
 0001:00031b50       ?buildSignalMap@CEccGroupView@@MAEXAAV?$map@V?$basic_string@DU?$char_traits@D@std@@V?$allocator@D@2@@std@@PAVWSignalInstance_@@U?$less@V?$basic_string@DU?$char_traits@D@std@@V?$allocator@D@2@@std@@@2@V?$allocator@U?$pair@$$CBV?$basic_string@DU?$char_traits@D@std@@V?$allocator@D@2@@std@@PAVWSignalInstance_@@@std@@@2@@std@@@Z 00432b50 f   groupviewwt.obj
 0001:00031c10       ?createStateDesc@CEccMonitorView@@AAEXXZ 00432c10 f   monitorview.obj
 0001:00031c80       ?createTitle@CEccMonitorView@@AAEXXZ 00432c80 f   monitorview.obj
 0001:00031d00       ?createGeneral@CEccMonitorView@@AAEXXZ 00432d00 f   monitorview.obj
 0001:00032420       ?UpdataGeneralData@CEccMonitorView@@QAEXPBVCEccTreeDevice@@@Z 00433420 f   monitorview.obj
 0001:00032520       ?AddNewMonitor@CEccMonitorView@@SAXV?$basic_string@DU?$char_traits@D@std@@V?$allocator@D@2@@std@@@Z 00433520 f   monitorview.obj
 0001:00032610       ?createMonitorList@CEccMonitorView@@AAEXXZ 00433610 f   monitorview.obj
 0001:00032bf0       ?changePath@CEccMonitorView@@AAEXABV?$basic_string@DU?$char_traits@D@std@@V?$allocator@D@2@@std@@@Z 00433bf0 f   monitorview.obj
 0001:00033010       ?initForm@CEccMonitorView@@AAEXXZ 00434010 f   monitorview.obj
 0001:000331c0       ?setDeviceNode@CEccMonitorView@@QAEXPBVCEccTreeDevice@@@Z 004341c0 f   monitorview.obj
 0001:00033fe0       ??0CEccMonitorView@@QAE@PAVWContainerWidget@@@Z 00434fe0 f   monitorview.obj
 0001:000340d0       ??_GCEccMonitorView@@UAEPAXI@Z 004350d0 f i monitorview.obj
 0001:000340d0       ??_ECEccMonitorView@@UAEPAXI@Z 004350d0 f i monitorview.obj
 0001:000340f0       ??1CEccMonitorView@@UAE@XZ 004350f0 f i monitorview.obj
 0001:00034170       ?buildSlotMap@CEccMonitorView@@MAEXAAV?$map@V?$basic_string@DU?$char_traits@D@std@@V?$allocator@D@2@@std@@PAVWSlotInstance_@@U?$less@V?$basic_string@DU?$char_traits@D@std@@V?$allocator@D@2@@std@@@2@V?$allocator@U?$pair@$$CBV?$basic_string@DU?$char_traits@D@std@@V?$allocator@D@2@@std@@PAVWSlotInstance_@@@std@@@2@@std@@@Z 00435170 f   monitorviewwt.obj
 0001:00034260       ?buildSignalMap@CEccMonitorView@@MAEXAAV?$map@V?$basic_string@DU?$char_traits@D@std@@V?$allocator@D@2@@std@@PAVWSignalInstance_@@U?$less@V?$basic_string@DU?$char_traits@D@std@@V?$allocator@D@2@@std@@@2@V?$allocator@U?$pair@$$CBV?$basic_string@DU?$char_traits@D@std@@V?$allocator@D@2@@std@@PAVWSignalInstance_@@@std@@@2@@std@@@Z 00435260 f   monitorviewwt.obj
 0001:00034320       ?EditSVSE@CEccEidtSVSE@@QAEXABV?$basic_string@DU?$char_traits@D@std@@V?$allocator@D@2@@std@@@Z 00435320 f   addsvse.obj
 0001:00034440       ?checkName@CEccEidtSVSE@@AAE_NAAV?$basic_string@DU?$char_traits@D@std@@V?$allocator@D@2@@std@@@Z 00435440 f   addsvse.obj
 0001:00034550       ?createOperater@CEccEidtSVSE@@AAEXXZ 00435550 f   addsvse.obj
 0001:00034740       ?saveSVSE@CEccEidtSVSE@@AAEXXZ 00435740 f   addsvse.obj
 0001:00034a10       ?ShowHideHelp@CEccEidtSVSE@@EAEXXZ 00435a10 f   addsvse.obj
 0001:00034a50       ?createGeneral@CEccEidtSVSE@@AAEXXZ 00435a50 f   addsvse.obj
 0001:00034e10       ?initForm@CEccEidtSVSE@@EAEX_N@Z 00435e10 f   addsvse.obj
 0001:00034e40       ??0CEccEidtSVSE@@QAE@PAVWContainerWidget@@@Z 00435e40 f   addsvse.obj
 0001:00034ee0       ??_GCEccEidtSVSE@@UAEPAXI@Z 00435ee0 f i addsvse.obj
 0001:00034ee0       ??_ECEccEidtSVSE@@UAEPAXI@Z 00435ee0 f i addsvse.obj
 0001:00034f00       ??1CEccEidtSVSE@@UAE@XZ    00435f00 f i addsvse.obj
 0001:00034f80       ?buildSlotMap@CEccEidtSVSE@@MAEXAAV?$map@V?$basic_string@DU?$char_traits@D@std@@V?$allocator@D@2@@std@@PAVWSlotInstance_@@U?$less@V?$basic_string@DU?$char_traits@D@std@@V?$allocator@D@2@@std@@@2@V?$allocator@U?$pair@$$CBV?$basic_string@DU?$char_traits@D@std@@V?$allocator@D@2@@std@@PAVWSlotInstance_@@@std@@@2@@std@@@Z 00435f80 f   addsvsewt.obj
 0001:00035070       ?triggerSlot@CEccEidtSVSE@@MAE_NPAVWObject@@PBVWSlot_@@PAPAX@Z 00436070 f   addsvsewt.obj
 0001:000350b0       ?buildSignalMap@CEccEidtSVSE@@MAEXAAV?$map@V?$basic_string@DU?$char_traits@D@std@@V?$allocator@D@2@@std@@PAVWSignalInstance_@@U?$less@V?$basic_string@DU?$char_traits@D@std@@V?$allocator@D@2@@std@@@2@V?$allocator@U?$pair@$$CBV?$basic_string@DU?$char_traits@D@std@@V?$allocator@D@2@@std@@PAVWSignalInstance_@@@std@@@2@@std@@@Z 004360b0 f   addsvsewt.obj
 0001:00035170       ?createStateDesc@CEccSVSEView@@AAEXXZ 00436170 f   svseview.obj
 0001:000351e0       ?createTitle@CEccSVSEView@@AAEXXZ 004361e0 f   svseview.obj
 0001:000352a0       ?refreshTime@CEccSVSEView@@QAEXXZ 004362a0 f   svseview.obj
 0001:000352a0       ?refreshTime@CEccMonitorView@@QAEXXZ 004362a0 f   monitorview.obj
 0001:000352a0       ?refreshTime@CEccGroupView@@QAEXXZ 004362a0 f   groupview.obj
 0001:000352b0       ?_Min@?$_Tree@V?$_Tmap_traits@V?$basic_string@DU?$char_traits@D@std@@V?$allocator@D@2@@std@@VCEccTreeGroup@@U?$less@V?$basic_string@DU?$char_traits@D@std@@V?$allocator@D@2@@std@@@2@V?$allocator@U?$pair@$$CBV?$basic_string@DU?$char_traits@D@std@@V?$allocator@D@2@@std@@VCEccTreeGroup@@@std@@@2@$0A@@std@@@std@@KAPAU_Node@?$_Tree_nod@V?$_Tmap_traits@V?$basic_string@DU?$char_traits@D@std@@V?$allocator@D@2@@std@@VCEccTreeGroup@@U?$less@V?$basic_string@DU?$char_traits@D@std@@V?$allocator@D@2@@std@@@2@V?$allocator@U?$pair@$$CBV?$basic_string@DU?$char_traits@D@std@@V?$allocator@D@2@@std@@VCEccTreeGroup@@@std@@@2@$0A@@std@@@2@PAU342@@Z 004362b0 f i svseview.obj
 0001:000352d0       ?_Inc@const_iterator@?$_Tree@V?$_Tmap_traits@V?$basic_string@DU?$char_traits@D@std@@V?$allocator@D@2@@std@@VCEccTreeGroup@@U?$less@V?$basic_string@DU?$char_traits@D@std@@V?$allocator@D@2@@std@@@2@V?$allocator@U?$pair@$$CBV?$basic_string@DU?$char_traits@D@std@@V?$allocator@D@2@@std@@VCEccTreeGroup@@@std@@@2@$0A@@std@@@std@@QAEXXZ 004362d0 f i svseview.obj
 0001:00035330       ?EnumSVSE@CEccSVSEView@@AAEXXZ 00436330 f   svseview.obj
 0001:00035740       ?createSVSEList@CEccSVSEView@@AAEXXZ 00436740 f   svseview.obj
 0001:00035930       ?initForm@CEccSVSEView@@AAEXXZ 00436930 f   svseview.obj
 0001:00035ae0       ??0CEccSVSEView@@QAE@PAVWContainerWidget@@@Z 00436ae0 f   svseview.obj
 0001:00035b60       ?buildSlotMap@CEccSVSEView@@MAEXAAV?$map@V?$basic_string@DU?$char_traits@D@std@@V?$allocator@D@2@@std@@PAVWSlotInstance_@@U?$less@V?$basic_string@DU?$char_traits@D@std@@V?$allocator@D@2@@std@@@2@V?$allocator@U?$pair@$$CBV?$basic_string@DU?$char_traits@D@std@@V?$allocator@D@2@@std@@PAVWSlotInstance_@@@std@@@2@@std@@@Z 00436b60 f   svseviewwt.obj
 0001:00035c50       ?buildSignalMap@CEccSVSEView@@MAEXAAV?$map@V?$basic_string@DU?$char_traits@D@std@@V?$allocator@D@2@@std@@PAVWSignalInstance_@@U?$less@V?$basic_string@DU?$char_traits@D@std@@V?$allocator@D@2@@std@@@2@V?$allocator@U?$pair@$$CBV?$basic_string@DU?$char_traits@D@std@@V?$allocator@D@2@@std@@PAVWSignalInstance_@@@std@@@2@@std@@@Z 00436c50 f   svseviewwt.obj
 0001:00035e30       ?createAdvance@CEccGroupOperate@@AAEXXZ 00436e30 f   addgroup.obj
 0001:00035eb0       ?createOperate@CEccGroupOperate@@AAEXXZ 00436eb0 f   addgroup.obj
 0001:000360a0       ?AddGroup@CEccGroupOperate@@QAEXV?$basic_string@DU?$char_traits@D@std@@V?$allocator@D@2@@std@@@Z 004370a0 f   addgroup.obj
 0001:000361c0       ?checkName@CEccGroupOperate@@AAE_NAAV?$basic_string@DU?$char_traits@D@std@@V?$allocator@D@2@@std@@@Z 004371c0 f   addgroup.obj
 0001:000362d0       ?EditGroup@CEccGroupOperate@@QAEXV?$basic_string@DU?$char_traits@D@std@@V?$allocator@D@2@@std@@@Z 004372d0 f   addgroup.obj
 0001:000364c0       ?SaveGroup@CEccGroupOperate@@AAEXXZ 004374c0 f   addgroup.obj
 0001:00036d60       ?ShowHideHelp@CEccGroupOperate@@EAEXXZ 00437d60 f   addgroup.obj
 0001:00036dd0       ?createGeneral@CEccGroupOperate@@AAEXXZ 00437dd0 f   addgroup.obj
 0001:00037190       ?initForm@CEccGroupOperate@@EAEX_N@Z 00438190 f   addgroup.obj
 0001:000371f0       ??0CEccGroupOperate@@QAE@PAVWContainerWidget@@@Z 004381f0 f   addgroup.obj
 0001:00037290       ??_ECEccGroupOperate@@UAEPAXI@Z 00438290 f i addgroup.obj
 0001:00037290       ??_GCEccGroupOperate@@UAEPAXI@Z 00438290 f i addgroup.obj
 0001:000372b0       ??1CEccGroupOperate@@UAE@XZ 004382b0 f i addgroup.obj
 0001:00037340       ?buildSlotMap@CEccGroupOperate@@MAEXAAV?$map@V?$basic_string@DU?$char_traits@D@std@@V?$allocator@D@2@@std@@PAVWSlotInstance_@@U?$less@V?$basic_string@DU?$char_traits@D@std@@V?$allocator@D@2@@std@@@2@V?$allocator@U?$pair@$$CBV?$basic_string@DU?$char_traits@D@std@@V?$allocator@D@2@@std@@PAVWSlotInstance_@@@std@@@2@@std@@@Z 00438340 f   addgroupwt.obj
 0001:00037430       ?triggerSlot@CEccGroupOperate@@MAE_NPAVWObject@@PBVWSlot_@@PAPAX@Z 00438430 f   addgroupwt.obj
 0001:00037470       ?buildSignalMap@CEccGroupOperate@@MAEXAAV?$map@V?$basic_string@DU?$char_traits@D@std@@V?$allocator@D@2@@std@@PAVWSignalInstance_@@U?$less@V?$basic_string@DU?$char_traits@D@std@@V?$allocator@D@2@@std@@@2@V?$allocator@U?$pair@$$CBV?$basic_string@DU?$char_traits@D@std@@V?$allocator@D@2@@std@@PAVWSignalInstance_@@@std@@@2@@std@@@Z 00438470 f   addgroupwt.obj
 0001:00037530       ?createOperate@CEccAddDevice1st@@AAEXXZ 00438530 f   adddevice1st.obj
 0001:00037650       ?AddDeviceByType@CEccAddDevice1st@@AAEXV?$basic_string@DU?$char_traits@D@std@@V?$allocator@D@2@@std@@@Z 00438650 f   adddevice1st.obj
 0001:000376e0       ?setParentID@CEccAddDevice1st@@QAEXV?$basic_string@DU?$char_traits@D@std@@V?$allocator@D@2@@std@@@Z 004386e0 f   adddevice1st.obj
 0001:00037730       ?removeMapping@CEccAddDevice1st@@AAEXXZ 00438730 f   adddevice1st.obj
 0001:000377a0       ??1CEccAddDevice1st@@UAE@XZ 004387a0 f   adddevice1st.obj
 0001:00037860       ??_GCEccAddDevice1st@@UAEPAXI@Z 00438860 f i adddevice1st.obj
 0001:00037860       ??_ECEccAddDevice1st@@UAEPAXI@Z 00438860 f i adddevice1st.obj
 0001:00037880       ?AddDeviceTemplet@CEccAddDevice1st@@AAEXV?$basic_string@DU?$char_traits@D@std@@V?$allocator@D@2@@std@@PAVWTable@@@Z 00438880 f   adddevice1st.obj
 0001:00037dc0       ?enumDeviceGroup@CEccAddDevice1st@@AAEXXZ 00438dc0 f   adddevice1st.obj
 0001:000387a0       ?initForm@CEccAddDevice1st@@EAEX_N@Z 004397a0 f   adddevice1st.obj
 0001:00038810       ??0CEccAddDevice1st@@QAE@PAVWContainerWidget@@@Z 00439810 f   adddevice1st.obj
 0001:000388e0       ?buildSlotMap@CEccAddDevice1st@@MAEXAAV?$map@V?$basic_string@DU?$char_traits@D@std@@V?$allocator@D@2@@std@@PAVWSlotInstance_@@U?$less@V?$basic_string@DU?$char_traits@D@std@@V?$allocator@D@2@@std@@@2@V?$allocator@U?$pair@$$CBV?$basic_string@DU?$char_traits@D@std@@V?$allocator@D@2@@std@@PAVWSlotInstance_@@@std@@@2@@std@@@Z 004398e0 f   adddevice1stwt.obj
 0001:000389d0       ?triggerSlot@CEccAddDevice1st@@MAE_NPAVWObject@@PBVWSlot_@@PAPAX@Z 004399d0 f   adddevice1stwt.obj
 0001:00038a40       ?undoTriggerSlot@CEccGroupOperate@@MAE_NPBVWSlot_@@PAPAX@Z 00439a40 f   addgroupwt.obj
 0001:00038a40       ?undoTriggerSlot@CEccAddMonitor2nd@@MAE_NPBVWSlot_@@PAPAX@Z 00439a40 f   addmonitor2ndwt.obj
 0001:00038a40       ?undoTriggerSlot@CEccAddDevice1st@@MAE_NPBVWSlot_@@PAPAX@Z 00439a40 f   adddevice1stwt.obj
 0001:00038a40       ?undoTriggerSlot@CEccBatchAdd@@MAE_NPBVWSlot_@@PAPAX@Z 00439a40 f   batchaddwt.obj
 0001:00038a40       ?undoTriggerSlot@CEccAddMonitor1st@@MAE_NPBVWSlot_@@PAPAX@Z 00439a40 f   addmonitor1stwt.obj
 0001:00038a40       ?undoTriggerSlot@CEccAddDevice2nd@@MAE_NPBVWSlot_@@PAPAX@Z 00439a40 f   adddevice2ndwt.obj
 0001:00038a40       ?undoTriggerSlot@CEccSortTable@@MAE_NPBVWSlot_@@PAPAX@Z 00439a40 f   sortlistwt.obj
 0001:00038a40       ?undoTriggerSlot@CEccAddDevice3rd@@MAE_NPBVWSlot_@@PAPAX@Z 00439a40 f   adddevice3rdwt.obj
 0001:00038a50       ?buildSignalMap@CEccAddDevice1st@@MAEXAAV?$map@V?$basic_string@DU?$char_traits@D@std@@V?$allocator@D@2@@std@@PAVWSignalInstance_@@U?$less@V?$basic_string@DU?$char_traits@D@std@@V?$allocator@D@2@@std@@@2@V?$allocator@U?$pair@$$CBV?$basic_string@DU?$char_traits@D@std@@V?$allocator@D@2@@std@@PAVWSignalInstance_@@@std@@@2@@std@@@Z 00439a50 f   adddevice1stwt.obj
 0001:00038c30       ?Cancel@CEccAddDevice1st@@AAEXXZ 00439c30 f   adddevice1st.obj
 0001:00038c30       ?Cancel@CEccEidtSVSE@@AAEXXZ 00439c30 f   addsvse.obj
 0001:00038c30       ?Cancel@CEccSortTable@@AAEXXZ 00439c30 f   sortlist.obj
 0001:00038c30       ?Cancel@CEccAddMonitor1st@@AAEXXZ 00439c30 f   addmonitor1st.obj
 0001:00038c30       ?Cancel@CEccGroupOperate@@AAEXXZ 00439c30 f   addgroup.obj
 0001:00038c30       ?Cancel@CEccAddDevice2nd@@AAEXXZ 00439c30 f   adddevice2nd.obj
 0001:00038c30       ?Cancel@CEccBatchAdd@@AAEXXZ 00439c30 f   batchadd.obj
 0001:00038c30       ?Cancel@CEccAddMonitor2nd@@AAEXXZ 00439c30 f   addmonitor2nd.obj
 0001:00038c40       ?createAdvance@CEccAddDevice2nd@@AAEXXZ 00439c40 f   adddevice2nd.obj
 0001:00038cc0       ?createGeneral@CEccAddDevice2nd@@AAEXXZ 00439cc0 f   adddevice2nd.obj
 0001:00038d70       ?createOperate@CEccAddDevice2nd@@AAEXXZ 00439d70 f   adddevice2nd.obj
 0001:000391b0       ?Forward@CEccAddDevice2nd@@AAEXXZ 0043a1b0 f   adddevice2nd.obj
 0001:000391d0       ?checkName@CEccAddDevice2nd@@AAE_NAAV?$basic_string@DU?$char_traits@D@std@@V?$allocator@D@2@@std@@@Z 0043a1d0 f   adddevice2nd.obj
 0001:000392e0       ?createHideButton@CEccAddDevice2nd@@AAEXXZ 0043a2e0 f   adddevice2nd.obj
 0001:000393a0       ?initForm@CEccAddDevice2nd@@EAEX_N@Z 0043a3a0 f   adddevice2nd.obj
 0001:00039490       ?clear@?$list@PAVSVReturnItem@@V?$allocator@PAVSVReturnItem@@@std@@@std@@QAEXXZ 0043a490 f i conditionparam.obj
 0001:00039490       ?clear@?$list@PAVWText@@V?$allocator@PAVWText@@@std@@@std@@QAEXXZ 0043a490 f i advanceparam.obj
 0001:00039490       ?clear@?$list@PAVWCheckBox@@V?$allocator@PAVWCheckBox@@@std@@@std@@QAEXXZ 0043a490 f i adddevice3rd.obj
 0001:00039490       ?clear@?$list@PAVCEccParamItem@@V?$allocator@PAVCEccParamItem@@@std@@@std@@QAEXXZ 0043a490 f i adddevice2nd.obj
 0001:00039490       ?clear@?$list@HV?$allocator@H@std@@@std@@QAEXXZ 0043a490 f i groupview.obj
 0001:000394d0       ?_Buynode@?$list@PAVWCheckBox@@V?$allocator@PAVWCheckBox@@@std@@@std@@IAEPAU_Node@?$_List_nod@PAVWCheckBox@@V?$allocator@PAVWCheckBox@@@std@@@2@XZ 0043a4d0 f i adddevice3rd.obj
 0001:000394d0       ?_Buynode@?$list@HV?$allocator@H@std@@@std@@IAEPAU_Node@?$_List_nod@HV?$allocator@H@std@@@2@XZ 0043a4d0 f i groupview.obj
 0001:000394d0       ?_Buynode@?$list@PAVSVReturnItem@@V?$allocator@PAVSVReturnItem@@@std@@@std@@IAEPAU_Node@?$_List_nod@PAVSVReturnItem@@V?$allocator@PAVSVReturnItem@@@std@@@2@XZ 0043a4d0 f i conditionparam.obj
 0001:000394d0       ?_Buynode@?$list@PAVWText@@V?$allocator@PAVWText@@@std@@@std@@IAEPAU_Node@?$_List_nod@PAVWText@@V?$allocator@PAVWText@@@std@@@2@XZ 0043a4d0 f i advanceparam.obj
 0001:000394d0       ?_Buynode@?$list@PAVCEccParamItem@@V?$allocator@PAVCEccParamItem@@@std@@@std@@IAEPAU_Node@?$_List_nod@PAVCEccParamItem@@V?$allocator@PAVCEccParamItem@@@std@@@2@XZ 0043a4d0 f i adddevice2nd.obj
 0001:000394f0       ?_Incsize@?$list@PAVCEccParamItem@@V?$allocator@PAVCEccParamItem@@@std@@@std@@IAEXI@Z 0043a4f0 f i adddevice2nd.obj
 0001:00039590       ?ShowHideHelp@CEccAddDevice2nd@@EAEXXZ 0043a590 f   adddevice2nd.obj
 0001:000395f0       ?EnumDynData@CEccAddDevice2nd@@AAEXXZ 0043a5f0 f   adddevice2nd.obj
 0001:000396c0       ?MakeRunParamString@CEccAddDevice2nd@@AAEXAAV?$basic_string@DU?$char_traits@D@std@@V?$allocator@D@2@@std@@_N@Z 0043a6c0 f   adddevice2nd.obj
 0001:000399c0       ??1?$list@HV?$allocator@H@std@@@std@@QAE@XZ 0043a9c0 f i groupview.obj
 0001:000399c0       ??1?$list@PAVWText@@V?$allocator@PAVWText@@@std@@@std@@QAE@XZ 0043a9c0 f i advanceparam.obj
 0001:000399c0       ??1?$list@PAVWCheckBox@@V?$allocator@PAVWCheckBox@@@std@@@std@@QAE@XZ 0043a9c0 f i adddevice3rd.obj
 0001:000399c0       ??1?$list@PAVSVReturnItem@@V?$allocator@PAVSVReturnItem@@@std@@@std@@QAE@XZ 0043a9c0 f i conditionparam.obj
 0001:000399c0       ??1?$list@PAVCEccParamItem@@V?$allocator@PAVCEccParamItem@@@std@@@std@@QAE@XZ 0043a9c0 f i adddevice2nd.obj
 0001:000399c0       ?_Tidy@?$list@HV?$allocator@H@std@@@std@@IAEXXZ 0043a9c0 f i groupview.obj
 0001:000399e0       ?SaveDevice@CEccAddDevice2nd@@AAEXXZ 0043a9e0 f   adddevice2nd.obj
 0001:0003a8a0       ?TestDevice@CEccAddDevice2nd@@AAEXXZ 0043b8a0 f   adddevice2nd.obj
 0001:0003ab00       ?createDeviceName@CEccAddDevice2nd@@AAEXPAVWTable@@@Z 0043bb00 f   adddevice2nd.obj
 0001:0003ae80       ?enumBaseParam@CEccAddDevice2nd@@AAEXXZ 0043be80 f   adddevice2nd.obj
 0001:0003b0b0       ?createBaseParam@CEccAddDevice2nd@@AAEXXZ 0043c0b0 f   adddevice2nd.obj
 0001:0003b5f0       ?AddDeviceByType@CEccAddDevice2nd@@QAEXV?$basic_string@DU?$char_traits@D@std@@V?$allocator@D@2@@std@@0@Z 0043c5f0 f   adddevice2nd.obj
 0001:0003baa0       ?EditDevice@CEccAddDevice2nd@@QAEXV?$basic_string@DU?$char_traits@D@std@@V?$allocator@D@2@@std@@@Z 0043caa0 f   adddevice2nd.obj
 0001:0003c280       ??0CEccAddDevice2nd@@QAE@PAVWContainerWidget@@@Z 0043d280 f   adddevice2nd.obj
 0001:0003c440       ??_ECEccAddDevice2nd@@UAEPAXI@Z 0043d440 f i adddevice2nd.obj
 0001:0003c440       ??_GCEccAddDevice2nd@@UAEPAXI@Z 0043d440 f i adddevice2nd.obj
 0001:0003c460       ??1CEccAddDevice2nd@@UAE@XZ 0043d460 f i adddevice2nd.obj
 0001:0003c5c0       ?buildSlotMap@CEccAddDevice2nd@@MAEXAAV?$map@V?$basic_string@DU?$char_traits@D@std@@V?$allocator@D@2@@std@@PAVWSlotInstance_@@U?$less@V?$basic_string@DU?$char_traits@D@std@@V?$allocator@D@2@@std@@@2@V?$allocator@U?$pair@$$CBV?$basic_string@DU?$char_traits@D@std@@V?$allocator@D@2@@std@@PAVWSlotInstance_@@@std@@@2@@std@@@Z 0043d5c0 f   adddevice2ndwt.obj
 0001:0003c6b0       ?triggerSlot@CEccAddDevice2nd@@MAE_NPAVWObject@@PBVWSlot_@@PAPAX@Z 0043d6b0 f   adddevice2ndwt.obj
 0001:0003c740       ?buildSignalMap@CEccAddDevice2nd@@MAEXAAV?$map@V?$basic_string@DU?$char_traits@D@std@@V?$allocator@D@2@@std@@PAVWSignalInstance_@@U?$less@V?$basic_string@DU?$char_traits@D@std@@V?$allocator@D@2@@std@@@2@V?$allocator@U?$pair@$$CBV?$basic_string@DU?$char_traits@D@std@@V?$allocator@D@2@@std@@PAVWSignalInstance_@@@std@@@2@@std@@@Z 0043d740 f   adddevice2ndwt.obj
 0001:0003c800       ??0monitor_templet@CEccAddDevice3rd@@QAE@XZ 0043d800 f i adddevice3rd.obj
 0001:0003c8e0       ?image@WLabel@@QBEPAVWImage@@XZ 0043d8e0 f i adddevice3rd.obj
 0001:0003c8f0       ??_FWLabel@@QAEXXZ         0043d8f0 f i adddevice3rd.obj
 0001:0003c900       ?createOperate@CEccAddDevice3rd@@AAEXXZ 0043d900 f   adddevice3rd.obj
 0001:0003cba0       ?createHideButton@CEccAddDevice3rd@@AAEXXZ 0043dba0 f   adddevice3rd.obj
 0001:0003cc60       ?Cancel@CEccAddDevice3rd@@AAEXXZ 0043dc60 f   adddevice3rd.obj
 0001:0003cc80       ??1monitor_templet@CEccAddDevice3rd@@QAE@XZ 0043dc80 f i adddevice3rd.obj
 0001:0003cd00       ?saveAlertNodeValue@CEccAddDevice3rd@@AAE_NAAPAX0@Z 0043dd00 f   adddevice3rd.obj
 0001:0003d300       ??0monitor_templet@CEccAddDevice3rd@@QAE@ABU01@@Z 0043e300 f i adddevice3rd.obj
 0001:0003d3b0       ??1_Node@?$_List_nod@Umonitor_templet@CEccAddDevice3rd@@V?$allocator@Umonitor_templet@CEccAddDevice3rd@@@std@@@std@@QAE@XZ 0043e3b0 f i adddevice3rd.obj
 0001:0003d3c0       ?initForm@CEccAddDevice3rd@@EAEX_N@Z 0043e3c0 f   adddevice3rd.obj
 0001:0003d5d0       ?saveMonitorBaseParam@CEccAddDevice3rd@@AAE_NAAPAXPAXPBD2@Z 0043e5d0 f   adddevice3rd.obj
 0001:0003da80       ?saveMonitorCondition@CEccAddDevice3rd@@AAE_NAAPAXPAX@Z 0043ea80 f   adddevice3rd.obj
 0001:0003db40       ?saveMonitorAdvParam@CEccAddDevice3rd@@AAE_NAAPAXPAXPBD2@Z 0043eb40 f   adddevice3rd.obj
 0001:0003de60       ?saveMonitor@CEccAddDevice3rd@@AAE_NHPBD00@Z 0043ee60 f   adddevice3rd.obj
 0001:0003e960       ?_Buynode@?$list@Umonitor_templet@CEccAddDevice3rd@@V?$allocator@Umonitor_templet@CEccAddDevice3rd@@@std@@@std@@IAEPAU_Node@?$_List_nod@Umonitor_templet@CEccAddDevice3rd@@V?$allocator@Umonitor_templet@CEccAddDevice3rd@@@std@@@2@XZ 0043f960 f i adddevice3rd.obj
 0001:0003e980       ?_Incsize@?$list@PAVWCheckBox@@V?$allocator@PAVWCheckBox@@@std@@@std@@IAEXI@Z 0043f980 f i adddevice3rd.obj
 0001:0003ea20       ?_Buynode@?$list@Umonitor_templet@CEccAddDevice3rd@@V?$allocator@Umonitor_templet@CEccAddDevice3rd@@@std@@@std@@IAEPAU_Node@?$_List_nod@Umonitor_templet@CEccAddDevice3rd@@V?$allocator@Umonitor_templet@CEccAddDevice3rd@@@std@@@2@PAU342@0ABUmonitor_templet@CEccAddDevice3rd@@@Z 0043fa20 f i adddevice3rd.obj
 0001:0003eab0       ?_Incsize@?$list@Umonitor_templet@CEccAddDevice3rd@@V?$allocator@Umonitor_templet@CEccAddDevice3rd@@@std@@@std@@IAEXI@Z 0043fab0 f i adddevice3rd.obj
 0001:0003eb50       ?removeMapping@CEccAddDevice3rd@@AAEXXZ 0043fb50 f   adddevice3rd.obj
 0001:0003ebc0       ?push_back@?$list@PAVWCheckBox@@V?$allocator@PAVWCheckBox@@@std@@@std@@QAEXABQAVWCheckBox@@@Z 0043fbc0 f i adddevice3rd.obj
 0001:0003ec00       ?clear@?$list@Umonitor_templet@CEccAddDevice3rd@@V?$allocator@Umonitor_templet@CEccAddDevice3rd@@@std@@@std@@QAEXXZ 0043fc00 f i adddevice3rd.obj
 0001:0003ec40       ??4WLabel@@QAEAAV0@ABV0@@Z 0043fc40 f i adddevice3rd.obj
 0001:0003ec90       ?saveAllSelMonitors@CEccAddDevice3rd@@AAEXXZ 0043fc90 f   adddevice3rd.obj
 0001:0003f110       ?selAllByMonitorType@CEccAddDevice3rd@@AAEXH@Z 00440110 f   adddevice3rd.obj
 0001:0003f1c0       ??1?$list@Umonitor_templet@CEccAddDevice3rd@@V?$allocator@Umonitor_templet@CEccAddDevice3rd@@@std@@@std@@QAE@XZ 004401c0 f i adddevice3rd.obj
 0001:0003f1e0       ??0CEccAddDevice3rd@@QAE@PAVWContainerWidget@@@Z 004401e0 f   adddevice3rd.obj
 0001:0003f310       ??1CEccAddDevice3rd@@UAE@XZ 00440310 f   adddevice3rd.obj
 0001:0003f430       ??_ECEccAddDevice3rd@@UAEPAXI@Z 00440430 f i adddevice3rd.obj
 0001:0003f430       ??_GCEccAddDevice3rd@@UAEPAXI@Z 00440430 f i adddevice3rd.obj
 0001:0003f450       ?QuickAdd@CEccAddDevice3rd@@QAEXV?$basic_string@DU?$char_traits@D@std@@V?$allocator@D@2@@std@@00000@Z 00440450 f   adddevice3rd.obj
 0001:000400c0       ?AddDynData@CEccAddDevice3rd@@AAEXPAVWTable@@PBDABH2ABV?$basic_string@DU?$char_traits@D@std@@V?$allocator@D@2@@std@@33AB_N@Z 004410c0 f   adddevice3rd.obj
 0001:00040590       ?EnumDynData@CEccAddDevice3rd@@AAEXXZ 00441590 f   adddevice3rd.obj
 0001:00040750       ?buildSlotMap@CEccAddDevice3rd@@MAEXAAV?$map@V?$basic_string@DU?$char_traits@D@std@@V?$allocator@D@2@@std@@PAVWSlotInstance_@@U?$less@V?$basic_string@DU?$char_traits@D@std@@V?$allocator@D@2@@std@@@2@V?$allocator@U?$pair@$$CBV?$basic_string@DU?$char_traits@D@std@@V?$allocator@D@2@@std@@PAVWSlotInstance_@@@std@@@2@@std@@@Z 00441750 f   adddevice3rdwt.obj
 0001:00040840       ?triggerSlot@CEccAddDevice3rd@@MAE_NPAVWObject@@PBVWSlot_@@PAPAX@Z 00441840 f   adddevice3rdwt.obj
 0001:000408c0       ?buildSignalMap@CEccAddDevice3rd@@MAEXAAV?$map@V?$basic_string@DU?$char_traits@D@std@@V?$allocator@D@2@@std@@PAVWSignalInstance_@@U?$less@V?$basic_string@DU?$char_traits@D@std@@V?$allocator@D@2@@std@@@2@V?$allocator@U?$pair@$$CBV?$basic_string@DU?$char_traits@D@std@@V?$allocator@D@2@@std@@PAVWSignalInstance_@@@std@@@2@@std@@@Z 004418c0 f   adddevice3rdwt.obj
 0001:00040980       ?createOperate@CEccAddMonitor1st@@AAEXXZ 00441980 f   addmonitor1st.obj
 0001:00040b10       ?AddMonitorByType@CEccAddMonitor1st@@AAEXH@Z 00441b10 f   addmonitor1st.obj
 0001:00040b90       ?initForm@CEccAddMonitor1st@@EAEX_N@Z 00441b90 f   addmonitor1st.obj
 0001:00040d90       ?removeMapping@CEccAddMonitor1st@@AAEXXZ 00441d90 f   addmonitor1st.obj
 0001:00040e00       ??1CEccAddMonitor1st@@UAE@XZ 00441e00 f   addmonitor1st.obj
 0001:00040ee0       ??0CEccAddMonitor1st@@QAE@PAVWContainerWidget@@@Z 00441ee0 f   addmonitor1st.obj
 0001:00040fd0       ??_GCEccAddMonitor1st@@UAEPAXI@Z 00441fd0 f i addmonitor1st.obj
 0001:00040fd0       ??_ECEccAddMonitor1st@@UAEPAXI@Z 00441fd0 f i addmonitor1st.obj
 0001:00040ff0       ?EnumMT@CEccAddMonitor1st@@QAEXABV?$basic_string@DU?$char_traits@D@std@@V?$allocator@D@2@@std@@00@Z 00441ff0 f   addmonitor1st.obj
 0001:00041540       ?buildSlotMap@CEccAddMonitor1st@@MAEXAAV?$map@V?$basic_string@DU?$char_traits@D@std@@V?$allocator@D@2@@std@@PAVWSlotInstance_@@U?$less@V?$basic_string@DU?$char_traits@D@std@@V?$allocator@D@2@@std@@@2@V?$allocator@U?$pair@$$CBV?$basic_string@DU?$char_traits@D@std@@V?$allocator@D@2@@std@@PAVWSlotInstance_@@@std@@@2@@std@@@Z 00442540 f   addmonitor1stwt.obj
 0001:00041630       ?triggerSlot@CEccAddMonitor1st@@MAE_NPAVWObject@@PBVWSlot_@@PAPAX@Z 00442630 f   addmonitor1stwt.obj
 0001:00041680       ?buildSignalMap@CEccAddMonitor1st@@MAEXAAV?$map@V?$basic_string@DU?$char_traits@D@std@@V?$allocator@D@2@@std@@PAVWSignalInstance_@@U?$less@V?$basic_string@DU?$char_traits@D@std@@V?$allocator@D@2@@std@@@2@V?$allocator@U?$pair@$$CBV?$basic_string@DU?$char_traits@D@std@@V?$allocator@D@2@@std@@PAVWSignalInstance_@@@std@@@2@@std@@@Z 00442680 f   addmonitor1stwt.obj
 0001:00041740       ?getAccount@CEccParamItem@@QAE?AV?$basic_string@DU?$char_traits@D@std@@V?$allocator@D@2@@std@@XZ 00442740 f i addmonitor2nd.obj
 0001:00041790       ?getExpress@CEccParamItem@@QAE?AV?$basic_string@DU?$char_traits@D@std@@V?$allocator@D@2@@std@@XZ 00442790 f i addmonitor2nd.obj
 0001:000417c0       ??1SVReturnItem@@QAE@XZ    004427c0 f i addmonitor2nd.obj
 0001:00041830       ?enumAttrib@SVReturnItem@@AAEXPAX@Z 00442830 f i addmonitor2nd.obj
 0001:00041930       ?ResetData@BASE_ADV_PARAM@CEccAddMonitor2nd@@QAEXXZ 00442930 f   addmonitor2nd.obj
 0001:000419d0       ?checkCondition@CEccAddMonitor2nd@@AAE_NXZ 004429d0 f   addmonitor2nd.obj
 0001:00041af0       ?checkMonitorFreq@CEccAddMonitor2nd@@AAE_NAAV?$basic_string@DU?$char_traits@D@std@@V?$allocator@D@2@@std@@@Z 00442af0 f   addmonitor2nd.obj
 0001:00041c50       ?checkName@CEccAddMonitor2nd@@AAE_NAAV?$basic_string@DU?$char_traits@D@std@@V?$allocator@D@2@@std@@@Z 00442c50 f   addmonitor2nd.obj
 0001:00041da0       ?createCondition@CEccAddMonitor2nd@@AAEXXZ 00442da0 f   addmonitor2nd.obj
 0001:00041f40       ?createHidebutton@CEccAddMonitor2nd@@AAEXXZ 00442f40 f   addmonitor2nd.obj
 0001:00042000       ?createOperate@CEccAddMonitor2nd@@AAEXXZ 00443000 f   addmonitor2nd.obj
 0001:00042660       ?enumAlert@CEccAddMonitor2nd@@AAEXAAPAX@Z 00443660 f   addmonitor2nd.obj
 0001:00042730       ?Forward@CEccAddMonitor2nd@@AAEXXZ 00443730 f   addmonitor2nd.obj
 0001:000427c0       ?saveAdvBaseParam@CEccAddMonitor2nd@@AAE_NAAPAX@Z 004437c0 f   addmonitor2nd.obj
 0001:00042d60       ?saveCondition@CEccAddMonitor2nd@@AAE_NAAPAX@Z 00443d60 f   addmonitor2nd.obj
 0001:00042e00       ?SetBaseAdvParam@CEccAddMonitor2nd@@AAEXAAPAX@Z 00443e00 f   addmonitor2nd.obj
 0001:00043160       ?SetConditionParam@CEccAddMonitor2nd@@AAEXAAPAX@Z 00444160 f   addmonitor2nd.obj
 0001:000431f0       ??0SVReturnItem@@QAE@PAX@Z 004441f0 f i addmonitor2nd.obj
 0001:00043290       ?SetAlertCondition@CEccAddMonitor2nd@@AAEXXZ 00444290 f   addmonitor2nd.obj
 0001:00043650       ??1_Node@?$_List_nod@Uecc_value_list@@V?$allocator@Uecc_value_list@@@std@@@std@@QAE@XZ 00444650 f i addmonitor2nd.obj
 0001:00043660       ?checkAdvParam@CEccAddMonitor2nd@@AAE_NXZ 00444660 f   addmonitor2nd.obj
 0001:000436a0       ?checkBaseParam@CEccAddMonitor2nd@@AAE_NXZ 004446a0 f   addmonitor2nd.obj
 0001:000436e0       ?EnumDynData@CEccAddMonitor2nd@@AAEXXZ 004446e0 f   addmonitor2nd.obj
 0001:00043860       ?clearData@CEccAddMonitor2nd@@AAEXXZ 00444860 f   addmonitor2nd.obj
 0001:00043ad0       ?resetData@CEccAddMonitor2nd@@AAEXXZ 00444ad0 f   addmonitor2nd.obj
 0001:00043c20       ?saveAdvParam@CEccAddMonitor2nd@@AAE_NAAPAXPBD@Z 00444c20 f   addmonitor2nd.obj
 0001:00044260       ?saveBaseParam@CEccAddMonitor2nd@@AAE_NAAPAXPBD@Z 00445260 f   addmonitor2nd.obj
 0001:000448c0       ?SaveMonitor@CEccAddMonitor2nd@@AAEXXZ 004458c0 f   addmonitor2nd.obj
 0001:000453d0       ?ShowHideHelp@CEccAddMonitor2nd@@EAEXXZ 004463d0 f   addmonitor2nd.obj
 0001:00045460       ?SetAdvParam@CEccAddMonitor2nd@@AAEXAAPAX@Z 00446460 f   addmonitor2nd.obj
 0001:00045680       ?SetBaseParam@CEccAddMonitor2nd@@AAEXAAPAX@Z 00446680 f   addmonitor2nd.obj
 0001:000458b0       ?BatchAddMonitor@CEccAddMonitor2nd@@QAE?AV?$basic_string@DU?$char_traits@D@std@@V?$allocator@D@2@@std@@AAV?$list@Uecc_value_list@@V?$allocator@Uecc_value_list@@@std@@@3@@Z 004468b0 f   addmonitor2nd.obj
 0001:00046130       ?ContinueAdd@CEccAddMonitor2nd@@AAEXXZ 00447130 f   addmonitor2nd.obj
 0001:00046140       ?createAdvBaseParam@CEccAddMonitor2nd@@AAEXPAVWTable@@@Z 00447140 f   addmonitor2nd.obj
 0001:00046e30       ?createAdvParam@CEccAddMonitor2nd@@AAEXXZ 00447e30 f   addmonitor2nd.obj
 0001:00046ff0       ?createDevName@CEccAddMonitor2nd@@AAEXXZ 00447ff0 f   addmonitor2nd.obj
 0001:00047260       ?createMonitorName@CEccAddMonitor2nd@@AAEXXZ 00448260 f   addmonitor2nd.obj
 0001:000475a0       ?enumAdvParam@CEccAddMonitor2nd@@AAEXAAPAX@Z 004485a0 f   addmonitor2nd.obj
 0001:00047690       ?enumBaseParam@CEccAddMonitor2nd@@AAEXAAPAX@Z 00448690 f   addmonitor2nd.obj
 0001:00047780       ?enumReturnItem@CEccAddMonitor2nd@@AAEXAAPAX@Z 00448780 f   addmonitor2nd.obj
 0001:00047860       ?initForm@CEccAddMonitor2nd@@EAEX_N@Z 00448860 f   addmonitor2nd.obj
 0001:000479e0       ?clear@?$list@Uecc_value_list@@V?$allocator@Uecc_value_list@@@std@@@std@@QAEXXZ 004489e0 f i addmonitor2nd.obj
 0001:00047a20       ??0CEccAddMonitor2nd@@QAE@PAVWContainerWidget@@@Z 00448a20 f   addmonitor2nd.obj
 0001:00047c00       ??_ECEccAddMonitor2nd@@UAEPAXI@Z 00448c00 f i addmonitor2nd.obj
 0001:00047c00       ??_GCEccAddMonitor2nd@@UAEPAXI@Z 00448c00 f i addmonitor2nd.obj
 0001:00047c20       ??1CEccAddMonitor2nd@@UAE@XZ 00448c20 f i addmonitor2nd.obj
 0001:00047d60       ?createBaseParam@CEccAddMonitor2nd@@AAEXXZ 00448d60 f   addmonitor2nd.obj
 0001:00047f10       ?EditMonitorByID@CEccAddMonitor2nd@@QAEXABV?$basic_string@DU?$char_traits@D@std@@V?$allocator@D@2@@std@@@Z 00448f10 f   addmonitor2nd.obj
 0001:00048700       ?AddMonitorByMTID@CEccAddMonitor2nd@@QAEXHABV?$basic_string@DU?$char_traits@D@std@@V?$allocator@D@2@@std@@0@Z 00449700 f   addmonitor2nd.obj
 0001:00048ea0       ??1?$list@Uecc_value_list@@V?$allocator@Uecc_value_list@@@std@@@std@@QAE@XZ 00449ea0 f i addmonitor2nd.obj
 0001:00048ec0       ?BatchAdd@CEccAddMonitor2nd@@AAEXXZ 00449ec0 f   addmonitor2nd.obj
 0001:00048fa0       ?buildSlotMap@CEccAddMonitor2nd@@MAEXAAV?$map@V?$basic_string@DU?$char_traits@D@std@@V?$allocator@D@2@@std@@PAVWSlotInstance_@@U?$less@V?$basic_string@DU?$char_traits@D@std@@V?$allocator@D@2@@std@@@2@V?$allocator@U?$pair@$$CBV?$basic_string@DU?$char_traits@D@std@@V?$allocator@D@2@@std@@PAVWSlotInstance_@@@std@@@2@@std@@@Z 00449fa0 f   addmonitor2ndwt.obj
 0001:00049090       ?triggerSlot@CEccAddMonitor2nd@@MAE_NPAVWObject@@PBVWSlot_@@PAPAX@Z 0044a090 f   addmonitor2ndwt.obj
 0001:00049150       ?buildSignalMap@CEccAddMonitor2nd@@MAEXAAV?$map@V?$basic_string@DU?$char_traits@D@std@@V?$allocator@D@2@@std@@PAVWSignalInstance_@@U?$less@V?$basic_string@DU?$char_traits@D@std@@V?$allocator@D@2@@std@@@2@V?$allocator@U?$pair@$$CBV?$basic_string@DU?$char_traits@D@std@@V?$allocator@D@2@@std@@PAVWSignalInstance_@@@std@@@2@@std@@@Z 0044a150 f   addmonitor2ndwt.obj
 0001:00049210       ?createListTitle@CEccBatchAdd@@AAEXXZ 0044a210 f   batchadd.obj
 0001:000494e0       ?createOperate@CEccBatchAdd@@AAEXXZ 0044a4e0 f   batchadd.obj
 0001:00049770       ?initForm@CEccBatchAdd@@EAEX_N@Z 0044a770 f   batchadd.obj
 0001:00049980       ?SelAll@CEccBatchAdd@@AAEXXZ 0044a980 f   batchadd.obj
 0001:000499e0       ?SaveSelMonitor@CEccBatchAdd@@AAEXXZ 0044a9e0 f   batchadd.obj
 0001:00049e20       ?setListValue@CEccBatchAdd@@QAEXAAV?$list@Uecc_value_list@@V?$allocator@Uecc_value_list@@@std@@@std@@V?$basic_string@DU?$char_traits@D@std@@V?$allocator@D@2@@3@@Z 0044ae20 f   batchadd.obj
 0001:0004a110       ??0CEccBatchAdd@@QAE@PAVWContainerWidget@@@Z 0044b110 f   batchadd.obj
 0001:0004a1e0       ??_ECEccBatchAdd@@UAEPAXI@Z 0044b1e0 f i batchadd.obj
 0001:0004a1e0       ??_GCEccBatchAdd@@UAEPAXI@Z 0044b1e0 f i batchadd.obj
 0001:0004a200       ??1CEccBatchAdd@@UAE@XZ    0044b200 f i batchadd.obj
 0001:0004a2d0       ?buildSlotMap@CEccBatchAdd@@MAEXAAV?$map@V?$basic_string@DU?$char_traits@D@std@@V?$allocator@D@2@@std@@PAVWSlotInstance_@@U?$less@V?$basic_string@DU?$char_traits@D@std@@V?$allocator@D@2@@std@@@2@V?$allocator@U?$pair@$$CBV?$basic_string@DU?$char_traits@D@std@@V?$allocator@D@2@@std@@PAVWSlotInstance_@@@std@@@2@@std@@@Z 0044b2d0 f   batchaddwt.obj
 0001:0004a3c0       ?triggerSlot@CEccBatchAdd@@MAE_NPAVWObject@@PBVWSlot_@@PAPAX@Z 0044b3c0 f   batchaddwt.obj
 0001:0004a420       ?buildSignalMap@CEccBatchAdd@@MAEXAAV?$map@V?$basic_string@DU?$char_traits@D@std@@V?$allocator@D@2@@std@@PAVWSignalInstance_@@U?$less@V?$basic_string@DU?$char_traits@D@std@@V?$allocator@D@2@@std@@@2@V?$allocator@U?$pair@$$CBV?$basic_string@DU?$char_traits@D@std@@V?$allocator@D@2@@std@@PAVWSignalInstance_@@@std@@@2@@std@@@Z 0044b420 f   batchaddwt.obj
 0001:0004a4e0       ?name@JSVar@@QAE?BV?$basic_string@DU?$char_traits@D@std@@V?$allocator@D@2@@std@@XZ 0044b4e0 f   libwt:DomElement.obj
 0001:0004a4e0       ?name@WSlot_@@QBE?BV?$basic_string@DU?$char_traits@D@std@@V?$allocator@D@2@@std@@XZ 0044b4e0 f   mainviewwt.obj
 0001:0004a4e0       ?path@WMessageResources@@QBE?BV?$basic_string@DU?$char_traits@D@std@@V?$allocator@D@2@@std@@XZ 0044b4e0 f   libwt:WMessageResourceBundle.obj
 0001:0004a4e0       ?getName@SVReturnItem@@QAE?BV?$basic_string@DU?$char_traits@D@std@@V?$allocator@D@2@@std@@XZ 0044b4e0 f   conditionparam.obj
 0001:0004a4e0       ?key@WMessage@@QBE?BV?$basic_string@DU?$char_traits@D@std@@V?$allocator@D@2@@std@@XZ 0044b4e0 f   main.obj
 0001:0004a4e0       ?ShowMenu@CEccPopMenu@@QAE?BV?$basic_string@DU?$char_traits@D@std@@V?$allocator@D@2@@std@@XZ 0044b4e0 f   popmenu.obj
 0001:0004a4e0       ?name@WSignal_@@QBE?BV?$basic_string@DU?$char_traits@D@std@@V?$allocator@D@2@@std@@XZ 0044b4e0 f   mainviewwt.obj
 0001:0004a500       ??0CEccPopMenu@@QAE@XZ     0044b500 f   popmenu.obj
 0001:0004aa40       ??0sv_pair@@QAE@ABU0@@Z    0044ba40 f i treeview.obj
 0001:0004aab0       ??1sv_dyn@@QAE@XZ          0044bab0 f i treeview.obj
 0001:0004aac0       ?createContent@CEccTreeView@@AAEXXZ 0044bac0 f   treeview.obj
 0001:0004ac80       ?createTitle@CEccTreeView@@AAEXXZ 0044bc80 f   treeview.obj
 0001:0004ae30       ??1CEccTreeNode@@QAE@XZ    0044be30 f   treeview.obj
 0001:0004aee0       ?getSaveName@CEccParamItem@@QAE?AV?$basic_string@DU?$char_traits@D@std@@V?$allocator@D@2@@std@@XZ 0044bee0 f   paramitem.obj
 0001:0004aee0       ?getECCIndex@CEccTreeNode@@QBE?AV?$basic_string@DU?$char_traits@D@std@@V?$allocator@D@2@@std@@XZ 0044bee0 f   treeview.obj
 0001:0004af10       ?getName@CEccTreeNode@@QBE?AV?$basic_string@DU?$char_traits@D@std@@V?$allocator@D@2@@std@@XZ 0044bf10 f   treeview.obj
 0001:0004af40       ?getPurview@CEccTreeNode@@QBEHXZ 0044bf40 f   treeview.obj
 0001:0004af50       ?getShowText@CEccTreeNode@@QBE?AV?$basic_string@DU?$char_traits@D@std@@V?$allocator@D@2@@std@@XZ 0044bf50 f   treeview.obj
 0001:0004af80       ?getShowTime@CEccTreeNode@@QBE?AV?$basic_string@DU?$char_traits@D@std@@V?$allocator@D@2@@std@@XZ 0044bf80 f   treeview.obj
 0001:0004afb0       ?getDependsID@CEccTreeNode@@QBE?AV?$basic_string@DU?$char_traits@D@std@@V?$allocator@D@2@@std@@XZ 0044bfb0 f   treeview.obj
 0001:0004afe0       ?getCondition@CEccTreeNode@@QBE?AV?$basic_string@DU?$char_traits@D@std@@V?$allocator@D@2@@std@@XZ 0044bfe0 f   treeview.obj
 0001:0004b010       ?getDescription@CEccTreeNode@@QBE?AV?$basic_string@DU?$char_traits@D@std@@V?$allocator@D@2@@std@@XZ 0044c010 f   treeview.obj
 0001:0004b040       ?getDeviceType@CEccTreeDevice@@QBE?AV?$basic_string@DU?$char_traits@D@std@@V?$allocator@D@2@@std@@XZ 0044c040 f   treeview.obj
 0001:0004b070       ?getRealDeviceType@CEccTreeDevice@@QBE?AV?$basic_string@DU?$char_traits@D@std@@V?$allocator@D@2@@std@@XZ 0044c070 f   treeview.obj
 0001:0004b0a0       ?getOSType@CEccTreeDevice@@QBE?AV?$basic_string@DU?$char_traits@D@std@@V?$allocator@D@2@@std@@XZ 0044c0a0 f   treeview.obj
 0001:0004b0d0       ?isNetworkSet@CEccTreeDevice@@QBE?AV?$basic_string@DU?$char_traits@D@std@@V?$allocator@D@2@@std@@XZ 0044c0d0 f   treeview.obj
 0001:0004b100       ?makeMenuText@CEccTreeView@@AAE?AV?$basic_string@DU?$char_traits@D@std@@V?$allocator@D@2@@std@@HV23@AAH@Z 0044c100 f   treeview.obj
 0001:0004b990       ?isObjectDisable@CEccTreeView@@AAE_NAAPAXAAV?$basic_string@DU?$char_traits@D@std@@V?$allocator@D@2@@std@@H@Z 0044c990 f   treeview.obj
 0001:0004be10       ?isCurrentChildEdit@CEccTreeView@@AAE_NABV?$basic_string@DU?$char_traits@D@std@@V?$allocator@D@2@@std@@@Z 0044ce10 f   treeview.obj
 0001:0004bf60       ?isCurrentPathEdit@CEccTreeView@@AAE_NABV?$basic_string@DU?$char_traits@D@std@@V?$allocator@D@2@@std@@@Z 0044cf60 f   treeview.obj
 0001:0004c0b0       ?getSEList@CEccTreeView@@SAABV?$map@V?$basic_string@DU?$char_traits@D@std@@V?$allocator@D@2@@std@@VCEccTreeGroup@@U?$less@V?$basic_string@DU?$char_traits@D@std@@V?$allocator@D@2@@std@@@2@V?$allocator@U?$pair@$$CBV?$basic_string@DU?$char_traits@D@std@@V?$allocator@D@2@@std@@VCEccTreeGroup@@@std@@@2@@std@@XZ 0044d0b0 f   treeview.obj
 0001:0004c0c0       ??1CECCMonitor@@QAE@XZ     0044d0c0 f   treeview.obj
 0001:0004c120       ?getECCIndex@CECCMonitor@@QBE?AV?$basic_string@DU?$char_traits@D@std@@V?$allocator@D@2@@std@@XZ 0044d120 f   treeview.obj
 0001:0004c150       ?getName@CECCMonitor@@QBE?AV?$basic_string@DU?$char_traits@D@std@@V?$allocator@D@2@@std@@XZ 0044d150 f   treeview.obj
 0001:0004c180       ?getShowText@CECCMonitor@@QBE?AV?$basic_string@DU?$char_traits@D@std@@V?$allocator@D@2@@std@@XZ 0044d180 f   treeview.obj
 0001:0004c1b0       ?getShowTime@CECCMonitor@@QBE?AV?$basic_string@DU?$char_traits@D@std@@V?$allocator@D@2@@std@@XZ 0044d1b0 f   treeview.obj
 0001:0004c1d0       ?slot@WConnection_@@QBEPAVWSlotInstance_@@XZ 0044d1d0 f   libwt:WebSession.obj
 0001:0004c1d0       ?cursor@WCssDecorationStyle@@QBE?AW4Cursor@1@XZ 0044d1d0 f   main.obj
 0001:0004c1d0       ?red@WColor@@QBEHXZ        0044d1d0 f   main.obj
 0001:0004c1d0       ?sender@WObject@@ABEPAV1@XZ 0044d1d0 f   main.obj
 0001:0004c1d0       ?object@WSignalInstance_@@QBEPAVWObject@@XZ 0044d1d0 f   mainviewwt.obj
 0001:0004c1d0       ?unit@WLength@@QBE?AW4Unit@1@XZ 0044d1d0 f   main.obj
 0001:0004c1d0       ?genericFamily@WFont@@QBE?AW4GenericFamily@1@XZ 0044d1d0 f   main.obj
 0001:0004c1d0       ?getState@CECCMonitor@@QBEHXZ 0044d1d0 f   treeview.obj
 0001:0004c1e0       ?AddOperaterLog@CEccTreeView@@SAXHHABV?$basic_string@DU?$char_traits@D@std@@V?$allocator@D@2@@std@@@Z 0044d1e0 f   treeview.obj
 0001:0004c590       ??1?$pair@$$CBHVCEccTreeGroup@@@std@@QAE@XZ 0044d590 f i treeview.obj
 0001:0004c5a0       ?_Max@?$_Tree@V?$_Tmap_traits@HVCEccTreeGroup@@U?$less@H@std@@V?$allocator@U?$pair@$$CBHVCEccTreeGroup@@@std@@@3@$0A@@std@@@std@@KAPAU_Node@?$_Tree_nod@V?$_Tmap_traits@HVCEccTreeGroup@@U?$less@H@std@@V?$allocator@U?$pair@$$CBHVCEccTreeGroup@@@std@@@3@$0A@@std@@@2@PAU342@@Z 0044d5a0 f i treeview.obj
 0001:0004c5d0       ?_Rrotate@?$_Tree@V?$_Tmap_traits@HVCEccTreeGroup@@U?$less@H@std@@V?$allocator@U?$pair@$$CBHVCEccTreeGroup@@@std@@@3@$0A@@std@@@std@@IAEXPAU_Node@?$_Tree_nod@V?$_Tmap_traits@HVCEccTreeGroup@@U?$less@H@std@@V?$allocator@U?$pair@$$CBHVCEccTreeGroup@@@std@@@3@$0A@@std@@@2@@Z 0044d5d0 f i treeview.obj
 0001:0004c630       ?_Max@?$_Tree@V?$_Tmap_traits@HVCEccTreeDevice@@U?$less@H@std@@V?$allocator@U?$pair@$$CBHVCEccTreeDevice@@@std@@@3@$0A@@std@@@std@@KAPAU_Node@?$_Tree_nod@V?$_Tmap_traits@HVCEccTreeDevice@@U?$less@H@std@@V?$allocator@U?$pair@$$CBHVCEccTreeDevice@@@std@@@3@$0A@@std@@@2@PAU342@@Z 0044d630 f i treeview.obj
 0001:0004c660       ?_Rrotate@?$_Tree@V?$_Tmap_traits@HVCEccTreeDevice@@U?$less@H@std@@V?$allocator@U?$pair@$$CBHVCEccTreeDevice@@@std@@@3@$0A@@std@@@std@@IAEXPAU_Node@?$_Tree_nod@V?$_Tmap_traits@HVCEccTreeDevice@@U?$less@H@std@@V?$allocator@U?$pair@$$CBHVCEccTreeDevice@@@std@@@3@$0A@@std@@@2@@Z 0044d660 f i treeview.obj
 0001:0004c6c0       ??0CECCMonitor@@QAE@ABV0@@Z 0044d6c0 f i treeview.obj
 0001:0004c750       ??0CEccTreeNode@@QAE@ABV0@@Z 0044d750 f i treeview.obj
 0001:0004c870       ?_Rrotate@?$_Tree@V?$_Tmap_traits@V?$basic_string@DU?$char_traits@D@std@@V?$allocator@D@2@@std@@V?$list@HV?$allocator@H@std@@@2@U?$less@V?$basic_string@DU?$char_traits@D@std@@V?$allocator@D@2@@std@@@2@V?$allocator@U?$pair@$$CBV?$basic_string@DU?$char_traits@D@std@@V?$allocator@D@2@@std@@V?$list@HV?$allocator@H@std@@@2@@std@@@2@$0A@@std@@@std@@IAEXPAU_Node@?$_Tree_nod@V?$_Tmap_traits@V?$basic_string@DU?$char_traits@D@std@@V?$allocator@D@2@@std@@V?$list@HV?$allocator@H@std@@@2@U?$less@V?$basic_string@DU?$char_traits@D@std@@V?$allocator@D@2@@std@@@2@V?$allocator@U?$pair@$$CBV?$basic_string@DU?$char_traits@D@std@@V?$allocator@D@2@@std@@V?$list@HV?$allocator@H@std@@@2@@std@@@2@$0A@@std@@@2@@Z 0044d870 f i treeview.obj
 0001:0004c8d0       ?_Xlen@?$deque@V?$basic_string@DU?$char_traits@D@std@@V?$allocator@D@2@@std@@V?$allocator@V?$basic_string@DU?$char_traits@D@std@@V?$allocator@D@2@@std@@@2@@std@@IBEXXZ 0044d8d0 f i treeview.obj
 0001:0004c950       ?_Max@?$_Tree@V?$_Tmap_traits@V?$basic_string@DU?$char_traits@D@std@@V?$allocator@D@2@@std@@V?$list@HV?$allocator@H@std@@@2@U?$less@V?$basic_string@DU?$char_traits@D@std@@V?$allocator@D@2@@std@@@2@V?$allocator@U?$pair@$$CBV?$basic_string@DU?$char_traits@D@std@@V?$allocator@D@2@@std@@V?$list@HV?$allocator@H@std@@@2@@std@@@2@$0A@@std@@@std@@KAPAU_Node@?$_Tree_nod@V?$_Tmap_traits@V?$basic_string@DU?$char_traits@D@std@@V?$allocator@D@2@@std@@V?$list@HV?$allocator@H@std@@@2@U?$less@V?$basic_string@DU?$char_traits@D@std@@V?$allocator@D@2@@std@@@2@V?$allocator@U?$pair@$$CBV?$basic_string@DU?$char_traits@D@std@@V?$allocator@D@2@@std@@V?$list@HV?$allocator@H@std@@@2@@std@@@2@$0A@@std@@@2@PAU342@@Z 0044d950 f i treeview.obj
 0001:0004c970       ?_Min@?$_Tree@V?$_Tmap_traits@V?$basic_string@DU?$char_traits@D@std@@V?$allocator@D@2@@std@@V?$list@HV?$allocator@H@std@@@2@U?$less@V?$basic_string@DU?$char_traits@D@std@@V?$allocator@D@2@@std@@@2@V?$allocator@U?$pair@$$CBV?$basic_string@DU?$char_traits@D@std@@V?$allocator@D@2@@std@@V?$list@HV?$allocator@H@std@@@2@@std@@@2@$0A@@std@@@std@@KAPAU_Node@?$_Tree_nod@V?$_Tmap_traits@V?$basic_string@DU?$char_traits@D@std@@V?$allocator@D@2@@std@@V?$list@HV?$allocator@H@std@@@2@U?$less@V?$basic_string@DU?$char_traits@D@std@@V?$allocator@D@2@@std@@@2@V?$allocator@U?$pair@$$CBV?$basic_string@DU?$char_traits@D@std@@V?$allocator@D@2@@std@@V?$list@HV?$allocator@H@std@@@2@@std@@@2@$0A@@std@@@2@PAU342@@Z 0044d970 f i treeview.obj
 0001:0004c990       ?_Max@?$_Tree@V?$_Tmap_traits@V?$basic_string@DU?$char_traits@D@std@@V?$allocator@D@2@@std@@VCEccTreeGroup@@U?$less@V?$basic_string@DU?$char_traits@D@std@@V?$allocator@D@2@@std@@@2@V?$allocator@U?$pair@$$CBV?$basic_string@DU?$char_traits@D@std@@V?$allocator@D@2@@std@@VCEccTreeGroup@@@std@@@2@$0A@@std@@@std@@KAPAU_Node@?$_Tree_nod@V?$_Tmap_traits@V?$basic_string@DU?$char_traits@D@std@@V?$allocator@D@2@@std@@VCEccTreeGroup@@U?$less@V?$basic_string@DU?$char_traits@D@std@@V?$allocator@D@2@@std@@@2@V?$allocator@U?$pair@$$CBV?$basic_string@DU?$char_traits@D@std@@V?$allocator@D@2@@std@@VCEccTreeGroup@@@std@@@2@$0A@@std@@@2@PAU342@@Z 0044d990 f i treeview.obj
 0001:0004c9c0       ?_Dec@const_iterator@?$_Tree@V?$_Tmap_traits@HVCECCMonitor@@U?$less@H@std@@V?$allocator@U?$pair@$$CBHVCECCMonitor@@@std@@@3@$0A@@std@@@std@@QAEXXZ 0044d9c0 f i treeview.obj
 0001:0004ca20       ?_Dec@const_iterator@?$_Tree@V?$_Tmap_traits@HVCEccTreeDevice@@U?$less@H@std@@V?$allocator@U?$pair@$$CBHVCEccTreeDevice@@@std@@@3@$0A@@std@@@std@@QAEXXZ 0044da20 f i treeview.obj
 0001:0004caa0       ?_Dec@const_iterator@?$_Tree@V?$_Tmap_traits@HVCEccTreeGroup@@U?$less@H@std@@V?$allocator@U?$pair@$$CBHVCEccTreeGroup@@@std@@@3@$0A@@std@@@std@@QAEXXZ 0044daa0 f i treeview.obj
 0001:0004cb20       ?_Dec@const_iterator@?$_Tree@V?$_Tmap_traits@V?$basic_string@DU?$char_traits@D@std@@V?$allocator@D@2@@std@@VCEccTreeGroup@@U?$less@V?$basic_string@DU?$char_traits@D@std@@V?$allocator@D@2@@std@@@2@V?$allocator@U?$pair@$$CBV?$basic_string@DU?$char_traits@D@std@@V?$allocator@D@2@@std@@VCEccTreeGroup@@@std@@@2@$0A@@std@@@std@@QAEXXZ 0044db20 f i treeview.obj
 0001:0004cba0       ?_Dec@const_iterator@?$_Tree@V?$_Tmap_traits@V?$basic_string@DU?$char_traits@D@std@@V?$allocator@D@2@@std@@V?$list@HV?$allocator@H@std@@@2@U?$less@V?$basic_string@DU?$char_traits@D@std@@V?$allocator@D@2@@std@@@2@V?$allocator@U?$pair@$$CBV?$basic_string@DU?$char_traits@D@std@@V?$allocator@D@2@@std@@V?$list@HV?$allocator@H@std@@@2@@std@@@2@$0A@@std@@@std@@QAEXXZ 0044dba0 f i treeview.obj
 0001:0004cc00       ?_Inc@const_iterator@?$_Tree@V?$_Tmap_traits@V?$basic_string@DU?$char_traits@D@std@@V?$allocator@D@2@@std@@V?$list@HV?$allocator@H@std@@@2@U?$less@V?$basic_string@DU?$char_traits@D@std@@V?$allocator@D@2@@std@@@2@V?$allocator@U?$pair@$$CBV?$basic_string@DU?$char_traits@D@std@@V?$allocator@D@2@@std@@V?$list@HV?$allocator@H@std@@@2@@std@@@2@$0A@@std@@@std@@QAEXXZ 0044dc00 f i treeview.obj
 0001:0004cc60       ??1_Node@?$_Tree_nod@V?$_Tmap_traits@HVCEccTreeGroup@@U?$less@H@std@@V?$allocator@U?$pair@$$CBHVCEccTreeGroup@@@std@@@3@$0A@@std@@@std@@QAE@XZ 0044dc60 f i treeview.obj
 0001:0004cc70       ??0CEccTreeNode@@QAE@XZ    0044dc70 f   treeview.obj
 0001:0004cd80       ?Reset@CEccTreeNode@@EAEXXZ 0044dd80 f   treeview.obj
 0001:0004ce30       ??4CEccTreeNode@@QAEAAV0@ABV0@@Z 0044de30 f i treeview.obj
 0001:0004cf00       ?getSVSECount@CEccTreeView@@SAHXZ 0044df00 f   treeview.obj
 0001:0004cf10       ?getMonitorState@CEccTreeView@@AAEXAAVCECCMonitor@@@Z 0044df10 f   treeview.obj
 0001:0004d000       ??0CECCMonitor@@QAE@XZ     0044e000 f   treeview.obj
 0001:0004d090       ?_Lrotate@?$_Tree@V?$_Tmap_traits@HVCEccTreeGroup@@U?$less@H@std@@V?$allocator@U?$pair@$$CBHVCEccTreeGroup@@@std@@@3@$0A@@std@@@std@@IAEXPAU_Node@?$_Tree_nod@V?$_Tmap_traits@HVCEccTreeGroup@@U?$less@H@std@@V?$allocator@U?$pair@$$CBHVCEccTreeGroup@@@std@@@3@$0A@@std@@@2@@Z 0044e090 f i treeview.obj
 0001:0004d0f0       ?_Lrotate@?$_Tree@V?$_Tmap_traits@HVCEccTreeDevice@@U?$less@H@std@@V?$allocator@U?$pair@$$CBHVCEccTreeDevice@@@std@@@3@$0A@@std@@@std@@IAEXPAU_Node@?$_Tree_nod@V?$_Tmap_traits@HVCEccTreeDevice@@U?$less@H@std@@V?$allocator@U?$pair@$$CBHVCEccTreeDevice@@@std@@@3@$0A@@std@@@2@@Z 0044e0f0 f i treeview.obj
 0001:0004d150       ?_Lbound@?$_Tree@V?$_Tmap_traits@V?$basic_string@DU?$char_traits@D@std@@V?$allocator@D@2@@std@@V?$list@HV?$allocator@H@std@@@2@U?$less@V?$basic_string@DU?$char_traits@D@std@@V?$allocator@D@2@@std@@@2@V?$allocator@U?$pair@$$CBV?$basic_string@DU?$char_traits@D@std@@V?$allocator@D@2@@std@@V?$list@HV?$allocator@H@std@@@2@@std@@@2@$0A@@std@@@std@@IBEPAU_Node@?$_Tree_nod@V?$_Tmap_traits@V?$basic_string@DU?$char_traits@D@std@@V?$allocator@D@2@@std@@V?$list@HV?$allocator@H@std@@@2@U?$less@V?$basic_string@DU?$char_traits@D@std@@V?$allocator@D@2@@std@@@2@V?$allocator@U?$pair@$$CBV?$basic_string@DU?$char_traits@D@std@@V?$allocator@D@2@@std@@V?$list@HV?$allocator@H@std@@@2@@std@@@2@$0A@@std@@@2@ABV?$basic_string@DU?$char_traits@D@std@@V?$allocator@D@2@@2@@Z 0044e150 f i treeview.obj
 0001:0004d1a0       ?_Lbound@?$_Tree@V?$_Tmap_traits@V?$basic_string@DU?$char_traits@D@std@@V?$allocator@D@2@@std@@VCEccTreeGroup@@U?$less@V?$basic_string@DU?$char_traits@D@std@@V?$allocator@D@2@@std@@@2@V?$allocator@U?$pair@$$CBV?$basic_string@DU?$char_traits@D@std@@V?$allocator@D@2@@std@@VCEccTreeGroup@@@std@@@2@$0A@@std@@@std@@IBEPAU_Node@?$_Tree_nod@V?$_Tmap_traits@V?$basic_string@DU?$char_traits@D@std@@V?$allocator@D@2@@std@@VCEccTreeGroup@@U?$less@V?$basic_string@DU?$char_traits@D@std@@V?$allocator@D@2@@std@@@2@V?$allocator@U?$pair@$$CBV?$basic_string@DU?$char_traits@D@std@@V?$allocator@D@2@@std@@VCEccTreeGroup@@@std@@@2@$0A@@std@@@2@ABV?$basic_string@DU?$char_traits@D@std@@V?$allocator@D@2@@2@@Z 0044e1a0 f i treeview.obj
 0001:0004d1f0       ?_Lrotate@?$_Tree@V?$_Tmap_traits@V?$basic_string@DU?$char_traits@D@std@@V?$allocator@D@2@@std@@V?$list@HV?$allocator@H@std@@@2@U?$less@V?$basic_string@DU?$char_traits@D@std@@V?$allocator@D@2@@std@@@2@V?$allocator@U?$pair@$$CBV?$basic_string@DU?$char_traits@D@std@@V?$allocator@D@2@@std@@V?$list@HV?$allocator@H@std@@@2@@std@@@2@$0A@@std@@@std@@IAEXPAU_Node@?$_Tree_nod@V?$_Tmap_traits@V?$basic_string@DU?$char_traits@D@std@@V?$allocator@D@2@@std@@V?$list@HV?$allocator@H@std@@@2@U?$less@V?$basic_string@DU?$char_traits@D@std@@V?$allocator@D@2@@std@@@2@V?$allocator@U?$pair@$$CBV?$basic_string@DU?$char_traits@D@std@@V?$allocator@D@2@@std@@V?$list@HV?$allocator@H@std@@@2@@std@@@2@$0A@@std@@@2@@Z 0044e1f0 f i treeview.obj
 0001:0004d250       ?_Lrotate@?$_Tree@V?$_Tmap_traits@V?$basic_string@DU?$char_traits@D@std@@V?$allocator@D@2@@std@@VCEccTreeGroup@@U?$less@V?$basic_string@DU?$char_traits@D@std@@V?$allocator@D@2@@std@@@2@V?$allocator@U?$pair@$$CBV?$basic_string@DU?$char_traits@D@std@@V?$allocator@D@2@@std@@VCEccTreeGroup@@@std@@@2@$0A@@std@@@std@@IAEXPAU_Node@?$_Tree_nod@V?$_Tmap_traits@V?$basic_string@DU?$char_traits@D@std@@V?$allocator@D@2@@std@@VCEccTreeGroup@@U?$less@V?$basic_string@DU?$char_traits@D@std@@V?$allocator@D@2@@std@@@2@V?$allocator@U?$pair@$$CBV?$basic_string@DU?$char_traits@D@std@@V?$allocator@D@2@@std@@VCEccTreeGroup@@@std@@@2@$0A@@std@@@2@@Z 0044e250 f i treeview.obj
 0001:0004d2b0       ?_Rrotate@?$_Tree@V?$_Tmap_traits@V?$basic_string@DU?$char_traits@D@std@@V?$allocator@D@2@@std@@VCEccTreeGroup@@U?$less@V?$basic_string@DU?$char_traits@D@std@@V?$allocator@D@2@@std@@@2@V?$allocator@U?$pair@$$CBV?$basic_string@DU?$char_traits@D@std@@V?$allocator@D@2@@std@@VCEccTreeGroup@@@std@@@2@$0A@@std@@@std@@IAEXPAU_Node@?$_Tree_nod@V?$_Tmap_traits@V?$basic_string@DU?$char_traits@D@std@@V?$allocator@D@2@@std@@VCEccTreeGroup@@U?$less@V?$basic_string@DU?$char_traits@D@std@@V?$allocator@D@2@@std@@@2@V?$allocator@U?$pair@$$CBV?$basic_string@DU?$char_traits@D@std@@V?$allocator@D@2@@std@@VCEccTreeGroup@@@std@@@2@$0A@@std@@@2@@Z 0044e2b0 f i treeview.obj
 0001:0004d310       ?showSubTables@CEccTreeGroup@@QAEXXZ 0044e310 f   treeview.obj
 0001:0004d3b0       ?EnumMonitor@CEccTreeView@@AAEXAAVCECCMonitor@@@Z 0044e3b0 f   treeview.obj
 0001:0004d5a0       ?lower_bound@?$_Tree@V?$_Tmap_traits@HVCEccTreeGroup@@U?$less@H@std@@V?$allocator@U?$pair@$$CBHVCEccTreeGroup@@@std@@@3@$0A@@std@@@std@@QAE?AViterator@12@ABH@Z 0044e5a0 f i treeview.obj
 0001:0004d5e0       ?lower_bound@?$_Tree@V?$_Tmap_traits@HVCEccTreeDevice@@U?$less@H@std@@V?$allocator@U?$pair@$$CBHVCEccTreeDevice@@@std@@@3@$0A@@std@@@std@@QAE?AViterator@12@ABH@Z 0044e5e0 f i treeview.obj
 0001:0004d620       ?_Buynode@?$list@Usv_pair@@V?$allocator@Usv_pair@@@std@@@std@@IAEPAU_Node@?$_List_nod@Usv_pair@@V?$allocator@Usv_pair@@@std@@@2@PAU342@0ABUsv_pair@@@Z 0044e620 f i treeview.obj
 0001:0004d6b0       ?_Incsize@?$list@Usv_pair@@V?$allocator@Usv_pair@@@std@@@std@@IAEXI@Z 0044e6b0 f i treeview.obj
 0001:0004d750       ?_Buynode@?$_Tree@V?$_Tmap_traits@HVCEccTreeGroup@@U?$less@H@std@@V?$allocator@U?$pair@$$CBHVCEccTreeGroup@@@std@@@3@$0A@@std@@@std@@IAEPAU_Node@?$_Tree_nod@V?$_Tmap_traits@HVCEccTreeGroup@@U?$less@H@std@@V?$allocator@U?$pair@$$CBHVCEccTreeGroup@@@std@@@3@$0A@@std@@@2@XZ 0044e750 f i treeview.obj
 0001:0004d790       ?_Buynode@?$_Tree@V?$_Tmap_traits@HVCEccTreeDevice@@U?$less@H@std@@V?$allocator@U?$pair@$$CBHVCEccTreeDevice@@@std@@@3@$0A@@std@@@std@@IAEPAU_Node@?$_Tree_nod@V?$_Tmap_traits@HVCEccTreeDevice@@U?$less@H@std@@V?$allocator@U?$pair@$$CBHVCEccTreeDevice@@@std@@@3@$0A@@std@@@2@XZ 0044e790 f i treeview.obj
 0001:0004d7d0       ?_Buynode@?$_Tree@V?$_Tmap_traits@HVCECCMonitor@@U?$less@H@std@@V?$allocator@U?$pair@$$CBHVCECCMonitor@@@std@@@3@$0A@@std@@@std@@IAEPAU_Node@?$_Tree_nod@V?$_Tmap_traits@HVCECCMonitor@@U?$less@H@std@@V?$allocator@U?$pair@$$CBHVCECCMonitor@@@std@@@3@$0A@@std@@@2@XZ 0044e7d0 f i treeview.obj
 0001:0004d810       ?_Buynode@?$_Tree@V?$_Tmap_traits@HVCECCMonitor@@U?$less@H@std@@V?$allocator@U?$pair@$$CBHVCECCMonitor@@@std@@@3@$0A@@std@@@std@@IAEPAU_Node@?$_Tree_nod@V?$_Tmap_traits@HVCECCMonitor@@U?$less@H@std@@V?$allocator@U?$pair@$$CBHVCECCMonitor@@@std@@@3@$0A@@std@@@2@PAU342@00ABU?$pair@$$CBHVCECCMonitor@@@2@D@Z 0044e810 f i treeview.obj
 0001:0004d8b0       ?_Buynode@?$_Tree@V?$_Tmap_traits@V?$basic_string@DU?$char_traits@D@std@@V?$allocator@D@2@@std@@V?$list@HV?$allocator@H@std@@@2@U?$less@V?$basic_string@DU?$char_traits@D@std@@V?$allocator@D@2@@std@@@2@V?$allocator@U?$pair@$$CBV?$basic_string@DU?$char_traits@D@std@@V?$allocator@D@2@@std@@V?$list@HV?$allocator@H@std@@@2@@std@@@2@$0A@@std@@@std@@IAEPAU_Node@?$_Tree_nod@V?$_Tmap_traits@V?$basic_string@DU?$char_traits@D@std@@V?$allocator@D@2@@std@@V?$list@HV?$allocator@H@std@@@2@U?$less@V?$basic_string@DU?$char_traits@D@std@@V?$allocator@D@2@@std@@@2@V?$allocator@U?$pair@$$CBV?$basic_string@DU?$char_traits@D@std@@V?$allocator@D@2@@std@@V?$list@HV?$allocator@H@std@@@2@@std@@@2@$0A@@std@@@2@XZ 0044e8b0 f i treeview.obj
 0001:0004d8f0       ?_Buynode@?$_Tree@V?$_Tmap_traits@V?$basic_string@DU?$char_traits@D@std@@V?$allocator@D@2@@std@@VCEccTreeGroup@@U?$less@V?$basic_string@DU?$char_traits@D@std@@V?$allocator@D@2@@std@@@2@V?$allocator@U?$pair@$$CBV?$basic_string@DU?$char_traits@D@std@@V?$allocator@D@2@@std@@VCEccTreeGroup@@@std@@@2@$0A@@std@@@std@@IAEPAU_Node@?$_Tree_nod@V?$_Tmap_traits@V?$basic_string@DU?$char_traits@D@std@@V?$allocator@D@2@@std@@VCEccTreeGroup@@U?$less@V?$basic_string@DU?$char_traits@D@std@@V?$allocator@D@2@@std@@@2@V?$allocator@U?$pair@$$CBV?$basic_string@DU?$char_traits@D@std@@V?$allocator@D@2@@std@@VCEccTreeGroup@@@std@@@2@$0A@@std@@@2@XZ 0044e8f0 f i treeview.obj
 0001:0004d930       ?erase@?$list@HV?$allocator@H@std@@@std@@QAE?AViterator@12@V312@@Z 0044e930 f i treeview.obj
 0001:0004d970       ?find@?$_Tree@V?$_Tmap_traits@HVCECCMonitor@@U?$less@H@std@@V?$allocator@U?$pair@$$CBHVCECCMonitor@@@std@@@3@$0A@@std@@@std@@QAE?AViterator@12@ABH@Z 0044e970 f i treeview.obj
 0001:0004d9e0       ?find@?$_Tree@V?$_Tmap_traits@V?$basic_string@DU?$char_traits@D@std@@V?$allocator@D@2@@std@@V?$list@HV?$allocator@H@std@@@2@U?$less@V?$basic_string@DU?$char_traits@D@std@@V?$allocator@D@2@@std@@@2@V?$allocator@U?$pair@$$CBV?$basic_string@DU?$char_traits@D@std@@V?$allocator@D@2@@std@@V?$list@HV?$allocator@H@std@@@2@@std@@@2@$0A@@std@@@std@@QAE?AViterator@12@ABV?$basic_string@DU?$char_traits@D@std@@V?$allocator@D@2@@2@@Z 0044e9e0 f i treeview.obj
 0001:0004da40       ?find@?$_Tree@V?$_Tmap_traits@V?$basic_string@DU?$char_traits@D@std@@V?$allocator@D@2@@std@@VCEccTreeGroup@@U?$less@V?$basic_string@DU?$char_traits@D@std@@V?$allocator@D@2@@std@@@2@V?$allocator@U?$pair@$$CBV?$basic_string@DU?$char_traits@D@std@@V?$allocator@D@2@@std@@VCEccTreeGroup@@@std@@@2@$0A@@std@@@std@@QAE?AViterator@12@ABV?$basic_string@DU?$char_traits@D@std@@V?$allocator@D@2@@2@@Z 0044ea40 f i treeview.obj
 0001:0004daa0       ?_Tidy@?$deque@V?$basic_string@DU?$char_traits@D@std@@V?$allocator@D@2@@std@@V?$allocator@V?$basic_string@DU?$char_traits@D@std@@V?$allocator@D@2@@std@@@2@@std@@IAEXXZ 0044eaa0 f i treeview.obj
 0001:0004db20       ?_Insert@?$_Tree@V?$_Tmap_traits@HVCECCMonitor@@U?$less@H@std@@V?$allocator@U?$pair@$$CBHVCECCMonitor@@@std@@@3@$0A@@std@@@std@@IAE?AViterator@12@_NPAU_Node@?$_Tree_nod@V?$_Tmap_traits@HVCECCMonitor@@U?$less@H@std@@V?$allocator@U?$pair@$$CBHVCECCMonitor@@@std@@@3@$0A@@std@@@2@ABU?$pair@$$CBHVCECCMonitor@@@2@@Z 0044eb20 f i treeview.obj
 0001:0004dce0       ?_Growmap@?$deque@V?$basic_string@DU?$char_traits@D@std@@V?$allocator@D@2@@std@@V?$allocator@V?$basic_string@DU?$char_traits@D@std@@V?$allocator@D@2@@std@@@2@@std@@IAEXI@Z 0044ece0 f i treeview.obj
 0001:0004de30       ??$_Insert@Vconst_iterator@?$list@HV?$allocator@H@std@@@std@@@?$list@HV?$allocator@H@std@@@std@@QAEXViterator@01@Vconst_iterator@01@1Uforward_iterator_tag@1@@Z 0044ee30 f i treeview.obj
 0001:0004dee0       ?UpdateGroupData@CEccTreeView@@AAEXAAVCEccTreeGroup@@@Z 0044eee0 f   treeview.obj
 0001:0004e780       ?CreateSubGroups@CEccTreeView@@AAEXAAVCEccTreeGroup@@PAVWTable@@@Z 0044f780 f   treeview.obj
 0001:0004f1b0       ?erase@?$_Tree@V?$_Tmap_traits@HVCEccTreeGroup@@U?$less@H@std@@V?$allocator@U?$pair@$$CBHVCEccTreeGroup@@@std@@@3@$0A@@std@@@std@@QAE?AViterator@12@V312@@Z 004501b0 f i treeview.obj
 0001:0004f510       ?pop@?$stack@V?$basic_string@DU?$char_traits@D@std@@V?$allocator@D@2@@std@@V?$deque@V?$basic_string@DU?$char_traits@D@std@@V?$allocator@D@2@@std@@V?$allocator@V?$basic_string@DU?$char_traits@D@std@@V?$allocator@D@2@@std@@@2@@2@@std@@QAEXXZ 00450510 f i treeview.obj
 0001:0004f550       ??1?$pair@$$CBV?$basic_string@DU?$char_traits@D@std@@V?$allocator@D@2@@std@@V?$list@HV?$allocator@H@std@@@2@@std@@QAE@XZ 00450550 f i treeview.obj
 0001:0004f580       ?_Erase@?$_Tree@V?$_Tmap_traits@HVCEccTreeGroup@@U?$less@H@std@@V?$allocator@U?$pair@$$CBHVCEccTreeGroup@@@std@@@3@$0A@@std@@@std@@IAEXPAU_Node@?$_Tree_nod@V?$_Tmap_traits@HVCEccTreeGroup@@U?$less@H@std@@V?$allocator@U?$pair@$$CBHVCEccTreeGroup@@@std@@@3@$0A@@std@@@2@@Z 00450580 f i treeview.obj
 0001:0004f5d0       ?_Erase@?$_Tree@V?$_Tmap_traits@HVCECCMonitor@@U?$less@H@std@@V?$allocator@U?$pair@$$CBHVCECCMonitor@@@std@@@3@$0A@@std@@@std@@IAEXPAU_Node@?$_Tree_nod@V?$_Tmap_traits@HVCECCMonitor@@U?$less@H@std@@V?$allocator@U?$pair@$$CBHVCECCMonitor@@@std@@@3@$0A@@std@@@2@@Z 004505d0 f i treeview.obj
 0001:0004f610       ?insert@?$_Tree@V?$_Tmap_traits@HVCECCMonitor@@U?$less@H@std@@V?$allocator@U?$pair@$$CBHVCECCMonitor@@@std@@@3@$0A@@std@@@std@@QAE?AU?$pair@Viterator@?$_Tree@V?$_Tmap_traits@HVCECCMonitor@@U?$less@H@std@@V?$allocator@U?$pair@$$CBHVCECCMonitor@@@std@@@3@$0A@@std@@@std@@_N@2@ABU?$pair@$$CBHVCECCMonitor@@@2@@Z 00450610 f i treeview.obj
 0001:0004f6d0       ?_Copy@?$_Tree@V?$_Tmap_traits@HVCECCMonitor@@U?$less@H@std@@V?$allocator@U?$pair@$$CBHVCECCMonitor@@@std@@@3@$0A@@std@@@std@@IAEPAU_Node@?$_Tree_nod@V?$_Tmap_traits@HVCECCMonitor@@U?$less@H@std@@V?$allocator@U?$pair@$$CBHVCECCMonitor@@@std@@@3@$0A@@std@@@2@PAU342@0@Z 004506d0 f i treeview.obj
 0001:0004f780       ??1_Node@?$_Tree_nod@V?$_Tmap_traits@V?$basic_string@DU?$char_traits@D@std@@V?$allocator@D@2@@std@@V?$list@HV?$allocator@H@std@@@2@U?$less@V?$basic_string@DU?$char_traits@D@std@@V?$allocator@D@2@@std@@@2@V?$allocator@U?$pair@$$CBV?$basic_string@DU?$char_traits@D@std@@V?$allocator@D@2@@std@@V?$list@HV?$allocator@H@std@@@2@@std@@@2@$0A@@std@@@std@@QAE@XZ 00450780 f i treeview.obj
 0001:0004f7b0       ?EditMonitor@CEccTreeDevice@@QAEXABV?$basic_string@DU?$char_traits@D@std@@V?$allocator@D@2@@std@@0@Z 004507b0 f   treeview.obj
 0001:0004ff00       ?BuildSEShowText@CEccTreeView@@QAEXV?$basic_string@DU?$char_traits@D@std@@V?$allocator@D@2@@std@@@Z 00450f00 f   treeview.obj
 0001:0004ffb0       ??1?$stack@V?$basic_string@DU?$char_traits@D@std@@V?$allocator@D@2@@std@@V?$deque@V?$basic_string@DU?$char_traits@D@std@@V?$allocator@D@2@@std@@V?$allocator@V?$basic_string@DU?$char_traits@D@std@@V?$allocator@D@2@@std@@@2@@2@@std@@QAE@XZ 00450fb0 f i treeview.obj
 0001:0004ffc0       ?CreateTree@CEccTreeView@@AAEXXZ 00450fc0 f   treeview.obj
 0001:00050380       ?GetDevMTList@CEccTreeView@@QAEXABV?$basic_string@DU?$char_traits@D@std@@V?$allocator@D@2@@std@@AAV?$list@HV?$allocator@H@std@@@3@@Z 00451380 f   treeview.obj
 0001:000503f0       ?erase@?$_Tree@V?$_Tmap_traits@HVCEccTreeGroup@@U?$less@H@std@@V?$allocator@U?$pair@$$CBHVCEccTreeGroup@@@std@@@3@$0A@@std@@@std@@QAE?AViterator@12@V312@0@Z 004513f0 f i treeview.obj
 0001:00050470       ??1?$map@HVCEccTreeGroup@@U?$less@H@std@@V?$allocator@U?$pair@$$CBHVCEccTreeGroup@@@std@@@3@@std@@QAE@XZ 00451470 f i treeview.obj
 0001:00050470       ?_Tidy@?$_Tree@V?$_Tmap_traits@HVCEccTreeGroup@@U?$less@H@std@@V?$allocator@U?$pair@$$CBHVCEccTreeGroup@@@std@@@3@$0A@@std@@@std@@IAEXXZ 00451470 f i treeview.obj
 0001:000504a0       ?insert@?$_Tree@V?$_Tmap_traits@HVCECCMonitor@@U?$less@H@std@@V?$allocator@U?$pair@$$CBHVCECCMonitor@@@std@@@3@$0A@@std@@@std@@QAE?AViterator@12@V312@ABU?$pair@$$CBHVCECCMonitor@@@2@@Z 004514a0 f i treeview.obj
 0001:00050610       ?erase@?$_Tree@V?$_Tmap_traits@HVCECCMonitor@@U?$less@H@std@@V?$allocator@U?$pair@$$CBHVCECCMonitor@@@std@@@3@$0A@@std@@@std@@QAE?AViterator@12@V312@0@Z 00451610 f i treeview.obj
 0001:000506d0       ?_Copy@?$_Tree@V?$_Tmap_traits@HVCECCMonitor@@U?$less@H@std@@V?$allocator@U?$pair@$$CBHVCECCMonitor@@@std@@@3@$0A@@std@@@std@@IAEXABV12@@Z 004516d0 f i treeview.obj
 0001:00050760       ??1?$map@HVCECCMonitor@@U?$less@H@std@@V?$allocator@U?$pair@$$CBHVCECCMonitor@@@std@@@3@@std@@QAE@XZ 00451760 f i treeview.obj
 0001:00050760       ?_Tidy@?$_Tree@V?$_Tmap_traits@HVCECCMonitor@@U?$less@H@std@@V?$allocator@U?$pair@$$CBHVCECCMonitor@@@std@@@3@$0A@@std@@@std@@IAEXXZ 00451760 f i treeview.obj
 0001:00050790       ??0?$_Tree@V?$_Tmap_traits@HVCECCMonitor@@U?$less@H@std@@V?$allocator@U?$pair@$$CBHVCECCMonitor@@@std@@@3@$0A@@std@@@std@@QAE@ABV01@@Z 00451790 f i treeview.obj
 0001:00050820       ??0?$list@HV?$allocator@H@std@@@std@@QAE@ABV01@@Z 00451820 f i treeview.obj
 0001:000508a0       ??0?$pair@$$CBV?$basic_string@DU?$char_traits@D@std@@V?$allocator@D@2@@std@@V?$list@HV?$allocator@H@std@@@2@@std@@QAE@ABU01@@Z 004518a0 f i treeview.obj
 0001:00050900       ?Reset@CEccTreeDevice@@EAEXXZ 00451900 f   treeview.obj
 0001:00050980       ?MTCanUsing@CEccTreeDevice@@QAE_NH@Z 00451980 f   treeview.obj
 0001:00050a60       ?getECCObject@CEccTreeView@@SAPBVCEccTreeNode@@ABV?$basic_string@DU?$char_traits@D@std@@V?$allocator@D@2@@std@@@Z 00451a60 f   treeview.obj
 0001:00050ee0       ??A?$map@HVCECCMonitor@@U?$less@H@std@@V?$allocator@U?$pair@$$CBHVCECCMonitor@@@std@@@3@@std@@QAEAAVCECCMonitor@@ABH@Z 00451ee0 f i treeview.obj
 0001:00050fd0       ??4?$list@HV?$allocator@H@std@@@std@@QAEAAV01@ABV01@@Z 00451fd0 f i treeview.obj
 0001:00051010       ??0?$pair@$$CBV?$basic_string@DU?$char_traits@D@std@@V?$allocator@D@2@@std@@V?$list@HV?$allocator@H@std@@@2@@std@@QAE@ABV?$basic_string@DU?$char_traits@D@std@@V?$allocator@D@2@@1@ABV?$list@HV?$allocator@H@std@@@1@@Z 00452010 f i treeview.obj
 0001:00051070       ??1CEccTreeDevice@@QAE@XZ  00452070 f   treeview.obj
 0001:00051160       ?AppendMonitor@CEccTreeDevice@@QAEHABV?$basic_string@DU?$char_traits@D@std@@V?$allocator@D@2@@std@@0H@Z 00452160 f   treeview.obj
 0001:00051dc0       ?EditSVSE@CEccTreeView@@SAXABV?$basic_string@DU?$char_traits@D@std@@V?$allocator@D@2@@std@@0@Z 00452dc0 f   treeview.obj
 0001:00052190       ?EditDevice@CEccTreeView@@SAXABV?$basic_string@DU?$char_traits@D@std@@V?$allocator@D@2@@std@@0000@Z 00453190 f   treeview.obj
 0001:00052790       ?EditGroup@CEccTreeView@@SAXABV?$basic_string@DU?$char_traits@D@std@@V?$allocator@D@2@@std@@0000@Z 00453790 f   treeview.obj
 0001:00052d90       ?MakePath@CEccTreeView@@SAXABV?$basic_string@DU?$char_traits@D@std@@V?$allocator@D@2@@std@@AAV?$list@Usv_pair@@V?$allocator@Usv_pair@@@std@@@3@@Z 00453d90 f   treeview.obj
 0001:00053680       ??1?$pair@$$CBHVCEccTreeDevice@@@std@@QAE@XZ 00454680 f i treeview.obj
 0001:00053690       ??0CEccTreeDevice@@QAE@ABV0@@Z 00454690 f i treeview.obj
 0001:00053750       ?_Buynode@?$_Tree@V?$_Tmap_traits@V?$basic_string@DU?$char_traits@D@std@@V?$allocator@D@2@@std@@V?$list@HV?$allocator@H@std@@@2@U?$less@V?$basic_string@DU?$char_traits@D@std@@V?$allocator@D@2@@std@@@2@V?$allocator@U?$pair@$$CBV?$basic_string@DU?$char_traits@D@std@@V?$allocator@D@2@@std@@V?$list@HV?$allocator@H@std@@@2@@std@@@2@$0A@@std@@@std@@IAEPAU_Node@?$_Tree_nod@V?$_Tmap_traits@V?$basic_string@DU?$char_traits@D@std@@V?$allocator@D@2@@std@@V?$list@HV?$allocator@H@std@@@2@U?$less@V?$basic_string@DU?$char_traits@D@std@@V?$allocator@D@2@@std@@@2@V?$allocator@U?$pair@$$CBV?$basic_string@DU?$char_traits@D@std@@V?$allocator@D@2@@std@@V?$list@HV?$allocator@H@std@@@2@@std@@@2@$0A@@std@@@2@PAU342@00ABU?$pair@$$CBV?$basic_string@DU?$char_traits@D@std@@V?$allocator@D@2@@std@@V?$list@HV?$allocator@H@std@@@2@@2@D@Z 00454750 f i treeview.obj
 0001:000537f0       ??1_Node@?$_Tree_nod@V?$_Tmap_traits@HVCEccTreeDevice@@U?$less@H@std@@V?$allocator@U?$pair@$$CBHVCEccTreeDevice@@@std@@@3@$0A@@std@@@std@@QAE@XZ 004547f0 f i treeview.obj
 0001:00053800       ??0CEccTreeDevice@@QAE@XZ  00454800 f   treeview.obj
 0001:000538d0       ??4CEccTreeDevice@@QAEAAV0@ABV0@@Z 004548d0 f i treeview.obj
 0001:00053960       ?_Insert@?$_Tree@V?$_Tmap_traits@V?$basic_string@DU?$char_traits@D@std@@V?$allocator@D@2@@std@@V?$list@HV?$allocator@H@std@@@2@U?$less@V?$basic_string@DU?$char_traits@D@std@@V?$allocator@D@2@@std@@@2@V?$allocator@U?$pair@$$CBV?$basic_string@DU?$char_traits@D@std@@V?$allocator@D@2@@std@@V?$list@HV?$allocator@H@std@@@2@@std@@@2@$0A@@std@@@std@@IAE?AViterator@12@_NPAU_Node@?$_Tree_nod@V?$_Tmap_traits@V?$basic_string@DU?$char_traits@D@std@@V?$allocator@D@2@@std@@V?$list@HV?$allocator@H@std@@@2@U?$less@V?$basic_string@DU?$char_traits@D@std@@V?$allocator@D@2@@std@@@2@V?$allocator@U?$pair@$$CBV?$basic_string@DU?$char_traits@D@std@@V?$allocator@D@2@@std@@V?$list@HV?$allocator@H@std@@@2@@std@@@2@$0A@@std@@@2@ABU?$pair@$$CBV?$basic_string@DU?$char_traits@D@std@@V?$allocator@D@2@@std@@V?$list@HV?$allocator@H@std@@@2@@2@@Z 00454960 f i treeview.obj
 0001:00053b20       ?erase@?$_Tree@V?$_Tmap_traits@V?$basic_string@DU?$char_traits@D@std@@V?$allocator@D@2@@std@@V?$list@HV?$allocator@H@std@@@2@U?$less@V?$basic_string@DU?$char_traits@D@std@@V?$allocator@D@2@@std@@@2@V?$allocator@U?$pair@$$CBV?$basic_string@DU?$char_traits@D@std@@V?$allocator@D@2@@std@@V?$list@HV?$allocator@H@std@@@2@@std@@@2@$0A@@std@@@std@@QAE?AViterator@12@V312@@Z 00454b20 f i treeview.obj
 0001:00053e40       ?_Erase@?$_Tree@V?$_Tmap_traits@V?$basic_string@DU?$char_traits@D@std@@V?$allocator@D@2@@std@@V?$list@HV?$allocator@H@std@@@2@U?$less@V?$basic_string@DU?$char_traits@D@std@@V?$allocator@D@2@@std@@@2@V?$allocator@U?$pair@$$CBV?$basic_string@DU?$char_traits@D@std@@V?$allocator@D@2@@std@@V?$list@HV?$allocator@H@std@@@2@@std@@@2@$0A@@std@@@std@@IAEXPAU_Node@?$_Tree_nod@V?$_Tmap_traits@V?$basic_string@DU?$char_traits@D@std@@V?$allocator@D@2@@std@@V?$list@HV?$allocator@H@std@@@2@U?$less@V?$basic_string@DU?$char_traits@D@std@@V?$allocator@D@2@@std@@@2@V?$allocator@U?$pair@$$CBV?$basic_string@DU?$char_traits@D@std@@V?$allocator@D@2@@std@@V?$list@HV?$allocator@H@std@@@2@@std@@@2@$0A@@std@@@2@@Z 00454e40 f i treeview.obj
 0001:00053e80       ?insert@?$_Tree@V?$_Tmap_traits@V?$basic_string@DU?$char_traits@D@std@@V?$allocator@D@2@@std@@V?$list@HV?$allocator@H@std@@@2@U?$less@V?$basic_string@DU?$char_traits@D@std@@V?$allocator@D@2@@std@@@2@V?$allocator@U?$pair@$$CBV?$basic_string@DU?$char_traits@D@std@@V?$allocator@D@2@@std@@V?$list@HV?$allocator@H@std@@@2@@std@@@2@$0A@@std@@@std@@QAE?AU?$pair@Viterator@?$_Tree@V?$_Tmap_traits@V?$basic_string@DU?$char_traits@D@std@@V?$allocator@D@2@@std@@V?$list@HV?$allocator@H@std@@@2@U?$less@V?$basic_string@DU?$char_traits@D@std@@V?$allocator@D@2@@std@@@2@V?$allocator@U?$pair@$$CBV?$basic_string@DU?$char_traits@D@std@@V?$allocator@D@2@@std@@V?$list@HV?$allocator@H@std@@@2@@std@@@2@$0A@@std@@@std@@_N@2@ABU?$pair@$$CBV?$basic_string@DU?$char_traits@D@std@@V?$allocator@D@2@@std@@V?$list@HV?$allocator@H@std@@@2@@2@@Z 00454e80 f i treeview.obj
 0001:00053f60       ?_Buynode@?$_Tree@V?$_Tmap_traits@HVCEccTreeDevice@@U?$less@H@std@@V?$allocator@U?$pair@$$CBHVCEccTreeDevice@@@std@@@3@$0A@@std@@@std@@IAEPAU_Node@?$_Tree_nod@V?$_Tmap_traits@HVCEccTreeDevice@@U?$less@H@std@@V?$allocator@U?$pair@$$CBHVCEccTreeDevice@@@std@@@3@$0A@@std@@@2@PAU342@00ABU?$pair@$$CBHVCEccTreeDevice@@@2@D@Z 00454f60 f i treeview.obj
 0001:00054010       ?insert@?$_Tree@V?$_Tmap_traits@V?$basic_string@DU?$char_traits@D@std@@V?$allocator@D@2@@std@@V?$list@HV?$allocator@H@std@@@2@U?$less@V?$basic_string@DU?$char_traits@D@std@@V?$allocator@D@2@@std@@@2@V?$allocator@U?$pair@$$CBV?$basic_string@DU?$char_traits@D@std@@V?$allocator@D@2@@std@@V?$list@HV?$allocator@H@std@@@2@@std@@@2@$0A@@std@@@std@@QAE?AViterator@12@V312@ABU?$pair@$$CBV?$basic_string@DU?$char_traits@D@std@@V?$allocator@D@2@@std@@V?$list@HV?$allocator@H@std@@@2@@2@@Z 00455010 f i treeview.obj
 0001:000541d0       ?_Insert@?$_Tree@V?$_Tmap_traits@HVCEccTreeDevice@@U?$less@H@std@@V?$allocator@U?$pair@$$CBHVCEccTreeDevice@@@std@@@3@$0A@@std@@@std@@IAE?AViterator@12@_NPAU_Node@?$_Tree_nod@V?$_Tmap_traits@HVCEccTreeDevice@@U?$less@H@std@@V?$allocator@U?$pair@$$CBHVCEccTreeDevice@@@std@@@3@$0A@@std@@@2@ABU?$pair@$$CBHVCEccTreeDevice@@@2@@Z 004551d0 f i treeview.obj
 0001:000543b0       ?erase@?$_Tree@V?$_Tmap_traits@V?$basic_string@DU?$char_traits@D@std@@V?$allocator@D@2@@std@@V?$list@HV?$allocator@H@std@@@2@U?$less@V?$basic_string@DU?$char_traits@D@std@@V?$allocator@D@2@@std@@@2@V?$allocator@U?$pair@$$CBV?$basic_string@DU?$char_traits@D@std@@V?$allocator@D@2@@std@@V?$list@HV?$allocator@H@std@@@2@@std@@@2@$0A@@std@@@std@@QAE?AViterator@12@V312@0@Z 004553b0 f i treeview.obj
 0001:00054470       ?erase@?$_Tree@V?$_Tmap_traits@HVCEccTreeDevice@@U?$less@H@std@@V?$allocator@U?$pair@$$CBHVCEccTreeDevice@@@std@@@3@$0A@@std@@@std@@QAE?AViterator@12@V312@@Z 00455470 f i treeview.obj
 0001:000547d0       ??A?$map@V?$basic_string@DU?$char_traits@D@std@@V?$allocator@D@2@@std@@V?$list@HV?$allocator@H@std@@@2@U?$less@V?$basic_string@DU?$char_traits@D@std@@V?$allocator@D@2@@std@@@2@V?$allocator@U?$pair@$$CBV?$basic_string@DU?$char_traits@D@std@@V?$allocator@D@2@@std@@V?$list@HV?$allocator@H@std@@@2@@std@@@2@@std@@QAEAAV?$list@HV?$allocator@H@std@@@1@ABV?$basic_string@DU?$char_traits@D@std@@V?$allocator@D@2@@1@@Z 004557d0 f i treeview.obj
 0001:000548e0       ?_Erase@?$_Tree@V?$_Tmap_traits@HVCEccTreeDevice@@U?$less@H@std@@V?$allocator@U?$pair@$$CBHVCEccTreeDevice@@@std@@@3@$0A@@std@@@std@@IAEXPAU_Node@?$_Tree_nod@V?$_Tmap_traits@HVCEccTreeDevice@@U?$less@H@std@@V?$allocator@U?$pair@$$CBHVCEccTreeDevice@@@std@@@3@$0A@@std@@@2@@Z 004558e0 f i treeview.obj
 0001:00054930       ?insert@?$_Tree@V?$_Tmap_traits@HVCEccTreeDevice@@U?$less@H@std@@V?$allocator@U?$pair@$$CBHVCEccTreeDevice@@@std@@@3@$0A@@std@@@std@@QAE?AU?$pair@Viterator@?$_Tree@V?$_Tmap_traits@HVCEccTreeDevice@@U?$less@H@std@@V?$allocator@U?$pair@$$CBHVCEccTreeDevice@@@std@@@3@$0A@@std@@@std@@_N@2@ABU?$pair@$$CBHVCEccTreeDevice@@@2@@Z 00455930 f i treeview.obj
 0001:000549f0       ?_Copy@?$_Tree@V?$_Tmap_traits@HVCEccTreeDevice@@U?$less@H@std@@V?$allocator@U?$pair@$$CBHVCEccTreeDevice@@@std@@@3@$0A@@std@@@std@@IAEPAU_Node@?$_Tree_nod@V?$_Tmap_traits@HVCEccTreeDevice@@U?$less@H@std@@V?$allocator@U?$pair@$$CBHVCEccTreeDevice@@@std@@@3@$0A@@std@@@2@PAU342@0@Z 004559f0 f i treeview.obj
 0001:00054ab0       ?DeleteDeviceByID@CEccTreeView@@SAXABV?$basic_string@DU?$char_traits@D@std@@V?$allocator@D@2@@std@@@Z 00455ab0 f   treeview.obj
 0001:00055390       ?DeleteGroupByID@CEccTreeView@@SAXABV?$basic_string@DU?$char_traits@D@std@@V?$allocator@D@2@@std@@@Z 00456390 f   treeview.obj
 0001:00055c60       ?getDeviceShowType@CEccTreeView@@AAE?AV?$basic_string@DU?$char_traits@D@std@@V?$allocator@D@2@@std@@ABV23@@Z 00456c60 f   treeview.obj
 0001:00055ee0       ?InsertDevMTList@CEccTreeView@@QAEXABV?$basic_string@DU?$char_traits@D@std@@V?$allocator@D@2@@std@@ABV?$list@HV?$allocator@H@std@@@3@@Z 00456ee0 f   treeview.obj
 0001:00055f30       ?insert@?$_Tree@V?$_Tmap_traits@HVCEccTreeDevice@@U?$less@H@std@@V?$allocator@U?$pair@$$CBHVCEccTreeDevice@@@std@@@3@$0A@@std@@@std@@QAE?AViterator@12@V312@ABU?$pair@$$CBHVCEccTreeDevice@@@2@@Z 00456f30 f i treeview.obj
 0001:000560a0       ?erase@?$_Tree@V?$_Tmap_traits@HVCEccTreeDevice@@U?$less@H@std@@V?$allocator@U?$pair@$$CBHVCEccTreeDevice@@@std@@@3@$0A@@std@@@std@@QAE?AViterator@12@V312@0@Z 004570a0 f i treeview.obj
 0001:00056120       ?_Copy@?$_Tree@V?$_Tmap_traits@HVCEccTreeDevice@@U?$less@H@std@@V?$allocator@U?$pair@$$CBHVCEccTreeDevice@@@std@@@3@$0A@@std@@@std@@IAEXABV12@@Z 00457120 f i treeview.obj
 0001:000561b0       ??0?$_Tree@V?$_Tmap_traits@HVCEccTreeDevice@@U?$less@H@std@@V?$allocator@U?$pair@$$CBHVCEccTreeDevice@@@std@@@3@$0A@@std@@@std@@QAE@ABV01@@Z 004571b0 f i treeview.obj
 0001:00056240       ??1?$map@V?$basic_string@DU?$char_traits@D@std@@V?$allocator@D@2@@std@@V?$list@HV?$allocator@H@std@@@2@U?$less@V?$basic_string@DU?$char_traits@D@std@@V?$allocator@D@2@@std@@@2@V?$allocator@U?$pair@$$CBV?$basic_string@DU?$char_traits@D@std@@V?$allocator@D@2@@std@@V?$list@HV?$allocator@H@std@@@2@@std@@@2@@std@@QAE@XZ 00457240 f i treeview.obj
 0001:00056270       ?Reset@CEccTreeGroup@@EAEXXZ 00457270 f   treeview.obj
 0001:000562f0       ?EnumDevice@CEccTreeView@@AAEXAAVCEccTreeDevice@@@Z 004572f0 f   treeview.obj
 0001:00056e40       ??A?$map@HVCEccTreeDevice@@U?$less@H@std@@V?$allocator@U?$pair@$$CBHVCEccTreeDevice@@@std@@@3@@std@@QAEAAVCEccTreeDevice@@ABH@Z 00457e40 f i treeview.obj
 0001:00056f20       ?_Tidy@?$_Tree@V?$_Tmap_traits@HVCEccTreeDevice@@U?$less@H@std@@V?$allocator@U?$pair@$$CBHVCEccTreeDevice@@@std@@@3@$0A@@std@@@std@@IAEXXZ 00457f20 f i treeview.obj
 0001:00056f20       ??1?$map@HVCEccTreeDevice@@U?$less@H@std@@V?$allocator@U?$pair@$$CBHVCEccTreeDevice@@@std@@@3@@std@@QAE@XZ 00457f20 f i treeview.obj
 0001:00056f50       ??1CEccTreeGroup@@QAE@XZ   00457f50 f   treeview.obj
 0001:00057050       ?AppendDevice@CEccTreeGroup@@QAEHABV?$basic_string@DU?$char_traits@D@std@@V?$allocator@D@2@@std@@00000000H@Z 00458050 f   treeview.obj
 0001:00057c90       ?AppendDevice@CEccTreeView@@SAHABV?$basic_string@DU?$char_traits@D@std@@V?$allocator@D@2@@std@@0000000@Z 00458c90 f   treeview.obj
 0001:00058320       ??1?$pair@$$CBV?$basic_string@DU?$char_traits@D@std@@V?$allocator@D@2@@std@@VCEccTreeGroup@@@std@@QAE@XZ 00459320 f i treeview.obj
 0001:00058370       ??1_Node@?$_Tree_nod@V?$_Tmap_traits@V?$basic_string@DU?$char_traits@D@std@@V?$allocator@D@2@@std@@VCEccTreeGroup@@U?$less@V?$basic_string@DU?$char_traits@D@std@@V?$allocator@D@2@@std@@@2@V?$allocator@U?$pair@$$CBV?$basic_string@DU?$char_traits@D@std@@V?$allocator@D@2@@std@@VCEccTreeGroup@@@std@@@2@$0A@@std@@@std@@QAE@XZ 00459370 f i treeview.obj
 0001:00058380       ??0CEccTreeGroup@@QAE@XZ   00459380 f   treeview.obj
 0001:00058490       ?_Buynode@?$_Tree@V?$_Tmap_traits@HVCEccTreeGroup@@U?$less@H@std@@V?$allocator@U?$pair@$$CBHVCEccTreeGroup@@@std@@@3@$0A@@std@@@std@@IAEPAU_Node@?$_Tree_nod@V?$_Tmap_traits@HVCEccTreeGroup@@U?$less@H@std@@V?$allocator@U?$pair@$$CBHVCEccTreeGroup@@@std@@@3@$0A@@std@@@2@PAU342@00ABU?$pair@$$CBHVCEccTreeGroup@@@2@D@Z 00459490 f i treeview.obj
 0001:00058540       ?_Copy@?$_Tree@V?$_Tmap_traits@HVCEccTreeGroup@@U?$less@H@std@@V?$allocator@U?$pair@$$CBHVCEccTreeGroup@@@std@@@3@$0A@@std@@@std@@IAEPAU_Node@?$_Tree_nod@V?$_Tmap_traits@HVCEccTreeGroup@@U?$less@H@std@@V?$allocator@U?$pair@$$CBHVCEccTreeGroup@@@std@@@3@$0A@@std@@@2@PAU342@0@Z 00459540 f i treeview.obj
 0001:00058600       ?_Insert@?$_Tree@V?$_Tmap_traits@HVCEccTreeGroup@@U?$less@H@std@@V?$allocator@U?$pair@$$CBHVCEccTreeGroup@@@std@@@3@$0A@@std@@@std@@IAE?AViterator@12@_NPAU_Node@?$_Tree_nod@V?$_Tmap_traits@HVCEccTreeGroup@@U?$less@H@std@@V?$allocator@U?$pair@$$CBHVCEccTreeGroup@@@std@@@3@$0A@@std@@@2@ABU?$pair@$$CBHVCEccTreeGroup@@@2@@Z 00459600 f i treeview.obj
 0001:000587e0       ?erase@?$_Tree@V?$_Tmap_traits@V?$basic_string@DU?$char_traits@D@std@@V?$allocator@D@2@@std@@VCEccTreeGroup@@U?$less@V?$basic_string@DU?$char_traits@D@std@@V?$allocator@D@2@@std@@@2@V?$allocator@U?$pair@$$CBV?$basic_string@DU?$char_traits@D@std@@V?$allocator@D@2@@std@@VCEccTreeGroup@@@std@@@2@$0A@@std@@@std@@QAE?AViterator@12@V312@@Z 004597e0 f i treeview.obj
 0001:00058b60       ?_Copy@?$_Tree@V?$_Tmap_traits@HVCEccTreeGroup@@U?$less@H@std@@V?$allocator@U?$pair@$$CBHVCEccTreeGroup@@@std@@@3@$0A@@std@@@std@@IAEXABV12@@Z 00459b60 f i treeview.obj
 0001:00058bf0       ?_Erase@?$_Tree@V?$_Tmap_traits@V?$basic_string@DU?$char_traits@D@std@@V?$allocator@D@2@@std@@VCEccTreeGroup@@U?$less@V?$basic_string@DU?$char_traits@D@std@@V?$allocator@D@2@@std@@@2@V?$allocator@U?$pair@$$CBV?$basic_string@DU?$char_traits@D@std@@V?$allocator@D@2@@std@@VCEccTreeGroup@@@std@@@2@$0A@@std@@@std@@IAEXPAU_Node@?$_Tree_nod@V?$_Tmap_traits@V?$basic_string@DU?$char_traits@D@std@@V?$allocator@D@2@@std@@VCEccTreeGroup@@U?$less@V?$basic_string@DU?$char_traits@D@std@@V?$allocator@D@2@@std@@@2@V?$allocator@U?$pair@$$CBV?$basic_string@DU?$char_traits@D@std@@V?$allocator@D@2@@std@@VCEccTreeGroup@@@std@@@2@$0A@@std@@@2@@Z 00459bf0 f i treeview.obj
 0001:00058c40       ??0?$_Tree@V?$_Tmap_traits@HVCEccTreeGroup@@U?$less@H@std@@V?$allocator@U?$pair@$$CBHVCEccTreeGroup@@@std@@@3@$0A@@std@@@std@@QAE@ABV01@@Z 00459c40 f i treeview.obj
 0001:00058cd0       ?insert@?$_Tree@V?$_Tmap_traits@HVCEccTreeGroup@@U?$less@H@std@@V?$allocator@U?$pair@$$CBHVCEccTreeGroup@@@std@@@3@$0A@@std@@@std@@QAE?AU?$pair@Viterator@?$_Tree@V?$_Tmap_traits@HVCEccTreeGroup@@U?$less@H@std@@V?$allocator@U?$pair@$$CBHVCEccTreeGroup@@@std@@@3@$0A@@std@@@std@@_N@2@ABU?$pair@$$CBHVCEccTreeGroup@@@2@@Z 00459cd0 f i treeview.obj
 0001:00058d90       ?insert@?$_Tree@V?$_Tmap_traits@HVCEccTreeGroup@@U?$less@H@std@@V?$allocator@U?$pair@$$CBHVCEccTreeGroup@@@std@@@3@$0A@@std@@@std@@QAE?AViterator@12@V312@ABU?$pair@$$CBHVCEccTreeGroup@@@2@@Z 00459d90 f i treeview.obj
 0001:00058f00       ?erase@?$_Tree@V?$_Tmap_traits@V?$basic_string@DU?$char_traits@D@std@@V?$allocator@D@2@@std@@VCEccTreeGroup@@U?$less@V?$basic_string@DU?$char_traits@D@std@@V?$allocator@D@2@@std@@@2@V?$allocator@U?$pair@$$CBV?$basic_string@DU?$char_traits@D@std@@V?$allocator@D@2@@std@@VCEccTreeGroup@@@std@@@2@$0A@@std@@@std@@QAE?AViterator@12@V312@0@Z 00459f00 f i treeview.obj
 0001:00058f80       ??0CEccTreeGroup@@QAE@ABV0@@Z 00459f80 f i treeview.obj
 0001:00059030       ??0?$pair@$$CBV?$basic_string@DU?$char_traits@D@std@@V?$allocator@D@2@@std@@VCEccTreeGroup@@@std@@QAE@ABU01@@Z 0045a030 f i treeview.obj
 0001:00059090       ??4CEccTreeGroup@@QAEAAV0@ABV0@@Z 0045a090 f i treeview.obj
 0001:00059130       ??0?$pair@$$CBV?$basic_string@DU?$char_traits@D@std@@V?$allocator@D@2@@std@@VCEccTreeGroup@@@std@@QAE@ABV?$basic_string@DU?$char_traits@D@std@@V?$allocator@D@2@@1@ABVCEccTreeGroup@@@Z 0045a130 f i treeview.obj
 0001:00059190       ??1?$map@V?$basic_string@DU?$char_traits@D@std@@V?$allocator@D@2@@std@@VCEccTreeGroup@@U?$less@V?$basic_string@DU?$char_traits@D@std@@V?$allocator@D@2@@std@@@2@V?$allocator@U?$pair@$$CBV?$basic_string@DU?$char_traits@D@std@@V?$allocator@D@2@@std@@VCEccTreeGroup@@@std@@@2@@std@@QAE@XZ 0045a190 f i treeview.obj
 0001:000591c0       ??A?$map@HVCEccTreeGroup@@U?$less@H@std@@V?$allocator@U?$pair@$$CBHVCEccTreeGroup@@@std@@@3@@std@@QAEAAVCEccTreeGroup@@ABH@Z 0045a1c0 f i treeview.obj
 0001:000592a0       ?_Buynode@?$_Tree@V?$_Tmap_traits@V?$basic_string@DU?$char_traits@D@std@@V?$allocator@D@2@@std@@VCEccTreeGroup@@U?$less@V?$basic_string@DU?$char_traits@D@std@@V?$allocator@D@2@@std@@@2@V?$allocator@U?$pair@$$CBV?$basic_string@DU?$char_traits@D@std@@V?$allocator@D@2@@std@@VCEccTreeGroup@@@std@@@2@$0A@@std@@@std@@IAEPAU_Node@?$_Tree_nod@V?$_Tmap_traits@V?$basic_string@DU?$char_traits@D@std@@V?$allocator@D@2@@std@@VCEccTreeGroup@@U?$less@V?$basic_string@DU?$char_traits@D@std@@V?$allocator@D@2@@std@@@2@V?$allocator@U?$pair@$$CBV?$basic_string@DU?$char_traits@D@std@@V?$allocator@D@2@@std@@VCEccTreeGroup@@@std@@@2@$0A@@std@@@2@PAU342@00ABU?$pair@$$CBV?$basic_string@DU?$char_traits@D@std@@V?$allocator@D@2@@std@@VCEccTreeGroup@@@2@D@Z 0045a2a0 f i treeview.obj
 0001:00059340       ?AppendGroup@CEccTreeGroup@@QAEHABV?$basic_string@DU?$char_traits@D@std@@V?$allocator@D@2@@std@@00000H@Z 0045a340 f   treeview.obj
 0001:00059dc0       ?EnumGroups@CEccTreeView@@AAEXAAVCEccTreeGroup@@@Z 0045adc0 f   treeview.obj
 0001:0005a970       ?AppendGroup@CEccTreeView@@SAHABV?$basic_string@DU?$char_traits@D@std@@V?$allocator@D@2@@std@@0000@Z 0045b970 f   treeview.obj
 0001:0005afe0       ?ReCreateTreeNode@CEccTreeView@@SAXABV?$basic_string@DU?$char_traits@D@std@@V?$allocator@D@2@@std@@@Z 0045bfe0 f   treeview.obj
 0001:0005b670       ?_Insert@?$_Tree@V?$_Tmap_traits@V?$basic_string@DU?$char_traits@D@std@@V?$allocator@D@2@@std@@VCEccTreeGroup@@U?$less@V?$basic_string@DU?$char_traits@D@std@@V?$allocator@D@2@@std@@@2@V?$allocator@U?$pair@$$CBV?$basic_string@DU?$char_traits@D@std@@V?$allocator@D@2@@std@@VCEccTreeGroup@@@std@@@2@$0A@@std@@@std@@IAE?AViterator@12@_NPAU_Node@?$_Tree_nod@V?$_Tmap_traits@V?$basic_string@DU?$char_traits@D@std@@V?$allocator@D@2@@std@@VCEccTreeGroup@@U?$less@V?$basic_string@DU?$char_traits@D@std@@V?$allocator@D@2@@std@@@2@V?$allocator@U?$pair@$$CBV?$basic_string@DU?$char_traits@D@std@@V?$allocator@D@2@@std@@VCEccTreeGroup@@@std@@@2@$0A@@std@@@2@ABU?$pair@$$CBV?$basic_string@DU?$char_traits@D@std@@V?$allocator@D@2@@std@@VCEccTreeGroup@@@2@@Z 0045c670 f i treeview.obj
 0001:0005b850       ?insert@?$_Tree@V?$_Tmap_traits@V?$basic_string@DU?$char_traits@D@std@@V?$allocator@D@2@@std@@VCEccTreeGroup@@U?$less@V?$basic_string@DU?$char_traits@D@std@@V?$allocator@D@2@@std@@@2@V?$allocator@U?$pair@$$CBV?$basic_string@DU?$char_traits@D@std@@V?$allocator@D@2@@std@@VCEccTreeGroup@@@std@@@2@$0A@@std@@@std@@QAE?AU?$pair@Viterator@?$_Tree@V?$_Tmap_traits@V?$basic_string@DU?$char_traits@D@std@@V?$allocator@D@2@@std@@VCEccTreeGroup@@U?$less@V?$basic_string@DU?$char_traits@D@std@@V?$allocator@D@2@@std@@@2@V?$allocator@U?$pair@$$CBV?$basic_string@DU?$char_traits@D@std@@V?$allocator@D@2@@std@@VCEccTreeGroup@@@std@@@2@$0A@@std@@@std@@_N@2@ABU?$pair@$$CBV?$basic_string@DU?$char_traits@D@std@@V?$allocator@D@2@@std@@VCEccTreeGroup@@@2@@Z 0045c850 f i treeview.obj
 0001:0005b930       ?insert@?$_Tree@V?$_Tmap_traits@V?$basic_string@DU?$char_traits@D@std@@V?$allocator@D@2@@std@@VCEccTreeGroup@@U?$less@V?$basic_string@DU?$char_traits@D@std@@V?$allocator@D@2@@std@@@2@V?$allocator@U?$pair@$$CBV?$basic_string@DU?$char_traits@D@std@@V?$allocator@D@2@@std@@VCEccTreeGroup@@@std@@@2@$0A@@std@@@std@@QAE?AViterator@12@V312@ABU?$pair@$$CBV?$basic_string@DU?$char_traits@D@std@@V?$allocator@D@2@@std@@VCEccTreeGroup@@@2@@Z 0045c930 f i treeview.obj
 0001:0005baf0       ??A?$map@V?$basic_string@DU?$char_traits@D@std@@V?$allocator@D@2@@std@@VCEccTreeGroup@@U?$less@V?$basic_string@DU?$char_traits@D@std@@V?$allocator@D@2@@std@@@2@V?$allocator@U?$pair@$$CBV?$basic_string@DU?$char_traits@D@std@@V?$allocator@D@2@@std@@VCEccTreeGroup@@@std@@@2@@std@@QAEAAVCEccTreeGroup@@ABV?$basic_string@DU?$char_traits@D@std@@V?$allocator@D@2@@1@@Z 0045caf0 f i treeview.obj
 0001:0005bbc0       ?EnumSVSE@CEccTreeView@@AAEXXZ 0045cbc0 f   treeview.obj
 0001:0005bfb0       ??0CEccTreeView@@QAE@PAVWContainerWidget@@V?$basic_string@DU?$char_traits@D@std@@V?$allocator@D@2@@std@@@Z 0045cfb0 f   treeview.obj
 0001:0005c130       ??_GCEccTreeView@@UAEPAXI@Z 0045d130 f i treeview.obj
 0001:0005c130       ??_ECEccTreeView@@UAEPAXI@Z 0045d130 f i treeview.obj
 0001:0005c150       ??1CEccTreeView@@UAE@XZ    0045d150 f i treeview.obj
 0001:0005c250       ?reloadTree@CEccTreeView@@QAEXXZ 0045d250 f   treeview.obj
 0001:0005c360       ?resetUserID@CEccTreeView@@QAEXABV?$basic_string@DU?$char_traits@D@std@@V?$allocator@D@2@@std@@@Z 0045d360 f   treeview.obj
 0001:0005c410       ?ReloadTreeView@CEccTreeView@@AAEXXZ 0045d410 f   treeview.obj
 0001:0005c570       ?buildSlotMap@CEccTreeView@@MAEXAAV?$map@V?$basic_string@DU?$char_traits@D@std@@V?$allocator@D@2@@std@@PAVWSlotInstance_@@U?$less@V?$basic_string@DU?$char_traits@D@std@@V?$allocator@D@2@@std@@@2@V?$allocator@U?$pair@$$CBV?$basic_string@DU?$char_traits@D@std@@V?$allocator@D@2@@std@@PAVWSlotInstance_@@@std@@@2@@std@@@Z 0045d570 f   treeviewwt.obj
 0001:0005c660       ?triggerSlot@CEccTreeView@@MAE_NPAVWObject@@PBVWSlot_@@PAPAX@Z 0045d660 f   treeviewwt.obj
 0001:0005c690       ?buildSignalMap@CEccTreeView@@MAEXAAV?$map@V?$basic_string@DU?$char_traits@D@std@@V?$allocator@D@2@@std@@PAVWSignalInstance_@@U?$less@V?$basic_string@DU?$char_traits@D@std@@V?$allocator@D@2@@std@@@2@V?$allocator@U?$pair@$$CBV?$basic_string@DU?$char_traits@D@std@@V?$allocator@D@2@@std@@PAVWSignalInstance_@@@std@@@2@@std@@@Z 0045d690 f   treeviewwt.obj
 0001:0005c750       ??0WCssRule@@QAE@V?$basic_string@DU?$char_traits@D@std@@V?$allocator@D@2@@std@@@Z 0045d750 f   libwt:WCssStyleSheet.obj
 0001:0005c7b0       ??1WCssRule@@UAE@XZ        0045d7b0 f   libwt:WCssStyleSheet.obj
 0001:0005c7c0       ?cssText@WCssStyleSheet@@QBE?AV?$basic_string@DU?$char_traits@D@std@@V?$allocator@D@2@@std@@XZ 0045d7c0 f   libwt:WCssStyleSheet.obj
 0001:0005c950       ??1?$map@V?$basic_string@DU?$char_traits@D@std@@V?$allocator@D@2@@std@@PAVWCssRule@@U?$less@V?$basic_string@DU?$char_traits@D@std@@V?$allocator@D@2@@std@@@2@V?$allocator@U?$pair@$$CBV?$basic_string@DU?$char_traits@D@std@@V?$allocator@D@2@@std@@PAVWCssRule@@@std@@@2@@std@@QAE@XZ 0045d950 f i libwt:WCssStyleSheet.obj
 0001:0005c980       ??1WCssStyleSheet@@QAE@XZ  0045d980 f   libwt:WCssStyleSheet.obj
 0001:0005ca40       ??0WCssStyleSheet@@QAE@XZ  0045da40 f   libwt:WCssStyleSheet.obj
 0001:0005ca70       ?what@bad_lexical_cast@boost@@UBEPBDXZ 0045da70 f i libwt:WWebWidget.obj
 0001:0005ca80       ??1bad_lexical_cast@boost@@UAE@XZ 0045da80 f i libwt:WWebWidget.obj
 0001:0005ca90       ??_Ebad_lexical_cast@boost@@UAEPAXI@Z 0045da90 f i libwt:WWebWidget.obj
 0001:0005ca90       ??_Gbad_lexical_cast@boost@@UAEPAXI@Z 0045da90 f i libwt:WWebWidget.obj
 0001:0005cab0       ?id@DomElement@@QBE?AV?$basic_string@DU?$char_traits@D@std@@V?$allocator@D@2@@std@@XZ 0045dab0 f i libwt:WWebWidget.obj
 0001:0005cab0       ?getStaticCode@WSlotInstance_@@QAE?AV?$basic_string@DU?$char_traits@D@std@@V?$allocator@D@2@@std@@XZ 0045dab0 f i mainviewwt.obj
 0001:0005cab0       ?statements@JavaScript@@QBE?BV?$basic_string@DU?$char_traits@D@std@@V?$allocator@D@2@@std@@XZ 0045dab0 f i libwt:WWebWidget.obj
 0001:0005cab0       ?staticCode@WSlotInstance_@@QBE?BV?$basic_string@DU?$char_traits@D@std@@V?$allocator@D@2@@std@@XZ 0045dab0 f i mainviewwt.obj
 0001:0005cae0       ??1?$pair@V?$basic_string@DU?$char_traits@D@std@@V?$allocator@D@2@@std@@V12@@std@@QAE@XZ 0045dae0 f i libwt:WWebWidget.obj
 0001:0005cae0       ??1JavaScript@@QAE@XZ      0045dae0 f i libwt:WWebWidget.obj
 0001:0005cb30       ??4JavaScript@@QAEAAV0@ABV0@@Z 0045db30 f i libwt:WWebWidget.obj
 0001:0005cb60       ?triggerSlot@WWebWidget@@MAE_NPAVWObject@@PBVWSlot_@@PAPAX@Z 0045db60 f   libwt:WWebWidget.obj
 0001:0005cb70       ?undoTriggerSlot@WWebWidget@@MAE_NPBVWSlot_@@PAPAX@Z 0045db70 f   libwt:WWebWidget.obj
 0001:0005cb80       ?setFormObject@WWebWidget@@IAEX_N@Z 0045db80 f   libwt:WWebWidget.obj
 0001:0005cb90       ?renderOk@WWebWidget@@IAEXXZ 0045db90 f   libwt:WWebWidget.obj
 0001:0005cba0       ?repaint@WWebWidget@@IAEXXZ 0045dba0 f   libwt:WWebWidget.obj
 0001:0005cba0       ?signalConnectionsChanged@WWebWidget@@EAEXXZ 0045dba0 f   libwt:WWebWidget.obj
 0001:0005cbb0       ?setParent@WWebWidget@@MAEXPAVWWidget@@@Z 0045dbb0 f   libwt:WWebWidget.obj
 0001:0005cbe0       ?parent@WWebWidget@@UBEPAVWWidget@@XZ 0045dbe0 f   libwt:WWebWidget.obj
 0001:0005cbf0       ?setPositionScheme@WWebWidget@@UAEXW4PositionScheme@WWidget@@@Z 0045dbf0 f   libwt:WWebWidget.obj
 0001:0005cc20       ?resize@WWebWidget@@UAEXVWLength@@0@Z 0045dc20 f   libwt:WWebWidget.obj
 0001:0005cc70       ?setMinimumSize@WWebWidget@@UAEXVWLength@@0@Z 0045dc70 f   libwt:WWebWidget.obj
 0001:0005ccd0       ?setMaximumSize@WWebWidget@@UAEXVWLength@@0@Z 0045dcd0 f   libwt:WWebWidget.obj
 0001:0005cd30       ?setFloatSide@WWebWidget@@UAEXW4Side@WWidget@@@Z 0045dd30 f   libwt:WWebWidget.obj
 0001:0005cd50       ?orientation@WScrollBar@@QBE?AW4Orientation@1@XZ 0045dd50 f   libwt:WScrollArea.obj
 0001:0005cd50       ?floatSide@WWebWidget@@UBE?AW4Side@WWidget@@XZ 0045dd50 f   libwt:WWebWidget.obj
 0001:0005cd50       ?type@DomElement@@QBE?AW4ElementType@1@XZ 0045dd50 f   libwt:WWebWidget.obj
 0001:0005cd50       ?getType@CEccTreeNode@@QBEHXZ 0045dd50 f   treeview.obj
 0001:0005cd60       ?setClearSides@WWebWidget@@UAEXH@Z 0045dd60 f   libwt:WWebWidget.obj
 0001:0005cd80       ?clearSides@WWebWidget@@UBEHXZ 0045dd80 f   libwt:WWebWidget.obj
 0001:0005cd90       ?setVerticalAlignment@WWebWidget@@UAEXW4VerticalAlignment@WWidget@@VWLength@@@Z 0045dd90 f   libwt:WWebWidget.obj
 0001:0005cdd0       ?setOffset@WWebWidget@@UAEXW4Side@WWidget@@VWLength@@@Z 0045ddd0 f   libwt:WWebWidget.obj
 0001:0005ce50       ?offset@WWebWidget@@UBE?AVWLength@@W4Side@WWidget@@@Z 0045de50 f   libwt:WWebWidget.obj
 0001:0005cf00       ?zIndex@WWebWidget@@ABEHXZ 0045df00 f   libwt:WWebWidget.obj
 0001:0005cf40       ?setInline@WWebWidget@@UAEX_N@Z 0045df40 f   libwt:WWebWidget.obj
 0001:0005cf60       ?setPopup@WWebWidget@@UAEX_N@Z 0045df60 f   libwt:WWebWidget.obj
 0001:0005cf80       ?setMargin@WWebWidget@@UAEXVWLength@@H@Z 0045df80 f   libwt:WWebWidget.obj
 0001:0005d010       ?margin@WWebWidget@@UBE?AVWLength@@W4Side@WWidget@@@Z 0045e010 f   libwt:WWebWidget.obj
 0001:0005d0c0       ?setStyleClass@WWebWidget@@UAEXV?$basic_string@DU?$char_traits@D@std@@V?$allocator@D@2@@std@@@Z 0045e0c0 f   libwt:WWebWidget.obj
 0001:0005d130       ?setToolTip@WWebWidget@@UAEXV?$basic_string@DU?$char_traits@D@std@@V?$allocator@D@2@@std@@@Z 0045e130 f   libwt:WWebWidget.obj
 0001:0005d1d0       ?setToolTipMessage@WWebWidget@@UAEXABVWMessage@@@Z 0045e1d0 f   libwt:WWebWidget.obj
 0001:0005d210       ?setHidden@WWebWidget@@UAEX_N@Z 0045e210 f   libwt:WWebWidget.obj
 0001:0005d230       ?hide@WWebWidget@@UAEXXZ   0045e230 f   libwt:WWebWidget.obj
 0001:0005d250       ?show@WWebWidget@@UAEXXZ   0045e250 f   libwt:WWebWidget.obj
 0001:0005d270       ?undoHide@WWebWidget@@EAEXXZ 0045e270 f   libwt:WWebWidget.obj
 0001:0005d280       ?undoShow@WWebWidget@@EAEXXZ 0045e280 f   libwt:WWebWidget.obj
 0001:0005d290       ?isLoaded@WWebWidget@@IBE_NXZ 0045e290 f   libwt:WWebWidget.obj
 0001:0005d2d0       ?getSFormObjects@WWebWidget@@AAEXAAV?$vector@PAVWObject@@V?$allocator@PAVWObject@@@std@@@std@@@Z 0045e2d0 f   libwt:WWebWidget.obj
 0001:0005d2f0       ?createSDomElement@WWebWidget@@AAEPAVDomElement@@XZ 0045e2f0 f   libwt:WWebWidget.obj
 0001:0005d370       ?getEncodeCmd@WWebWidget@@QAE?AV?$basic_string@DU?$char_traits@D@std@@V?$allocator@D@2@@std@@PBD@Z 0045e370 f   libwt:WWebWidget.obj
 0001:0005d3d0       ?updateSignalConnection@WWebWidget@@IAEXAAVDomElement@@PBDV?$basic_string@DU?$char_traits@D@std@@V?$allocator@D@2@@std@@1_N1@Z 0045e3d0 f   libwt:WWebWidget.obj
 0001:0005d4b0       ?setNoFormData@WWebWidget@@EAEXXZ 0045e4b0 f   libwt:WWebWidget.obj
 0001:0005d4d0       ?_Max@?$_Tree@V?$_Tmap_traits@V?$basic_string@DU?$char_traits@D@std@@V?$allocator@D@2@@std@@U?$pair@V?$basic_string@DU?$char_traits@D@std@@V?$allocator@D@2@@std@@V12@@2@U?$less@V?$basic_string@DU?$char_traits@D@std@@V?$allocator@D@2@@std@@@2@V?$allocator@U?$pair@$$CBV?$basic_string@DU?$char_traits@D@std@@V?$allocator@D@2@@std@@U?$pair@V?$basic_string@DU?$char_traits@D@std@@V?$allocator@D@2@@std@@V12@@2@@std@@@2@$0A@@std@@@std@@KAPAU_Node@?$_Tree_nod@V?$_Tmap_traits@V?$basic_string@DU?$char_traits@D@std@@V?$allocator@D@2@@std@@U?$pair@V?$basic_string@DU?$char_traits@D@std@@V?$allocator@D@2@@std@@V12@@2@U?$less@V?$basic_string@DU?$char_traits@D@std@@V?$allocator@D@2@@std@@@2@V?$allocator@U?$pair@$$CBV?$basic_string@DU?$char_traits@D@std@@V?$allocator@D@2@@std@@U?$pair@V?$basic_string@DU?$char_traits@D@std@@V?$allocator@D@2@@std@@V12@@2@@std@@@2@$0A@@std@@@2@PAU342@@Z 0045e4d0 f i libwt:WWebWidget.obj
 0001:0005d4f0       ?_Min@?$_Tree@V?$_Tmap_traits@V?$basic_string@DU?$char_traits@D@std@@V?$allocator@D@2@@std@@U?$pair@V?$basic_string@DU?$char_traits@D@std@@V?$allocator@D@2@@std@@V12@@2@U?$less@V?$basic_string@DU?$char_traits@D@std@@V?$allocator@D@2@@std@@@2@V?$allocator@U?$pair@$$CBV?$basic_string@DU?$char_traits@D@std@@V?$allocator@D@2@@std@@U?$pair@V?$basic_string@DU?$char_traits@D@std@@V?$allocator@D@2@@std@@V12@@2@@std@@@2@$0A@@std@@@std@@KAPAU_Node@?$_Tree_nod@V?$_Tmap_traits@V?$basic_string@DU?$char_traits@D@std@@V?$allocator@D@2@@std@@U?$pair@V?$basic_string@DU?$char_traits@D@std@@V?$allocator@D@2@@std@@V12@@2@U?$less@V?$basic_string@DU?$char_traits@D@std@@V?$allocator@D@2@@std@@@2@V?$allocator@U?$pair@$$CBV?$basic_string@DU?$char_traits@D@std@@V?$allocator@D@2@@std@@U?$pair@V?$basic_string@DU?$char_traits@D@std@@V?$allocator@D@2@@std@@V12@@2@@std@@@2@$0A@@std@@@2@PAU342@@Z 0045e4f0 f i libwt:WWebWidget.obj
 0001:0005d510       ?_Xlen@?$vector@U?$pair@V?$basic_string@DU?$char_traits@D@std@@V?$allocator@D@2@@std@@PAVDomElement@@@std@@V?$allocator@U?$pair@V?$basic_string@DU?$char_traits@D@std@@V?$allocator@D@2@@std@@PAVDomElement@@@std@@@2@@std@@IBEXXZ 0045e510 f i libwt:WWebWidget.obj
 0001:0005d590       ?_Lrotate@?$_Tree@V?$_Tmap_traits@V?$basic_string@DU?$char_traits@D@std@@V?$allocator@D@2@@std@@U?$pair@V?$basic_string@DU?$char_traits@D@std@@V?$allocator@D@2@@std@@V12@@2@U?$less@V?$basic_string@DU?$char_traits@D@std@@V?$allocator@D@2@@std@@@2@V?$allocator@U?$pair@$$CBV?$basic_string@DU?$char_traits@D@std@@V?$allocator@D@2@@std@@U?$pair@V?$basic_string@DU?$char_traits@D@std@@V?$allocator@D@2@@std@@V12@@2@@std@@@2@$0A@@std@@@std@@IAEXPAU_Node@?$_Tree_nod@V?$_Tmap_traits@V?$basic_string@DU?$char_traits@D@std@@V?$allocator@D@2@@std@@U?$pair@V?$basic_string@DU?$char_traits@D@std@@V?$allocator@D@2@@std@@V12@@2@U?$less@V?$basic_string@DU?$char_traits@D@std@@V?$allocator@D@2@@std@@@2@V?$allocator@U?$pair@$$CBV?$basic_string@DU?$char_traits@D@std@@V?$allocator@D@2@@std@@U?$pair@V?$basic_string@DU?$char_traits@D@std@@V?$allocator@D@2@@std@@V12@@2@@std@@@2@$0A@@std@@@2@@Z 0045e590 f i libwt:WWebWidget.obj
 0001:0005d5f0       ?_Rrotate@?$_Tree@V?$_Tmap_traits@V?$basic_string@DU?$char_traits@D@std@@V?$allocator@D@2@@std@@U?$pair@V?$basic_string@DU?$char_traits@D@std@@V?$allocator@D@2@@std@@V12@@2@U?$less@V?$basic_string@DU?$char_traits@D@std@@V?$allocator@D@2@@std@@@2@V?$allocator@U?$pair@$$CBV?$basic_string@DU?$char_traits@D@std@@V?$allocator@D@2@@std@@U?$pair@V?$basic_string@DU?$char_traits@D@std@@V?$allocator@D@2@@std@@V12@@2@@std@@@2@$0A@@std@@@std@@IAEXPAU_Node@?$_Tree_nod@V?$_Tmap_traits@V?$basic_string@DU?$char_traits@D@std@@V?$allocator@D@2@@std@@U?$pair@V?$basic_string@DU?$char_traits@D@std@@V?$allocator@D@2@@std@@V12@@2@U?$less@V?$basic_string@DU?$char_traits@D@std@@V?$allocator@D@2@@std@@@2@V?$allocator@U?$pair@$$CBV?$basic_string@DU?$char_traits@D@std@@V?$allocator@D@2@@std@@U?$pair@V?$basic_string@DU?$char_traits@D@std@@V?$allocator@D@2@@std@@V12@@2@@std@@@2@$0A@@std@@@2@@Z 0045e5f0 f i libwt:WWebWidget.obj
 0001:0005d650       ??0JavaScript@@QAE@ABV0@@Z 0045e650 f i libwt:WWebWidget.obj
 0001:0005d650       ??0?$pair@V?$basic_string@DU?$char_traits@D@std@@V?$allocator@D@2@@std@@V12@@std@@QAE@ABU01@@Z 0045e650 f i libwt:WWebWidget.obj
 0001:0005d6b0       ?_Inc@const_iterator@?$_Tree@V?$_Tmap_traits@V?$basic_string@DU?$char_traits@D@std@@V?$allocator@D@2@@std@@U?$pair@V?$basic_string@DU?$char_traits@D@std@@V?$allocator@D@2@@std@@V12@@2@U?$less@V?$basic_string@DU?$char_traits@D@std@@V?$allocator@D@2@@std@@@2@V?$allocator@U?$pair@$$CBV?$basic_string@DU?$char_traits@D@std@@V?$allocator@D@2@@std@@U?$pair@V?$basic_string@DU?$char_traits@D@std@@V?$allocator@D@2@@std@@V12@@2@@std@@@2@$0A@@std@@@std@@QAEXXZ 0045e6b0 f i libwt:WWebWidget.obj
 0001:0005d710       ??1?$lexical_stream@V?$basic_string@DU?$char_traits@D@std@@V?$allocator@D@2@@std@@H@detail@boost@@QAE@XZ 0045e710 f i libwt:WWebWidget.obj
 0001:0005d710       ??1?$lexical_stream@V?$basic_string@DU?$char_traits@D@std@@V?$allocator@D@2@@std@@I@detail@boost@@QAE@XZ 0045e710 f i libwt:WComboBox.obj
 0001:0005d710       ??1?$lexical_stream@V?$basic_string@DU?$char_traits@D@std@@V?$allocator@D@2@@std@@N@detail@boost@@QAE@XZ 0045e710 f i libwt:WLength.obj
 0001:0005d710       ??1?$lexical_stream@HV?$basic_string@DU?$char_traits@D@std@@V?$allocator@D@2@@std@@@detail@boost@@QAE@XZ 0045e710 f i libwt:WComboBox.obj
 0001:0005d720       ??5?$lexical_stream@V?$basic_string@DU?$char_traits@D@std@@V?$allocator@D@2@@std@@H@detail@boost@@QAE_NAAV?$basic_string@DU?$char_traits@D@std@@V?$allocator@D@2@@std@@@Z 0045e720 f i libwt:WWebWidget.obj
 0001:0005d780       ??0bad_lexical_cast@boost@@QAE@ABV01@@Z 0045e780 f i libwt:WWebWidget.obj
 0001:0005d7b0       ?updateSignalConnection@WWebWidget@@IAEXAAVDomElement@@PBDV?$basic_string@DU?$char_traits@D@std@@V?$allocator@D@2@@std@@_N1@Z 0045e7b0 f   libwt:WWebWidget.obj
 0001:0005d830       ?_Lbound@?$_Tree@V?$_Tmap_traits@V?$basic_string@DU?$char_traits@D@std@@V?$allocator@D@2@@std@@_NU?$less@V?$basic_string@DU?$char_traits@D@std@@V?$allocator@D@2@@std@@@2@V?$allocator@U?$pair@$$CBV?$basic_string@DU?$char_traits@D@std@@V?$allocator@D@2@@std@@_N@std@@@2@$0A@@std@@@std@@IBEPAU_Node@?$_Tree_nod@V?$_Tmap_traits@V?$basic_string@DU?$char_traits@D@std@@V?$allocator@D@2@@std@@_NU?$less@V?$basic_string@DU?$char_traits@D@std@@V?$allocator@D@2@@std@@@2@V?$allocator@U?$pair@$$CBV?$basic_string@DU?$char_traits@D@std@@V?$allocator@D@2@@std@@_N@std@@@2@$0A@@std@@@2@ABV?$basic_string@DU?$char_traits@D@std@@V?$allocator@D@2@@2@@Z 0045e830 f i User.obj
 0001:0005d830       ?_Lbound@?$_Tree@V?$_Tmap_traits@V?$basic_string@DU?$char_traits@D@std@@V?$allocator@D@2@@std@@PAVWSignalInstance_@@U?$less@V?$basic_string@DU?$char_traits@D@std@@V?$allocator@D@2@@std@@@2@V?$allocator@U?$pair@$$CBV?$basic_string@DU?$char_traits@D@std@@V?$allocator@D@2@@std@@PAVWSignalInstance_@@@std@@@2@$0A@@std@@@std@@IBEPAU_Node@?$_Tree_nod@V?$_Tmap_traits@V?$basic_string@DU?$char_traits@D@std@@V?$allocator@D@2@@std@@PAVWSignalInstance_@@U?$less@V?$basic_string@DU?$char_traits@D@std@@V?$allocator@D@2@@std@@@2@V?$allocator@U?$pair@$$CBV?$basic_string@DU?$char_traits@D@std@@V?$allocator@D@2@@std@@PAVWSignalInstance_@@@std@@@2@$0A@@std@@@2@ABV?$basic_string@DU?$char_traits@D@std@@V?$allocator@D@2@@2@@Z 0045e830 f i mainviewwt.obj
 0001:0005d830       ?_Lbound@?$_Tree@V?$_Tmap_traits@V?$basic_string@DU?$char_traits@D@std@@V?$allocator@D@2@@std@@PAVWCheckBox@@U?$less@V?$basic_string@DU?$char_traits@D@std@@V?$allocator@D@2@@std@@@2@V?$allocator@U?$pair@$$CBV?$basic_string@DU?$char_traits@D@std@@V?$allocator@D@2@@std@@PAVWCheckBox@@@std@@@2@$0A@@std@@@std@@IBEPAU_Node@?$_Tree_nod@V?$_Tmap_traits@V?$basic_string@DU?$char_traits@D@std@@V?$allocator@D@2@@std@@PAVWCheckBox@@U?$less@V?$basic_string@DU?$char_traits@D@std@@V?$allocator@D@2@@std@@@2@V?$allocator@U?$pair@$$CBV?$basic_string@DU?$char_traits@D@std@@V?$allocator@D@2@@std@@PAVWCheckBox@@@std@@@2@$0A@@std@@@2@ABV?$basic_string@DU?$char_traits@D@std@@V?$allocator@D@2@@2@@Z 0045e830 f i listtable.obj
 0001:0005d830       ?_Lbound@?$_Tree@V?$_Tmap_traits@V?$basic_string@DU?$char_traits@D@std@@V?$allocator@D@2@@std@@PAVWSlotInstance_@@U?$less@V?$basic_string@DU?$char_traits@D@std@@V?$allocator@D@2@@std@@@2@V?$allocator@U?$pair@$$CBV?$basic_string@DU?$char_traits@D@std@@V?$allocator@D@2@@std@@PAVWSlotInstance_@@@std@@@2@$0A@@std@@@std@@IBEPAU_Node@?$_Tree_nod@V?$_Tmap_traits@V?$basic_string@DU?$char_traits@D@std@@V?$allocator@D@2@@std@@PAVWSlotInstance_@@U?$less@V?$basic_string@DU?$char_traits@D@std@@V?$allocator@D@2@@std@@@2@V?$allocator@U?$pair@$$CBV?$basic_string@DU?$char_traits@D@std@@V?$allocator@D@2@@std@@PAVWSlotInstance_@@@std@@@2@$0A@@std@@@2@ABV?$basic_string@DU?$char_traits@D@std@@V?$allocator@D@2@@2@@Z 0045e830 f i libwt:WWebWidget.obj
 0001:0005d830       ?_Lbound@?$_Tree@V?$_Tmap_traits@V?$basic_string@DU?$char_traits@D@std@@V?$allocator@D@2@@std@@KU?$less@V?$basic_string@DU?$char_traits@D@std@@V?$allocator@D@2@@std@@@2@V?$allocator@U?$pair@$$CBV?$basic_string@DU?$char_traits@D@std@@V?$allocator@D@2@@std@@K@std@@@2@$0A@@std@@@std@@IBEPAU_Node@?$_Tree_nod@V?$_Tmap_traits@V?$basic_string@DU?$char_traits@D@std@@V?$allocator@D@2@@std@@KU?$less@V?$basic_string@DU?$char_traits@D@std@@V?$allocator@D@2@@std@@@2@V?$allocator@U?$pair@$$CBV?$basic_string@DU?$char_traits@D@std@@V?$allocator@D@2@@std@@K@std@@@2@$0A@@std@@@2@ABV?$basic_string@DU?$char_traits@D@std@@V?$allocator@D@2@@2@@Z 0045e830 f i libboost_regex-vc71-mt-1_33_1:instances.obj
 0001:0005d830       ?_Lbound@?$_Tree@V?$_Tmap_traits@V?$basic_string@DU?$char_traits@D@std@@V?$allocator@D@2@@std@@PAUScopeFunc@@U?$less@V?$basic_string@DU?$char_traits@D@std@@V?$allocator@D@2@@std@@@2@V?$allocator@U?$pair@$$CBV?$basic_string@DU?$char_traits@D@std@@V?$allocator@D@2@@std@@PAUScopeFunc@@@std@@@2@$0A@@std@@@std@@IBEPAU_Node@?$_Tree_nod@V?$_Tmap_traits@V?$basic_string@DU?$char_traits@D@std@@V?$allocator@D@2@@std@@PAUScopeFunc@@U?$less@V?$basic_string@DU?$char_traits@D@std@@V?$allocator@D@2@@std@@@2@V?$allocator@U?$pair@$$CBV?$basic_string@DU?$char_traits@D@std@@V?$allocator@D@2@@std@@PAUScopeFunc@@@std@@@2@$0A@@std@@@2@ABV?$basic_string@DU?$char_traits@D@std@@V?$allocator@D@2@@2@@Z 0045e830 f i User.obj
 0001:0005d880       ?_Dec@const_iterator@?$_Tree@V?$_Tmap_traits@V?$basic_string@DU?$char_traits@D@std@@V?$allocator@D@2@@std@@PAUScopeFunc@@U?$less@V?$basic_string@DU?$char_traits@D@std@@V?$allocator@D@2@@std@@@2@V?$allocator@U?$pair@$$CBV?$basic_string@DU?$char_traits@D@std@@V?$allocator@D@2@@std@@PAUScopeFunc@@@std@@@2@$0A@@std@@@std@@QAEXXZ 0045e880 f i User.obj
 0001:0005d880       ?_Dec@const_iterator@?$_Tree@V?$_Tmap_traits@PAVWObject@@V?$basic_string@DU?$char_traits@D@std@@V?$allocator@D@2@@std@@U?$less@PAVWObject@@@3@V?$allocator@U?$pair@QAVWObject@@V?$basic_string@DU?$char_traits@D@std@@V?$allocator@D@2@@std@@@std@@@3@$0A@@std@@@std@@QAEXXZ 0045e880 f i libwt:WSignalMapper.obj
 0001:0005d880       ?_Dec@const_iterator@?$_Tree@V?$_Tmap_traits@V?$basic_string@DU?$char_traits@D@std@@V?$allocator@D@2@@std@@KU?$less@V?$basic_string@DU?$char_traits@D@std@@V?$allocator@D@2@@std@@@2@V?$allocator@U?$pair@$$CBV?$basic_string@DU?$char_traits@D@std@@V?$allocator@D@2@@std@@K@std@@@2@$0A@@std@@@std@@QAEXXZ 0045e880 f i libboost_regex-vc71-mt-1_33_1:instances.obj
 0001:0005d880       ?_Dec@const_iterator@?$_Tree@V?$_Tmap_traits@V?$basic_string@DU?$char_traits@D@std@@V?$allocator@D@2@@std@@PAVWSlotInstance_@@U?$less@V?$basic_string@DU?$char_traits@D@std@@V?$allocator@D@2@@std@@@2@V?$allocator@U?$pair@$$CBV?$basic_string@DU?$char_traits@D@std@@V?$allocator@D@2@@std@@PAVWSlotInstance_@@@std@@@2@$0A@@std@@@std@@QAEXXZ 0045e880 f i libwt:WWebWidget.obj
 0001:0005d880       ?_Dec@const_iterator@?$_Tree@V?$_Tmap_traits@HV?$basic_string@DU?$char_traits@D@std@@V?$allocator@D@2@@std@@U?$less@H@2@V?$allocator@U?$pair@$$CBHV?$basic_string@DU?$char_traits@D@std@@V?$allocator@D@2@@std@@@std@@@2@$0A@@std@@@std@@QAEXXZ 0045e880 f i sortlist.obj
 0001:0005d880       ?_Dec@const_iterator@?$_Tree@V?$_Tmap_traits@V?$basic_string@DU?$char_traits@D@std@@V?$allocator@D@2@@std@@_NU?$less@V?$basic_string@DU?$char_traits@D@std@@V?$allocator@D@2@@std@@@2@V?$allocator@U?$pair@$$CBV?$basic_string@DU?$char_traits@D@std@@V?$allocator@D@2@@std@@_N@std@@@2@$0A@@std@@@std@@QAEXXZ 0045e880 f i User.obj
 0001:0005d880       ?_Dec@const_iterator@?$_Tree@V?$_Tmap_traits@V?$basic_string@DU?$char_traits@D@std@@V?$allocator@D@2@@std@@PAVWCheckBox@@U?$less@V?$basic_string@DU?$char_traits@D@std@@V?$allocator@D@2@@std@@@2@V?$allocator@U?$pair@$$CBV?$basic_string@DU?$char_traits@D@std@@V?$allocator@D@2@@std@@PAVWCheckBox@@@std@@@2@$0A@@std@@@std@@QAEXXZ 0045e880 f i listtable.obj
 0001:0005d880       ?_Dec@const_iterator@?$_Tree@V?$_Tmap_traits@W4Property@Wt@@V?$basic_string@DU?$char_traits@D@std@@V?$allocator@D@2@@std@@U?$less@W4Property@Wt@@@4@V?$allocator@U?$pair@$$CBW4Property@Wt@@V?$basic_string@DU?$char_traits@D@std@@V?$allocator@D@2@@std@@@std@@@4@$0A@@std@@@std@@QAEXXZ 0045e880 f i libwt:DomElement.obj
 0001:0005d880       ?_Dec@const_iterator@?$_Tree@V?$_Tmap_traits@PAVWLineEdit@@V?$basic_string@DU?$char_traits@D@std@@V?$allocator@D@2@@std@@U?$less@PAVWLineEdit@@@3@V?$allocator@U?$pair@QAVWLineEdit@@V?$basic_string@DU?$char_traits@D@std@@V?$allocator@D@2@@std@@@std@@@3@$0A@@std@@@std@@QAEXXZ 0045e880 f i sortlist.obj
 0001:0005d880       ?_Dec@const_iterator@?$_Tree@V?$_Tmap_traits@V?$basic_string@DU?$char_traits@D@std@@V?$allocator@D@2@@std@@PAVWSignalInstance_@@U?$less@V?$basic_string@DU?$char_traits@D@std@@V?$allocator@D@2@@std@@@2@V?$allocator@U?$pair@$$CBV?$basic_string@DU?$char_traits@D@std@@V?$allocator@D@2@@std@@PAVWSignalInstance_@@@std@@@2@$0A@@std@@@std@@QAEXXZ 0045e880 f i mainviewwt.obj
 0001:0005d8e0       ??0?$pair@$$CBV?$basic_string@DU?$char_traits@D@std@@V?$allocator@D@2@@std@@U?$pair@V?$basic_string@DU?$char_traits@D@std@@V?$allocator@D@2@@std@@V12@@2@@std@@QAE@ABU01@@Z 0045e8e0 f i libwt:WWebWidget.obj
 0001:0005d940       ??1?$pair@$$CBV?$basic_string@DU?$char_traits@D@std@@V?$allocator@D@2@@std@@U?$pair@V?$basic_string@DU?$char_traits@D@std@@V?$allocator@D@2@@std@@V12@@2@@std@@QAE@XZ 0045e940 f i libwt:WWebWidget.obj
 0001:0005d990       ??1_Node@?$_Tree_nod@V?$_Tmap_traits@V?$basic_string@DU?$char_traits@D@std@@V?$allocator@D@2@@std@@U?$pair@V?$basic_string@DU?$char_traits@D@std@@V?$allocator@D@2@@std@@V12@@2@U?$less@V?$basic_string@DU?$char_traits@D@std@@V?$allocator@D@2@@std@@@2@V?$allocator@U?$pair@$$CBV?$basic_string@DU?$char_traits@D@std@@V?$allocator@D@2@@std@@U?$pair@V?$basic_string@DU?$char_traits@D@std@@V?$allocator@D@2@@std@@V12@@2@@std@@@2@$0A@@std@@@std@@QAE@XZ 0045e990 f i libwt:WWebWidget.obj
 0001:0005d9a0       ??$throw_exception@Vbad_lexical_cast@boost@@@boost@@YAXABVbad_lexical_cast@0@@Z 0045e9a0 f i libwt:WWebWidget.obj
 0001:0005d9d0       ??$_Copy_opt@PAU?$pair@V?$basic_string@DU?$char_traits@D@std@@V?$allocator@D@2@@std@@PAVDomElement@@@std@@PAU12@@std@@YAPAU?$pair@V?$basic_string@DU?$char_traits@D@std@@V?$allocator@D@2@@std@@PAVDomElement@@@0@PAU10@00U_Nonscalar_ptr_iterator_tag@0@@Z 0045e9d0 f i libwt:WWebWidget.obj
 0001:0005da10       ?_Buy@?$vector@U?$pair@V?$basic_string@DU?$char_traits@D@std@@V?$allocator@D@2@@std@@PAVDomElement@@@std@@V?$allocator@U?$pair@V?$basic_string@DU?$char_traits@D@std@@V?$allocator@D@2@@std@@PAVDomElement@@@std@@@2@@std@@IAE_NI@Z 0045ea10 f i libwt:WWebWidget.obj
 0001:0005da60       ?_Buynode@?$_Tree@V?$_Tmap_traits@V?$basic_string@DU?$char_traits@D@std@@V?$allocator@D@2@@std@@U?$pair@V?$basic_string@DU?$char_traits@D@std@@V?$allocator@D@2@@std@@V12@@2@U?$less@V?$basic_string@DU?$char_traits@D@std@@V?$allocator@D@2@@std@@@2@V?$allocator@U?$pair@$$CBV?$basic_string@DU?$char_traits@D@std@@V?$allocator@D@2@@std@@U?$pair@V?$basic_string@DU?$char_traits@D@std@@V?$allocator@D@2@@std@@V12@@2@@std@@@2@$0A@@std@@@std@@IAEPAU_Node@?$_Tree_nod@V?$_Tmap_traits@V?$basic_string@DU?$char_traits@D@std@@V?$allocator@D@2@@std@@U?$pair@V?$basic_string@DU?$char_traits@D@std@@V?$allocator@D@2@@std@@V12@@2@U?$less@V?$basic_string@DU?$char_traits@D@std@@V?$allocator@D@2@@std@@@2@V?$allocator@U?$pair@$$CBV?$basic_string@DU?$char_traits@D@std@@V?$allocator@D@2@@std@@U?$pair@V?$basic_string@DU?$char_traits@D@std@@V?$allocator@D@2@@std@@V12@@2@@std@@@2@$0A@@std@@@2@XZ 0045ea60 f i libwt:WWebWidget.obj
 0001:0005daa0       ?_Buynode@?$_Tree@V?$_Tmap_traits@W4Property@Wt@@V?$basic_string@DU?$char_traits@D@std@@V?$allocator@D@2@@std@@U?$less@W4Property@Wt@@@4@V?$allocator@U?$pair@$$CBW4Property@Wt@@V?$basic_string@DU?$char_traits@D@std@@V?$allocator@D@2@@std@@@std@@@4@$0A@@std@@@std@@IAEPAU_Node@?$_Tree_nod@V?$_Tmap_traits@W4Property@Wt@@V?$basic_string@DU?$char_traits@D@std@@V?$allocator@D@2@@std@@U?$less@W4Property@Wt@@@4@V?$allocator@U?$pair@$$CBW4Property@Wt@@V?$basic_string@DU?$char_traits@D@std@@V?$allocator@D@2@@std@@@std@@@4@$0A@@std@@@2@PAU342@00ABU?$pair@$$CBW4Property@Wt@@V?$basic_string@DU?$char_traits@D@std@@V?$allocator@D@2@@std@@@2@D@Z 0045eaa0 f i libwt:WWebWidget.obj
 0001:0005db40       ?_Buynode@?$_Tree@V?$_Tmap_traits@V?$basic_string@DU?$char_traits@D@std@@V?$allocator@D@2@@std@@PAVWSlotInstance_@@U?$less@V?$basic_string@DU?$char_traits@D@std@@V?$allocator@D@2@@std@@@2@V?$allocator@U?$pair@$$CBV?$basic_string@DU?$char_traits@D@std@@V?$allocator@D@2@@std@@PAVWSlotInstance_@@@std@@@2@$0A@@std@@@std@@IAEPAU_Node@?$_Tree_nod@V?$_Tmap_traits@V?$basic_string@DU?$char_traits@D@std@@V?$allocator@D@2@@std@@PAVWSlotInstance_@@U?$less@V?$basic_string@DU?$char_traits@D@std@@V?$allocator@D@2@@std@@@2@V?$allocator@U?$pair@$$CBV?$basic_string@DU?$char_traits@D@std@@V?$allocator@D@2@@std@@PAVWSlotInstance_@@@std@@@2@$0A@@std@@@2@PAU342@00ABU?$pair@$$CBV?$basic_string@DU?$char_traits@D@std@@V?$allocator@D@2@@std@@PAVWSlotInstance_@@@2@D@Z 0045eb40 f i libwt:WWebWidget.obj
 0001:0005dbe0       ??$lexical_cast@V?$basic_string@DU?$char_traits@D@std@@V?$allocator@D@2@@std@@H@boost@@YA?AV?$basic_string@DU?$char_traits@D@std@@V?$allocator@D@2@@std@@ABH@Z 0045ebe0 f i libwt:WWebWidget.obj
 0001:0005dd40       ?refresh@WWebWidget@@UAEXXZ 0045ed40 f   libwt:WWebWidget.obj
 0001:0005de30       ?_Ufill@?$vector@PAVWConnection_@@V?$allocator@PAVWConnection_@@@std@@@std@@IAEPAPAVWConnection_@@PAPAV3@IABQAV3@@Z 0045ee30 f i libwt:WSlotInstance_.obj
 0001:0005de30       ?_Ufill@?$vector@PAVWObject@@V?$allocator@PAVWObject@@@std@@@std@@IAEPAPAVWObject@@PAPAV3@IABQAV3@@Z 0045ee30 f i libwt:WWebWidget.obj
 0001:0005de30       ?_Ufill@?$vector@PAVWScrollBar@@V?$allocator@PAVWScrollBar@@@std@@@std@@IAEPAPAVWScrollBar@@PAPAV3@IABQAV3@@Z 0045ee30 f i libwt:WScrollBar.obj
 0001:0005de30       ?_Ufill@?$vector@PAVWTableRow@@V?$allocator@PAVWTableRow@@@std@@@std@@IAEPAPAVWTableRow@@PAPAV3@IABQAV3@@Z 0045ee30 f i libwt:WTable.obj
 0001:0005de30       ?_Ufill@?$vector@PAVWRadioButton@@V?$allocator@PAVWRadioButton@@@std@@@std@@IAEPAPAVWRadioButton@@PAPAV3@IABQAV3@@Z 0045ee30 f i libwt:WButtonGroup.obj
 0001:0005de30       ?_Ufill@?$vector@JV?$allocator@J@std@@@std@@IAEPAJPAJIABJ@Z 0045ee30 f i libboost_regex-vc71-mt-1_33_1:instances.obj
 0001:0005de30       ?_Ufill@?$vector@PAVWWidget@@V?$allocator@PAVWWidget@@@std@@@std@@IAEPAPAVWWidget@@PAPAV3@IABQAV3@@Z 0045ee30 f i libwt:WWebWidget.obj
 0001:0005de30       ?_Ufill@?$vector@PAVDomElement@@V?$allocator@PAVDomElement@@@std@@@std@@IAEPAPAVDomElement@@PAPAV3@IABQAV3@@Z 0045ee30 f i libwt:WWebWidget.obj
 0001:0005de30       ?_Ufill@?$vector@PAVWMessageResources@@V?$allocator@PAVWMessageResources@@@std@@@std@@IAEPAPAVWMessageResources@@PAPAV3@IABQAV3@@Z 0045ee30 f i libwt:WMessageResourceBundle.obj
 0001:0005de60       ?_Insert@?$_Tree@V?$_Tmap_traits@V?$basic_string@DU?$char_traits@D@std@@V?$allocator@D@2@@std@@PAVWSlotInstance_@@U?$less@V?$basic_string@DU?$char_traits@D@std@@V?$allocator@D@2@@std@@@2@V?$allocator@U?$pair@$$CBV?$basic_string@DU?$char_traits@D@std@@V?$allocator@D@2@@std@@PAVWSlotInstance_@@@std@@@2@$0A@@std@@@std@@IAE?AViterator@12@_NPAU_Node@?$_Tree_nod@V?$_Tmap_traits@V?$basic_string@DU?$char_traits@D@std@@V?$allocator@D@2@@std@@PAVWSlotInstance_@@U?$less@V?$basic_string@DU?$char_traits@D@std@@V?$allocator@D@2@@std@@@2@V?$allocator@U?$pair@$$CBV?$basic_string@DU?$char_traits@D@std@@V?$allocator@D@2@@std@@PAVWSlotInstance_@@@std@@@2@$0A@@std@@@2@ABU?$pair@$$CBV?$basic_string@DU?$char_traits@D@std@@V?$allocator@D@2@@std@@PAVWSlotInstance_@@@2@@Z 0045ee60 f i libwt:WWebWidget.obj
 0001:0005e020       ?_Buynode@?$_Tree@V?$_Tmap_traits@V?$basic_string@DU?$char_traits@D@std@@V?$allocator@D@2@@std@@U?$pair@V?$basic_string@DU?$char_traits@D@std@@V?$allocator@D@2@@std@@V12@@2@U?$less@V?$basic_string@DU?$char_traits@D@std@@V?$allocator@D@2@@std@@@2@V?$allocator@U?$pair@$$CBV?$basic_string@DU?$char_traits@D@std@@V?$allocator@D@2@@std@@U?$pair@V?$basic_string@DU?$char_traits@D@std@@V?$allocator@D@2@@std@@V12@@2@@std@@@2@$0A@@std@@@std@@IAEPAU_Node@?$_Tree_nod@V?$_Tmap_traits@V?$basic_string@DU?$char_traits@D@std@@V?$allocator@D@2@@std@@U?$pair@V?$basic_string@DU?$char_traits@D@std@@V?$allocator@D@2@@std@@V12@@2@U?$less@V?$basic_string@DU?$char_traits@D@std@@V?$allocator@D@2@@std@@@2@V?$allocator@U?$pair@$$CBV?$basic_string@DU?$char_traits@D@std@@V?$allocator@D@2@@std@@U?$pair@V?$basic_string@DU?$char_traits@D@std@@V?$allocator@D@2@@std@@V12@@2@@std@@@2@$0A@@std@@@2@PAU342@00ABU?$pair@$$CBV?$basic_string@DU?$char_traits@D@std@@V?$allocator@D@2@@std@@U?$pair@V?$basic_string@DU?$char_traits@D@std@@V?$allocator@D@2@@std@@V12@@2@@2@D@Z 0045f020 f i libwt:WWebWidget.obj
 0001:0005e0c0       ??$_Uninit_copy@Vconst_iterator@?$vector@U?$pair@V?$basic_string@DU?$char_traits@D@std@@V?$allocator@D@2@@std@@PAVDomElement@@@std@@V?$allocator@U?$pair@V?$basic_string@DU?$char_traits@D@std@@V?$allocator@D@2@@std@@PAVDomElement@@@std@@@2@@std@@PAU?$pair@V?$basic_string@DU?$char_traits@D@std@@V?$allocator@D@2@@std@@PAVDomElement@@@3@V?$allocator@U?$pair@V?$basic_string@DU?$char_traits@D@std@@V?$allocator@D@2@@std@@PAVDomElement@@@std@@@3@@std@@YAPAU?$pair@V?$basic_string@DU?$char_traits@D@std@@V?$allocator@D@2@@std@@PAVDomElement@@@0@Vconst_iterator@?$vector@U?$pair@V?$basic_string@DU?$char_traits@D@std@@V?$allocator@D@2@@std@@PAVDomElement@@@std@@V?$allocator@U?$pair@V?$basic_string@DU?$char_traits@D@std@@V?$allocator@D@2@@std@@PAVDomElement@@@std@@@2@@0@0PAU10@AAV?$allocator@U?$pair@V?$basic_string@DU?$char_traits@D@std@@V?$allocator@D@2@@std@@PAVDomElement@@@std@@@0@U_Nonscalar_ptr_iterator_tag@0@@Z 0045f0c0 f i libwt:WWebWidget.obj
 0001:0005e0c0       ??$_Uninit_copy@PAU?$pair@V?$basic_string@DU?$char_traits@D@std@@V?$allocator@D@2@@std@@PAVDomElement@@@std@@PAU12@V?$allocator@U?$pair@V?$basic_string@DU?$char_traits@D@std@@V?$allocator@D@2@@std@@PAVDomElement@@@std@@@2@@std@@YAPAU?$pair@V?$basic_string@DU?$char_traits@D@std@@V?$allocator@D@2@@std@@PAVDomElement@@@0@PAU10@00AAV?$allocator@U?$pair@V?$basic_string@DU?$char_traits@D@std@@V?$allocator@D@2@@std@@PAVDomElement@@@std@@@0@U_Nonscalar_ptr_iterator_tag@0@@Z 0045f0c0 f i libwt:WWebWidget.obj
 0001:0005e160       ??0WWebWidget@@QAE@PAVWContainerWidget@@@Z 0045f160 f   libwt:WWebWidget.obj
 0001:0005e370       ??1WWebWidget@@UAE@XZ      0045f370 f   libwt:WWebWidget.obj
 0001:0005e4d0       ?updateDom@WWebWidget@@MAEXAAVDomElement@@_N@Z 0045f4d0 f   libwt:WWebWidget.obj
 0001:0005ec30       ?erase@?$_Tree@V?$_Tmap_traits@W4Property@Wt@@V?$basic_string@DU?$char_traits@D@std@@V?$allocator@D@2@@std@@U?$less@W4Property@Wt@@@4@V?$allocator@U?$pair@$$CBW4Property@Wt@@V?$basic_string@DU?$char_traits@D@std@@V?$allocator@D@2@@std@@@std@@@4@$0A@@std@@@std@@QAE?AViterator@12@V312@@Z 0045fc30 f i libwt:WWebWidget.obj
 0001:0005ef10       ?insert@?$_Tree@V?$_Tmap_traits@V?$basic_string@DU?$char_traits@D@std@@V?$allocator@D@2@@std@@PAVWSlotInstance_@@U?$less@V?$basic_string@DU?$char_traits@D@std@@V?$allocator@D@2@@std@@@2@V?$allocator@U?$pair@$$CBV?$basic_string@DU?$char_traits@D@std@@V?$allocator@D@2@@std@@PAVWSlotInstance_@@@std@@@2@$0A@@std@@@std@@QAE?AU?$pair@Viterator@?$_Tree@V?$_Tmap_traits@V?$basic_string@DU?$char_traits@D@std@@V?$allocator@D@2@@std@@PAVWSlotInstance_@@U?$less@V?$basic_string@DU?$char_traits@D@std@@V?$allocator@D@2@@std@@@2@V?$allocator@U?$pair@$$CBV?$basic_string@DU?$char_traits@D@std@@V?$allocator@D@2@@std@@PAVWSlotInstance_@@@std@@@2@$0A@@std@@@std@@_N@2@ABU?$pair@$$CBV?$basic_string@DU?$char_traits@D@std@@V?$allocator@D@2@@std@@PAVWSlotInstance_@@@2@@Z 0045ff10 f i libwt:WWebWidget.obj
 0001:0005eff0       ?_Erase@?$_Tree@V?$_Tmap_traits@W4Property@Wt@@V?$basic_string@DU?$char_traits@D@std@@V?$allocator@D@2@@std@@U?$less@W4Property@Wt@@@4@V?$allocator@U?$pair@$$CBW4Property@Wt@@V?$basic_string@DU?$char_traits@D@std@@V?$allocator@D@2@@std@@@std@@@4@$0A@@std@@@std@@IAEXPAU_Node@?$_Tree_nod@V?$_Tmap_traits@W4Property@Wt@@V?$basic_string@DU?$char_traits@D@std@@V?$allocator@D@2@@std@@U?$less@W4Property@Wt@@@4@V?$allocator@U?$pair@$$CBW4Property@Wt@@V?$basic_string@DU?$char_traits@D@std@@V?$allocator@D@2@@std@@@std@@@4@$0A@@std@@@2@@Z 0045fff0 f i libwt:WWebWidget.obj
 0001:0005f030       ??_EWWebWidget@@UAEPAXI@Z  00460030 f i libwt:WWebWidget.obj
 0001:0005f090       ?push_back@?$vector@PAVWWidget@@V?$allocator@PAVWWidget@@@std@@@std@@QAEXABQAVWWidget@@@Z 00460090 f i libwt:WWebWidget.obj
 0001:0005f090       ?push_back@?$vector@PAVDomElement@@V?$allocator@PAVDomElement@@@std@@@std@@QAEXABQAVDomElement@@@Z 00460090 f i libwt:WWebWidget.obj
 0001:0005f090       ?push_back@?$vector@PAVWObject@@V?$allocator@PAVWObject@@@std@@@std@@QAEXABQAVWObject@@@Z 00460090 f i libwt:WWebWidget.obj
 0001:0005f0e0       ?insert@?$_Tree@V?$_Tmap_traits@V?$basic_string@DU?$char_traits@D@std@@V?$allocator@D@2@@std@@PAVWSlotInstance_@@U?$less@V?$basic_string@DU?$char_traits@D@std@@V?$allocator@D@2@@std@@@2@V?$allocator@U?$pair@$$CBV?$basic_string@DU?$char_traits@D@std@@V?$allocator@D@2@@std@@PAVWSlotInstance_@@@std@@@2@$0A@@std@@@std@@QAE?AViterator@12@V312@ABU?$pair@$$CBV?$basic_string@DU?$char_traits@D@std@@V?$allocator@D@2@@std@@PAVWSlotInstance_@@@2@@Z 004600e0 f i libwt:WWebWidget.obj
 0001:0005f2a0       ?_Copy@?$_Tree@V?$_Tmap_traits@V?$basic_string@DU?$char_traits@D@std@@V?$allocator@D@2@@std@@V12@U?$less@V?$basic_string@DU?$char_traits@D@std@@V?$allocator@D@2@@std@@@2@V?$allocator@U?$pair@$$CBV?$basic_string@DU?$char_traits@D@std@@V?$allocator@D@2@@std@@V12@@std@@@2@$0A@@std@@@std@@IAEPAU_Node@?$_Tree_nod@V?$_Tmap_traits@V?$basic_string@DU?$char_traits@D@std@@V?$allocator@D@2@@std@@V12@U?$less@V?$basic_string@DU?$char_traits@D@std@@V?$allocator@D@2@@std@@@2@V?$allocator@U?$pair@$$CBV?$basic_string@DU?$char_traits@D@std@@V?$allocator@D@2@@std@@V12@@std@@@2@$0A@@std@@@2@PAU342@0@Z 004602a0 f i libwt:WWebWidget.obj
 0001:0005f350       ?_Copy@?$_Tree@V?$_Tmap_traits@W4Property@Wt@@V?$basic_string@DU?$char_traits@D@std@@V?$allocator@D@2@@std@@U?$less@W4Property@Wt@@@4@V?$allocator@U?$pair@$$CBW4Property@Wt@@V?$basic_string@DU?$char_traits@D@std@@V?$allocator@D@2@@std@@@std@@@4@$0A@@std@@@std@@IAEPAU_Node@?$_Tree_nod@V?$_Tmap_traits@W4Property@Wt@@V?$basic_string@DU?$char_traits@D@std@@V?$allocator@D@2@@std@@U?$less@W4Property@Wt@@@4@V?$allocator@U?$pair@$$CBW4Property@Wt@@V?$basic_string@DU?$char_traits@D@std@@V?$allocator@D@2@@std@@@std@@@4@$0A@@std@@@2@PAU342@0@Z 00460350 f i libwt:WWebWidget.obj
 0001:0005f400       ?erase@?$_Tree@V?$_Tmap_traits@V?$basic_string@DU?$char_traits@D@std@@V?$allocator@D@2@@std@@U?$pair@V?$basic_string@DU?$char_traits@D@std@@V?$allocator@D@2@@std@@V12@@2@U?$less@V?$basic_string@DU?$char_traits@D@std@@V?$allocator@D@2@@std@@@2@V?$allocator@U?$pair@$$CBV?$basic_string@DU?$char_traits@D@std@@V?$allocator@D@2@@std@@U?$pair@V?$basic_string@DU?$char_traits@D@std@@V?$allocator@D@2@@std@@V12@@2@@std@@@2@$0A@@std@@@std@@QAE?AViterator@12@V312@@Z 00460400 f i libwt:WWebWidget.obj
 0001:0005f710       ?_Erase@?$_Tree@V?$_Tmap_traits@V?$basic_string@DU?$char_traits@D@std@@V?$allocator@D@2@@std@@U?$pair@V?$basic_string@DU?$char_traits@D@std@@V?$allocator@D@2@@std@@V12@@2@U?$less@V?$basic_string@DU?$char_traits@D@std@@V?$allocator@D@2@@std@@@2@V?$allocator@U?$pair@$$CBV?$basic_string@DU?$char_traits@D@std@@V?$allocator@D@2@@std@@U?$pair@V?$basic_string@DU?$char_traits@D@std@@V?$allocator@D@2@@std@@V12@@2@@std@@@2@$0A@@std@@@std@@IAEXPAU_Node@?$_Tree_nod@V?$_Tmap_traits@V?$basic_string@DU?$char_traits@D@std@@V?$allocator@D@2@@std@@U?$pair@V?$basic_string@DU?$char_traits@D@std@@V?$allocator@D@2@@std@@V12@@2@U?$less@V?$basic_string@DU?$char_traits@D@std@@V?$allocator@D@2@@std@@@2@V?$allocator@U?$pair@$$CBV?$basic_string@DU?$char_traits@D@std@@V?$allocator@D@2@@std@@U?$pair@V?$basic_string@DU?$char_traits@D@std@@V?$allocator@D@2@@std@@V12@@2@@std@@@2@$0A@@std@@@2@@Z 00460710 f i libwt:WWebWidget.obj
 0001:0005f750       ??$_Ucopy@PAU?$pair@V?$basic_string@DU?$char_traits@D@std@@V?$allocator@D@2@@std@@PAVDomElement@@@std@@@?$vector@U?$pair@V?$basic_string@DU?$char_traits@D@std@@V?$allocator@D@2@@std@@PAVDomElement@@@std@@V?$allocator@U?$pair@V?$basic_string@DU?$char_traits@D@std@@V?$allocator@D@2@@std@@PAVDomElement@@@std@@@2@@std@@IAEPAU?$pair@V?$basic_string@DU?$char_traits@D@std@@V?$allocator@D@2@@std@@PAVDomElement@@@1@PAU21@00@Z 00460750 f i libwt:WWebWidget.obj
 0001:0005f770       ?removeChild@WWebWidget@@MAEXPAVWWidget@@@Z 00460770 f   libwt:WWebWidget.obj
 0001:0005f840       ?addChild@WWebWidget@@MAEXPAVWWidget@@@Z 00460840 f   libwt:WWebWidget.obj
 0001:0005f8a0       ?getFormObjects@WWebWidget@@EAEXAAV?$vector@PAVWObject@@V?$allocator@PAVWObject@@@std@@@std@@@Z 004608a0 f   libwt:WWebWidget.obj
 0001:0005f910       ?getSDomChanges@WWebWidget@@AAEXAAV?$vector@PAVDomElement@@V?$allocator@PAVDomElement@@@std@@@std@@@Z 00460910 f   libwt:WWebWidget.obj
 0001:0005fa30       ??A?$map@V?$basic_string@DU?$char_traits@D@std@@V?$allocator@D@2@@std@@PAVWSlotInstance_@@U?$less@V?$basic_string@DU?$char_traits@D@std@@V?$allocator@D@2@@std@@@2@V?$allocator@U?$pair@$$CBV?$basic_string@DU?$char_traits@D@std@@V?$allocator@D@2@@std@@PAVWSlotInstance_@@@std@@@2@@std@@QAEAAPAVWSlotInstance_@@ABV?$basic_string@DU?$char_traits@D@std@@V?$allocator@D@2@@1@@Z 00460a30 f i libwt:WWebWidget.obj
 0001:0005fad0       ?_Copy@?$_Tree@V?$_Tmap_traits@V?$basic_string@DU?$char_traits@D@std@@V?$allocator@D@2@@std@@V12@U?$less@V?$basic_string@DU?$char_traits@D@std@@V?$allocator@D@2@@std@@@2@V?$allocator@U?$pair@$$CBV?$basic_string@DU?$char_traits@D@std@@V?$allocator@D@2@@std@@V12@@std@@@2@$0A@@std@@@std@@IAEXABV12@@Z 00460ad0 f i libwt:WWebWidget.obj
 0001:0005fb60       ?erase@?$_Tree@V?$_Tmap_traits@W4Property@Wt@@V?$basic_string@DU?$char_traits@D@std@@V?$allocator@D@2@@std@@U?$less@W4Property@Wt@@@4@V?$allocator@U?$pair@$$CBW4Property@Wt@@V?$basic_string@DU?$char_traits@D@std@@V?$allocator@D@2@@std@@@std@@@4@$0A@@std@@@std@@QAE?AViterator@12@V312@0@Z 00460b60 f i libwt:WWebWidget.obj
 0001:0005fc20       ?_Copy@?$_Tree@V?$_Tmap_traits@W4Property@Wt@@V?$basic_string@DU?$char_traits@D@std@@V?$allocator@D@2@@std@@U?$less@W4Property@Wt@@@4@V?$allocator@U?$pair@$$CBW4Property@Wt@@V?$basic_string@DU?$char_traits@D@std@@V?$allocator@D@2@@std@@@std@@@4@$0A@@std@@@std@@IAEXABV12@@Z 00460c20 f i libwt:WWebWidget.obj
 0001:0005fcb0       ?_Tidy@?$_Tree@V?$_Tmap_traits@W4Property@Wt@@V?$basic_string@DU?$char_traits@D@std@@V?$allocator@D@2@@std@@U?$less@W4Property@Wt@@@4@V?$allocator@U?$pair@$$CBW4Property@Wt@@V?$basic_string@DU?$char_traits@D@std@@V?$allocator@D@2@@std@@@std@@@4@$0A@@std@@@std@@IAEXXZ 00460cb0 f i libwt:WWebWidget.obj
 0001:0005fcb0       ??1?$map@W4Property@Wt@@V?$basic_string@DU?$char_traits@D@std@@V?$allocator@D@2@@std@@U?$less@W4Property@Wt@@@4@V?$allocator@U?$pair@$$CBW4Property@Wt@@V?$basic_string@DU?$char_traits@D@std@@V?$allocator@D@2@@std@@@std@@@4@@std@@QAE@XZ 00460cb0 f i libwt:WWebWidget.obj
 0001:0005fce0       ?_Destroy@?$vector@U?$pair@V?$basic_string@DU?$char_traits@D@std@@V?$allocator@D@2@@std@@PAVDomElement@@@std@@V?$allocator@U?$pair@V?$basic_string@DU?$char_traits@D@std@@V?$allocator@D@2@@std@@PAVDomElement@@@std@@@2@@std@@IAEXPAU?$pair@V?$basic_string@DU?$char_traits@D@std@@V?$allocator@D@2@@std@@PAVDomElement@@@2@0@Z 00460ce0 f i libwt:WWebWidget.obj
 0001:0005fd10       ?_Tidy@?$vector@U?$pair@V?$basic_string@DU?$char_traits@D@std@@V?$allocator@D@2@@std@@PAVDomElement@@@std@@V?$allocator@U?$pair@V?$basic_string@DU?$char_traits@D@std@@V?$allocator@D@2@@std@@PAVDomElement@@@std@@@2@@std@@IAEXXZ 00460d10 f i libwt:WWebWidget.obj
 0001:0005fd60       ?_Copy@?$_Tree@V?$_Tmap_traits@V?$basic_string@DU?$char_traits@D@std@@V?$allocator@D@2@@std@@U?$pair@V?$basic_string@DU?$char_traits@D@std@@V?$allocator@D@2@@std@@V12@@2@U?$less@V?$basic_string@DU?$char_traits@D@std@@V?$allocator@D@2@@std@@@2@V?$allocator@U?$pair@$$CBV?$basic_string@DU?$char_traits@D@std@@V?$allocator@D@2@@std@@U?$pair@V?$basic_string@DU?$char_traits@D@std@@V?$allocator@D@2@@std@@V12@@2@@std@@@2@$0A@@std@@@std@@IAEPAU_Node@?$_Tree_nod@V?$_Tmap_traits@V?$basic_string@DU?$char_traits@D@std@@V?$allocator@D@2@@std@@U?$pair@V?$basic_string@DU?$char_traits@D@std@@V?$allocator@D@2@@std@@V12@@2@U?$less@V?$basic_string@DU?$char_traits@D@std@@V?$allocator@D@2@@std@@@2@V?$allocator@U?$pair@$$CBV?$basic_string@DU?$char_traits@D@std@@V?$allocator@D@2@@std@@U?$pair@V?$basic_string@DU?$char_traits@D@std@@V?$allocator@D@2@@std@@V12@@2@@std@@@2@$0A@@std@@@2@PAU342@0@Z 00460d60 f i libwt:WWebWidget.obj
 0001:0005fe10       ?buildSlotMap@WWebWidget@@MAEXAAV?$map@V?$basic_string@DU?$char_traits@D@std@@V?$allocator@D@2@@std@@PAVWSlotInstance_@@U?$less@V?$basic_string@DU?$char_traits@D@std@@V?$allocator@D@2@@std@@@2@V?$allocator@U?$pair@$$CBV?$basic_string@DU?$char_traits@D@std@@V?$allocator@D@2@@std@@PAVWSlotInstance_@@@std@@@2@@std@@@Z 00460e10 f   libwt:WWebWidget.obj
 0001:0005fed0       ?buildSignalMap@WWebWidget@@MAEXAAV?$map@V?$basic_string@DU?$char_traits@D@std@@V?$allocator@D@2@@std@@PAVWSignalInstance_@@U?$less@V?$basic_string@DU?$char_traits@D@std@@V?$allocator@D@2@@std@@@2@V?$allocator@U?$pair@$$CBV?$basic_string@DU?$char_traits@D@std@@V?$allocator@D@2@@std@@PAVWSignalInstance_@@@std@@@2@@std@@@Z 00460ed0 f   libwt:WWebWidget.obj
 0001:0005ff90       ??0?$_Tree@V?$_Tmap_traits@V?$basic_string@DU?$char_traits@D@std@@V?$allocator@D@2@@std@@V12@U?$less@V?$basic_string@DU?$char_traits@D@std@@V?$allocator@D@2@@std@@@2@V?$allocator@U?$pair@$$CBV?$basic_string@DU?$char_traits@D@std@@V?$allocator@D@2@@std@@V12@@std@@@2@$0A@@std@@@std@@QAE@ABV01@@Z 00460f90 f i libwt:WWebWidget.obj
 0001:00060020       ??0?$_Tree@V?$_Tmap_traits@W4Property@Wt@@V?$basic_string@DU?$char_traits@D@std@@V?$allocator@D@2@@std@@U?$less@W4Property@Wt@@@4@V?$allocator@U?$pair@$$CBW4Property@Wt@@V?$basic_string@DU?$char_traits@D@std@@V?$allocator@D@2@@std@@@std@@@4@$0A@@std@@@std@@QAE@ABV01@@Z 00461020 f i libwt:WWebWidget.obj
 0001:000600b0       ??0?$vector@U?$pair@V?$basic_string@DU?$char_traits@D@std@@V?$allocator@D@2@@std@@PAVDomElement@@@std@@V?$allocator@U?$pair@V?$basic_string@DU?$char_traits@D@std@@V?$allocator@D@2@@std@@PAVDomElement@@@std@@@2@@std@@QAE@ABV01@@Z 004610b0 f i libwt:WWebWidget.obj
 0001:00060170       ??1?$vector@U?$pair@V?$basic_string@DU?$char_traits@D@std@@V?$allocator@D@2@@std@@PAVDomElement@@@std@@V?$allocator@U?$pair@V?$basic_string@DU?$char_traits@D@std@@V?$allocator@D@2@@std@@PAVDomElement@@@std@@@2@@std@@QAE@XZ 00461170 f i libwt:WWebWidget.obj
 0001:00060180       ?erase@?$_Tree@V?$_Tmap_traits@V?$basic_string@DU?$char_traits@D@std@@V?$allocator@D@2@@std@@U?$pair@V?$basic_string@DU?$char_traits@D@std@@V?$allocator@D@2@@std@@V12@@2@U?$less@V?$basic_string@DU?$char_traits@D@std@@V?$allocator@D@2@@std@@@2@V?$allocator@U?$pair@$$CBV?$basic_string@DU?$char_traits@D@std@@V?$allocator@D@2@@std@@U?$pair@V?$basic_string@DU?$char_traits@D@std@@V?$allocator@D@2@@std@@V12@@2@@std@@@2@$0A@@std@@@std@@QAE?AViterator@12@V312@0@Z 00461180 f i libwt:WWebWidget.obj
 0001:00060240       ?_Copy@?$_Tree@V?$_Tmap_traits@V?$basic_string@DU?$char_traits@D@std@@V?$allocator@D@2@@std@@U?$pair@V?$basic_string@DU?$char_traits@D@std@@V?$allocator@D@2@@std@@V12@@2@U?$less@V?$basic_string@DU?$char_traits@D@std@@V?$allocator@D@2@@std@@@2@V?$allocator@U?$pair@$$CBV?$basic_string@DU?$char_traits@D@std@@V?$allocator@D@2@@std@@U?$pair@V?$basic_string@DU?$char_traits@D@std@@V?$allocator@D@2@@std@@V12@@2@@std@@@2@$0A@@std@@@std@@IAEXABV12@@Z 00461240 f i libwt:WWebWidget.obj
 0001:000602d0       ?_Tidy@?$_Tree@V?$_Tmap_traits@V?$basic_string@DU?$char_traits@D@std@@V?$allocator@D@2@@std@@U?$pair@V?$basic_string@DU?$char_traits@D@std@@V?$allocator@D@2@@std@@V12@@2@U?$less@V?$basic_string@DU?$char_traits@D@std@@V?$allocator@D@2@@std@@@2@V?$allocator@U?$pair@$$CBV?$basic_string@DU?$char_traits@D@std@@V?$allocator@D@2@@std@@U?$pair@V?$basic_string@DU?$char_traits@D@std@@V?$allocator@D@2@@std@@V12@@2@@std@@@2@$0A@@std@@@std@@IAEXXZ 004612d0 f i libwt:WWebWidget.obj
 0001:000602d0       ??1?$map@V?$basic_string@DU?$char_traits@D@std@@V?$allocator@D@2@@std@@U?$pair@V?$basic_string@DU?$char_traits@D@std@@V?$allocator@D@2@@std@@V12@@2@U?$less@V?$basic_string@DU?$char_traits@D@std@@V?$allocator@D@2@@std@@@2@V?$allocator@U?$pair@$$CBV?$basic_string@DU?$char_traits@D@std@@V?$allocator@D@2@@std@@U?$pair@V?$basic_string@DU?$char_traits@D@std@@V?$allocator@D@2@@std@@V12@@2@@std@@@2@@std@@QAE@XZ 004612d0 f i libwt:WWebWidget.obj
 0001:00060300       ??0?$_Tree@V?$_Tmap_traits@V?$basic_string@DU?$char_traits@D@std@@V?$allocator@D@2@@std@@U?$pair@V?$basic_string@DU?$char_traits@D@std@@V?$allocator@D@2@@std@@V12@@2@U?$less@V?$basic_string@DU?$char_traits@D@std@@V?$allocator@D@2@@std@@@2@V?$allocator@U?$pair@$$CBV?$basic_string@DU?$char_traits@D@std@@V?$allocator@D@2@@std@@U?$pair@V?$basic_string@DU?$char_traits@D@std@@V?$allocator@D@2@@std@@V12@@2@@std@@@2@$0A@@std@@@std@@QAE@ABV01@@Z 00461300 f i libwt:WWebWidget.obj
 0001:00060390       ??4?$vector@U?$pair@V?$basic_string@DU?$char_traits@D@std@@V?$allocator@D@2@@std@@PAVDomElement@@@std@@V?$allocator@U?$pair@V?$basic_string@DU?$char_traits@D@std@@V?$allocator@D@2@@std@@PAVDomElement@@@std@@@2@@std@@QAEAAV01@ABV01@@Z 00461390 f i libwt:WWebWidget.obj
 0001:000604f0       ??0DomElement@@QAE@ABV0@@Z 004614f0 f i libwt:WWebWidget.obj
 0001:000605b0       ??4DomElement@@QAEAAV0@ABV0@@Z 004615b0 f i libwt:WWebWidget.obj
 0001:00060680       ??_EWInteractWidget@@UAEPAXI@Z 00461680 f i libwt:WInteractWidget.obj
 0001:000606e0       ?keyWentDown@WInteractWidget@@QAEXH@Z 004616e0 f   libwt:WInteractWidget.obj
 0001:00060700       ?keyPressed@WInteractWidget@@QAEXH@Z 00461700 f   libwt:WInteractWidget.obj
 0001:00060720       ?keyWentUp@WInteractWidget@@QAEXH@Z 00461720 f   libwt:WInteractWidget.obj
 0001:00060740       ?clicked@WInteractWidget@@QAEXXZ 00461740 f   libwt:WInteractWidget.obj
 0001:00060750       ?doubleClicked@WInteractWidget@@QAEXXZ 00461750 f   libwt:WInteractWidget.obj
 0001:00060760       ?mouseWentDown@WInteractWidget@@QAEXXZ 00461760 f   libwt:WInteractWidget.obj
 0001:00060770       ?mouseWentUp@WInteractWidget@@QAEXXZ 00461770 f   libwt:WInteractWidget.obj
 0001:00060780       ?mouseWentOut@WInteractWidget@@QAEXXZ 00461780 f   libwt:WInteractWidget.obj
 0001:00060790       ?mouseWentOver@WInteractWidget@@QAEXXZ 00461790 f   libwt:WInteractWidget.obj
 0001:000607a0       ?mouseMoved@WInteractWidget@@QAEXXZ 004617a0 f   libwt:WInteractWidget.obj
 0001:000607b0       ?clicked@WInteractWidget@@QAEXPAX@Z 004617b0 f   libwt:WInteractWidget.obj
 0001:000607d0       ?contextmenu@WInteractWidget@@QAEXXZ 004617d0 f   libwt:WInteractWidget.obj
 0001:000607e0       ??0WInteractWidget@@QAE@PAVWContainerWidget@@@Z 004617e0 f   libwt:WInteractWidget.obj
 0001:00060820       ?setData@WInteractWidget@@QAEXPAX@Z 00461820 f   libwt:WInteractWidget.obj
 0001:00060830       ?updateDom@WInteractWidget@@MAEXAAVDomElement@@_N@Z 00461830 f   libwt:WInteractWidget.obj
 0001:00060aa0       ?gotClick@WInteractWidget@@AAEXXZ 00461aa0 f   libwt:WInteractWidget.obj
 0001:00060ad0       ?triggerSlot@WInteractWidget@@MAE_NPAVWObject@@PBVWSlot_@@PAPAX@Z 00461ad0 f   libwt:WInteractWidget.obj
 0001:00060b20       ?buildSlotMap@WInteractWidget@@MAEXAAV?$map@V?$basic_string@DU?$char_traits@D@std@@V?$allocator@D@2@@std@@PAVWSlotInstance_@@U?$less@V?$basic_string@DU?$char_traits@D@std@@V?$allocator@D@2@@std@@@2@V?$allocator@U?$pair@$$CBV?$basic_string@DU?$char_traits@D@std@@V?$allocator@D@2@@std@@PAVWSlotInstance_@@@std@@@2@@std@@@Z 00461b20 f   libwt:WInteractWidget.obj
 0001:00060be0       ?buildSignalMap@WInteractWidget@@MAEXAAV?$map@V?$basic_string@DU?$char_traits@D@std@@V?$allocator@D@2@@std@@PAVWSignalInstance_@@U?$less@V?$basic_string@DU?$char_traits@D@std@@V?$allocator@D@2@@std@@@2@V?$allocator@U?$pair@$$CBV?$basic_string@DU?$char_traits@D@std@@V?$allocator@D@2@@std@@PAVWSignalInstance_@@@std@@@2@@std@@@Z 00461be0 f   libwt:WInteractWidget.obj
 0001:00060ca0       ??_EWText@@UAEPAXI@Z       00461ca0 f i libwt:WText.obj
 0001:00060d00       ??0WText@@QAE@PAVWContainerWidget@@@Z 00461d00 f   libwt:WText.obj
 0001:00060da0       ??0WText@@QAE@V?$basic_string@DU?$char_traits@D@std@@V?$allocator@D@2@@std@@PAVWContainerWidget@@@Z 00461da0 f   libwt:WText.obj
 0001:00060e60       ??0WText@@QAE@ABVWMessage@@PAVWContainerWidget@@@Z 00461e60 f   libwt:WText.obj
 0001:00060f20       ?hintedWidth@WText@@QBE?AVWLength@@XZ 00461f20 f   libwt:WText.obj
 0001:00060f60       ?setText@WText@@QAEXV?$basic_string@DU?$char_traits@D@std@@V?$allocator@D@2@@std@@@Z 00461f60 f   libwt:WText.obj
 0001:00060ff0       ?setMessage@WText@@QAEXABVWMessage@@@Z 00461ff0 f   libwt:WText.obj
 0001:000610d0       ?setFormatting@WText@@QAEXW4Formatting@1@@Z 004620d0 f   libwt:WText.obj
 0001:000610e0       ?formattedText@WText@@QBE?AV?$basic_string@DU?$char_traits@D@std@@V?$allocator@D@2@@std@@XZ 004620e0 f   libwt:WText.obj
 0001:00061250       ?createDomElement@WText@@MAEPAVDomElement@@XZ 00462250 f   libwt:WText.obj
 0001:00061290       ?refresh@WText@@UAEXXZ     00462290 f   libwt:WText.obj
 0001:00061390       ?updateDom@WText@@MAEXAAVDomElement@@_N@Z 00462390 f   libwt:WText.obj
 0001:000613f0       ?getDomChanges@WText@@MAEXAAV?$vector@PAVDomElement@@V?$allocator@PAVDomElement@@@std@@@std@@@Z 004623f0 f   libwt:WText.obj
 0001:00061430       ?buildSlotMap@WText@@MAEXAAV?$map@V?$basic_string@DU?$char_traits@D@std@@V?$allocator@D@2@@std@@PAVWSlotInstance_@@U?$less@V?$basic_string@DU?$char_traits@D@std@@V?$allocator@D@2@@std@@@2@V?$allocator@U?$pair@$$CBV?$basic_string@DU?$char_traits@D@std@@V?$allocator@D@2@@std@@PAVWSlotInstance_@@@std@@@2@@std@@@Z 00462430 f   libwt:WText.obj
 0001:000614f0       ?buildSignalMap@WText@@MAEXAAV?$map@V?$basic_string@DU?$char_traits@D@std@@V?$allocator@D@2@@std@@PAVWSignalInstance_@@U?$less@V?$basic_string@DU?$char_traits@D@std@@V?$allocator@D@2@@std@@@2@V?$allocator@U?$pair@$$CBV?$basic_string@DU?$char_traits@D@std@@V?$allocator@D@2@@std@@PAVWSignalInstance_@@@std@@@2@@std@@@Z 004624f0 f   libwt:WText.obj
 0001:000615b0       ?removeWidget@WContainerWidget@@UAEXPAVWWidget@@@Z 004625b0 f   libwt:WContainerWidget.obj
 0001:000615d0       ?setContentAlignment@WContainerWidget@@QAEXW4HorizontalAlignment@WWidget@@@Z 004625d0 f   libwt:WContainerWidget.obj
 0001:000615f0       ?setPadding@WContainerWidget@@QAEXVWLength@@H@Z 004625f0 f   libwt:WContainerWidget.obj
 0001:00061680       ?padding@WContainerWidget@@QBE?AVWLength@@W4Side@WWidget@@@Z 00462680 f   libwt:WContainerWidget.obj
 0001:00061730       ?clear@WContainerWidget@@QAEXXZ 00462730 f   libwt:WContainerWidget.obj
 0001:00061770       ??_EWContainerWidget@@UAEPAXI@Z 00462770 f i libwt:WContainerWidget.obj
 0001:000617d0       ??0WContainerWidget@@QAE@PAV0@@Z 004627d0 f   libwt:WContainerWidget.obj
 0001:00061870       ?removeChild@WContainerWidget@@MAEXPAVWWidget@@@Z 00462870 f   libwt:WContainerWidget.obj
 0001:000618d0       ?updateDom@WContainerWidget@@MAEXAAVDomElement@@_N@Z 004628d0 f   libwt:WContainerWidget.obj
 0001:00061dc0       ?createDomChildren@WContainerWidget@@IAEXAAVDomElement@@@Z 00462dc0 f   libwt:WContainerWidget.obj
 0001:00061e60       ?createDomElement@WContainerWidget@@MAEPAVDomElement@@XZ 00462e60 f   libwt:WContainerWidget.obj
 0001:00061ee0       ?addWidget@WContainerWidget@@UAEXPAVWWidget@@@Z 00462ee0 f   libwt:WContainerWidget.obj
 0001:00061f50       ?getDomChanges@WContainerWidget@@MAEXAAV?$vector@PAVDomElement@@V?$allocator@PAVDomElement@@@std@@@std@@@Z 00462f50 f   libwt:WContainerWidget.obj
 0001:00061ff0       ?buildSlotMap@WContainerWidget@@MAEXAAV?$map@V?$basic_string@DU?$char_traits@D@std@@V?$allocator@D@2@@std@@PAVWSlotInstance_@@U?$less@V?$basic_string@DU?$char_traits@D@std@@V?$allocator@D@2@@std@@@2@V?$allocator@U?$pair@$$CBV?$basic_string@DU?$char_traits@D@std@@V?$allocator@D@2@@std@@PAVWSlotInstance_@@@std@@@2@@std@@@Z 00462ff0 f   libwt:WContainerWidget.obj
 0001:000620b0       ?buildSignalMap@WContainerWidget@@MAEXAAV?$map@V?$basic_string@DU?$char_traits@D@std@@V?$allocator@D@2@@std@@PAVWSignalInstance_@@U?$less@V?$basic_string@DU?$char_traits@D@std@@V?$allocator@D@2@@std@@@2@V?$allocator@U?$pair@$$CBV?$basic_string@DU?$char_traits@D@std@@V?$allocator@D@2@@std@@PAVWSignalInstance_@@@std@@@2@@std@@@Z 004630b0 f   libwt:WContainerWidget.obj
 0001:00062170       ?createDomElement@WTableRow@@MAEPAVDomElement@@XZ 00463170 f   libwt:WTable.obj
 0001:000621b0       ?updateDom@WTableRow@@MAEXAAVDomElement@@_N@Z 004631b0 f   libwt:WTable.obj
 0001:000621b0       ?updateDom@WTableCell@@MAEXAAVDomElement@@_N@Z 004631b0 f   libwt:WTableCell.obj
 0001:000621c0       ?triggerSlot@WText@@MAE_NPAVWObject@@PBVWSlot_@@PAPAX@Z 004631c0 f   libwt:WText.obj
 0001:000621c0       ?triggerSlot@WLabel@@MAE_NPAVWObject@@PBVWSlot_@@PAPAX@Z 004631c0 f   libwt:WLabel.obj
 0001:000621c0       ?triggerSlot@WContainerWidget@@MAE_NPAVWObject@@PBVWSlot_@@PAPAX@Z 004631c0 f   libwt:WContainerWidget.obj
 0001:000621c0       ?triggerSlot@WTable@@MAE_NPAVWObject@@PBVWSlot_@@PAPAX@Z 004631c0 f   libwt:WTable.obj
 0001:000621d0       ?undoTriggerSlot@WLabel@@MAE_NPBVWSlot_@@PAPAX@Z 004631d0 f   libwt:WLabel.obj
 0001:000621d0       ?undoTriggerSlot@WContainerWidget@@MAE_NPBVWSlot_@@PAPAX@Z 004631d0 f   libwt:WContainerWidget.obj
 0001:000621d0       ?undoTriggerSlot@WTable@@MAE_NPBVWSlot_@@PAPAX@Z 004631d0 f   libwt:WTable.obj
 0001:000621d0       ?undoTriggerSlot@WImage@@MAE_NPBVWSlot_@@PAPAX@Z 004631d0 f   libwt:WImage.obj
 0001:000621d0       ?undoTriggerSlot@WText@@MAE_NPBVWSlot_@@PAPAX@Z 004631d0 f   libwt:WText.obj
 0001:000621e0       ?setCellPadding@WTable@@QAEXH@Z 004631e0 f   libwt:WTable.obj
 0001:000621f0       ?SetLine@WTable@@QAEX_N@Z  004631f0 f   libwt:WTable.obj
 0001:00062200       ?updateDom@WTable@@MAEXAAVDomElement@@_N@Z 00463200 f   libwt:WTable.obj
 0001:00062220       ?setCellSpaceing@WTable@@QAEXH@Z 00463220 f   libwt:WTable.obj
 0001:00062230       ??$fill@PAU?$pair@_NPAUre_syntax_base@re_detail@boost@@@std@@U12@@std@@YAXPAU?$pair@_NPAUre_syntax_base@re_detail@boost@@@0@0ABU10@@Z 00463230 f i libboost_regex-vc71-mt-1_33_1:instances.obj
 0001:00062230       ??$fill@PAUTableData@WTableRow@@U12@@std@@YAXPAUTableData@WTableRow@@0ABU12@@Z 00463230 f i libwt:WTable.obj
 0001:00062260       ??$fill@PAJJ@std@@YAXPAJ0ABJ@Z 00463260 f i libboost_regex-vc71-mt-1_33_1:instances.obj
 0001:00062260       ??$fill@PAPAVWScrollBar@@PAV1@@std@@YAXPAPAVWScrollBar@@0ABQAV1@@Z 00463260 f i libwt:WScrollBar.obj
 0001:00062260       ??$fill@PAPAVWRadioButton@@PAV1@@std@@YAXPAPAVWRadioButton@@0ABQAV1@@Z 00463260 f i libwt:WButtonGroup.obj
 0001:00062260       ??$fill@PAPAVWMessageResources@@PAV1@@std@@YAXPAPAVWMessageResources@@0ABQAV1@@Z 00463260 f i libwt:WMessageResourceBundle.obj
 0001:00062260       ??$fill@PAPAVWObject@@PAV1@@std@@YAXPAPAVWObject@@0ABQAV1@@Z 00463260 f i libwt:WWebWidget.obj
 0001:00062260       ??$fill@PAPAVDomElement@@PAV1@@std@@YAXPAPAVDomElement@@0ABQAV1@@Z 00463260 f i libwt:WWebWidget.obj
 0001:00062260       ??$fill@PAPAVWWidget@@PAV1@@std@@YAXPAPAVWWidget@@0ABQAV1@@Z 00463260 f i libwt:WWebWidget.obj
 0001:00062260       ??$fill@PAPAVWTableRow@@PAV1@@std@@YAXPAPAVWTableRow@@0ABQAV1@@Z 00463260 f i libwt:WTable.obj
 0001:00062260       ??$fill@PAPAVWConnection_@@PAV1@@std@@YAXPAPAVWConnection_@@0ABQAV1@@Z 00463260 f i libwt:WSlotInstance_.obj
 0001:00062280       ?numRows@WTable@@QBEHXZ    00463280 f   libwt:WTable.obj
 0001:000622a0       ?rowNum@WTableRow@@QBEHXZ  004632a0 f   libwt:WTable.obj
 0001:000622e0       ?numColumns@WTable@@QBEHXZ 004632e0 f   libwt:WTable.obj
 0001:00062320       ?itemAt@WTable@@AAEAAUTableData@WTableRow@@HH@Z 00463320 f   libwt:WTable.obj
 0001:00062340       ?GetRow@WTable@@QAEPAVWTableRow@@H@Z 00463340 f   libwt:WTable.obj
 0001:00062360       ?adjustRowStyle@WTable@@QAEXV?$basic_string@DU?$char_traits@D@std@@V?$allocator@D@2@@std@@0@Z 00463360 f   libwt:WTable.obj
 0001:00062440       ??0WTable@@QAE@PAVWContainerWidget@@@Z 00463440 f   libwt:WTable.obj
 0001:000624d0       ??1WTable@@UAE@XZ          004634d0 f   libwt:WTable.obj
 0001:00062580       ?printDebug@WTable@@QAEXXZ 00463580 f   libwt:WTable.obj
 0001:00062760       ?removeCell@WTable@@QAEXHH@Z 00463760 f   libwt:WTable.obj
 0001:00062800       ?deleteRow@WTable@@QAEXH@Z 00463800 f   libwt:WTable.obj
 0001:000628d0       ?clear@WTable@@QAEXXZ      004638d0 f   libwt:WTable.obj
 0001:00062920       ?createDomElement@WTable@@MAEPAVDomElement@@XZ 00463920 f   libwt:WTable.obj
 0001:00062da0       ?_Insert_n@?$vector@PAVDomElement@@V?$allocator@PAVDomElement@@@std@@@std@@IAEXViterator@12@IABQAVDomElement@@@Z 00463da0 f i libwt:WWebWidget.obj
 0001:00062da0       ?_Insert_n@?$vector@PAVWWidget@@V?$allocator@PAVWWidget@@@std@@@std@@IAEXViterator@12@IABQAVWWidget@@@Z 00463da0 f i libwt:WWebWidget.obj
 0001:00062da0       ?_Insert_n@?$vector@PAVWTableRow@@V?$allocator@PAVWTableRow@@@std@@@std@@IAEXViterator@12@IABQAVWTableRow@@@Z 00463da0 f i libwt:WTable.obj
 0001:00062da0       ?_Insert_n@?$vector@PAVWObject@@V?$allocator@PAVWObject@@@std@@@std@@IAEXViterator@12@IABQAVWObject@@@Z 00463da0 f i libwt:WWebWidget.obj
 0001:00062da0       ?_Insert_n@?$vector@PAVWMessageResources@@V?$allocator@PAVWMessageResources@@@std@@@std@@IAEXViterator@12@IABQAVWMessageResources@@@Z 00463da0 f i libwt:WMessageResourceBundle.obj
 0001:00062f90       ??_EWTable@@UAEPAXI@Z      00463f90 f i libwt:WTable.obj
 0001:00062ff0       ?removeCell@WTable@@QAEXPAVWTableCell@@@Z 00463ff0 f   libwt:WTable.obj
 0001:00063010       ?_Insert_n@?$vector@UTableData@WTableRow@@V?$allocator@UTableData@WTableRow@@@std@@@std@@IAEXViterator@12@IABUTableData@WTableRow@@@Z 00464010 f i libwt:WTable.obj
 0001:00063260       ??_EWTableRow@@UAEPAXI@Z   00464260 f i libwt:WTable.obj
 0001:000632c0       ?getDomChanges@WTable@@MAEXAAV?$vector@PAVDomElement@@V?$allocator@PAVDomElement@@@std@@@std@@@Z 004642c0 f   libwt:WTable.obj
 0001:000633e0       ?buildSlotMap@WTableRow@@MAEXAAV?$map@V?$basic_string@DU?$char_traits@D@std@@V?$allocator@D@2@@std@@PAVWSlotInstance_@@U?$less@V?$basic_string@DU?$char_traits@D@std@@V?$allocator@D@2@@std@@@2@V?$allocator@U?$pair@$$CBV?$basic_string@DU?$char_traits@D@std@@V?$allocator@D@2@@std@@PAVWSlotInstance_@@@std@@@2@@std@@@Z 004643e0 f   libwt:WTable.obj
 0001:000634a0       ?buildSignalMap@WTableRow@@MAEXAAV?$map@V?$basic_string@DU?$char_traits@D@std@@V?$allocator@D@2@@std@@PAVWSignalInstance_@@U?$less@V?$basic_string@DU?$char_traits@D@std@@V?$allocator@D@2@@std@@@2@V?$allocator@U?$pair@$$CBV?$basic_string@DU?$char_traits@D@std@@V?$allocator@D@2@@std@@PAVWSignalInstance_@@@std@@@2@@std@@@Z 004644a0 f   libwt:WTable.obj
 0001:00063560       ?buildSlotMap@WTable@@MAEXAAV?$map@V?$basic_string@DU?$char_traits@D@std@@V?$allocator@D@2@@std@@PAVWSlotInstance_@@U?$less@V?$basic_string@DU?$char_traits@D@std@@V?$allocator@D@2@@std@@@2@V?$allocator@U?$pair@$$CBV?$basic_string@DU?$char_traits@D@std@@V?$allocator@D@2@@std@@PAVWSlotInstance_@@@std@@@2@@std@@@Z 00464560 f   libwt:WTable.obj
 0001:00063620       ?buildSignalMap@WTable@@MAEXAAV?$map@V?$basic_string@DU?$char_traits@D@std@@V?$allocator@D@2@@std@@PAVWSignalInstance_@@U?$less@V?$basic_string@DU?$char_traits@D@std@@V?$allocator@D@2@@std@@@2@V?$allocator@U?$pair@$$CBV?$basic_string@DU?$char_traits@D@std@@V?$allocator@D@2@@std@@PAVWSignalInstance_@@@std@@@2@@std@@@Z 00464620 f   libwt:WTable.obj
 0001:000636e0       ?insertColumn@WTableRow@@QAEXH@Z 004646e0 f   libwt:WTable.obj
 0001:000637b0       ?insertColumn@WTable@@QAEXH@Z 004647b0 f   libwt:WTable.obj
 0001:00063800       ?expand@WTableRow@@AAEXH@Z 00464800 f   libwt:WTable.obj
 0001:00063920       ??0WTableRow@@QAE@PAVWTable@@H@Z 00464920 f   libwt:WTable.obj
 0001:000639a0       ?expand@WTable@@AAEXHHHH@Z 004649a0 f   libwt:WTable.obj
 0001:00063b50       ?insertRow@WTable@@QAEXH@Z 00464b50 f   libwt:WTable.obj
 0001:00063c20       ?insertRow@WTable@@QAEXHV?$basic_string@DU?$char_traits@D@std@@V?$allocator@D@2@@std@@@Z 00464c20 f   libwt:WTable.obj
 0001:00063d20       ?elementAt@WTable@@QAEPAVWTableCell@@HH@Z 00464d20 f   libwt:WTable.obj
 0001:00063d60       ?exec@WApplication@@QAEHXZ 00464d60 f   libwt:WApplication.obj
 0001:00063d70       ?instance@WApplication@@SAPAV1@XZ 00464d70 f   libwt:WApplication.obj
 0001:00063d80       ?setTitle@WApplication@@QAEXV?$basic_string@DU?$char_traits@D@std@@V?$allocator@D@2@@std@@@Z 00464d80 f   libwt:WApplication.obj
 0001:00063dd0       ?url@WApplication@@QBE?AV?$basic_string@DU?$char_traits@D@std@@V?$allocator@D@2@@std@@XZ 00464dd0 f   libwt:WApplication.obj
 0001:00063e00       ?submiturl@WApplication@@QBE?AV?$basic_string@DU?$char_traits@D@std@@V?$allocator@D@2@@std@@XZ 00464e00 f   libwt:WApplication.obj
 0001:00063e30       ?quit@WApplication@@QAEXXZ 00464e30 f   libwt:WApplication.obj
 0001:00063e40       ?scheduleUploadFiles@WApplication@@QAEXXZ 00464e40 f   libwt:WApplication.obj
 0001:00063e50       ?setOAPLDownloadPath@WApplication@@QAEXV?$basic_string@DU?$char_traits@D@std@@V?$allocator@D@2@@std@@@Z 00464e50 f   libwt:WApplication.obj
 0001:00063ea0       ?haveJavaScript@WApplication@@QBE_NXZ 00464ea0 f   libwt:WApplication.obj
 0001:00063eb0       ?refresh@WApplication@@UAEXXZ 00464eb0 f   libwt:WApplication.obj
 0001:00063ed0       ?setBodyAttribute@WApplication@@QAEXV?$basic_string@DU?$char_traits@D@std@@V?$allocator@D@2@@std@@@Z 00464ed0 f   libwt:WApplication.obj
 0001:00063f20       ?setRefreshTime@WApplication@@QAEXHV?$basic_string@DU?$char_traits@D@std@@V?$allocator@D@2@@std@@@Z 00464f20 f   libwt:WApplication.obj
 0001:00063f80       ?_Dec@const_iterator@?$_Tree@V?$_Tset_traits@PBVWSignalInstance_@@U?$less@PBVWSignalInstance_@@@std@@V?$allocator@PBVWSignalInstance_@@@3@$0A@@std@@@std@@QAEXXZ 00464f80 f i libwt:WApplication.obj
 0001:00063f80       ?_Dec@const_iterator@?$_Tree@V?$_Tset_traits@PBVWResource@@U?$less@PBVWResource@@@std@@V?$allocator@PBVWResource@@@3@$0A@@std@@@std@@QAEXXZ 00464f80 f i libwt:WApplication.obj
 0001:00063fe0       ?triggerSlot@WApplication@@MAE_NPAVWObject@@PBVWSlot_@@PAPAX@Z 00464fe0 f   libwt:WApplication.obj
 0001:00064020       ?_Buynode@?$_Tree@V?$_Tset_traits@PBVWSignalInstance_@@U?$less@PBVWSignalInstance_@@@std@@V?$allocator@PBVWSignalInstance_@@@3@$0A@@std@@@std@@IAEPAU_Node@?$_Tree_nod@V?$_Tset_traits@PBVWSignalInstance_@@U?$less@PBVWSignalInstance_@@@std@@V?$allocator@PBVWSignalInstance_@@@3@$0A@@std@@@2@XZ 00465020 f i libwt:WApplication.obj
 0001:00064020       ?_Buynode@?$_Tree@V?$_Tset_traits@PBVWResource@@U?$less@PBVWResource@@@std@@V?$allocator@PBVWResource@@@3@$0A@@std@@@std@@IAEPAU_Node@?$_Tree_nod@V?$_Tset_traits@PBVWResource@@U?$less@PBVWResource@@@std@@V?$allocator@PBVWResource@@@3@$0A@@std@@@2@XZ 00465020 f i libwt:WApplication.obj
 0001:00064060       ?find@?$_Tree@V?$_Tset_traits@PBVWResource@@U?$less@PBVWResource@@@std@@V?$allocator@PBVWResource@@@3@$0A@@std@@@std@@QAE?AViterator@12@ABQBVWResource@@@Z 00465060 f i libwt:WApplication.obj
 0001:00064060       ?find@?$_Tree@V?$_Tset_traits@PBVWSignalInstance_@@U?$less@PBVWSignalInstance_@@@std@@V?$allocator@PBVWSignalInstance_@@@3@$0A@@std@@@std@@QAE?AViterator@12@ABQBVWSignalInstance_@@@Z 00465060 f i libwt:WApplication.obj
 0001:00064060       ?find@?$_Tree@V?$_Tset_traits@PBVWResource@@U?$less@PBVWResource@@@std@@V?$allocator@PBVWResource@@@3@$0A@@std@@@std@@QBE?AVconst_iterator@12@ABQBVWResource@@@Z 00465060 f i libwt:WApplication.obj
 0001:00064060       ?find@?$_Tree@V?$_Tset_traits@PBVWSignalInstance_@@U?$less@PBVWSignalInstance_@@@std@@V?$allocator@PBVWSignalInstance_@@@3@$0A@@std@@@std@@QBE?AVconst_iterator@12@ABQBVWSignalInstance_@@@Z 00465060 f i libwt:WApplication.obj
 0001:000640d0       ?equal_range@?$_Tree@V?$_Tset_traits@PBVWResource@@U?$less@PBVWResource@@@std@@V?$allocator@PBVWResource@@@3@$0A@@std@@@std@@QAE?AU?$pair@Viterator@?$_Tree@V?$_Tset_traits@PBVWResource@@U?$less@PBVWResource@@@std@@V?$allocator@PBVWResource@@@3@$0A@@std@@@std@@V123@@2@ABQBVWResource@@@Z 004650d0 f i libwt:WApplication.obj
 0001:000640d0       ?equal_range@?$_Tree@V?$_Tset_traits@PBVWSignalInstance_@@U?$less@PBVWSignalInstance_@@@std@@V?$allocator@PBVWSignalInstance_@@@3@$0A@@std@@@std@@QAE?AU?$pair@Viterator@?$_Tree@V?$_Tset_traits@PBVWSignalInstance_@@U?$less@PBVWSignalInstance_@@@std@@V?$allocator@PBVWSignalInstance_@@@3@$0A@@std@@@std@@V123@@2@ABQBVWSignalInstance_@@@Z 004650d0 f i libwt:WApplication.obj
 0001:00064140       ?_Insert@?$_Tree@V?$_Tset_traits@PBVWResource@@U?$less@PBVWResource@@@std@@V?$allocator@PBVWResource@@@3@$0A@@std@@@std@@IAE?AViterator@12@_NPAU_Node@?$_Tree_nod@V?$_Tset_traits@PBVWResource@@U?$less@PBVWResource@@@std@@V?$allocator@PBVWResource@@@3@$0A@@std@@@2@ABQBVWResource@@@Z 00465140 f i libwt:WApplication.obj
 0001:00064140       ?_Insert@?$_Tree@V?$_Tset_traits@PBVWSignalInstance_@@U?$less@PBVWSignalInstance_@@@std@@V?$allocator@PBVWSignalInstance_@@@3@$0A@@std@@@std@@IAE?AViterator@12@_NPAU_Node@?$_Tree_nod@V?$_Tset_traits@PBVWSignalInstance_@@U?$less@PBVWSignalInstance_@@@std@@V?$allocator@PBVWSignalInstance_@@@3@$0A@@std@@@2@ABQBVWSignalInstance_@@@Z 00465140 f i libwt:WApplication.obj
 0001:00064300       ??$_Distance@Viterator@?$_Tree@V?$_Tset_traits@PBVWSignalInstance_@@U?$less@PBVWSignalInstance_@@@std@@V?$allocator@PBVWSignalInstance_@@@3@$0A@@std@@@std@@I@std@@YAXViterator@?$_Tree@V?$_Tset_traits@PBVWSignalInstance_@@U?$less@PBVWSignalInstance_@@@std@@V?$allocator@PBVWSignalInstance_@@@3@$0A@@std@@@0@0AAI@Z 00465300 f i libwt:WApplication.obj
 0001:00064300       ??$_Distance@Viterator@?$_Tree@V?$_Tset_traits@PBVWResource@@U?$less@PBVWResource@@@std@@V?$allocator@PBVWResource@@@3@$0A@@std@@@std@@I@std@@YAXViterator@?$_Tree@V?$_Tset_traits@PBVWResource@@U?$less@PBVWResource@@@std@@V?$allocator@PBVWResource@@@3@$0A@@std@@@0@0AAI@Z 00465300 f i libwt:WApplication.obj
 0001:00064340       ?isExposedSignal@WApplication@@ABE_NPBVWSignalInstance_@@@Z 00465340 f   libwt:WApplication.obj
 0001:00064370       ?isExposedResource@WApplication@@ABE_NPBVWResource@@@Z 00465370 f   libwt:WApplication.obj
 0001:000643a0       ?insert@?$_Tree@V?$_Tset_traits@PBVWSignalInstance_@@U?$less@PBVWSignalInstance_@@@std@@V?$allocator@PBVWSignalInstance_@@@3@$0A@@std@@@std@@QAE?AU?$pair@Viterator@?$_Tree@V?$_Tset_traits@PBVWSignalInstance_@@U?$less@PBVWSignalInstance_@@@std@@V?$allocator@PBVWSignalInstance_@@@3@$0A@@std@@@std@@_N@2@ABQBVWSignalInstance_@@@Z 004653a0 f i libwt:WApplication.obj
 0001:000643a0       ?insert@?$_Tree@V?$_Tset_traits@PBVWResource@@U?$less@PBVWResource@@@std@@V?$allocator@PBVWResource@@@3@$0A@@std@@@std@@QAE?AU?$pair@Viterator@?$_Tree@V?$_Tset_traits@PBVWResource@@U?$less@PBVWResource@@@std@@V?$allocator@PBVWResource@@@3@$0A@@std@@@std@@_N@2@ABQBVWResource@@@Z 004653a0 f i libwt:WApplication.obj
 0001:00064460       ?addExposedSignal@WApplication@@AAEXPBVWSignalInstance_@@@Z 00465460 f   libwt:WApplication.obj
 0001:00064480       ?addExposedResource@WApplication@@AAEXPBVWResource@@@Z 00465480 f   libwt:WApplication.obj
 0001:000644d0       ?erase@?$_Tree@V?$_Tset_traits@PBVWSignalInstance_@@U?$less@PBVWSignalInstance_@@@std@@V?$allocator@PBVWSignalInstance_@@@3@$0A@@std@@@std@@QAEIABQBVWSignalInstance_@@@Z 004654d0 f i libwt:WApplication.obj
 0001:00064530       ?erase@?$_Tree@V?$_Tset_traits@PBVWResource@@U?$less@PBVWResource@@@std@@V?$allocator@PBVWResource@@@3@$0A@@std@@@std@@QAEIABQBVWResource@@@Z 00465530 f i libwt:WApplication.obj
 0001:00064590       ??1?$set@PBVWSignalInstance_@@U?$less@PBVWSignalInstance_@@@std@@V?$allocator@PBVWSignalInstance_@@@3@@std@@QAE@XZ 00465590 f i libwt:WApplication.obj
 0001:000645c0       ??1?$set@PBVWResource@@U?$less@PBVWResource@@@std@@V?$allocator@PBVWResource@@@3@@std@@QAE@XZ 004655c0 f i libwt:WApplication.obj
 0001:000645f0       ??1WApplication@@UAE@XZ    004655f0 f   libwt:WApplication.obj
 0001:00064750       ?removeExposedSignal@WApplication@@AAEXPBVWSignalInstance_@@@Z 00465750 f   libwt:WApplication.obj
 0001:000647c0       ?removeExposedResource@WApplication@@AAEXPBVWResource@@@Z 004657c0 f   libwt:WApplication.obj
 0001:00064850       ??_EWApplication@@UAEPAXI@Z 00465850 f i libwt:WApplication.obj
 0001:000648b0       ?buildSlotMap@WApplication@@MAEXAAV?$map@V?$basic_string@DU?$char_traits@D@std@@V?$allocator@D@2@@std@@PAVWSlotInstance_@@U?$less@V?$basic_string@DU?$char_traits@D@std@@V?$allocator@D@2@@std@@@2@V?$allocator@U?$pair@$$CBV?$basic_string@DU?$char_traits@D@std@@V?$allocator@D@2@@std@@PAVWSlotInstance_@@@std@@@2@@std@@@Z 004658b0 f   libwt:WApplication.obj
 0001:00064970       ?buildSignalMap@WApplication@@MAEXAAV?$map@V?$basic_string@DU?$char_traits@D@std@@V?$allocator@D@2@@std@@PAVWSignalInstance_@@U?$less@V?$basic_string@DU?$char_traits@D@std@@V?$allocator@D@2@@std@@@2@V?$allocator@U?$pair@$$CBV?$basic_string@DU?$char_traits@D@std@@V?$allocator@D@2@@std@@PAVWSignalInstance_@@@std@@@2@@std@@@Z 00465970 f   libwt:WApplication.obj
 0001:00064a30       ??0WApplication@@QAE@HQAPAD@Z 00465a30 f   libwt:WApplication.obj
 0001:00064ba0       ?width@WBorder@@QBE?AW4Width@1@XZ 00465ba0 f i main.obj
 0001:00064ba0       ?signal@WConnection_@@QBEPAVWSignalInstance_@@XZ 00465ba0 f i libwt:WebSession.obj
 0001:00064bb0       ?RowCount@SVIntTable@@QAE?BHXZ 00465bb0 f i SVTable.obj
 0001:00064bb0       ?type@WConnection_@@QBE?AW4ConnectionType@WObject@@XZ 00465bb0 f i libwt:WebSession.obj
 0001:00064bb0       ?green@WColor@@QBEHXZ      00465bb0 f i main.obj
 0001:00064bc0       ??4WConnection_@@QAEAAV0@ABV0@@Z 00465bc0 f i libwt:WebSession.obj
 0001:00064be0       ?WriteLog@WebSession@@QAEXPAD0@Z 00465be0 f   libwt:WebSession.obj
 0001:00064c10       ?WriteLog1@WebSession@@QAEXPAD0@Z 00465c10 f   libwt:WebSession.obj
 0001:00064c40       ?accept@WebSession@@QAE_NXZ 00465c40 f   libwt:WebSession.obj
 0001:00064d30       ?GetWebUserID@@YA?AV?$basic_string@DU?$char_traits@D@std@@V?$allocator@D@2@@std@@XZ 00465d30 f   libwt:WebSession.obj
 0001:00064ea0       ?serveResource@WebSession@@AAEXPAVWResource@@@Z 00465ea0 f   libwt:WebSession.obj
 0001:00064f00       ?setCurrentWidget@WebSession@@AAEXPAVWWidget@@@Z 00465f00 f   libwt:WebSession.obj
 0001:00064f70       ?UnicodeToGB@@YAPADPBG@Z   00465f70 f   libwt:WebSession.obj
 0001:00064fe0       ?unescape_url@@YAXPAD@Z    00465fe0 f   libwt:WebSession.obj
 0001:000650f0       ?lineread@@YAHPAU_iobuf@@PADH@Z 004660f0 f   libwt:WebSession.obj
 0001:000651e0       ?cgi_quit1@WebSession@@QAEXXZ 004661e0 f   libwt:WebSession.obj
 0001:00065320       ?cgi_quit@WebSession@@QAEXXZ 00466320 f   libwt:WebSession.obj
 0001:00065460       ?cgi_getcookie@WebSession@@QAEPBDPBD@Z 00466460 f   libwt:WebSession.obj
 0001:000654f0       ?cgi_getnumentries@WebSession@@QAEHPBD@Z 004664f0 f   libwt:WebSession.obj
 0001:00065570       ?cgi_getnentrystr@WebSession@@QAEPBDPBDHPAH@Z 00466570 f   libwt:WebSession.obj
 0001:00065660       ?cgi_getnentrytype@WebSession@@QAEPBDPBDH@Z 00466660 f   libwt:WebSession.obj
 0001:00065750       ?cgi_getnentryfilename@WebSession@@QAEPBDPBDH@Z 00466750 f   libwt:WebSession.obj
 0001:00065840       ?cgi_getnentrybool@WebSession@@QAEHPBDHH@Z 00466840 f   libwt:WebSession.obj
 0001:00065900       ?cgi_dump_no_abort@WebSession@@QAEHPBD@Z 00466900 f   libwt:WebSession.obj
 0001:000659b0       ?cgi_dump@WebSession@@QAEXPBD@Z 004669b0 f   libwt:WebSession.obj
 0001:000659f0       ?cgi_error@WebSession@@QAEXPBD@Z 004669f0 f   libwt:WebSession.obj
 0001:00065a20       ?cgi_goodemailaddress@WebSession@@QAEHPBD@Z 00466a20 f   libwt:WebSession.obj
 0001:00065b20       ?cgi_strerror@WebSession@@QAEPBDH@Z 00466b20 f   libwt:WebSession.obj
 0001:00065b40       ?GetWtEnv@WebSession@@AAEPADPBD@Z 00466b40 f   libwt:WebSession.obj
 0001:00065b90       ?GetSessionIdbyCookie@WebSession@@QAEHXZ 00466b90 f   libwt:WebSession.obj
 0001:00065bb0       ?GetUserIdbyCookie@WebSession@@QAEHXZ 00466bb0 f   libwt:WebSession.obj
 0001:00065bd0       ?cgi_parse_cookies@WebSession@@QAEHXZ 00466bd0 f   libwt:WebSession.obj
 0001:00065d70       ?cgi_getentrystr@WebSession@@QAEPBDPBDPAH@Z 00466d70 f   libwt:WebSession.obj
 0001:00065d90       ?cgi_getentrytype@WebSession@@QAEPBDPBD@Z 00466d90 f   libwt:WebSession.obj
 0001:00065da0       ?cgi_getentryfilename@WebSession@@QAEPBDPBD@Z 00466da0 f   libwt:WebSession.obj
 0001:00065db0       ?cgi_getnentryint@WebSession@@QAEHPBDH@Z 00466db0 f   libwt:WebSession.obj
 0001:00065e20       ?cgi_getnentrydouble@WebSession@@QAENPBDH@Z 00466e20 f   libwt:WebSession.obj
 0001:00065ea0       ?cgi_getentrybool@WebSession@@QAEHPBDH@Z 00466ea0 f   libwt:WebSession.obj
 0001:00065ec0       ?cgi_init@WebSession@@QAEHXZ 00466ec0 f   libwt:WebSession.obj
 0001:000667b0       ?cgi_getentryint@WebSession@@QAEHPBD@Z 004677b0 f   libwt:WebSession.obj
 0001:000667c0       ?cgi_getentrydouble@WebSession@@QAENPBD@Z 004677c0 f   libwt:WebSession.obj
 0001:000667d0       ?handleRequestData@WebSession@@AAEPAVWResource@@XZ 004677d0 f   libwt:WebSession.obj
 0001:00066be0       ?createFormsVar@WebSession@@AAE?AV?$basic_string@DU?$char_traits@D@std@@V?$allocator@D@2@@std@@ABV?$vector@PAVWObject@@V?$allocator@PAVWObject@@@std@@@3@@Z 00467be0 f   libwt:WebSession.obj
 0001:00066d40       ??0WebSession@@QAE@V?$basic_string@DU?$char_traits@D@std@@V?$allocator@D@2@@std@@_N1V12@2@Z 00467d40 f   libwt:WebSession.obj
 0001:00066f80       ?serveMainpage@WebSession@@AAEXPAVWWidget@@@Z 00467f80 f   libwt:WebSession.obj
 0001:00067d70       ?serveJavascriptUpdate@WebSession@@AAEXPAVWWidget@@@Z 00468d70 f   libwt:WebSession.obj
 0001:00068320       ?generateResponse@WebSession@@AAEXPAVWResource@@@Z 00469320 f   libwt:WebSession.obj
 0001:00068520       ?start@WebSession@@QAEXP6AXHPAPAD@ZH0@Z 00469520 f   libwt:WebSession.obj
 0001:00068650       ?eventLoop@WebSession@@AAEHXZ 00469650 f   libwt:WebSession.obj
 0001:000686d0       ?eventLoop@WebSession@@AAEHPAVWApplication@@@Z 004696d0 f   libwt:WebSession.obj
 0001:000686f0       ?WApplicationExecCallback@WebSession@@SAHPAVWApplication@@@Z 004696f0 f   libwt:WebSession.obj
 0001:00068720       ?changed@WFormWidget@@QAEXXZ 00469720 f   libwt:WFormWidget.obj
 0001:00068730       ?selected@WFormWidget@@QAEXXZ 00469730 f   libwt:WFormWidget.obj
 0001:00068740       ?blurred@WFormWidget@@QAEXXZ 00469740 f   libwt:WFormWidget.obj
 0001:00068750       ?focussed@WFormWidget@@QAEXXZ 00469750 f   libwt:WFormWidget.obj
 0001:00068760       ??0WFormWidget@@QAE@PAVWContainerWidget@@@Z 00469760 f   libwt:WFormWidget.obj
 0001:00068790       ??1WFormWidget@@UAE@XZ     00469790 f   libwt:WFormWidget.obj
 0001:000687f0       ?setEnabled@WFormWidget@@QAEX_N@Z 004697f0 f   libwt:WFormWidget.obj
 0001:00068810       ?updateDom@WFormWidget@@MAEXAAVDomElement@@_N@Z 00469810 f   libwt:WFormWidget.obj
 0001:00068900       ?setLabel@WFormWidget@@AAEXPAVWLabel@@@Z 00469900 f   libwt:WFormWidget.obj
 0001:00068910       ?setHidden@WFormWidget@@UAEX_N@Z 00469910 f   libwt:WFormWidget.obj
 0001:00068940       ??_EWFormWidget@@UAEPAXI@Z 00469940 f i libwt:WFormWidget.obj
 0001:000689a0       ?enable@WFormWidget@@QAEXXZ 004699a0 f   libwt:WFormWidget.obj
 0001:000689c0       ?disable@WFormWidget@@QAEXXZ 004699c0 f   libwt:WFormWidget.obj
 0001:000689e0       ?undoEnable@WFormWidget@@AAEXXZ 004699e0 f   libwt:WFormWidget.obj
 0001:000689e0       ?undoDisable@WFormWidget@@AAEXXZ 004699e0 f   libwt:WFormWidget.obj
 0001:00068a00       ?triggerSlot@WFormWidget@@MAE_NPAVWObject@@PBVWSlot_@@PAPAX@Z 00469a00 f   libwt:WFormWidget.obj
 0001:00068aa0       ?undoTriggerSlot@WFormWidget@@MAE_NPBVWSlot_@@PAPAX@Z 00469aa0 f   libwt:WFormWidget.obj
 0001:00068b00       ?buildSlotMap@WFormWidget@@MAEXAAV?$map@V?$basic_string@DU?$char_traits@D@std@@V?$allocator@D@2@@std@@PAVWSlotInstance_@@U?$less@V?$basic_string@DU?$char_traits@D@std@@V?$allocator@D@2@@std@@@2@V?$allocator@U?$pair@$$CBV?$basic_string@DU?$char_traits@D@std@@V?$allocator@D@2@@std@@PAVWSlotInstance_@@@std@@@2@@std@@@Z 00469b00 f   libwt:WFormWidget.obj
 0001:00068bc0       ?buildSignalMap@WFormWidget@@MAEXAAV?$map@V?$basic_string@DU?$char_traits@D@std@@V?$allocator@D@2@@std@@PAVWSignalInstance_@@U?$less@V?$basic_string@DU?$char_traits@D@std@@V?$allocator@D@2@@std@@@2@V?$allocator@U?$pair@$$CBV?$basic_string@DU?$char_traits@D@std@@V?$allocator@D@2@@std@@PAVWSignalInstance_@@@std@@@2@@std@@@Z 00469bc0 f   libwt:WFormWidget.obj
 0001:00068c80       ?activated@WComboBox@@QAEXH@Z 00469c80 f   libwt:WComboBox.obj
 0001:00068ca0       ?activated@WComboBox@@QAEXV?$basic_string@DU?$char_traits@D@std@@V?$allocator@D@2@@std@@@Z 00469ca0 f   libwt:WComboBox.obj
 0001:00068d00       ?currentIndex@WComboBox@@QBEHXZ 00469d00 f   libwt:WComboBox.obj
 0001:00068d10       ?createDomElement@WComboBox@@MAEPAVDomElement@@XZ 00469d10 f   libwt:WComboBox.obj
 0001:00068d40       ??5?$lexical_stream@V?$basic_string@DU?$char_traits@D@std@@V?$allocator@D@2@@std@@I@detail@boost@@QAE_NAAV?$basic_string@DU?$char_traits@D@std@@V?$allocator@D@2@@std@@@Z 00469d40 f i libwt:WComboBox.obj
 0001:00068da0       ?count@WComboBox@@QBEHXZ   00469da0 f   libwt:WComboBox.obj
 0001:00068dd0       ?setCurrentIndex@WComboBox@@QAEXH@Z 00469dd0 f   libwt:WComboBox.obj
 0001:00068e40       ??$lexical_cast@V?$basic_string@DU?$char_traits@D@std@@V?$allocator@D@2@@std@@I@boost@@YA?AV?$basic_string@DU?$char_traits@D@std@@V?$allocator@D@2@@std@@ABI@Z 00469e40 f i libwt:WComboBox.obj
 0001:00068fa0       ??$lexical_cast@HV?$basic_string@DU?$char_traits@D@std@@V?$allocator@D@2@@std@@@boost@@YAHABV?$basic_string@DU?$char_traits@D@std@@V?$allocator@D@2@@std@@@Z 00469fa0 f i libwt:WComboBox.obj
 0001:000690d0       ?currentText@WComboBox@@QBE?BV?$basic_string@DU?$char_traits@D@std@@V?$allocator@D@2@@std@@XZ 0046a0d0 f   libwt:WComboBox.obj
 0001:00069120       ?itemText@WComboBox@@QBE?BV?$basic_string@DU?$char_traits@D@std@@V?$allocator@D@2@@std@@H@Z 0046a120 f   libwt:WComboBox.obj
 0001:00069150       ?setCurrentIndexByStr@WComboBox@@QAEXV?$basic_string@DU?$char_traits@D@std@@V?$allocator@D@2@@std@@@Z 0046a150 f   libwt:WComboBox.obj
 0001:00069270       ?setItemText@WComboBox@@QAEXHV?$basic_string@DU?$char_traits@D@std@@V?$allocator@D@2@@std@@@Z 0046a270 f   libwt:WComboBox.obj
 0001:000692e0       ?propagateChange@WComboBox@@AAEXXZ 0046a2e0 f   libwt:WComboBox.obj
 0001:00069340       ?updateDom@WComboBox@@MAEXAAVDomElement@@_N@Z 0046a340 f   libwt:WComboBox.obj
 0001:00069530       ?setFormData@WComboBox@@MAEXPBDH0@Z 0046a530 f   libwt:WComboBox.obj
 0001:000695d0       ?getDomChanges@WComboBox@@MAEXAAV?$vector@PAVDomElement@@V?$allocator@PAVDomElement@@@std@@@std@@@Z 0046a5d0 f   libwt:WComboBox.obj
 0001:00069610       ?erase@?$vector@V?$basic_string@DU?$char_traits@D@std@@V?$allocator@D@2@@std@@V?$allocator@V?$basic_string@DU?$char_traits@D@std@@V?$allocator@D@2@@std@@@2@@std@@QAE?AViterator@12@V312@@Z 0046a610 f i libwt:WComboBox.obj
 0001:00069660       ??_EWComboBox@@UAEPAXI@Z   0046a660 f i libwt:WComboBox.obj
 0001:000696c0       ?buildSlotMap@WComboBox@@MAEXAAV?$map@V?$basic_string@DU?$char_traits@D@std@@V?$allocator@D@2@@std@@PAVWSlotInstance_@@U?$less@V?$basic_string@DU?$char_traits@D@std@@V?$allocator@D@2@@std@@@2@V?$allocator@U?$pair@$$CBV?$basic_string@DU?$char_traits@D@std@@V?$allocator@D@2@@std@@PAVWSlotInstance_@@@std@@@2@@std@@@Z 0046a6c0 f   libwt:WComboBox.obj
 0001:00069780       ?buildSignalMap@WComboBox@@MAEXAAV?$map@V?$basic_string@DU?$char_traits@D@std@@V?$allocator@D@2@@std@@PAVWSignalInstance_@@U?$less@V?$basic_string@DU?$char_traits@D@std@@V?$allocator@D@2@@std@@@2@V?$allocator@U?$pair@$$CBV?$basic_string@DU?$char_traits@D@std@@V?$allocator@D@2@@std@@PAVWSignalInstance_@@@std@@@2@@std@@@Z 0046a780 f   libwt:WComboBox.obj
 0001:00069840       ??0WComboBox@@QAE@PAVWContainerWidget@@@Z 0046a840 f   libwt:WComboBox.obj
 0001:000698d0       ?removeItem@WComboBox@@QAEXH@Z 0046a8d0 f   libwt:WComboBox.obj
 0001:00069950       ?clear@WComboBox@@QAEXXZ   0046a950 f   libwt:WComboBox.obj
 0001:00069970       ?triggerSlot@WComboBox@@MAE_NPAVWObject@@PBVWSlot_@@PAPAX@Z 0046a970 f   libwt:WComboBox.obj
 0001:000699e0       ?insertItem@WComboBox@@QAEXHV?$basic_string@DU?$char_traits@D@std@@V?$allocator@D@2@@std@@@Z 0046a9e0 f   libwt:WComboBox.obj
 0001:00069a60       ?addItem@WComboBox@@QAEXV?$basic_string@DU?$char_traits@D@std@@V?$allocator@D@2@@std@@@Z 0046aa60 f   libwt:WComboBox.obj
 0001:00069af0       ??_EWImage@@UAEPAXI@Z      0046aaf0 f i libwt:WImage.obj
 0001:00069b50       ??0WImage@@QAE@PAVWContainerWidget@@@Z 0046ab50 f   libwt:WImage.obj
 0001:00069bd0       ??0WImage@@QAE@V?$basic_string@DU?$char_traits@D@std@@V?$allocator@D@2@@std@@PAVWContainerWidget@@@Z 0046abd0 f   libwt:WImage.obj
 0001:00069c70       ??0WImage@@QAE@V?$basic_string@DU?$char_traits@D@std@@V?$allocator@D@2@@std@@0PAVWContainerWidget@@@Z 0046ac70 f   libwt:WImage.obj
 0001:00069d20       ??0WImage@@QAE@PAVWResource@@V?$basic_string@DU?$char_traits@D@std@@V?$allocator@D@2@@std@@PAVWContainerWidget@@@Z 0046ad20 f   libwt:WImage.obj
 0001:00069e10       ?setAlternateText@WImage@@QAEXV?$basic_string@DU?$char_traits@D@std@@V?$allocator@D@2@@std@@@Z 0046ae10 f   libwt:WImage.obj
 0001:00069e80       ?setImageRef@WImage@@QAEXV?$basic_string@DU?$char_traits@D@std@@V?$allocator@D@2@@std@@@Z 0046ae80 f   libwt:WImage.obj
 0001:00069ef0       ?resourceChanged@WImage@@AAEXXZ 0046aef0 f   libwt:WImage.obj
 0001:00069f20       ?updateDom@WImage@@MAEXAAVDomElement@@_N@Z 0046af20 f   libwt:WImage.obj
 0001:00069f90       ?createDomElement@WImage@@MAEPAVDomElement@@XZ 0046af90 f   libwt:WImage.obj
 0001:00069fc0       ?triggerSlot@WImage@@MAE_NPAVWObject@@PBVWSlot_@@PAPAX@Z 0046afc0 f   libwt:WImage.obj
 0001:00069ff0       ?getDomChanges@WImage@@MAEXAAV?$vector@PAVDomElement@@V?$allocator@PAVDomElement@@@std@@@std@@@Z 0046aff0 f   libwt:WImage.obj
 0001:0006a030       ?buildSlotMap@WImage@@MAEXAAV?$map@V?$basic_string@DU?$char_traits@D@std@@V?$allocator@D@2@@std@@PAVWSlotInstance_@@U?$less@V?$basic_string@DU?$char_traits@D@std@@V?$allocator@D@2@@std@@@2@V?$allocator@U?$pair@$$CBV?$basic_string@DU?$char_traits@D@std@@V?$allocator@D@2@@std@@PAVWSlotInstance_@@@std@@@2@@std@@@Z 0046b030 f   libwt:WImage.obj
 0001:0006a0f0       ?buildSignalMap@WImage@@MAEXAAV?$map@V?$basic_string@DU?$char_traits@D@std@@V?$allocator@D@2@@std@@PAVWSignalInstance_@@U?$less@V?$basic_string@DU?$char_traits@D@std@@V?$allocator@D@2@@std@@@2@V?$allocator@U?$pair@$$CBV?$basic_string@DU?$char_traits@D@std@@V?$allocator@D@2@@std@@PAVWSignalInstance_@@@std@@@2@@std@@@Z 0046b0f0 f   libwt:WImage.obj
 0001:0006a1b0       ??_EWLineEdit@@UAEPAXI@Z   0046b1b0 f i libwt:WLineEdit.obj
 0001:0006a210       ??0WLineEdit@@QAE@PAVWContainerWidget@@@Z 0046b210 f   libwt:WLineEdit.obj
 0001:0006a2a0       ??0WLineEdit@@QAE@V?$basic_string@DU?$char_traits@D@std@@V?$allocator@D@2@@std@@PAVWContainerWidget@@@Z 0046b2a0 f   libwt:WLineEdit.obj
 0001:0006a350       ?setText@WLineEdit@@QAEXV?$basic_string@DU?$char_traits@D@std@@V?$allocator@D@2@@std@@@Z 0046b350 f   libwt:WLineEdit.obj
 0001:0006a3c0       ?setTextSize@WLineEdit@@QAEXH@Z 0046b3c0 f   libwt:WLineEdit.obj
 0001:0006a3e0       ?setEchoMode@WLineEdit@@QAEXW4EchoMode@1@@Z 0046b3e0 f   libwt:WLineEdit.obj
 0001:0006a400       ?createDomElement@WLineEdit@@MAEPAVDomElement@@XZ 0046b400 f   libwt:WLineEdit.obj
 0001:0006a4b0       ?setFormData@WTextArea@@MAEXPBDH0@Z 0046b4b0 f   libwt:WTextArea.obj
 0001:0006a4b0       ?setFormData@WLineEdit@@MAEXPBDH0@Z 0046b4b0 f   libwt:WLineEdit.obj
 0001:0006a4d0       ?triggerSlot@WLineEdit@@MAE_NPAVWObject@@PBVWSlot_@@PAPAX@Z 0046b4d0 f   libwt:WLineEdit.obj
 0001:0006a520       ?updateDom@WLineEdit@@MAEXAAVDomElement@@_N@Z 0046b520 f   libwt:WLineEdit.obj
 0001:0006a680       ?buildSlotMap@WLineEdit@@MAEXAAV?$map@V?$basic_string@DU?$char_traits@D@std@@V?$allocator@D@2@@std@@PAVWSlotInstance_@@U?$less@V?$basic_string@DU?$char_traits@D@std@@V?$allocator@D@2@@std@@@2@V?$allocator@U?$pair@$$CBV?$basic_string@DU?$char_traits@D@std@@V?$allocator@D@2@@std@@PAVWSlotInstance_@@@std@@@2@@std@@@Z 0046b680 f   libwt:WLineEdit.obj
 0001:0006a740       ?buildSignalMap@WLineEdit@@MAEXAAV?$map@V?$basic_string@DU?$char_traits@D@std@@V?$allocator@D@2@@std@@PAVWSignalInstance_@@U?$less@V?$basic_string@DU?$char_traits@D@std@@V?$allocator@D@2@@std@@@2@V?$allocator@U?$pair@$$CBV?$basic_string@DU?$char_traits@D@std@@V?$allocator@D@2@@std@@PAVWSignalInstance_@@@std@@@2@@std@@@Z 0046b740 f   libwt:WLineEdit.obj
 0001:0006a800       ??_EWPushButton@@UAEPAXI@Z 0046b800 f i libwt:WPushButton.obj
 0001:0006a860       ?triggerSlot@WPushButton@@MAE_NPAVWObject@@PBVWSlot_@@PAPAX@Z 0046b860 f   libwt:WPushButton.obj
 0001:0006a870       ?undoTriggerSlot@WPushButton@@MAE_NPBVWSlot_@@PAPAX@Z 0046b870 f   libwt:WPushButton.obj
 0001:0006a870       ?undoTriggerSlot@WComboBox@@MAE_NPBVWSlot_@@PAPAX@Z 0046b870 f   libwt:WComboBox.obj
 0001:0006a870       ?undoTriggerSlot@WLineEdit@@MAE_NPBVWSlot_@@PAPAX@Z 0046b870 f   libwt:WLineEdit.obj
 0001:0006a880       ??0WPushButton@@QAE@PAVWContainerWidget@@@Z 0046b880 f   libwt:WPushButton.obj
 0001:0006a900       ??0WPushButton@@QAE@V?$basic_string@DU?$char_traits@D@std@@V?$allocator@D@2@@std@@PAVWContainerWidget@@@Z 0046b900 f   libwt:WPushButton.obj
 0001:0006a9a0       ??0WPushButton@@QAE@ABVWMessage@@PAVWContainerWidget@@@Z 0046b9a0 f   libwt:WPushButton.obj
 0001:0006aa60       ?setText@WPushButton@@QAEXV?$basic_string@DU?$char_traits@D@std@@V?$allocator@D@2@@std@@@Z 0046ba60 f   libwt:WPushButton.obj
 0001:0006aaf0       ?setMessage@WPushButton@@QAEXABVWMessage@@@Z 0046baf0 f   libwt:WPushButton.obj
 0001:0006ab30       ?updateDom@WPushButton@@MAEXAAVDomElement@@_N@Z 0046bb30 f   libwt:WPushButton.obj
 0001:0006ab90       ?createDomElement@WPushButton@@MAEPAVDomElement@@XZ 0046bb90 f   libwt:WPushButton.obj
 0001:0006ac30       ?refresh@WPushButton@@UAEXXZ 0046bc30 f   libwt:WPushButton.obj
 0001:0006ad30       ?buildSlotMap@WPushButton@@MAEXAAV?$map@V?$basic_string@DU?$char_traits@D@std@@V?$allocator@D@2@@std@@PAVWSlotInstance_@@U?$less@V?$basic_string@DU?$char_traits@D@std@@V?$allocator@D@2@@std@@@2@V?$allocator@U?$pair@$$CBV?$basic_string@DU?$char_traits@D@std@@V?$allocator@D@2@@std@@PAVWSlotInstance_@@@std@@@2@@std@@@Z 0046bd30 f   libwt:WPushButton.obj
 0001:0006adf0       ?buildSignalMap@WPushButton@@MAEXAAV?$map@V?$basic_string@DU?$char_traits@D@std@@V?$allocator@D@2@@std@@PAVWSignalInstance_@@U?$less@V?$basic_string@DU?$char_traits@D@std@@V?$allocator@D@2@@std@@@2@V?$allocator@U?$pair@$$CBV?$basic_string@DU?$char_traits@D@std@@V?$allocator@D@2@@std@@PAVWSignalInstance_@@@std@@@2@@std@@@Z 0046bdf0 f   libwt:WPushButton.obj
 0001:0006aeb0       ??0WObject@@QAE@XZ         0046beb0 f   libwt:WObject.obj
 0001:0006aed0       ?formName@WObject@@QBE?BV?$basic_string@DU?$char_traits@D@std@@V?$allocator@D@2@@std@@XZ 0046bed0 f   libwt:WObject.obj
 0001:0006af20       ?setFormData@WObject@@UAEXPBDH0@Z 0046bf20 f   libwt:WObject.obj
 0001:0006af50       ?setNoFormData@WObject@@UAEXXZ 0046bf50 f   libwt:WObject.obj
 0001:0006af80       ?triggerSlot@WObject@@MAE_NPAV1@PBVWSlot_@@PAPAX@Z 0046bf80 f   libwt:WObject.obj
 0001:0006b000       ?undoTriggerSlot@WObject@@MAE_NPBVWSlot_@@PAPAX@Z 0046c000 f   libwt:WObject.obj
 0001:0006b080       ?isConnected@WObject@@IBE_NPBVWSignalInstance_@@@Z 0046c080 f   libwt:WObject.obj
 0001:0006b0c0       ?_Buynode@?$_Tree@V?$_Tmap_traits@V?$basic_string@DU?$char_traits@D@std@@V?$allocator@D@2@@std@@PAVWCssRule@@U?$less@V?$basic_string@DU?$char_traits@D@std@@V?$allocator@D@2@@std@@@2@V?$allocator@U?$pair@$$CBV?$basic_string@DU?$char_traits@D@std@@V?$allocator@D@2@@std@@PAVWCssRule@@@std@@@2@$0A@@std@@@std@@IAEPAU_Node@?$_Tree_nod@V?$_Tmap_traits@V?$basic_string@DU?$char_traits@D@std@@V?$allocator@D@2@@std@@PAVWCssRule@@U?$less@V?$basic_string@DU?$char_traits@D@std@@V?$allocator@D@2@@std@@@2@V?$allocator@U?$pair@$$CBV?$basic_string@DU?$char_traits@D@std@@V?$allocator@D@2@@std@@PAVWCssRule@@@std@@@2@$0A@@std@@@2@XZ 0046c0c0 f i libwt:WCssStyleSheet.obj
 0001:0006b0c0       ?_Buynode@?$_Tree@V?$_Tmap_traits@V?$basic_string@DU?$char_traits@D@std@@V?$allocator@D@2@@std@@PAUScopeFunc@@U?$less@V?$basic_string@DU?$char_traits@D@std@@V?$allocator@D@2@@std@@@2@V?$allocator@U?$pair@$$CBV?$basic_string@DU?$char_traits@D@std@@V?$allocator@D@2@@std@@PAUScopeFunc@@@std@@@2@$0A@@std@@@std@@IAEPAU_Node@?$_Tree_nod@V?$_Tmap_traits@V?$basic_string@DU?$char_traits@D@std@@V?$allocator@D@2@@std@@PAUScopeFunc@@U?$less@V?$basic_string@DU?$char_traits@D@std@@V?$allocator@D@2@@std@@@2@V?$allocator@U?$pair@$$CBV?$basic_string@DU?$char_traits@D@std@@V?$allocator@D@2@@std@@PAUScopeFunc@@@std@@@2@$0A@@std@@@2@XZ 0046c0c0 f i User.obj
 0001:0006b0c0       ?_Buynode@?$_Tree@V?$_Tmap_traits@PAVWLineEdit@@V?$basic_string@DU?$char_traits@D@std@@V?$allocator@D@2@@std@@U?$less@PAVWLineEdit@@@3@V?$allocator@U?$pair@QAVWLineEdit@@V?$basic_string@DU?$char_traits@D@std@@V?$allocator@D@2@@std@@@std@@@3@$0A@@std@@@std@@IAEPAU_Node@?$_Tree_nod@V?$_Tmap_traits@PAVWLineEdit@@V?$basic_string@DU?$char_traits@D@std@@V?$allocator@D@2@@std@@U?$less@PAVWLineEdit@@@3@V?$allocator@U?$pair@QAVWLineEdit@@V?$basic_string@DU?$char_traits@D@std@@V?$allocator@D@2@@std@@@std@@@3@$0A@@std@@@2@XZ 0046c0c0 f i sortlist.obj
 0001:0006b0c0       ?_Buynode@?$_Tree@V?$_Tmap_traits@V?$basic_string@DU?$char_traits@D@std@@V?$allocator@D@2@@std@@PAVWCheckBox@@U?$less@V?$basic_string@DU?$char_traits@D@std@@V?$allocator@D@2@@std@@@2@V?$allocator@U?$pair@$$CBV?$basic_string@DU?$char_traits@D@std@@V?$allocator@D@2@@std@@PAVWCheckBox@@@std@@@2@$0A@@std@@@std@@IAEPAU_Node@?$_Tree_nod@V?$_Tmap_traits@V?$basic_string@DU?$char_traits@D@std@@V?$allocator@D@2@@std@@PAVWCheckBox@@U?$less@V?$basic_string@DU?$char_traits@D@std@@V?$allocator@D@2@@std@@@2@V?$allocator@U?$pair@$$CBV?$basic_string@DU?$char_traits@D@std@@V?$allocator@D@2@@std@@PAVWCheckBox@@@std@@@2@$0A@@std@@@2@XZ 0046c0c0 f i listtable.obj
 0001:0006b0c0       ?_Buynode@?$_Tree@V?$_Tmap_traits@V?$basic_string@DU?$char_traits@D@std@@V?$allocator@D@2@@std@@KU?$less@V?$basic_string@DU?$char_traits@D@std@@V?$allocator@D@2@@std@@@2@V?$allocator@U?$pair@$$CBV?$basic_string@DU?$char_traits@D@std@@V?$allocator@D@2@@std@@K@std@@@2@$0A@@std@@@std@@IAEPAU_Node@?$_Tree_nod@V?$_Tmap_traits@V?$basic_string@DU?$char_traits@D@std@@V?$allocator@D@2@@std@@KU?$less@V?$basic_string@DU?$char_traits@D@std@@V?$allocator@D@2@@std@@@2@V?$allocator@U?$pair@$$CBV?$basic_string@DU?$char_traits@D@std@@V?$allocator@D@2@@std@@K@std@@@2@$0A@@std@@@2@XZ 0046c0c0 f i libboost_regex-vc71-mt-1_33_1:instances.obj
 0001:0006b0c0       ?_Buynode@?$_Tree@V?$_Tmap_traits@W4Property@Wt@@V?$basic_string@DU?$char_traits@D@std@@V?$allocator@D@2@@std@@U?$less@W4Property@Wt@@@4@V?$allocator@U?$pair@$$CBW4Property@Wt@@V?$basic_string@DU?$char_traits@D@std@@V?$allocator@D@2@@std@@@std@@@4@$0A@@std@@@std@@IAEPAU_Node@?$_Tree_nod@V?$_Tmap_traits@W4Property@Wt@@V?$basic_string@DU?$char_traits@D@std@@V?$allocator@D@2@@std@@U?$less@W4Property@Wt@@@4@V?$allocator@U?$pair@$$CBW4Property@Wt@@V?$basic_string@DU?$char_traits@D@std@@V?$allocator@D@2@@std@@@std@@@4@$0A@@std@@@2@XZ 0046c0c0 f i libwt:WWebWidget.obj
 0001:0006b0c0       ?_Buynode@?$_Tree@V?$_Tmap_traits@V?$basic_string@DU?$char_traits@D@std@@V?$allocator@D@2@@std@@_NU?$less@V?$basic_string@DU?$char_traits@D@std@@V?$allocator@D@2@@std@@@2@V?$allocator@U?$pair@$$CBV?$basic_string@DU?$char_traits@D@std@@V?$allocator@D@2@@std@@_N@std@@@2@$0A@@std@@@std@@IAEPAU_Node@?$_Tree_nod@V?$_Tmap_traits@V?$basic_string@DU?$char_traits@D@std@@V?$allocator@D@2@@std@@_NU?$less@V?$basic_string@DU?$char_traits@D@std@@V?$allocator@D@2@@std@@@2@V?$allocator@U?$pair@$$CBV?$basic_string@DU?$char_traits@D@std@@V?$allocator@D@2@@std@@_N@std@@@2@$0A@@std@@@2@XZ 0046c0c0 f i User.obj
 0001:0006b0c0       ?_Buynode@?$_Tree@V?$_Tmap_traits@HV?$basic_string@DU?$char_traits@D@std@@V?$allocator@D@2@@std@@U?$less@H@2@V?$allocator@U?$pair@$$CBHV?$basic_string@DU?$char_traits@D@std@@V?$allocator@D@2@@std@@@std@@@2@$0A@@std@@@std@@IAEPAU_Node@?$_Tree_nod@V?$_Tmap_traits@HV?$basic_string@DU?$char_traits@D@std@@V?$allocator@D@2@@std@@U?$less@H@2@V?$allocator@U?$pair@$$CBHV?$basic_string@DU?$char_traits@D@std@@V?$allocator@D@2@@std@@@std@@@2@$0A@@std@@@2@XZ 0046c0c0 f i sortlist.obj
 0001:0006b0c0       ?_Buynode@?$_Tree@V?$_Tmap_traits@PAVWObject@@V?$basic_string@DU?$char_traits@D@std@@V?$allocator@D@2@@std@@U?$less@PAVWObject@@@3@V?$allocator@U?$pair@QAVWObject@@V?$basic_string@DU?$char_traits@D@std@@V?$allocator@D@2@@std@@@std@@@3@$0A@@std@@@std@@IAEPAU_Node@?$_Tree_nod@V?$_Tmap_traits@PAVWObject@@V?$basic_string@DU?$char_traits@D@std@@V?$allocator@D@2@@std@@U?$less@PAVWObject@@@3@V?$allocator@U?$pair@QAVWObject@@V?$basic_string@DU?$char_traits@D@std@@V?$allocator@D@2@@std@@@std@@@3@$0A@@std@@@2@XZ 0046c0c0 f i libwt:WSignalMapper.obj
 0001:0006b0c0       ?_Buynode@?$_Tree@V?$_Tmap_traits@V?$basic_string@DU?$char_traits@D@std@@V?$allocator@D@2@@std@@PAVWSignalInstance_@@U?$less@V?$basic_string@DU?$char_traits@D@std@@V?$allocator@D@2@@std@@@2@V?$allocator@U?$pair@$$CBV?$basic_string@DU?$char_traits@D@std@@V?$allocator@D@2@@std@@PAVWSignalInstance_@@@std@@@2@$0A@@std@@@std@@IAEPAU_Node@?$_Tree_nod@V?$_Tmap_traits@V?$basic_string@DU?$char_traits@D@std@@V?$allocator@D@2@@std@@PAVWSignalInstance_@@U?$less@V?$basic_string@DU?$char_traits@D@std@@V?$allocator@D@2@@std@@@2@V?$allocator@U?$pair@$$CBV?$basic_string@DU?$char_traits@D@std@@V?$allocator@D@2@@std@@PAVWSignalInstance_@@@std@@@2@$0A@@std@@@2@XZ 0046c0c0 f i libwt:WObject.obj
 0001:0006b0c0       ?_Buynode@?$_Tree@V?$_Tmap_traits@V?$basic_string@DU?$char_traits@D@std@@V?$allocator@D@2@@std@@PAVWSlotInstance_@@U?$less@V?$basic_string@DU?$char_traits@D@std@@V?$allocator@D@2@@std@@@2@V?$allocator@U?$pair@$$CBV?$basic_string@DU?$char_traits@D@std@@V?$allocator@D@2@@std@@PAVWSlotInstance_@@@std@@@2@$0A@@std@@@std@@IAEPAU_Node@?$_Tree_nod@V?$_Tmap_traits@V?$basic_string@DU?$char_traits@D@std@@V?$allocator@D@2@@std@@PAVWSlotInstance_@@U?$less@V?$basic_string@DU?$char_traits@D@std@@V?$allocator@D@2@@std@@@2@V?$allocator@U?$pair@$$CBV?$basic_string@DU?$char_traits@D@std@@V?$allocator@D@2@@std@@PAVWSlotInstance_@@@std@@@2@$0A@@std@@@2@XZ 0046c0c0 f i libwt:WObject.obj
 0001:0006b100       ?findConnectedNeedTriggerStaticSlot@WObject@@IAEPAVWSlotInstance_@@XZ 0046c100 f   libwt:WObject.obj
 0001:0006b140       ?find@?$_Tree@V?$_Tmap_traits@V?$basic_string@DU?$char_traits@D@std@@V?$allocator@D@2@@std@@_NU?$less@V?$basic_string@DU?$char_traits@D@std@@V?$allocator@D@2@@std@@@2@V?$allocator@U?$pair@$$CBV?$basic_string@DU?$char_traits@D@std@@V?$allocator@D@2@@std@@_N@std@@@2@$0A@@std@@@std@@QAE?AViterator@12@ABV?$basic_string@DU?$char_traits@D@std@@V?$allocator@D@2@@2@@Z 0046c140 f i User.obj
 0001:0006b140       ?find@?$_Tree@V?$_Tmap_traits@V?$basic_string@DU?$char_traits@D@std@@V?$allocator@D@2@@std@@KU?$less@V?$basic_string@DU?$char_traits@D@std@@V?$allocator@D@2@@std@@@2@V?$allocator@U?$pair@$$CBV?$basic_string@DU?$char_traits@D@std@@V?$allocator@D@2@@std@@K@std@@@2@$0A@@std@@@std@@QBE?AVconst_iterator@12@ABV?$basic_string@DU?$char_traits@D@std@@V?$allocator@D@2@@2@@Z 0046c140 f i libboost_regex-vc71-mt-1_33_1:instances.obj
 0001:0006b140       ?find@?$_Tree@V?$_Tmap_traits@V?$basic_string@DU?$char_traits@D@std@@V?$allocator@D@2@@std@@PAVWSignalInstance_@@U?$less@V?$basic_string@DU?$char_traits@D@std@@V?$allocator@D@2@@std@@@2@V?$allocator@U?$pair@$$CBV?$basic_string@DU?$char_traits@D@std@@V?$allocator@D@2@@std@@PAVWSignalInstance_@@@std@@@2@$0A@@std@@@std@@QAE?AViterator@12@ABV?$basic_string@DU?$char_traits@D@std@@V?$allocator@D@2@@2@@Z 0046c140 f i libwt:WObject.obj
 0001:0006b140       ?find@?$_Tree@V?$_Tmap_traits@V?$basic_string@DU?$char_traits@D@std@@V?$allocator@D@2@@std@@PAVWSlotInstance_@@U?$less@V?$basic_string@DU?$char_traits@D@std@@V?$allocator@D@2@@std@@@2@V?$allocator@U?$pair@$$CBV?$basic_string@DU?$char_traits@D@std@@V?$allocator@D@2@@std@@PAVWSlotInstance_@@@std@@@2@$0A@@std@@@std@@QAE?AViterator@12@ABV?$basic_string@DU?$char_traits@D@std@@V?$allocator@D@2@@2@@Z 0046c140 f i libwt:WObject.obj
 0001:0006b140       ?find@?$_Tree@V?$_Tmap_traits@V?$basic_string@DU?$char_traits@D@std@@V?$allocator@D@2@@std@@PAUScopeFunc@@U?$less@V?$basic_string@DU?$char_traits@D@std@@V?$allocator@D@2@@std@@@2@V?$allocator@U?$pair@$$CBV?$basic_string@DU?$char_traits@D@std@@V?$allocator@D@2@@std@@PAUScopeFunc@@@std@@@2@$0A@@std@@@std@@QAE?AViterator@12@ABV?$basic_string@DU?$char_traits@D@std@@V?$allocator@D@2@@2@@Z 0046c140 f i User.obj
 0001:0006b1a0       ?erase@?$_Tree@V?$_Tmap_traits@V?$basic_string@DU?$char_traits@D@std@@V?$allocator@D@2@@std@@PAVWSignalInstance_@@U?$less@V?$basic_string@DU?$char_traits@D@std@@V?$allocator@D@2@@std@@@2@V?$allocator@U?$pair@$$CBV?$basic_string@DU?$char_traits@D@std@@V?$allocator@D@2@@std@@PAVWSignalInstance_@@@std@@@2@$0A@@std@@@std@@QAE?AViterator@12@V312@@Z 0046c1a0 f i libwt:WObject.obj
 0001:0006b1a0       ?erase@?$_Tree@V?$_Tmap_traits@V?$basic_string@DU?$char_traits@D@std@@V?$allocator@D@2@@std@@PAVWSlotInstance_@@U?$less@V?$basic_string@DU?$char_traits@D@std@@V?$allocator@D@2@@std@@@2@V?$allocator@U?$pair@$$CBV?$basic_string@DU?$char_traits@D@std@@V?$allocator@D@2@@std@@PAVWSlotInstance_@@@std@@@2@$0A@@std@@@std@@QAE?AViterator@12@V312@@Z 0046c1a0 f i libwt:WObject.obj
 0001:0006b480       ?_Erase@?$_Tree@V?$_Tmap_traits@V?$basic_string@DU?$char_traits@D@std@@V?$allocator@D@2@@std@@PAVWSlotInstance_@@U?$less@V?$basic_string@DU?$char_traits@D@std@@V?$allocator@D@2@@std@@@2@V?$allocator@U?$pair@$$CBV?$basic_string@DU?$char_traits@D@std@@V?$allocator@D@2@@std@@PAVWSlotInstance_@@@std@@@2@$0A@@std@@@std@@IAEXPAU_Node@?$_Tree_nod@V?$_Tmap_traits@V?$basic_string@DU?$char_traits@D@std@@V?$allocator@D@2@@std@@PAVWSlotInstance_@@U?$less@V?$basic_string@DU?$char_traits@D@std@@V?$allocator@D@2@@std@@@2@V?$allocator@U?$pair@$$CBV?$basic_string@DU?$char_traits@D@std@@V?$allocator@D@2@@std@@PAVWSlotInstance_@@@std@@@2@$0A@@std@@@2@@Z 0046c480 f i libwt:WObject.obj
 0001:0006b4c0       ?_Erase@?$_Tree@V?$_Tmap_traits@V?$basic_string@DU?$char_traits@D@std@@V?$allocator@D@2@@std@@PAVWSignalInstance_@@U?$less@V?$basic_string@DU?$char_traits@D@std@@V?$allocator@D@2@@std@@@2@V?$allocator@U?$pair@$$CBV?$basic_string@DU?$char_traits@D@std@@V?$allocator@D@2@@std@@PAVWSignalInstance_@@@std@@@2@$0A@@std@@@std@@IAEXPAU_Node@?$_Tree_nod@V?$_Tmap_traits@V?$basic_string@DU?$char_traits@D@std@@V?$allocator@D@2@@std@@PAVWSignalInstance_@@U?$less@V?$basic_string@DU?$char_traits@D@std@@V?$allocator@D@2@@std@@@2@V?$allocator@U?$pair@$$CBV?$basic_string@DU?$char_traits@D@std@@V?$allocator@D@2@@std@@PAVWSignalInstance_@@@std@@@2@$0A@@std@@@2@@Z 0046c4c0 f i libwt:WObject.obj
 0001:0006b500       ?erase@?$_Tree@V?$_Tmap_traits@V?$basic_string@DU?$char_traits@D@std@@V?$allocator@D@2@@std@@PAVWSlotInstance_@@U?$less@V?$basic_string@DU?$char_traits@D@std@@V?$allocator@D@2@@std@@@2@V?$allocator@U?$pair@$$CBV?$basic_string@DU?$char_traits@D@std@@V?$allocator@D@2@@std@@PAVWSlotInstance_@@@std@@@2@$0A@@std@@@std@@QAE?AViterator@12@V312@0@Z 0046c500 f i libwt:WObject.obj
 0001:0006b5c0       ?erase@?$_Tree@V?$_Tmap_traits@V?$basic_string@DU?$char_traits@D@std@@V?$allocator@D@2@@std@@PAVWSignalInstance_@@U?$less@V?$basic_string@DU?$char_traits@D@std@@V?$allocator@D@2@@std@@@2@V?$allocator@U?$pair@$$CBV?$basic_string@DU?$char_traits@D@std@@V?$allocator@D@2@@std@@PAVWSignalInstance_@@@std@@@2@$0A@@std@@@std@@QAE?AViterator@12@V312@0@Z 0046c5c0 f i libwt:WObject.obj
 0001:0006b680       ?buildSlotMap@WObject@@MAEXAAV?$map@V?$basic_string@DU?$char_traits@D@std@@V?$allocator@D@2@@std@@PAVWSlotInstance_@@U?$less@V?$basic_string@DU?$char_traits@D@std@@V?$allocator@D@2@@std@@@2@V?$allocator@U?$pair@$$CBV?$basic_string@DU?$char_traits@D@std@@V?$allocator@D@2@@std@@PAVWSlotInstance_@@@std@@@2@@std@@@Z 0046c680 f   libwt:WObject.obj
 0001:0006b730       ?buildSignalMap@WObject@@MAEXAAV?$map@V?$basic_string@DU?$char_traits@D@std@@V?$allocator@D@2@@std@@PAVWSignalInstance_@@U?$less@V?$basic_string@DU?$char_traits@D@std@@V?$allocator@D@2@@std@@@2@V?$allocator@U?$pair@$$CBV?$basic_string@DU?$char_traits@D@std@@V?$allocator@D@2@@std@@PAVWSignalInstance_@@@std@@@2@@std@@@Z 0046c730 f   libwt:WObject.obj
 0001:0006b7e0       ?InsertMap@WObject@@SAXAAV?$map@V?$basic_string@DU?$char_traits@D@std@@V?$allocator@D@2@@std@@PAVWSlotInstance_@@U?$less@V?$basic_string@DU?$char_traits@D@std@@V?$allocator@D@2@@std@@@2@V?$allocator@U?$pair@$$CBV?$basic_string@DU?$char_traits@D@std@@V?$allocator@D@2@@std@@PAVWSlotInstance_@@@std@@@2@@std@@V?$basic_string@DU?$char_traits@D@std@@V?$allocator@D@2@@3@PAVWSlotInstance_@@@Z 0046c7e0 f   libwt:WObject.obj
 0001:0006b840       ??1?$map@V?$basic_string@DU?$char_traits@D@std@@V?$allocator@D@2@@std@@PAVWSignalInstance_@@U?$less@V?$basic_string@DU?$char_traits@D@std@@V?$allocator@D@2@@std@@@2@V?$allocator@U?$pair@$$CBV?$basic_string@DU?$char_traits@D@std@@V?$allocator@D@2@@std@@PAVWSignalInstance_@@@std@@@2@@std@@QAE@XZ 0046c840 f i libwt:WObject.obj
 0001:0006b870       ??1?$map@V?$basic_string@DU?$char_traits@D@std@@V?$allocator@D@2@@std@@PAVWSlotInstance_@@U?$less@V?$basic_string@DU?$char_traits@D@std@@V?$allocator@D@2@@std@@@2@V?$allocator@U?$pair@$$CBV?$basic_string@DU?$char_traits@D@std@@V?$allocator@D@2@@std@@PAVWSlotInstance_@@@std@@@2@@std@@QAE@XZ 0046c870 f i libwt:WObject.obj
 0001:0006b8a0       ?getSignal@WObject@@IBEPAVWSignalInstance_@@V?$basic_string@DU?$char_traits@D@std@@V?$allocator@D@2@@std@@@Z 0046c8a0 f   libwt:WObject.obj
 0001:0006b9f0       ?getSlot@WObject@@IBEPAVWSlotInstance_@@V?$basic_string@DU?$char_traits@D@std@@V?$allocator@D@2@@std@@@Z 0046c9f0 f   libwt:WObject.obj
 0001:0006bb00       ?staticSlotChanged@WObject@@QAEXV?$basic_string@DU?$char_traits@D@std@@V?$allocator@D@2@@std@@@Z 0046cb00 f   libwt:WObject.obj
 0001:0006bb70       ?connect@WObject@@QBE_NPBV1@PBD1W4ConnectionType@1@@Z 0046cb70 f   libwt:WObject.obj
 0001:0006bc50       ?connect@WObject@@QBE_NPBV1@PBD11W4ConnectionType@1@@Z 0046cc50 f   libwt:WObject.obj
 0001:0006bd20       ?connect@WObject@@SA_NPBV1@PBD101W4ConnectionType@1@@Z 0046cd20 f   libwt:WObject.obj
 0001:0006bd50       ?connect@WObject@@SA_NPBV1@PBD01W4ConnectionType@1@@Z 0046cd50 f   libwt:WObject.obj
 0001:0006bd70       ?triggerSignal@WObject@@IAEXPBVWSignal_@@PAPAX@Z 0046cd70 f   libwt:WObject.obj
 0001:0006be00       ?destroyed@WObject@@UAEXPAV1@@Z 0046ce00 f   libwt:WObject.obj
 0001:0006be20       ??1WObject@@UAE@XZ         0046ce20 f   libwt:WObject.obj
 0001:0006bf50       ??_EWObject@@UAEPAXI@Z     0046cf50 f i libwt:WObject.obj
 0001:0006bfb0       ?triggerSlot@WWidget@@MAE_NPAVWObject@@PBVWSlot_@@PAPAX@Z 0046cfb0 f   libwt:WWidget.obj
 0001:0006c000       ?undoTriggerSlot@WWidget@@MAE_NPBVWSlot_@@PAPAX@Z 0046d000 f   libwt:WWidget.obj
 0001:0006c040       ??0WWidget@@QAE@XZ         0046d040 f   libwt:WWidget.obj
 0001:0006c060       ??1WWidget@@UAE@XZ         0046d060 f   libwt:WWidget.obj
 0001:0006c070       ?resourceMimeType@WWidget@@MBE?AV?$basic_string@DU?$char_traits@D@std@@V?$allocator@D@2@@std@@XZ 0046d070 f   libwt:WWidget.obj
 0001:0006c0a0       ?streamResourceData@WWidget@@MAEXPAUFCGI_FILE@@@Z 0046d0a0 f   libwt:WWidget.obj
 0001:0006c170       ??_EWWidget@@UAEPAXI@Z     0046d170 f i libwt:WWidget.obj
 0001:0006c1d0       ?updateStaticSlotCode@WWidget@@IAEXPAVWWebWidget@@AAVJavaScript@@@Z 0046d1d0 f   libwt:WWidget.obj
 0001:0006c490       ?buildSlotMap@WWidget@@MAEXAAV?$map@V?$basic_string@DU?$char_traits@D@std@@V?$allocator@D@2@@std@@PAVWSlotInstance_@@U?$less@V?$basic_string@DU?$char_traits@D@std@@V?$allocator@D@2@@std@@@2@V?$allocator@U?$pair@$$CBV?$basic_string@DU?$char_traits@D@std@@V?$allocator@D@2@@std@@PAVWSlotInstance_@@@std@@@2@@std@@@Z 0046d490 f   libwt:WWidget.obj
 0001:0006c550       ?buildSignalMap@WWidget@@MAEXAAV?$map@V?$basic_string@DU?$char_traits@D@std@@V?$allocator@D@2@@std@@PAVWSignalInstance_@@U?$less@V?$basic_string@DU?$char_traits@D@std@@V?$allocator@D@2@@std@@@2@V?$allocator@U?$pair@$$CBV?$basic_string@DU?$char_traits@D@std@@V?$allocator@D@2@@std@@PAVWSignalInstance_@@@std@@@2@@std@@@Z 0046d550 f   libwt:WWidget.obj
 0001:0006c610       ?invalidateStaticCode@WSlotInstance_@@QAEXXZ 0046d610 f   libwt:WSlotInstance_.obj
 0001:0006c620       ?trigger@WSlotInstance_@@QAE_NPAVWObject@@PAPAX@Z 0046d620 f   libwt:WSlotInstance_.obj
 0001:0006c640       ?undoTrigger@WSlotInstance_@@QAEXPAPAX@Z 0046d640 f   libwt:WSlotInstance_.obj
 0001:0006c660       ?needTriggerStatic@WSlotInstance_@@QBE_NXZ 0046d660 f   libwt:WSlotInstance_.obj
 0001:0006c680       ?setStaticCode@WSlotInstance_@@QAEXV?$basic_string@DU?$char_traits@D@std@@V?$allocator@D@2@@std@@@Z 0046d680 f   libwt:WSlotInstance_.obj
 0001:0006c700       ?_Insert_n@?$vector@PAVWConnection_@@V?$allocator@PAVWConnection_@@@std@@@std@@IAEXViterator@12@IABQAVWConnection_@@@Z 0046d700 f i libwt:WSlotInstance_.obj
 0001:0006c8f0       ??0WSlotInstance_@@QAE@PAVWObject@@PAVWSlot_@@@Z 0046d8f0 f   libwt:WSlotInstance_.obj
 0001:0006c960       ??1WSlotInstance_@@QAE@XZ  0046d960 f   libwt:WSlotInstance_.obj
 0001:0006ca00       ?removeConnection@WSlotInstance_@@QAEXPAVWConnection_@@@Z 0046da00 f   libwt:WSlotInstance_.obj
 0001:0006ca90       ?addConnection@WSlotInstance_@@QAEXPAVWConnection_@@@Z 0046da90 f   libwt:WSlotInstance_.obj
 0001:0006cae0       ?SetJsVal@WSignalInstance_@@QAEXPBDW4ConnectionType@WObject@@@Z 0046dae0 f   libwt:WSignalInstance_.obj
 0001:0006cb00       ?setStaticCodeChanged@WSignalInstance_@@AAEXXZ 0046db00 f   libwt:WSignalInstance_.obj
 0001:0006cb10       ?connectivityOk@WSignalInstance_@@QAEXXZ 0046db10 f   libwt:WSignalInstance_.obj
 0001:0006cb20       ?encodeCmd@WSignalInstance_@@QBE?BV?$basic_string@DU?$char_traits@D@std@@V?$allocator@D@2@@std@@XZ 0046db20 f   libwt:WSignalInstance_.obj
 0001:0006cb70       ?decodeSignal@WSignalInstance_@@SAPAV1@V?$basic_string@DU?$char_traits@D@std@@V?$allocator@D@2@@std@@@Z 0046db70 f   libwt:WSignalInstance_.obj
 0001:0006cc20       ?connect@WSignalInstance_@@AAE_NPAVWSlotInstance_@@W4ConnectionType@WObject@@@Z 0046dc20 f   libwt:WSignalInstance_.obj
 0001:0006ccc0       ?trigger@WSignalInstance_@@ABEXW4ConnectionType@WObject@@PAPAX@Z 0046dcc0 f   libwt:WSignalInstance_.obj
 0001:0006cd70       ?getStaticCode@WSignalInstance_@@ABEXAAV?$basic_string@DU?$char_traits@D@std@@V?$allocator@D@2@@std@@@Z 0046dd70 f   libwt:WSignalInstance_.obj
 0001:0006ce00       ?findConnectedNeedTriggerStaticSlot@WSignalInstance_@@ABEPAVWSlotInstance_@@XZ 0046de00 f   libwt:WSignalInstance_.obj
 0001:0006ce50       ??0WSignalInstance_@@QAE@PAVWObject@@PAVWSignal_@@@Z 0046de50 f   libwt:WSignalInstance_.obj
 0001:0006cec0       ??1WSignalInstance_@@QAE@XZ 0046dec0 f   libwt:WSignalInstance_.obj
 0001:0006cf70       ?removeConnection@WSignalInstance_@@AAEXPAVWConnection_@@@Z 0046df70 f   libwt:WSignalInstance_.obj
 0001:0006d020       ?addConnection@WSignalInstance_@@AAEXPAVWConnection_@@@Z 0046e020 f   libwt:WSignalInstance_.obj
 0001:0006d0d0       ??0WSlot_@@QAE@V?$basic_string@DU?$char_traits@D@std@@V?$allocator@D@2@@std@@_N@Z 0046e0d0 f   libwt:WSlot_.obj
 0001:0006d130       ??0WMessage@@QAE@XZ        0046e130 f   libwt:WMessage.obj
 0001:0006d130       ??0WSlot_@@QAE@XZ          0046e130 f   libwt:WSlot_.obj
 0001:0006d130       ??0WSignal_@@QAE@XZ        0046e130 f   libwt:WSignal_.obj
 0001:0006d140       ??0WSignal_@@QAE@V?$basic_string@DU?$char_traits@D@std@@V?$allocator@D@2@@std@@_N@Z 0046e140 f   libwt:WSignal_.obj
 0001:0006d1a0       ?triggerSlot@WScrollArea@@MAE_NPAVWObject@@PBVWSlot_@@PAPAX@Z 0046e1a0 f   libwt:WScrollArea.obj
 0001:0006d1b0       ?undoTriggerSlot@WInteractWidget@@MAE_NPBVWSlot_@@PAPAX@Z 0046e1b0 f   libwt:WInteractWidget.obj
 0001:0006d1b0       ?undoTriggerSlot@WScrollArea@@MAE_NPBVWSlot_@@PAPAX@Z 0046e1b0 f   libwt:WScrollArea.obj
 0001:0006d1c0       ??0WScrollArea@@QAE@PAVWContainerWidget@@@Z 0046e1c0 f   libwt:WScrollArea.obj
 0001:0006d2a0       ??1WScrollArea@@UAE@XZ     0046e2a0 f   libwt:WScrollArea.obj
 0001:0006d310       ?scrollBarChanged@WScrollArea@@AAEXXZ 0046e310 f   libwt:WScrollArea.obj
 0001:0006d320       ?setWidget@WScrollArea@@QAEXPAVWWidget@@@Z 0046e320 f   libwt:WScrollArea.obj
 0001:0006d370       ?takeWidget@WScrollArea@@QAEPAVWWidget@@XZ 0046e370 f   libwt:WScrollArea.obj
 0001:0006d3b0       ?setScrollBarPolicy@WScrollArea@@QAEXW4ScrollBarPolicy@1@@Z 0046e3b0 f   libwt:WScrollArea.obj
 0001:0006d3d0       ?updateDom@WScrollArea@@MAEXAAVDomElement@@_N@Z 0046e3d0 f   libwt:WScrollArea.obj
 0001:0006d4f0       ?createDomElement@WScrollArea@@MAEPAVDomElement@@XZ 0046e4f0 f   libwt:WScrollArea.obj
 0001:0006d520       ?_Xlen@?$vector@PAVWScrollBar@@V?$allocator@PAVWScrollBar@@@std@@@std@@IBEXXZ 0046e520 f i libwt:WScrollArea.obj
 0001:0006d5a0       ??_EWScrollArea@@UAEPAXI@Z 0046e5a0 f i libwt:WScrollArea.obj
 0001:0006d600       ??$copy@PAPAVWWidget@@PAPAV1@@std@@YAPAPAVWWidget@@PAPAV1@00@Z 0046e600 f i main.obj
 0001:0006d600       ??$copy@PAPAVWScrollBar@@PAPAV1@@std@@YAPAPAVWScrollBar@@PAPAV1@00@Z 0046e600 f i libwt:WScrollArea.obj
 0001:0006d600       ??$copy@PAPAVDomElement@@PAPAV1@@std@@YAPAPAVDomElement@@PAPAV1@00@Z 0046e600 f i main.obj
 0001:0006d600       ??$copy@PAPAVWTableRow@@PAPAV1@@std@@YAPAPAVWTableRow@@PAPAV1@00@Z 0046e600 f i main.obj
 0001:0006d600       ??$copy@PAPAVWRadioButton@@PAPAV1@@std@@YAPAPAVWRadioButton@@PAPAV1@00@Z 0046e600 f i advanceparam.obj
 0001:0006d600       ??$copy@PAPAVWConnection_@@PAPAV1@@std@@YAPAPAVWConnection_@@PAPAV1@00@Z 0046e600 f i mainviewwt.obj
 0001:0006d600       ??$copy@PAPAVWObject@@PAPAV1@@std@@YAPAPAVWObject@@PAPAV1@00@Z 0046e600 f i main.obj
 0001:0006d600       ??$copy@PAPAVWMessageResources@@PAPAV1@@std@@YAPAPAVWMessageResources@@PAPAV1@00@Z 0046e600 f i main.obj
 0001:0006d630       ?_Buy@?$vector@PAVWScrollBar@@V?$allocator@PAVWScrollBar@@@std@@@std@@IAE_NI@Z 0046e630 f i libwt:WScrollArea.obj
 0001:0006d680       ??4?$vector@PAVWScrollBar@@V?$allocator@PAVWScrollBar@@@std@@@std@@QAEAAV01@ABV01@@Z 0046e680 f i libwt:WScrollArea.obj
 0001:0006d7d0       ??4WScrollBar@@QAEAAV0@ABV0@@Z 0046e7d0 f i libwt:WScrollArea.obj
 0001:0006d830       ?getDomChanges@WScrollArea@@MAEXAAV?$vector@PAVDomElement@@V?$allocator@PAVDomElement@@@std@@@std@@@Z 0046e830 f   libwt:WScrollArea.obj
 0001:0006d890       ?buildSlotMap@WScrollArea@@MAEXAAV?$map@V?$basic_string@DU?$char_traits@D@std@@V?$allocator@D@2@@std@@PAVWSlotInstance_@@U?$less@V?$basic_string@DU?$char_traits@D@std@@V?$allocator@D@2@@std@@@2@V?$allocator@U?$pair@$$CBV?$basic_string@DU?$char_traits@D@std@@V?$allocator@D@2@@std@@PAVWSlotInstance_@@@std@@@2@@std@@@Z 0046e890 f   libwt:WScrollArea.obj
 0001:0006d950       ?buildSignalMap@WScrollArea@@MAEXAAV?$map@V?$basic_string@DU?$char_traits@D@std@@V?$allocator@D@2@@std@@PAVWSignalInstance_@@U?$less@V?$basic_string@DU?$char_traits@D@std@@V?$allocator@D@2@@std@@@2@V?$allocator@U?$pair@$$CBV?$basic_string@DU?$char_traits@D@std@@V?$allocator@D@2@@std@@PAVWSignalInstance_@@@std@@@2@@std@@@Z 0046e950 f   libwt:WScrollArea.obj
 0001:0006da10       ??_EWAbstractToggleButton@@UAEPAXI@Z 0046ea10 f i libwt:WAbstractToggleButton.obj
 0001:0006da70       ?checked@WAbstractToggleButton@@QAEXXZ 0046ea70 f   libwt:WAbstractToggleButton.obj
 0001:0006da80       ?unChecked@WAbstractToggleButton@@QAEXXZ 0046ea80 f   libwt:WAbstractToggleButton.obj
 0001:0006da90       ??0WAbstractToggleButton@@QAE@PAVWContainerWidget@@@Z 0046ea90 f   libwt:WAbstractToggleButton.obj
 0001:0006db20       ??0WAbstractToggleButton@@QAE@V?$basic_string@DU?$char_traits@D@std@@V?$allocator@D@2@@std@@PAVWContainerWidget@@@Z 0046eb20 f   libwt:WAbstractToggleButton.obj
 0001:0006dbe0       ??0WAbstractToggleButton@@QAE@ABVWMessage@@PAVWContainerWidget@@@Z 0046ebe0 f   libwt:WAbstractToggleButton.obj
 0001:0006dc70       ?setText@WAbstractToggleButton@@QAEXV?$basic_string@DU?$char_traits@D@std@@V?$allocator@D@2@@std@@@Z 0046ec70 f   libwt:WAbstractToggleButton.obj
 0001:0006dce0       ?setChecked@WAbstractToggleButton@@QAEX_N@Z 0046ece0 f   libwt:WAbstractToggleButton.obj
 0001:0006dd30       ?setChecked@WAbstractToggleButton@@QAEXXZ 0046ed30 f   libwt:WAbstractToggleButton.obj
 0001:0006dd70       ?setUnChecked@WAbstractToggleButton@@QAEXXZ 0046ed70 f   libwt:WAbstractToggleButton.obj
 0001:0006ddb0       ?undoSetUnChecked@WAbstractToggleButton@@AAEXXZ 0046edb0 f   libwt:WAbstractToggleButton.obj
 0001:0006ddb0       ?undoSetChecked@WAbstractToggleButton@@AAEXXZ 0046edb0 f   libwt:WAbstractToggleButton.obj
 0001:0006ddf0       ?setFormData@WAbstractToggleButton@@MAEXPBDH0@Z 0046edf0 f   libwt:WAbstractToggleButton.obj
 0001:0006de80       ?setNoFormData@WAbstractToggleButton@@MAEXXZ 0046ee80 f   libwt:WAbstractToggleButton.obj
 0001:0006dea0       ?triggerSlot@WAbstractToggleButton@@MAE_NPAVWObject@@PBVWSlot_@@PAPAX@Z 0046eea0 f   libwt:WAbstractToggleButton.obj
 0001:0006df70       ?undoTriggerSlot@WAbstractToggleButton@@MAE_NPBVWSlot_@@PAPAX@Z 0046ef70 f   libwt:WAbstractToggleButton.obj
 0001:0006dff0       ?updateDom@WAbstractToggleButton@@MAEXAAVDomElement@@_N@Z 0046eff0 f   libwt:WAbstractToggleButton.obj
 0001:0006e2e0       ?buildSlotMap@WAbstractToggleButton@@MAEXAAV?$map@V?$basic_string@DU?$char_traits@D@std@@V?$allocator@D@2@@std@@PAVWSlotInstance_@@U?$less@V?$basic_string@DU?$char_traits@D@std@@V?$allocator@D@2@@std@@@2@V?$allocator@U?$pair@$$CBV?$basic_string@DU?$char_traits@D@std@@V?$allocator@D@2@@std@@PAVWSlotInstance_@@@std@@@2@@std@@@Z 0046f2e0 f   libwt:WAbstractToggleButton.obj
 0001:0006e3a0       ?buildSignalMap@WAbstractToggleButton@@MAEXAAV?$map@V?$basic_string@DU?$char_traits@D@std@@V?$allocator@D@2@@std@@PAVWSignalInstance_@@U?$less@V?$basic_string@DU?$char_traits@D@std@@V?$allocator@D@2@@std@@@2@V?$allocator@U?$pair@$$CBV?$basic_string@DU?$char_traits@D@std@@V?$allocator@D@2@@std@@PAVWSignalInstance_@@@std@@@2@@std@@@Z 0046f3a0 f   libwt:WAbstractToggleButton.obj
 0001:0006e460       ??_EWRadioButton@@UAEPAXI@Z 0046f460 f i libwt:WRadioButton.obj
 0001:0006e4c0       ?triggerSlot@WCheckBox@@MAE_NPAVWObject@@PBVWSlot_@@PAPAX@Z 0046f4c0 f   libwt:WCheckBox.obj
 0001:0006e4c0       ?triggerSlot@WRadioButton@@MAE_NPAVWObject@@PBVWSlot_@@PAPAX@Z 0046f4c0 f   libwt:WRadioButton.obj
 0001:0006e4d0       ??0WRadioButton@@QAE@PAVWContainerWidget@@@Z 0046f4d0 f   libwt:WRadioButton.obj
 0001:0006e530       ??0WRadioButton@@QAE@V?$basic_string@DU?$char_traits@D@std@@V?$allocator@D@2@@std@@PAVWContainerWidget@@@Z 0046f530 f   libwt:WRadioButton.obj
 0001:0006e5c0       ?updateDom@WRadioButton@@MAEXAAVDomElement@@_N@Z 0046f5c0 f   libwt:WRadioButton.obj
 0001:0006e5d0       ?createDomElement@WRadioButton@@MAEPAVDomElement@@XZ 0046f5d0 f   libwt:WRadioButton.obj
 0001:0006e6c0       ?setGroup@WRadioButton@@AAEXPAVWButtonGroup@@@Z 0046f6c0 f   libwt:WRadioButton.obj
 0001:0006e6d0       ?buildSlotMap@WRadioButton@@MAEXAAV?$map@V?$basic_string@DU?$char_traits@D@std@@V?$allocator@D@2@@std@@PAVWSlotInstance_@@U?$less@V?$basic_string@DU?$char_traits@D@std@@V?$allocator@D@2@@std@@@2@V?$allocator@U?$pair@$$CBV?$basic_string@DU?$char_traits@D@std@@V?$allocator@D@2@@std@@PAVWSlotInstance_@@@std@@@2@@std@@@Z 0046f6d0 f   libwt:WRadioButton.obj
 0001:0006e790       ?buildSignalMap@WRadioButton@@MAEXAAV?$map@V?$basic_string@DU?$char_traits@D@std@@V?$allocator@D@2@@std@@PAVWSignalInstance_@@U?$less@V?$basic_string@DU?$char_traits@D@std@@V?$allocator@D@2@@std@@@2@V?$allocator@U?$pair@$$CBV?$basic_string@DU?$char_traits@D@std@@V?$allocator@D@2@@std@@PAVWSignalInstance_@@@std@@@2@@std@@@Z 0046f790 f   libwt:WRadioButton.obj
 0001:0006e850       ?row@WTableCell@@QBEHXZ    0046f850 f   libwt:WTableCell.obj
 0001:0006e860       ?setRowSpan@WTableCell@@QAEXH@Z 0046f860 f   libwt:WTableCell.obj
 0001:0006e8b0       ?setColumnSpan@WTableCell@@QAEXH@Z 0046f8b0 f   libwt:WTableCell.obj
 0001:0006e900       ?setContentAlignment@WTableCell@@QAEXH@Z 0046f900 f   libwt:WTableCell.obj
 0001:0006e950       ?contentAlignment@WTableCell@@QBEHXZ 0046f950 f   libwt:WTableCell.obj
 0001:0006e970       ?SetMouseMove@WTableCell@@QAEXV?$basic_string@DU?$char_traits@D@std@@V?$allocator@D@2@@std@@0@Z 0046f970 f   libwt:WTableCell.obj
 0001:0006e9c0       ?createDomElement@WTableCell@@MAEPAVDomElement@@XZ 0046f9c0 f   libwt:WTableCell.obj
 0001:0006ec40       ??_EWTableCell@@UAEPAXI@Z  0046fc40 f i libwt:WTableCell.obj
 0001:0006eca0       ??0WTableCell@@AAE@PAVWTableRow@@H@Z 0046fca0 f   libwt:WTableCell.obj
 0001:0006ed30       ?buildSlotMap@WTableCell@@MAEXAAV?$map@V?$basic_string@DU?$char_traits@D@std@@V?$allocator@D@2@@std@@PAVWSlotInstance_@@U?$less@V?$basic_string@DU?$char_traits@D@std@@V?$allocator@D@2@@std@@@2@V?$allocator@U?$pair@$$CBV?$basic_string@DU?$char_traits@D@std@@V?$allocator@D@2@@std@@PAVWSlotInstance_@@@std@@@2@@std@@@Z 0046fd30 f   libwt:WTableCell.obj
 0001:0006edf0       ?buildSignalMap@WTableCell@@MAEXAAV?$map@V?$basic_string@DU?$char_traits@D@std@@V?$allocator@D@2@@std@@PAVWSignalInstance_@@U?$less@V?$basic_string@DU?$char_traits@D@std@@V?$allocator@D@2@@std@@@2@V?$allocator@U?$pair@$$CBV?$basic_string@DU?$char_traits@D@std@@V?$allocator@D@2@@std@@PAVWSignalInstance_@@@std@@@2@@std@@@Z 0046fdf0 f   libwt:WTableCell.obj
 0001:0006eeb0       ??0WTextArea@@QAE@V?$basic_string@DU?$char_traits@D@std@@V?$allocator@D@2@@std@@PAVWContainerWidget@@@Z 0046feb0 f   libwt:WTextArea.obj
 0001:0006ef60       ?setText@WTextArea@@QAEXV?$basic_string@DU?$char_traits@D@std@@V?$allocator@D@2@@std@@@Z 0046ff60 f   libwt:WTextArea.obj
 0001:0006efd0       ?setRows@WTextArea@@QAEXH@Z 0046ffd0 f   libwt:WTextArea.obj
 0001:0006eff0       ?createDomElement@WTextArea@@MAEPAVDomElement@@XZ 0046fff0 f   libwt:WTextArea.obj
 0001:0006f020       ??_GWTextArea@@UAEPAXI@Z   00470020 f i libwt:WTextArea.obj
 0001:0006f020       ??_EWTextArea@@UAEPAXI@Z   00470020 f i libwt:WTextArea.obj
 0001:0006f040       ??1WTextArea@@UAE@XZ       00470040 f i libwt:WTextArea.obj
 0001:0006f090       ?updateDom@WTextArea@@MAEXAAVDomElement@@_N@Z 00470090 f   libwt:WTextArea.obj
 0001:0006f1e0       ?getDomChanges@WTextArea@@MAEXAAV?$vector@PAVDomElement@@V?$allocator@PAVDomElement@@@std@@@std@@@Z 004701e0 f   libwt:WTextArea.obj
 0001:0006f220       ?_Insert_n@?$vector@PAVWRadioButton@@V?$allocator@PAVWRadioButton@@@std@@@std@@IAEXViterator@12@IABQAVWRadioButton@@@Z 00470220 f i libwt:WButtonGroup.obj
 0001:0006f410       ??0WButtonGroup@@QAE@XZ    00470410 f   libwt:WButtonGroup.obj
 0001:0006f460       ??1WButtonGroup@@UAE@XZ    00470460 f   libwt:WButtonGroup.obj
 0001:0006f500       ?removeButton@WButtonGroup@@QAEXPAVWRadioButton@@@Z 00470500 f   libwt:WButtonGroup.obj
 0001:0006f550       ??_EWButtonGroup@@UAEPAXI@Z 00470550 f i libwt:WButtonGroup.obj
 0001:0006f5b0       ?addButton@WButtonGroup@@QAEXPAVWRadioButton@@@Z 004705b0 f   libwt:WButtonGroup.obj
 0001:0006f620       ?buildSlotMap@WButtonGroup@@MAEXAAV?$map@V?$basic_string@DU?$char_traits@D@std@@V?$allocator@D@2@@std@@PAVWSlotInstance_@@U?$less@V?$basic_string@DU?$char_traits@D@std@@V?$allocator@D@2@@std@@@2@V?$allocator@U?$pair@$$CBV?$basic_string@DU?$char_traits@D@std@@V?$allocator@D@2@@std@@PAVWSlotInstance_@@@std@@@2@@std@@@Z 00470620 f   libwt:WButtonGroup.obj
 0001:0006f6e0       ?buildSignalMap@WButtonGroup@@MAEXAAV?$map@V?$basic_string@DU?$char_traits@D@std@@V?$allocator@D@2@@std@@PAVWSignalInstance_@@U?$less@V?$basic_string@DU?$char_traits@D@std@@V?$allocator@D@2@@std@@@2@V?$allocator@U?$pair@$$CBV?$basic_string@DU?$char_traits@D@std@@V?$allocator@D@2@@std@@PAVWSignalInstance_@@@std@@@2@@std@@@Z 004706e0 f   libwt:WButtonGroup.obj
 0001:0006f7a0       ??_EWCheckBox@@UAEPAXI@Z   004707a0 f i libwt:WCheckBox.obj
 0001:0006f800       ?undoTriggerSlot@WCheckBox@@MAE_NPBVWSlot_@@PAPAX@Z 00470800 f   libwt:WCheckBox.obj
 0001:0006f800       ?undoTriggerSlot@WRadioButton@@MAE_NPBVWSlot_@@PAPAX@Z 00470800 f   libwt:WRadioButton.obj
 0001:0006f810       ??0WCheckBox@@QAE@PAVWContainerWidget@@@Z 00470810 f   libwt:WCheckBox.obj
 0001:0006f870       ??0WCheckBox@@QAE@V?$basic_string@DU?$char_traits@D@std@@V?$allocator@D@2@@std@@PAVWContainerWidget@@@Z 00470870 f   libwt:WCheckBox.obj
 0001:0006f930       ?setParent@WCheckBox@@MAEXPAVWWidget@@@Z 00470930 f   libwt:WCheckBox.obj
 0001:0006f970       ?SetCheck@WCheckBox@@QAEX_N@Z 00470970 f   libwt:WCheckBox.obj
 0001:0006f990       ?SetId@WCheckBox@@QAEXPAD@Z 00470990 f   libwt:WCheckBox.obj
 0001:0006f9a0       ?updateDom@WCheckBox@@MAEXAAVDomElement@@_N@Z 004709a0 f   libwt:WCheckBox.obj
 0001:0006f9d0       ?createDomElement@WCheckBox@@MAEPAVDomElement@@XZ 004709d0 f   libwt:WCheckBox.obj
 0001:0006fac0       ?getDomChanges@WRadioButton@@MAEXAAV?$vector@PAVDomElement@@V?$allocator@PAVDomElement@@@std@@@std@@@Z 00470ac0 f   libwt:WRadioButton.obj
 0001:0006fac0       ?getDomChanges@WPushButton@@MAEXAAV?$vector@PAVDomElement@@V?$allocator@PAVDomElement@@@std@@@std@@@Z 00470ac0 f   libwt:WPushButton.obj
 0001:0006fac0       ?getDomChanges@WCheckBox@@UAEXAAV?$vector@PAVDomElement@@V?$allocator@PAVDomElement@@@std@@@std@@@Z 00470ac0 f   libwt:WCheckBox.obj
 0001:0006fac0       ?getDomChanges@WLineEdit@@MAEXAAV?$vector@PAVDomElement@@V?$allocator@PAVDomElement@@@std@@@std@@@Z 00470ac0 f   libwt:WLineEdit.obj
 0001:0006fb00       ?buildSlotMap@WCheckBox@@MAEXAAV?$map@V?$basic_string@DU?$char_traits@D@std@@V?$allocator@D@2@@std@@PAVWSlotInstance_@@U?$less@V?$basic_string@DU?$char_traits@D@std@@V?$allocator@D@2@@std@@@2@V?$allocator@U?$pair@$$CBV?$basic_string@DU?$char_traits@D@std@@V?$allocator@D@2@@std@@PAVWSlotInstance_@@@std@@@2@@std@@@Z 00470b00 f   libwt:WCheckBox.obj
 0001:0006fbc0       ?buildSignalMap@WCheckBox@@MAEXAAV?$map@V?$basic_string@DU?$char_traits@D@std@@V?$allocator@D@2@@std@@PAVWSignalInstance_@@U?$less@V?$basic_string@DU?$char_traits@D@std@@V?$allocator@D@2@@std@@@2@V?$allocator@U?$pair@$$CBV?$basic_string@DU?$char_traits@D@std@@V?$allocator@D@2@@std@@PAVWSignalInstance_@@@std@@@2@@std@@@Z 00470bc0 f   libwt:WCheckBox.obj
 0001:0006fc80       ?rowSpan@WTableCell@@QBEHXZ 00470c80 f   mainview.obj
 0001:0006fc80       ?currentIndex@WStackedWidget@@QBEHXZ 00470c80 f   libwt:WStackedWidget.obj
 0001:0006fc90       ?count@WStackedWidget@@QBEHXZ 00470c90 f   libwt:WStackedWidget.obj
 0001:0006fcb0       ?currentWidget@WStackedWidget@@QBEPAVWWidget@@XZ 00470cb0 f   libwt:WStackedWidget.obj
 0001:0006fcd0       ?indexOf@WStackedWidget@@QBEHPAVWWidget@@@Z 00470cd0 f   libwt:WStackedWidget.obj
 0001:0006fd00       ?widget@WStackedWidget@@QBEPAVWWidget@@H@Z 00470d00 f   libwt:WStackedWidget.obj
 0001:0006fd20       ?setCurrentIndex@WStackedWidget@@QAEXH@Z 00470d20 f   libwt:WStackedWidget.obj
 0001:0006fd70       ?setCurrentWidget@WStackedWidget@@QAEXPAVWWidget@@@Z 00470d70 f   libwt:WStackedWidget.obj
 0001:0006fdb0       ??_EWStackedWidget@@UAEPAXI@Z 00470db0 f i libwt:WStackedWidget.obj
 0001:0006fe10       ?triggerSlot@WStackedWidget@@MAE_NPAVWObject@@PBVWSlot_@@PAPAX@Z 00470e10 f   libwt:WStackedWidget.obj
 0001:0006fe60       ??0WStackedWidget@@QAE@PAVWContainerWidget@@@Z 00470e60 f   libwt:WStackedWidget.obj
 0001:0006fec0       ?removeWidget@WStackedWidget@@UAEXPAVWWidget@@@Z 00470ec0 f   libwt:WStackedWidget.obj
 0001:0006ff70       ?insertWidget@WStackedWidget@@QAEHHPAVWWidget@@@Z 00470f70 f   libwt:WStackedWidget.obj
 0001:0006ffd0       ?buildSlotMap@WStackedWidget@@MAEXAAV?$map@V?$basic_string@DU?$char_traits@D@std@@V?$allocator@D@2@@std@@PAVWSlotInstance_@@U?$less@V?$basic_string@DU?$char_traits@D@std@@V?$allocator@D@2@@std@@@2@V?$allocator@U?$pair@$$CBV?$basic_string@DU?$char_traits@D@std@@V?$allocator@D@2@@std@@PAVWSlotInstance_@@@std@@@2@@std@@@Z 00470fd0 f   libwt:WStackedWidget.obj
 0001:00070090       ?buildSignalMap@WStackedWidget@@MAEXAAV?$map@V?$basic_string@DU?$char_traits@D@std@@V?$allocator@D@2@@std@@PAVWSignalInstance_@@U?$less@V?$basic_string@DU?$char_traits@D@std@@V?$allocator@D@2@@std@@@2@V?$allocator@U?$pair@$$CBV?$basic_string@DU?$char_traits@D@std@@V?$allocator@D@2@@std@@PAVWSignalInstance_@@@std@@@2@@std@@@Z 00471090 f   libwt:WStackedWidget.obj
 0001:00070150       ?addWidget@WStackedWidget@@UAEXPAVWWidget@@@Z 00471150 f   libwt:WStackedWidget.obj
 0001:00070190       ?mapped@WSignalMapper@@QAEXV?$basic_string@DU?$char_traits@D@std@@V?$allocator@D@2@@std@@@Z 00471190 f   libwt:WSignalMapper.obj
 0001:000701f0       ?_Rrotate@?$_Tree@V?$_Tmap_traits@PAVWObject@@PAVWWidget@@U?$less@PAVWObject@@@std@@V?$allocator@U?$pair@QAVWObject@@PAVWWidget@@@std@@@4@$0A@@std@@@std@@IAEXPAU_Node@?$_Tree_nod@V?$_Tmap_traits@PAVWObject@@PAVWWidget@@U?$less@PAVWObject@@@std@@V?$allocator@U?$pair@QAVWObject@@PAVWWidget@@@std@@@4@$0A@@std@@@2@@Z 004711f0 f i libwt:WSignalMapper.obj
 0001:000701f0       ?_Rrotate@?$_Tree@V?$_Tmap_traits@PAVWObject@@HU?$less@PAVWObject@@@std@@V?$allocator@U?$pair@QAVWObject@@H@std@@@3@$0A@@std@@@std@@IAEXPAU_Node@?$_Tree_nod@V?$_Tmap_traits@PAVWObject@@HU?$less@PAVWObject@@@std@@V?$allocator@U?$pair@QAVWObject@@H@std@@@3@$0A@@std@@@2@@Z 004711f0 f i libwt:WSignalMapper.obj
 0001:000701f0       ?_Rrotate@?$_Tree@V?$_Tmap_traits@HPAVWLineEdit@@U?$less@H@std@@V?$allocator@U?$pair@$$CBHPAVWLineEdit@@@std@@@3@$0A@@std@@@std@@IAEXPAU_Node@?$_Tree_nod@V?$_Tmap_traits@HPAVWLineEdit@@U?$less@H@std@@V?$allocator@U?$pair@$$CBHPAVWLineEdit@@@std@@@3@$0A@@std@@@2@@Z 004711f0 f i sortlist.obj
 0001:000701f0       ?_Rrotate@?$_Tree@V?$_Tmap_traits@HPAVCEccButton@@U?$less@H@std@@V?$allocator@U?$pair@$$CBHPAVCEccButton@@@std@@@3@$0A@@std@@@std@@IAEXPAU_Node@?$_Tree_nod@V?$_Tmap_traits@HPAVCEccButton@@U?$less@H@std@@V?$allocator@U?$pair@$$CBHPAVCEccButton@@@std@@@3@$0A@@std@@@2@@Z 004711f0 f i listtable.obj
 0001:000701f0       ?_Rrotate@?$_Tree@V?$_Tmap_traits@KViterator@?$list@U?$pair@V?$shared_ptr@V?$w32_regex_traits_implementation@D@re_detail@boost@@@boost@@PBK@std@@V?$allocator@U?$pair@V?$shared_ptr@V?$w32_regex_traits_implementation@D@re_detail@boost@@@boost@@PBK@std@@@2@@std@@U?$less@K@3@V?$allocator@U?$pair@$$CBKViterator@?$list@U?$pair@V?$shared_ptr@V?$w32_regex_traits_implementation@D@re_detail@boost@@@boost@@PBK@std@@V?$allocator@U?$pair@V?$shared_ptr@V?$w32_regex_traits_implementation@D@re_detail@boost@@@boost@@PBK@std@@@2@@std@@@std@@@3@$0A@@std@@@std@@IAEXPAU_Node@?$_Tree_nod@V?$_Tmap_traits@KViterator@?$list@U?$pair@V?$shared_ptr@V?$w32_regex_traits_implementation@D@re_detail@boost@@@boost@@PBK@std@@V?$allocator@U?$pair@V?$shared_ptr@V?$w32_regex_traits_implementation@D@re_detail@boost@@@boost@@PBK@std@@@2@@std@@U?$less@K@3@V?$allocator@U?$pair@$$CBKViterator@?$list@U?$pair@V?$shared_ptr@V?$w32_regex_traits_implementation@D@re_detail@boost@@@boost@@PBK@std@@V?$allocator@U?$pair@V?$shared_ptr@V?$w32_regex_traits_implementation@D@re_detail@boost@@@boost@@PBK@std@@@2@@std@@@std@@@3@$0A@@std@@@2@@Z 004711f0 f i libboost_regex-vc71-mt-1_33_1:instances.obj
 0001:00070250       ?_Max@?$_Tree@V?$_Tmap_traits@PAVWObject@@V?$basic_string@DU?$char_traits@D@std@@V?$allocator@D@2@@std@@U?$less@PAVWObject@@@3@V?$allocator@U?$pair@QAVWObject@@V?$basic_string@DU?$char_traits@D@std@@V?$allocator@D@2@@std@@@std@@@3@$0A@@std@@@std@@KAPAU_Node@?$_Tree_nod@V?$_Tmap_traits@PAVWObject@@V?$basic_string@DU?$char_traits@D@std@@V?$allocator@D@2@@std@@U?$less@PAVWObject@@@3@V?$allocator@U?$pair@QAVWObject@@V?$basic_string@DU?$char_traits@D@std@@V?$allocator@D@2@@std@@@std@@@3@$0A@@std@@@2@PAU342@@Z 00471250 f i libwt:WSignalMapper.obj
 0001:00070250       ?_Max@?$_Tree@V?$_Tmap_traits@V?$basic_string@DU?$char_traits@D@std@@V?$allocator@D@2@@std@@PAUScopeFunc@@U?$less@V?$basic_string@DU?$char_traits@D@std@@V?$allocator@D@2@@std@@@2@V?$allocator@U?$pair@$$CBV?$basic_string@DU?$char_traits@D@std@@V?$allocator@D@2@@std@@PAUScopeFunc@@@std@@@2@$0A@@std@@@std@@KAPAU_Node@?$_Tree_nod@V?$_Tmap_traits@V?$basic_string@DU?$char_traits@D@std@@V?$allocator@D@2@@std@@PAUScopeFunc@@U?$less@V?$basic_string@DU?$char_traits@D@std@@V?$allocator@D@2@@std@@@2@V?$allocator@U?$pair@$$CBV?$basic_string@DU?$char_traits@D@std@@V?$allocator@D@2@@std@@PAUScopeFunc@@@std@@@2@$0A@@std@@@2@PAU342@@Z 00471250 f i User.obj
 0001:00070250       ?_Max@?$_Tree@V?$_Tmap_traits@HV?$basic_string@DU?$char_traits@D@std@@V?$allocator@D@2@@std@@U?$less@H@2@V?$allocator@U?$pair@$$CBHV?$basic_string@DU?$char_traits@D@std@@V?$allocator@D@2@@std@@@std@@@2@$0A@@std@@@std@@KAPAU_Node@?$_Tree_nod@V?$_Tmap_traits@HV?$basic_string@DU?$char_traits@D@std@@V?$allocator@D@2@@std@@U?$less@H@2@V?$allocator@U?$pair@$$CBHV?$basic_string@DU?$char_traits@D@std@@V?$allocator@D@2@@std@@@std@@@2@$0A@@std@@@2@PAU342@@Z 00471250 f i sortlist.obj
 0001:00070250       ?_Max@?$_Tree@V?$_Tmap_traits@V?$basic_string@DU?$char_traits@D@std@@V?$allocator@D@2@@std@@_NU?$less@V?$basic_string@DU?$char_traits@D@std@@V?$allocator@D@2@@std@@@2@V?$allocator@U?$pair@$$CBV?$basic_string@DU?$char_traits@D@std@@V?$allocator@D@2@@std@@_N@std@@@2@$0A@@std@@@std@@KAPAU_Node@?$_Tree_nod@V?$_Tmap_traits@V?$basic_string@DU?$char_traits@D@std@@V?$allocator@D@2@@std@@_NU?$less@V?$basic_string@DU?$char_traits@D@std@@V?$allocator@D@2@@std@@@2@V?$allocator@U?$pair@$$CBV?$basic_string@DU?$char_traits@D@std@@V?$allocator@D@2@@std@@_N@std@@@2@$0A@@std@@@2@PAU342@@Z 00471250 f i User.obj
 0001:00070250       ?_Max@?$_Tree@V?$_Tmap_traits@V?$basic_string@DU?$char_traits@D@std@@V?$allocator@D@2@@std@@PAVWCssRule@@U?$less@V?$basic_string@DU?$char_traits@D@std@@V?$allocator@D@2@@std@@@2@V?$allocator@U?$pair@$$CBV?$basic_string@DU?$char_traits@D@std@@V?$allocator@D@2@@std@@PAVWCssRule@@@std@@@2@$0A@@std@@@std@@KAPAU_Node@?$_Tree_nod@V?$_Tmap_traits@V?$basic_string@DU?$char_traits@D@std@@V?$allocator@D@2@@std@@PAVWCssRule@@U?$less@V?$basic_string@DU?$char_traits@D@std@@V?$allocator@D@2@@std@@@2@V?$allocator@U?$pair@$$CBV?$basic_string@DU?$char_traits@D@std@@V?$allocator@D@2@@std@@PAVWCssRule@@@std@@@2@$0A@@std@@@2@PAU342@@Z 00471250 f i main.obj
 0001:00070250       ?_Max@?$_Tree@V?$_Tmap_traits@PAVWLineEdit@@V?$basic_string@DU?$char_traits@D@std@@V?$allocator@D@2@@std@@U?$less@PAVWLineEdit@@@3@V?$allocator@U?$pair@QAVWLineEdit@@V?$basic_string@DU?$char_traits@D@std@@V?$allocator@D@2@@std@@@std@@@3@$0A@@std@@@std@@KAPAU_Node@?$_Tree_nod@V?$_Tmap_traits@PAVWLineEdit@@V?$basic_string@DU?$char_traits@D@std@@V?$allocator@D@2@@std@@U?$less@PAVWLineEdit@@@3@V?$allocator@U?$pair@QAVWLineEdit@@V?$basic_string@DU?$char_traits@D@std@@V?$allocator@D@2@@std@@@std@@@3@$0A@@std@@@2@PAU342@@Z 00471250 f i sortlist.obj
 0001:00070250       ?_Max@?$_Tree@V?$_Tmap_traits@V?$basic_string@DU?$char_traits@D@std@@V?$allocator@D@2@@std@@PAVWSignalInstance_@@U?$less@V?$basic_string@DU?$char_traits@D@std@@V?$allocator@D@2@@std@@@2@V?$allocator@U?$pair@$$CBV?$basic_string@DU?$char_traits@D@std@@V?$allocator@D@2@@std@@PAVWSignalInstance_@@@std@@@2@$0A@@std@@@std@@KAPAU_Node@?$_Tree_nod@V?$_Tmap_traits@V?$basic_string@DU?$char_traits@D@std@@V?$allocator@D@2@@std@@PAVWSignalInstance_@@U?$less@V?$basic_string@DU?$char_traits@D@std@@V?$allocator@D@2@@std@@@2@V?$allocator@U?$pair@$$CBV?$basic_string@DU?$char_traits@D@std@@V?$allocator@D@2@@std@@PAVWSignalInstance_@@@std@@@2@$0A@@std@@@2@PAU342@@Z 00471250 f i mainviewwt.obj
 0001:00070250       ?_Max@?$_Tree@V?$_Tmap_traits@V?$basic_string@DU?$char_traits@D@std@@V?$allocator@D@2@@std@@PAVWCheckBox@@U?$less@V?$basic_string@DU?$char_traits@D@std@@V?$allocator@D@2@@std@@@2@V?$allocator@U?$pair@$$CBV?$basic_string@DU?$char_traits@D@std@@V?$allocator@D@2@@std@@PAVWCheckBox@@@std@@@2@$0A@@std@@@std@@KAPAU_Node@?$_Tree_nod@V?$_Tmap_traits@V?$basic_string@DU?$char_traits@D@std@@V?$allocator@D@2@@std@@PAVWCheckBox@@U?$less@V?$basic_string@DU?$char_traits@D@std@@V?$allocator@D@2@@std@@@2@V?$allocator@U?$pair@$$CBV?$basic_string@DU?$char_traits@D@std@@V?$allocator@D@2@@std@@PAVWCheckBox@@@std@@@2@$0A@@std@@@2@PAU342@@Z 00471250 f i listtable.obj
 0001:00070250       ?_Max@?$_Tree@V?$_Tmap_traits@W4Property@Wt@@V?$basic_string@DU?$char_traits@D@std@@V?$allocator@D@2@@std@@U?$less@W4Property@Wt@@@4@V?$allocator@U?$pair@$$CBW4Property@Wt@@V?$basic_string@DU?$char_traits@D@std@@V?$allocator@D@2@@std@@@std@@@4@$0A@@std@@@std@@KAPAU_Node@?$_Tree_nod@V?$_Tmap_traits@W4Property@Wt@@V?$basic_string@DU?$char_traits@D@std@@V?$allocator@D@2@@std@@U?$less@W4Property@Wt@@@4@V?$allocator@U?$pair@$$CBW4Property@Wt@@V?$basic_string@DU?$char_traits@D@std@@V?$allocator@D@2@@std@@@std@@@4@$0A@@std@@@2@PAU342@@Z 00471250 f i libwt:WWebWidget.obj
 0001:00070250       ?_Max@?$_Tree@V?$_Tmap_traits@V?$basic_string@DU?$char_traits@D@std@@V?$allocator@D@2@@std@@PAVWSlotInstance_@@U?$less@V?$basic_string@DU?$char_traits@D@std@@V?$allocator@D@2@@std@@@2@V?$allocator@U?$pair@$$CBV?$basic_string@DU?$char_traits@D@std@@V?$allocator@D@2@@std@@PAVWSlotInstance_@@@std@@@2@$0A@@std@@@std@@KAPAU_Node@?$_Tree_nod@V?$_Tmap_traits@V?$basic_string@DU?$char_traits@D@std@@V?$allocator@D@2@@std@@PAVWSlotInstance_@@U?$less@V?$basic_string@DU?$char_traits@D@std@@V?$allocator@D@2@@std@@@2@V?$allocator@U?$pair@$$CBV?$basic_string@DU?$char_traits@D@std@@V?$allocator@D@2@@std@@PAVWSlotInstance_@@@std@@@2@$0A@@std@@@2@PAU342@@Z 00471250 f i libwt:WWebWidget.obj
 0001:00070250       ?_Max@?$_Tree@V?$_Tmap_traits@V?$basic_string@DU?$char_traits@D@std@@V?$allocator@D@2@@std@@KU?$less@V?$basic_string@DU?$char_traits@D@std@@V?$allocator@D@2@@std@@@2@V?$allocator@U?$pair@$$CBV?$basic_string@DU?$char_traits@D@std@@V?$allocator@D@2@@std@@K@std@@@2@$0A@@std@@@std@@KAPAU_Node@?$_Tree_nod@V?$_Tmap_traits@V?$basic_string@DU?$char_traits@D@std@@V?$allocator@D@2@@std@@KU?$less@V?$basic_string@DU?$char_traits@D@std@@V?$allocator@D@2@@std@@@2@V?$allocator@U?$pair@$$CBV?$basic_string@DU?$char_traits@D@std@@V?$allocator@D@2@@std@@K@std@@@2@$0A@@std@@@2@PAU342@@Z 00471250 f i libboost_regex-vc71-mt-1_33_1:instances.obj
 0001:00070270       ?_Inc@const_iterator@?$_Tree@V?$_Tmap_traits@HPAVWLineEdit@@U?$less@H@std@@V?$allocator@U?$pair@$$CBHPAVWLineEdit@@@std@@@3@$0A@@std@@@std@@QAEXXZ 00471270 f i sortlist.obj
 0001:00070270       ?_Inc@const_iterator@?$_Tree@V?$_Tmap_traits@PAVWObject@@HU?$less@PAVWObject@@@std@@V?$allocator@U?$pair@QAVWObject@@H@std@@@3@$0A@@std@@@std@@QAEXXZ 00471270 f i libwt:WSignalMapper.obj
 0001:00070270       ?_Inc@const_iterator@?$_Tree@V?$_Tmap_traits@KViterator@?$list@U?$pair@V?$shared_ptr@V?$w32_regex_traits_implementation@D@re_detail@boost@@@boost@@PBK@std@@V?$allocator@U?$pair@V?$shared_ptr@V?$w32_regex_traits_implementation@D@re_detail@boost@@@boost@@PBK@std@@@2@@std@@U?$less@K@3@V?$allocator@U?$pair@$$CBKViterator@?$list@U?$pair@V?$shared_ptr@V?$w32_regex_traits_implementation@D@re_detail@boost@@@boost@@PBK@std@@V?$allocator@U?$pair@V?$shared_ptr@V?$w32_regex_traits_implementation@D@re_detail@boost@@@boost@@PBK@std@@@2@@std@@@std@@@3@$0A@@std@@@std@@QAEXXZ 00471270 f i libboost_regex-vc71-mt-1_33_1:instances.obj
 0001:00070270       ?_Inc@const_iterator@?$_Tree@V?$_Tmap_traits@HPAVCEccButton@@U?$less@H@std@@V?$allocator@U?$pair@$$CBHPAVCEccButton@@@std@@@3@$0A@@std@@@std@@QAEXXZ 00471270 f i listtable.obj
 0001:00070270       ?_Inc@const_iterator@?$_Tree@V?$_Tmap_traits@PAVWObject@@PAVWWidget@@U?$less@PAVWObject@@@std@@V?$allocator@U?$pair@QAVWObject@@PAVWWidget@@@std@@@4@$0A@@std@@@std@@QAEXXZ 00471270 f i libwt:WSignalMapper.obj
 0001:000702d0       ??1_Node@?$_Tree_nod@V?$_Tmap_traits@PAVWLineEdit@@V?$basic_string@DU?$char_traits@D@std@@V?$allocator@D@2@@std@@U?$less@PAVWLineEdit@@@3@V?$allocator@U?$pair@QAVWLineEdit@@V?$basic_string@DU?$char_traits@D@std@@V?$allocator@D@2@@std@@@std@@@3@$0A@@std@@@std@@QAE@XZ 004712d0 f i sortlist.obj
 0001:000702d0       ??1_Node@?$_Tree_nod@V?$_Tmap_traits@HV?$basic_string@DU?$char_traits@D@std@@V?$allocator@D@2@@std@@U?$less@H@2@V?$allocator@U?$pair@$$CBHV?$basic_string@DU?$char_traits@D@std@@V?$allocator@D@2@@std@@@std@@@2@$0A@@std@@@std@@QAE@XZ 004712d0 f i sortlist.obj
 0001:000702d0       ??1WColor@@QAE@XZ          004712d0 f i main.obj
 0001:000702d0       ??1_Node@?$_Tree_nod@V?$_Tmap_traits@W4Property@Wt@@V?$basic_string@DU?$char_traits@D@std@@V?$allocator@D@2@@std@@U?$less@W4Property@Wt@@@4@V?$allocator@U?$pair@$$CBW4Property@Wt@@V?$basic_string@DU?$char_traits@D@std@@V?$allocator@D@2@@std@@@std@@@4@$0A@@std@@@std@@QAE@XZ 004712d0 f i libwt:WWebWidget.obj
 0001:000702d0       ??1_Node@?$_Tree_nod@V?$_Tmap_traits@PAVWObject@@V?$basic_string@DU?$char_traits@D@std@@V?$allocator@D@2@@std@@U?$less@PAVWObject@@@3@V?$allocator@U?$pair@QAVWObject@@V?$basic_string@DU?$char_traits@D@std@@V?$allocator@D@2@@std@@@std@@@3@$0A@@std@@@std@@QAE@XZ 004712d0 f i libwt:WSignalMapper.obj
 0001:000702e0       ?_Erase@?$_Tree@V?$_Tmap_traits@PAVWObject@@HU?$less@PAVWObject@@@std@@V?$allocator@U?$pair@QAVWObject@@H@std@@@3@$0A@@std@@@std@@IAEXPAU_Node@?$_Tree_nod@V?$_Tmap_traits@PAVWObject@@HU?$less@PAVWObject@@@std@@V?$allocator@U?$pair@QAVWObject@@H@std@@@3@$0A@@std@@@2@@Z 004712e0 f i libwt:WSignalMapper.obj
 0001:00070320       ?_Erase@?$_Tree@V?$_Tmap_traits@PAVWObject@@PAVWWidget@@U?$less@PAVWObject@@@std@@V?$allocator@U?$pair@QAVWObject@@PAVWWidget@@@std@@@4@$0A@@std@@@std@@IAEXPAU_Node@?$_Tree_nod@V?$_Tmap_traits@PAVWObject@@PAVWWidget@@U?$less@PAVWObject@@@std@@V?$allocator@U?$pair@QAVWObject@@PAVWWidget@@@std@@@4@$0A@@std@@@2@@Z 00471320 f i libwt:WSignalMapper.obj
 0001:00070360       ?erase@?$_Tree@V?$_Tmap_traits@PAVWObject@@HU?$less@PAVWObject@@@std@@V?$allocator@U?$pair@QAVWObject@@H@std@@@3@$0A@@std@@@std@@QAE?AViterator@12@V312@@Z 00471360 f i libwt:WSignalMapper.obj
 0001:00070360       ?erase@?$_Tree@V?$_Tmap_traits@PAVWObject@@PAVWWidget@@U?$less@PAVWObject@@@std@@V?$allocator@U?$pair@QAVWObject@@PAVWWidget@@@std@@@4@$0A@@std@@@std@@QAE?AViterator@12@V312@@Z 00471360 f i libwt:WSignalMapper.obj
 0001:00070630       ?_Buynode@?$_Tree@V?$_Tmap_traits@PAVWObject@@V?$basic_string@DU?$char_traits@D@std@@V?$allocator@D@2@@std@@U?$less@PAVWObject@@@3@V?$allocator@U?$pair@QAVWObject@@V?$basic_string@DU?$char_traits@D@std@@V?$allocator@D@2@@std@@@std@@@3@$0A@@std@@@std@@IAEPAU_Node@?$_Tree_nod@V?$_Tmap_traits@PAVWObject@@V?$basic_string@DU?$char_traits@D@std@@V?$allocator@D@2@@std@@U?$less@PAVWObject@@@3@V?$allocator@U?$pair@QAVWObject@@V?$basic_string@DU?$char_traits@D@std@@V?$allocator@D@2@@std@@@std@@@3@$0A@@std@@@2@PAU342@00ABU?$pair@QAVWObject@@V?$basic_string@DU?$char_traits@D@std@@V?$allocator@D@2@@std@@@2@D@Z 00471630 f i libwt:WSignalMapper.obj
 0001:000706d0       ?mapping@WSignalMapper@@QBEPAVWObject@@H@Z 004716d0 f   libwt:WSignalMapper.obj
 0001:00070710       ?find@?$_Tree@V?$_Tmap_traits@PAVWObject@@PAVWWidget@@U?$less@PAVWObject@@@std@@V?$allocator@U?$pair@QAVWObject@@PAVWWidget@@@std@@@4@$0A@@std@@@std@@QAE?AViterator@12@ABQAVWObject@@@Z 00471710 f i libwt:WSignalMapper.obj
 0001:00070710       ?find@?$_Tree@V?$_Tmap_traits@PAVWObject@@HU?$less@PAVWObject@@@std@@V?$allocator@U?$pair@QAVWObject@@H@std@@@3@$0A@@std@@@std@@QAE?AViterator@12@ABQAVWObject@@@Z 00471710 f i libwt:WSignalMapper.obj
 0001:00070710       ?find@?$_Tree@V?$_Tmap_traits@KViterator@?$list@U?$pair@V?$shared_ptr@V?$w32_regex_traits_implementation@D@re_detail@boost@@@boost@@PBK@std@@V?$allocator@U?$pair@V?$shared_ptr@V?$w32_regex_traits_implementation@D@re_detail@boost@@@boost@@PBK@std@@@2@@std@@U?$less@K@3@V?$allocator@U?$pair@$$CBKViterator@?$list@U?$pair@V?$shared_ptr@V?$w32_regex_traits_implementation@D@re_detail@boost@@@boost@@PBK@std@@V?$allocator@U?$pair@V?$shared_ptr@V?$w32_regex_traits_implementation@D@re_detail@boost@@@boost@@PBK@std@@@2@@std@@@std@@@3@$0A@@std@@@std@@QAE?AViterator@12@ABK@Z 00471710 f i libboost_regex-vc71-mt-1_33_1:instances.obj
 0001:00070780       ?erase@?$_Tree@V?$_Tmap_traits@PAVWObject@@HU?$less@PAVWObject@@@std@@V?$allocator@U?$pair@QAVWObject@@H@std@@@3@$0A@@std@@@std@@QAE?AViterator@12@V312@0@Z 00471780 f i libwt:WSignalMapper.obj
 0001:00070840       ?_Insert@?$_Tree@V?$_Tmap_traits@PAVWObject@@HU?$less@PAVWObject@@@std@@V?$allocator@U?$pair@QAVWObject@@H@std@@@3@$0A@@std@@@std@@IAE?AViterator@12@_NPAU_Node@?$_Tree_nod@V?$_Tmap_traits@PAVWObject@@HU?$less@PAVWObject@@@std@@V?$allocator@U?$pair@QAVWObject@@H@std@@@3@$0A@@std@@@2@ABU?$pair@QAVWObject@@H@2@@Z 00471840 f i libwt:WSignalMapper.obj
 0001:00070a00       ?_Insert@?$_Tree@V?$_Tmap_traits@PAVWObject@@V?$basic_string@DU?$char_traits@D@std@@V?$allocator@D@2@@std@@U?$less@PAVWObject@@@3@V?$allocator@U?$pair@QAVWObject@@V?$basic_string@DU?$char_traits@D@std@@V?$allocator@D@2@@std@@@std@@@3@$0A@@std@@@std@@IAE?AViterator@12@_NPAU_Node@?$_Tree_nod@V?$_Tmap_traits@PAVWObject@@V?$basic_string@DU?$char_traits@D@std@@V?$allocator@D@2@@std@@U?$less@PAVWObject@@@3@V?$allocator@U?$pair@QAVWObject@@V?$basic_string@DU?$char_traits@D@std@@V?$allocator@D@2@@std@@@std@@@3@$0A@@std@@@2@ABU?$pair@QAVWObject@@V?$basic_string@DU?$char_traits@D@std@@V?$allocator@D@2@@std@@@2@@Z 00471a00 f i libwt:WSignalMapper.obj
 0001:00070bc0       ?erase@?$_Tree@V?$_Tmap_traits@PAVWObject@@PAVWWidget@@U?$less@PAVWObject@@@std@@V?$allocator@U?$pair@QAVWObject@@PAVWWidget@@@std@@@4@$0A@@std@@@std@@QAE?AViterator@12@V312@0@Z 00471bc0 f i libwt:WSignalMapper.obj
 0001:00070c80       ?_Erase@?$_Tree@V?$_Tmap_traits@PAVWObject@@V?$basic_string@DU?$char_traits@D@std@@V?$allocator@D@2@@std@@U?$less@PAVWObject@@@3@V?$allocator@U?$pair@QAVWObject@@V?$basic_string@DU?$char_traits@D@std@@V?$allocator@D@2@@std@@@std@@@3@$0A@@std@@@std@@IAEXPAU_Node@?$_Tree_nod@V?$_Tmap_traits@PAVWObject@@V?$basic_string@DU?$char_traits@D@std@@V?$allocator@D@2@@std@@U?$less@PAVWObject@@@3@V?$allocator@U?$pair@QAVWObject@@V?$basic_string@DU?$char_traits@D@std@@V?$allocator@D@2@@std@@@std@@@3@$0A@@std@@@2@@Z 00471c80 f i libwt:WSignalMapper.obj
 0001:00070cc0       ?map@WSignalMapper@@QAEXPAVWObject@@@Z 00471cc0 f   libwt:WSignalMapper.obj
 0001:00070d80       ?erase@?$_Tree@V?$_Tmap_traits@PAVWObject@@V?$basic_string@DU?$char_traits@D@std@@V?$allocator@D@2@@std@@U?$less@PAVWObject@@@3@V?$allocator@U?$pair@QAVWObject@@V?$basic_string@DU?$char_traits@D@std@@V?$allocator@D@2@@std@@@std@@@3@$0A@@std@@@std@@QAE?AViterator@12@V312@@Z 00471d80 f i libwt:WSignalMapper.obj
 0001:00071060       ?insert@?$_Tree@V?$_Tmap_traits@PAVWObject@@HU?$less@PAVWObject@@@std@@V?$allocator@U?$pair@QAVWObject@@H@std@@@3@$0A@@std@@@std@@QAE?AU?$pair@Viterator@?$_Tree@V?$_Tmap_traits@PAVWObject@@HU?$less@PAVWObject@@@std@@V?$allocator@U?$pair@QAVWObject@@H@std@@@3@$0A@@std@@@std@@_N@2@ABU?$pair@QAVWObject@@H@2@@Z 00472060 f i libwt:WSignalMapper.obj
 0001:00071120       ?insert@?$_Tree@V?$_Tmap_traits@PAVWObject@@V?$basic_string@DU?$char_traits@D@std@@V?$allocator@D@2@@std@@U?$less@PAVWObject@@@3@V?$allocator@U?$pair@QAVWObject@@V?$basic_string@DU?$char_traits@D@std@@V?$allocator@D@2@@std@@@std@@@3@$0A@@std@@@std@@QAE?AU?$pair@Viterator@?$_Tree@V?$_Tmap_traits@PAVWObject@@V?$basic_string@DU?$char_traits@D@std@@V?$allocator@D@2@@std@@U?$less@PAVWObject@@@3@V?$allocator@U?$pair@QAVWObject@@V?$basic_string@DU?$char_traits@D@std@@V?$allocator@D@2@@std@@@std@@@3@$0A@@std@@@std@@_N@2@ABU?$pair@QAVWObject@@V?$basic_string@DU?$char_traits@D@std@@V?$allocator@D@2@@std@@@2@@Z 00472120 f i libwt:WSignalMapper.obj
 0001:000711e0       ?removeMappings@WSignalMapper@@QAEXPAVWObject@@@Z 004721e0 f   libwt:WSignalMapper.obj
 0001:00071270       ?insert@?$_Tree@V?$_Tmap_traits@PAVWObject@@HU?$less@PAVWObject@@@std@@V?$allocator@U?$pair@QAVWObject@@H@std@@@3@$0A@@std@@@std@@QAE?AViterator@12@V312@ABU?$pair@QAVWObject@@H@2@@Z 00472270 f i libwt:WSignalMapper.obj
 0001:000713e0       ?insert@?$_Tree@V?$_Tmap_traits@PAVWObject@@V?$basic_string@DU?$char_traits@D@std@@V?$allocator@D@2@@std@@U?$less@PAVWObject@@@3@V?$allocator@U?$pair@QAVWObject@@V?$basic_string@DU?$char_traits@D@std@@V?$allocator@D@2@@std@@@std@@@3@$0A@@std@@@std@@QAE?AViterator@12@V312@ABU?$pair@QAVWObject@@V?$basic_string@DU?$char_traits@D@std@@V?$allocator@D@2@@std@@@2@@Z 004723e0 f i libwt:WSignalMapper.obj
 0001:00071550       ?erase@?$_Tree@V?$_Tmap_traits@PAVWObject@@V?$basic_string@DU?$char_traits@D@std@@V?$allocator@D@2@@std@@U?$less@PAVWObject@@@3@V?$allocator@U?$pair@QAVWObject@@V?$basic_string@DU?$char_traits@D@std@@V?$allocator@D@2@@std@@@std@@@3@$0A@@std@@@std@@QAE?AViterator@12@V312@0@Z 00472550 f i libwt:WSignalMapper.obj
 0001:00071610       ?triggerSlot@WSignalMapper@@MAE_NPAVWObject@@PBVWSlot_@@PAPAX@Z 00472610 f   libwt:WSignalMapper.obj
 0001:00071680       ??1?$map@PAVWObject@@HU?$less@PAVWObject@@@std@@V?$allocator@U?$pair@QAVWObject@@H@std@@@3@@std@@QAE@XZ 00472680 f i libwt:WSignalMapper.obj
 0001:000716b0       ??A?$map@PAVWObject@@HU?$less@PAVWObject@@@std@@V?$allocator@U?$pair@QAVWObject@@H@std@@@3@@std@@QAEAAHABQAVWObject@@@Z 004726b0 f i libwt:WSignalMapper.obj
 0001:00071730       ??A?$map@PAVWObject@@V?$basic_string@DU?$char_traits@D@std@@V?$allocator@D@2@@std@@U?$less@PAVWObject@@@3@V?$allocator@U?$pair@QAVWObject@@V?$basic_string@DU?$char_traits@D@std@@V?$allocator@D@2@@std@@@std@@@3@@std@@QAEAAV?$basic_string@DU?$char_traits@D@std@@V?$allocator@D@2@@1@ABQAVWObject@@@Z 00472730 f i libwt:WSignalMapper.obj
 0001:00071800       ?buildSlotMap@WSignalMapper@@MAEXAAV?$map@V?$basic_string@DU?$char_traits@D@std@@V?$allocator@D@2@@std@@PAVWSlotInstance_@@U?$less@V?$basic_string@DU?$char_traits@D@std@@V?$allocator@D@2@@std@@@2@V?$allocator@U?$pair@$$CBV?$basic_string@DU?$char_traits@D@std@@V?$allocator@D@2@@std@@PAVWSlotInstance_@@@std@@@2@@std@@@Z 00472800 f   libwt:WSignalMapper.obj
 0001:000718c0       ?buildSignalMap@WSignalMapper@@MAEXAAV?$map@V?$basic_string@DU?$char_traits@D@std@@V?$allocator@D@2@@std@@PAVWSignalInstance_@@U?$less@V?$basic_string@DU?$char_traits@D@std@@V?$allocator@D@2@@std@@@2@V?$allocator@U?$pair@$$CBV?$basic_string@DU?$char_traits@D@std@@V?$allocator@D@2@@std@@PAVWSignalInstance_@@@std@@@2@@std@@@Z 004728c0 f   libwt:WSignalMapper.obj
 0001:00071980       ?setMapping@WSignalMapper@@QAEXPAVWObject@@H@Z 00472980 f   libwt:WSignalMapper.obj
 0001:000719c0       ?setMapping@WSignalMapper@@QAEXPAVWObject@@V?$basic_string@DU?$char_traits@D@std@@V?$allocator@D@2@@std@@@Z 004729c0 f   libwt:WSignalMapper.obj
 0001:00071a40       ??1?$map@PAVWObject@@V?$basic_string@DU?$char_traits@D@std@@V?$allocator@D@2@@std@@U?$less@PAVWObject@@@3@V?$allocator@U?$pair@QAVWObject@@V?$basic_string@DU?$char_traits@D@std@@V?$allocator@D@2@@std@@@std@@@3@@std@@QAE@XZ 00472a40 f i libwt:WSignalMapper.obj
 0001:00071a70       ??1WSignalMapper@@UAE@XZ   00472a70 f   libwt:WSignalMapper.obj
 0001:00071b50       ??0WSignalMapper@@QAE@XZ   00472b50 f   libwt:WSignalMapper.obj
 0001:00071c10       ??_EWSignalMapper@@UAEPAXI@Z 00472c10 f i libwt:WSignalMapper.obj
 0001:00071c10       ??_GWSignalMapper@@UAEPAXI@Z 00472c10 f i libwt:WSignalMapper.obj
 0001:00071c30       ??0WLabel@@QAE@PAVWContainerWidget@@@Z 00472c30 f   libwt:WLabel.obj
 0001:00071c70       ??0WLabel@@QAE@V?$basic_string@DU?$char_traits@D@std@@V?$allocator@D@2@@std@@PAVWContainerWidget@@@Z 00472c70 f   libwt:WLabel.obj
 0001:00071d40       ??0WLabel@@QAE@ABVWMessage@@PAVWContainerWidget@@@Z 00472d40 f   libwt:WLabel.obj
 0001:00071de0       ??0WLabel@@QAE@PAVWImage@@PAVWContainerWidget@@@Z 00472de0 f   libwt:WLabel.obj
 0001:00071e50       ?setBuddy@WLabel@@QAEXPAVWFormWidget@@@Z 00472e50 f   libwt:WLabel.obj
 0001:00071e90       ?setText@WLabel@@QAEXV?$basic_string@DU?$char_traits@D@std@@V?$allocator@D@2@@std@@@Z 00472e90 f   libwt:WLabel.obj
 0001:00071f60       ?text@WLabel@@QBE?BV?$basic_string@DU?$char_traits@D@std@@V?$allocator@D@2@@std@@XZ 00472f60 f   libwt:WLabel.obj
 0001:00071fa0       ?setImage@WLabel@@QAEXPAVWImage@@@Z 00472fa0 f   libwt:WLabel.obj
 0001:00071fd0       ?updateDom@WLabel@@MAEXAAVDomElement@@_N@Z 00472fd0 f   libwt:WLabel.obj
 0001:00072080       ?createDomElement@WLabel@@MAEPAVDomElement@@XZ 00473080 f   libwt:WLabel.obj
 0001:000720f0       ??1WLabel@@UAE@XZ          004730f0 f   libwt:WLabel.obj
 0001:00072170       ??_EWLabel@@UAEPAXI@Z      00473170 f i libwt:WLabel.obj
 0001:000721d0       ?getDomChanges@WLabel@@MAEXAAV?$vector@PAVDomElement@@V?$allocator@PAVDomElement@@@std@@@std@@@Z 004731d0 f   libwt:WLabel.obj
 0001:00072240       ?buildSlotMap@WLabel@@MAEXAAV?$map@V?$basic_string@DU?$char_traits@D@std@@V?$allocator@D@2@@std@@PAVWSlotInstance_@@U?$less@V?$basic_string@DU?$char_traits@D@std@@V?$allocator@D@2@@std@@@2@V?$allocator@U?$pair@$$CBV?$basic_string@DU?$char_traits@D@std@@V?$allocator@D@2@@std@@PAVWSlotInstance_@@@std@@@2@@std@@@Z 00473240 f   libwt:WLabel.obj
 0001:00072300       ?buildSignalMap@WLabel@@MAEXAAV?$map@V?$basic_string@DU?$char_traits@D@std@@V?$allocator@D@2@@std@@PAVWSignalInstance_@@U?$less@V?$basic_string@DU?$char_traits@D@std@@V?$allocator@D@2@@std@@@2@V?$allocator@U?$pair@$$CBV?$basic_string@DU?$char_traits@D@std@@V?$allocator@D@2@@std@@PAVWSignalInstance_@@@std@@@2@@std@@@Z 00473300 f   libwt:WLabel.obj
 0001:000723c0       ??0WCssDecorationStyle@@QAE@XZ 004733c0 f   libwt:WCssDecorationStyle.obj
 0001:00072470       ??0WCssDecorationStyle@@AAE@PAVWWebWidget@@@Z 00473470 f   libwt:WCssDecorationStyle.obj
 0001:00072520       ?setCursor@WCssDecorationStyle@@QAEXW4Cursor@1@@Z 00473520 f   libwt:WCssDecorationStyle.obj
 0001:00072540       ?setFont@WCssDecorationStyle@@QAEXABVWFont@@@Z 00473540 f   libwt:WCssDecorationStyle.obj
 0001:00072570       ?setBackgroundImage@WCssDecorationStyle@@QAEXV?$basic_string@DU?$char_traits@D@std@@V?$allocator@D@2@@std@@W4Repeat@1@@Z 00473570 f   libwt:WCssDecorationStyle.obj
 0001:000725f0       ?setBackgroundColor@WCssDecorationStyle@@QAEXVWColor@@@Z 004735f0 f   libwt:WCssDecorationStyle.obj
 0001:00072670       ?setForegroundColor@WCssDecorationStyle@@QAEXVWColor@@@Z 00473670 f   libwt:WCssDecorationStyle.obj
 0001:00072700       ?setBorder@WCssDecorationStyle@@QAEXVWBorder@@@Z 00473700 f   libwt:WCssDecorationStyle.obj
 0001:00072770       ?updateDomElement@WCssDecorationStyle@@QAEXAAVDomElement@@_N@Z 00473770 f   libwt:WCssDecorationStyle.obj
 0001:00072aa0       ?cssText@WCssDecorationStyle@@QBE?AV?$basic_string@DU?$char_traits@D@std@@V?$allocator@D@2@@std@@XZ 00473aa0 f   libwt:WCssDecorationStyle.obj
 0001:00072d50       ?insertChild@DomElement@@QAEXPAV1@V?$basic_string@DU?$char_traits@D@std@@V?$allocator@D@2@@std@@@Z 00473d50 f   libwt:DomElement.obj
 0001:00072d60       ?insertBefore@DomElement@@QAEXPAV1@@Z 00473d60 f   libwt:DomElement.obj
 0001:00072d70       ?removeFromParent@DomElement@@QAEXXZ 00473d70 f   libwt:DomElement.obj
 0001:00072d80       ?removeAllChildren@DomElement@@QAEXXZ 00473d80 f   libwt:DomElement.obj
 0001:00072d90       ?replaceWith@DomElement@@QAEXPAV1@@Z 00473d90 f   libwt:DomElement.obj
 0001:00072e80       ?canWriteInnerHTML@DomElement@@ABE_NXZ 00473e80 f   libwt:DomElement.obj
 0001:00072ea0       ?isDefaultInline@DomElement@@QBE_NXZ 00473ea0 f   libwt:DomElement.obj
 0001:00072eb0       ?_Dec@const_iterator@?$_Tree@V?$_Tmap_traits@V?$basic_string@DU?$char_traits@D@std@@V?$allocator@D@2@@std@@U?$pair@V?$basic_string@DU?$char_traits@D@std@@V?$allocator@D@2@@std@@V12@@2@U?$less@V?$basic_string@DU?$char_traits@D@std@@V?$allocator@D@2@@std@@@2@V?$allocator@U?$pair@$$CBV?$basic_string@DU?$char_traits@D@std@@V?$allocator@D@2@@std@@U?$pair@V?$basic_string@DU?$char_traits@D@std@@V?$allocator@D@2@@std@@V12@@2@@std@@@2@$0A@@std@@@std@@QAEXXZ 00473eb0 f i libwt:DomElement.obj
 0001:00072f10       ??$_Copy_backward_opt@PAU?$pair@V?$basic_string@DU?$char_traits@D@std@@V?$allocator@D@2@@std@@PAVDomElement@@@std@@PAU12@@std@@YAPAU?$pair@V?$basic_string@DU?$char_traits@D@std@@V?$allocator@D@2@@std@@PAVDomElement@@@0@PAU10@00U_Nonscalar_ptr_iterator_tag@0@@Z 00473f10 f i libwt:DomElement.obj
 0001:00073010       ?createReference@DomElement@@QBE?AV?$basic_string@DU?$char_traits@D@std@@V?$allocator@D@2@@std@@XZ 00474010 f   libwt:DomElement.obj
 0001:000730d0       ??0?$pair@$$CBV?$basic_string@DU?$char_traits@D@std@@V?$allocator@D@2@@std@@U?$pair@V?$basic_string@DU?$char_traits@D@std@@V?$allocator@D@2@@std@@V12@@2@@std@@QAE@ABV?$basic_string@DU?$char_traits@D@std@@V?$allocator@D@2@@1@ABU?$pair@V?$basic_string@DU?$char_traits@D@std@@V?$allocator@D@2@@std@@V12@@1@@Z 004740d0 f i libwt:DomElement.obj
 0001:00073130       ?_Lbound@?$_Tree@V?$_Tmap_traits@V?$basic_string@DU?$char_traits@D@std@@V?$allocator@D@2@@std@@U?$pair@V?$basic_string@DU?$char_traits@D@std@@V?$allocator@D@2@@std@@V12@@2@U?$less@V?$basic_string@DU?$char_traits@D@std@@V?$allocator@D@2@@std@@@2@V?$allocator@U?$pair@$$CBV?$basic_string@DU?$char_traits@D@std@@V?$allocator@D@2@@std@@U?$pair@V?$basic_string@DU?$char_traits@D@std@@V?$allocator@D@2@@std@@V12@@2@@std@@@2@$0A@@std@@@std@@IBEPAU_Node@?$_Tree_nod@V?$_Tmap_traits@V?$basic_string@DU?$char_traits@D@std@@V?$allocator@D@2@@std@@U?$pair@V?$basic_string@DU?$char_traits@D@std@@V?$allocator@D@2@@std@@V12@@2@U?$less@V?$basic_string@DU?$char_traits@D@std@@V?$allocator@D@2@@std@@@2@V?$allocator@U?$pair@$$CBV?$basic_string@DU?$char_traits@D@std@@V?$allocator@D@2@@std@@U?$pair@V?$basic_string@DU?$char_traits@D@std@@V?$allocator@D@2@@std@@V12@@2@@std@@@2@$0A@@std@@@2@ABV?$basic_string@DU?$char_traits@D@std@@V?$allocator@D@2@@2@@Z 00474130 f i libwt:DomElement.obj
 0001:00073180       ??$make_pair@V?$basic_string@DU?$char_traits@D@std@@V?$allocator@D@2@@std@@PAVDomElement@@@std@@YA?AU?$pair@V?$basic_string@DU?$char_traits@D@std@@V?$allocator@D@2@@std@@PAVDomElement@@@0@V?$basic_string@DU?$char_traits@D@std@@V?$allocator@D@2@@0@PAVDomElement@@@Z 00474180 f i libwt:DomElement.obj
 0001:000731f0       ??$make_pair@V?$basic_string@DU?$char_traits@D@std@@V?$allocator@D@2@@std@@V12@@std@@YA?AU?$pair@V?$basic_string@DU?$char_traits@D@std@@V?$allocator@D@2@@std@@V12@@0@V?$basic_string@DU?$char_traits@D@std@@V?$allocator@D@2@@0@0@Z 004741f0 f i libwt:DomElement.obj
 0001:00073280       ??$fill@PAU?$pair@V?$basic_string@DU?$char_traits@D@std@@V?$allocator@D@2@@std@@PAVDomElement@@@std@@U12@@std@@YAXPAU?$pair@V?$basic_string@DU?$char_traits@D@std@@V?$allocator@D@2@@std@@PAVDomElement@@@0@0ABU10@@Z 00474280 f i libwt:DomElement.obj
 0001:000732b0       ?find@?$_Tree@V?$_Tmap_traits@W4Property@Wt@@V?$basic_string@DU?$char_traits@D@std@@V?$allocator@D@2@@std@@U?$less@W4Property@Wt@@@4@V?$allocator@U?$pair@$$CBW4Property@Wt@@V?$basic_string@DU?$char_traits@D@std@@V?$allocator@D@2@@std@@@std@@@4@$0A@@std@@@std@@QBE?AVconst_iterator@12@ABW4Property@Wt@@@Z 004742b0 f i libwt:DomElement.obj
 0001:000732b0       ?find@?$_Tree@V?$_Tmap_traits@HV?$basic_string@DU?$char_traits@D@std@@V?$allocator@D@2@@std@@U?$less@H@2@V?$allocator@U?$pair@$$CBHV?$basic_string@DU?$char_traits@D@std@@V?$allocator@D@2@@std@@@std@@@2@$0A@@std@@@std@@QAE?AViterator@12@ABH@Z 004742b0 f i sortlist.obj
 0001:000732b0       ?find@?$_Tree@V?$_Tmap_traits@HV?$basic_string@DU?$char_traits@D@std@@V?$allocator@D@2@@std@@U?$less@H@2@V?$allocator@U?$pair@$$CBHV?$basic_string@DU?$char_traits@D@std@@V?$allocator@D@2@@std@@@std@@@2@$0A@@std@@@std@@QBE?AVconst_iterator@12@ABH@Z 004742b0 f i libboost_regex-vc71-mt-1_33_1:instances.obj
 0001:00073320       ?find@?$_Tree@V?$_Tmap_traits@V?$basic_string@DU?$char_traits@D@std@@V?$allocator@D@2@@std@@U?$pair@V?$basic_string@DU?$char_traits@D@std@@V?$allocator@D@2@@std@@V12@@2@U?$less@V?$basic_string@DU?$char_traits@D@std@@V?$allocator@D@2@@std@@@2@V?$allocator@U?$pair@$$CBV?$basic_string@DU?$char_traits@D@std@@V?$allocator@D@2@@std@@U?$pair@V?$basic_string@DU?$char_traits@D@std@@V?$allocator@D@2@@std@@V12@@2@@std@@@2@$0A@@std@@@std@@QBE?AVconst_iterator@12@ABV?$basic_string@DU?$char_traits@D@std@@V?$allocator@D@2@@2@@Z 00474320 f i libwt:DomElement.obj
 0001:00073380       ?_Insert@?$_Tree@V?$_Tmap_traits@W4Property@Wt@@V?$basic_string@DU?$char_traits@D@std@@V?$allocator@D@2@@std@@U?$less@W4Property@Wt@@@4@V?$allocator@U?$pair@$$CBW4Property@Wt@@V?$basic_string@DU?$char_traits@D@std@@V?$allocator@D@2@@std@@@std@@@4@$0A@@std@@@std@@IAE?AViterator@12@_NPAU_Node@?$_Tree_nod@V?$_Tmap_traits@W4Property@Wt@@V?$basic_string@DU?$char_traits@D@std@@V?$allocator@D@2@@std@@U?$less@W4Property@Wt@@@4@V?$allocator@U?$pair@$$CBW4Property@Wt@@V?$basic_string@DU?$char_traits@D@std@@V?$allocator@D@2@@std@@@std@@@4@$0A@@std@@@2@ABU?$pair@$$CBW4Property@Wt@@V?$basic_string@DU?$char_traits@D@std@@V?$allocator@D@2@@std@@@2@@Z 00474380 f i libwt:DomElement.obj
 0001:00073540       ?_Insert@?$_Tree@V?$_Tmap_traits@V?$basic_string@DU?$char_traits@D@std@@V?$allocator@D@2@@std@@U?$pair@V?$basic_string@DU?$char_traits@D@std@@V?$allocator@D@2@@std@@V12@@2@U?$less@V?$basic_string@DU?$char_traits@D@std@@V?$allocator@D@2@@std@@@2@V?$allocator@U?$pair@$$CBV?$basic_string@DU?$char_traits@D@std@@V?$allocator@D@2@@std@@U?$pair@V?$basic_string@DU?$char_traits@D@std@@V?$allocator@D@2@@std@@V12@@2@@std@@@2@$0A@@std@@@std@@IAE?AViterator@12@_NPAU_Node@?$_Tree_nod@V?$_Tmap_traits@V?$basic_string@DU?$char_traits@D@std@@V?$allocator@D@2@@std@@U?$pair@V?$basic_string@DU?$char_traits@D@std@@V?$allocator@D@2@@std@@V12@@2@U?$less@V?$basic_string@DU?$char_traits@D@std@@V?$allocator@D@2@@std@@@2@V?$allocator@U?$pair@$$CBV?$basic_string@DU?$char_traits@D@std@@V?$allocator@D@2@@std@@U?$pair@V?$basic_string@DU?$char_traits@D@std@@V?$allocator@D@2@@std@@V12@@2@@std@@@2@$0A@@std@@@2@ABU?$pair@$$CBV?$basic_string@DU?$char_traits@D@std@@V?$allocator@D@2@@std@@U?$pair@V?$basic_string@DU?$char_traits@D@std@@V?$allocator@D@2@@std@@V12@@2@@2@@Z 00474540 f i libwt:DomElement.obj
 0001:00073700       ??$_Uninit_fill_n@PAU?$pair@V?$basic_string@DU?$char_traits@D@std@@V?$allocator@D@2@@std@@PAVDomElement@@@std@@IU12@V?$allocator@U?$pair@V?$basic_string@DU?$char_traits@D@std@@V?$allocator@D@2@@std@@PAVDomElement@@@std@@@2@@std@@YAXPAU?$pair@V?$basic_string@DU?$char_traits@D@std@@V?$allocator@D@2@@std@@PAVDomElement@@@0@IABU10@AAV?$allocator@U?$pair@V?$basic_string@DU?$char_traits@D@std@@V?$allocator@D@2@@std@@PAVDomElement@@@std@@@0@U_Nonscalar_ptr_iterator_tag@0@@Z 00474700 f i libwt:DomElement.obj
 0001:000737a0       ?asHTML@DomElement@@QBE?AV?$basic_string@DU?$char_traits@D@std@@V?$allocator@D@2@@std@@XZ 004747a0 f   libwt:DomElement.obj
 0001:00074ba0       ?insert@?$_Tree@V?$_Tmap_traits@W4Property@Wt@@V?$basic_string@DU?$char_traits@D@std@@V?$allocator@D@2@@std@@U?$less@W4Property@Wt@@@4@V?$allocator@U?$pair@$$CBW4Property@Wt@@V?$basic_string@DU?$char_traits@D@std@@V?$allocator@D@2@@std@@@std@@@4@$0A@@std@@@std@@QAE?AU?$pair@Viterator@?$_Tree@V?$_Tmap_traits@W4Property@Wt@@V?$basic_string@DU?$char_traits@D@std@@V?$allocator@D@2@@std@@U?$less@W4Property@Wt@@@4@V?$allocator@U?$pair@$$CBW4Property@Wt@@V?$basic_string@DU?$char_traits@D@std@@V?$allocator@D@2@@std@@@std@@@4@$0A@@std@@@std@@_N@2@ABU?$pair@$$CBW4Property@Wt@@V?$basic_string@DU?$char_traits@D@std@@V?$allocator@D@2@@std@@@2@@Z 00475ba0 f i libwt:DomElement.obj
 0001:00074c60       ?insert@?$_Tree@V?$_Tmap_traits@V?$basic_string@DU?$char_traits@D@std@@V?$allocator@D@2@@std@@U?$pair@V?$basic_string@DU?$char_traits@D@std@@V?$allocator@D@2@@std@@V12@@2@U?$less@V?$basic_string@DU?$char_traits@D@std@@V?$allocator@D@2@@std@@@2@V?$allocator@U?$pair@$$CBV?$basic_string@DU?$char_traits@D@std@@V?$allocator@D@2@@std@@U?$pair@V?$basic_string@DU?$char_traits@D@std@@V?$allocator@D@2@@std@@V12@@2@@std@@@2@$0A@@std@@@std@@QAE?AU?$pair@Viterator@?$_Tree@V?$_Tmap_traits@V?$basic_string@DU?$char_traits@D@std@@V?$allocator@D@2@@std@@U?$pair@V?$basic_string@DU?$char_traits@D@std@@V?$allocator@D@2@@std@@V12@@2@U?$less@V?$basic_string@DU?$char_traits@D@std@@V?$allocator@D@2@@std@@@2@V?$allocator@U?$pair@$$CBV?$basic_string@DU?$char_traits@D@std@@V?$allocator@D@2@@std@@U?$pair@V?$basic_string@DU?$char_traits@D@std@@V?$allocator@D@2@@std@@V12@@2@@std@@@2@$0A@@std@@@std@@_N@2@ABU?$pair@$$CBV?$basic_string@DU?$char_traits@D@std@@V?$allocator@D@2@@std@@U?$pair@V?$basic_string@DU?$char_traits@D@std@@V?$allocator@D@2@@std@@V12@@2@@2@@Z 00475c60 f i libwt:DomElement.obj
 0001:00074d40       ?insert@?$_Tree@V?$_Tmap_traits@W4Property@Wt@@V?$basic_string@DU?$char_traits@D@std@@V?$allocator@D@2@@std@@U?$less@W4Property@Wt@@@4@V?$allocator@U?$pair@$$CBW4Property@Wt@@V?$basic_string@DU?$char_traits@D@std@@V?$allocator@D@2@@std@@@std@@@4@$0A@@std@@@std@@QAE?AViterator@12@V312@ABU?$pair@$$CBW4Property@Wt@@V?$basic_string@DU?$char_traits@D@std@@V?$allocator@D@2@@std@@@2@@Z 00475d40 f i libwt:DomElement.obj
 0001:00074eb0       ?insert@?$_Tree@V?$_Tmap_traits@V?$basic_string@DU?$char_traits@D@std@@V?$allocator@D@2@@std@@U?$pair@V?$basic_string@DU?$char_traits@D@std@@V?$allocator@D@2@@std@@V12@@2@U?$less@V?$basic_string@DU?$char_traits@D@std@@V?$allocator@D@2@@std@@@2@V?$allocator@U?$pair@$$CBV?$basic_string@DU?$char_traits@D@std@@V?$allocator@D@2@@std@@U?$pair@V?$basic_string@DU?$char_traits@D@std@@V?$allocator@D@2@@std@@V12@@2@@std@@@2@$0A@@std@@@std@@QAE?AViterator@12@V312@ABU?$pair@$$CBV?$basic_string@DU?$char_traits@D@std@@V?$allocator@D@2@@std@@U?$pair@V?$basic_string@DU?$char_traits@D@std@@V?$allocator@D@2@@std@@V12@@2@@2@@Z 00475eb0 f i libwt:DomElement.obj
 0001:00075070       ?_Ufill@?$vector@U?$pair@V?$basic_string@DU?$char_traits@D@std@@V?$allocator@D@2@@std@@PAVDomElement@@@std@@V?$allocator@U?$pair@V?$basic_string@DU?$char_traits@D@std@@V?$allocator@D@2@@std@@PAVDomElement@@@std@@@2@@std@@IAEPAU?$pair@V?$basic_string@DU?$char_traits@D@std@@V?$allocator@D@2@@std@@PAVDomElement@@@2@PAU32@IABU32@@Z 00476070 f i libwt:DomElement.obj
 0001:000750a0       ?_Insert_n@?$vector@U?$pair@V?$basic_string@DU?$char_traits@D@std@@V?$allocator@D@2@@std@@PAVDomElement@@@std@@V?$allocator@U?$pair@V?$basic_string@DU?$char_traits@D@std@@V?$allocator@D@2@@std@@PAVDomElement@@@std@@@2@@std@@IAEXViterator@12@IABU?$pair@V?$basic_string@DU?$char_traits@D@std@@V?$allocator@D@2@@std@@PAVDomElement@@@2@@Z 004760a0 f i libwt:DomElement.obj
 0001:00075360       ??A?$map@W4Property@Wt@@V?$basic_string@DU?$char_traits@D@std@@V?$allocator@D@2@@std@@U?$less@W4Property@Wt@@@4@V?$allocator@U?$pair@$$CBW4Property@Wt@@V?$basic_string@DU?$char_traits@D@std@@V?$allocator@D@2@@std@@@std@@@4@@std@@QAEAAV?$basic_string@DU?$char_traits@D@std@@V?$allocator@D@2@@1@ABW4Property@Wt@@@Z 00476360 f i libwt:DomElement.obj
 0001:00075430       ??A?$map@V?$basic_string@DU?$char_traits@D@std@@V?$allocator@D@2@@std@@U?$pair@V?$basic_string@DU?$char_traits@D@std@@V?$allocator@D@2@@std@@V12@@2@U?$less@V?$basic_string@DU?$char_traits@D@std@@V?$allocator@D@2@@std@@@2@V?$allocator@U?$pair@$$CBV?$basic_string@DU?$char_traits@D@std@@V?$allocator@D@2@@std@@U?$pair@V?$basic_string@DU?$char_traits@D@std@@V?$allocator@D@2@@std@@V12@@2@@std@@@2@@std@@QAEAAU?$pair@V?$basic_string@DU?$char_traits@D@std@@V?$allocator@D@2@@std@@V12@@1@ABV?$basic_string@DU?$char_traits@D@std@@V?$allocator@D@2@@1@@Z 00476430 f i libwt:DomElement.obj
 0001:00075510       ?setAttribute@DomElement@@QAEXV?$basic_string@DU?$char_traits@D@std@@V?$allocator@D@2@@std@@0@Z 00476510 f   libwt:DomElement.obj
 0001:00075580       ?removeEventSignal@DomElement@@QAEXV?$basic_string@DU?$char_traits@D@std@@V?$allocator@D@2@@std@@@Z 00476580 f   libwt:DomElement.obj
 0001:000756a0       ?setEvent@DomElement@@QAEXV?$basic_string@DU?$char_traits@D@std@@V?$allocator@D@2@@std@@0@Z 004766a0 f   libwt:DomElement.obj
 0001:000757d0       ?addEvent@DomElement@@QAEXV?$basic_string@DU?$char_traits@D@std@@V?$allocator@D@2@@std@@0@Z 004767d0 f   libwt:DomElement.obj
 0001:00075840       ?addEventSignal@DomElement@@QAEXV?$basic_string@DU?$char_traits@D@std@@V?$allocator@D@2@@std@@ABVWSignalInstance_@@PBD2@Z 00476840 f   libwt:DomElement.obj
 0001:00075cf0       ?setProperty@DomElement@@QAEXW4Property@Wt@@V?$basic_string@DU?$char_traits@D@std@@V?$allocator@D@2@@std@@@Z 00476cf0 f   libwt:DomElement.obj
 0001:00075d50       ?setId@DomElement@@QAEXV?$basic_string@DU?$char_traits@D@std@@V?$allocator@D@2@@std@@_N@Z 00476d50 f   libwt:DomElement.obj
 0001:00075df0       ?setId@DomElement@@QAEXPBVWObject@@_N@Z 00476df0 f   libwt:DomElement.obj
 0001:00075e20       ?push_back@?$vector@U?$pair@V?$basic_string@DU?$char_traits@D@std@@V?$allocator@D@2@@std@@PAVDomElement@@@std@@V?$allocator@U?$pair@V?$basic_string@DU?$char_traits@D@std@@V?$allocator@D@2@@std@@PAVDomElement@@@std@@@2@@std@@QAEXABU?$pair@V?$basic_string@DU?$char_traits@D@std@@V?$allocator@D@2@@std@@PAVDomElement@@@2@@Z 00476e20 f i libwt:DomElement.obj
 0001:00075e90       ??1DomElement@@QAE@XZ      00476e90 f   libwt:DomElement.obj
 0001:00076020       ?addChild@DomElement@@QAEXPAV1@@Z 00477020 f   libwt:DomElement.obj
 0001:000760d0       ?setEventSignal@DomElement@@QAEXV?$basic_string@DU?$char_traits@D@std@@V?$allocator@D@2@@std@@ABVWSignalInstance_@@PBD2@Z 004770d0 f   libwt:DomElement.obj
 0001:00076220       ??0DomElement@@AAE@W4Mode@0@W4ElementType@0@@Z 00477220 f   libwt:DomElement.obj
 0001:00076310       ?createNew@DomElement@@SAPAV1@W4ElementType@1@@Z 00477310 f   libwt:DomElement.obj
 0001:00076370       ?getForUpdate@DomElement@@SAPAV1@V?$basic_string@DU?$char_traits@D@std@@V?$allocator@D@2@@std@@W4ElementType@1@@Z 00477370 f   libwt:DomElement.obj
 0001:00076400       ?getForUpdate@DomElement@@SAPAV1@PBVWObject@@W4ElementType@1@@Z 00477400 f   libwt:DomElement.obj
 0001:00076430       ?createJSStatements@DomElement@@QBE?AVJSVar@@AAVJavaScript@@@Z 00477430 f   libwt:DomElement.obj
 0001:00078700       ??0WLength@@QAE@XZ         00479700 f   libwt:WLength.obj
 0001:00078710       ??0WLength@@QAE@NW4Unit@0@@Z 00479710 f   libwt:WLength.obj
 0001:00078730       ??8WLength@@QBE_NABV0@@Z   00479730 f   libwt:WLength.obj
 0001:00078760       ??5?$lexical_stream@V?$basic_string@DU?$char_traits@D@std@@V?$allocator@D@2@@std@@N@detail@boost@@QAE_NAAV?$basic_string@DU?$char_traits@D@std@@V?$allocator@D@2@@std@@@Z 00479760 f i libwt:WLength.obj
 0001:000787c0       ??$lexical_cast@V?$basic_string@DU?$char_traits@D@std@@V?$allocator@D@2@@std@@N@boost@@YA?AV?$basic_string@DU?$char_traits@D@std@@V?$allocator@D@2@@std@@ABN@Z 004797c0 f i libwt:WLength.obj
 0001:00078930       ?cssText@WLength@@QBE?BV?$basic_string@DU?$char_traits@D@std@@V?$allocator@D@2@@std@@XZ 00479930 f   libwt:WLength.obj
 0001:000789e0       ??0WMessage@@QAE@V?$basic_string@DU?$char_traits@D@std@@V?$allocator@D@2@@std@@@Z 004799e0 f   libwt:WMessage.obj
 0001:00078a40       ?value@WMessage@@QBE?BV?$basic_string@DU?$char_traits@D@std@@V?$allocator@D@2@@std@@XZ 00479a40 f   libwt:WMessage.obj
 0001:00078a70       ??$copy_backward@PAPAVWScrollBar@@PAPAV1@@std@@YAPAPAVWScrollBar@@PAPAV1@00@Z 00479a70 f i libwt:WScrollBar.obj
 0001:00078a70       ??$copy_backward@PAPAVWMessageResources@@PAPAV1@@std@@YAPAPAVWMessageResources@@PAPAV1@00@Z 00479a70 f i libwt:WMessageResourceBundle.obj
 0001:00078a70       ??$copy_backward@PAPAVWConnection_@@PAPAV1@@std@@YAPAPAVWConnection_@@PAPAV1@00@Z 00479a70 f i libwt:WSlotInstance_.obj
 0001:00078a70       ??$copy_backward@PAPAVWObject@@PAPAV1@@std@@YAPAPAVWObject@@PAPAV1@00@Z 00479a70 f i libwt:WWebWidget.obj
 0001:00078a70       ??$copy_backward@PAPAVWRadioButton@@PAPAV1@@std@@YAPAPAVWRadioButton@@PAPAV1@00@Z 00479a70 f i libwt:WButtonGroup.obj
 0001:00078a70       ??$copy_backward@PAPAVWWidget@@PAPAV1@@std@@YAPAPAVWWidget@@PAPAV1@00@Z 00479a70 f i libwt:WWebWidget.obj
 0001:00078a70       ??$copy_backward@PAPAVDomElement@@PAPAV1@@std@@YAPAPAVDomElement@@PAPAV1@00@Z 00479a70 f i libwt:WWebWidget.obj
 0001:00078a70       ??$copy_backward@PAPAVWTableRow@@PAPAV1@@std@@YAPAPAVWTableRow@@PAPAV1@00@Z 00479a70 f i libwt:WTable.obj
 0001:00078a70       ??$copy_backward@PAJPAJ@std@@YAPAJPAJ00@Z 00479a70 f i libboost_regex-vc71-mt-1_33_1:instances.obj
 0001:00078aa0       ?getValue@WMessageResourceBundle@@QBE?AV?$basic_string@DU?$char_traits@D@std@@V?$allocator@D@2@@std@@ABVWMessage@@@Z 00479aa0 f   libwt:WMessageResourceBundle.obj
 0001:00078bc0       ?refresh@WMessageResourceBundle@@QAEXXZ 00479bc0 f   libwt:WMessageResourceBundle.obj
 0001:00078bf0       ??0WMessageResourceBundle@@AAE@XZ 00479bf0 f   libwt:WMessageResourceBundle.obj
 0001:00078c00       ?use@WMessageResourceBundle@@QAEXV?$basic_string@DU?$char_traits@D@std@@V?$allocator@D@2@@std@@@Z 00479c00 f   libwt:WMessageResourceBundle.obj
 0001:00078d30       ??1WMessageResources@@QAE@XZ 00479d30 f i libwt:WMessageResourceBundle.obj
 0001:00078de0       ??0WMessageResources@@QAE@ABV0@@Z 00479de0 f i libwt:WMessageResourceBundle.obj
 0001:00078e50       ?dataChanged@WResource@@QAEXXZ 00479e50 f   libwt:WResource.obj
 0001:00078e60       ?triggerSlot@WResource@@MAE_NPAVWObject@@PBVWSlot_@@PAPAX@Z 00479e60 f   libwt:WResource.obj
 0001:00078e60       ?triggerSlot@WButtonGroup@@MAE_NPAVWObject@@PBVWSlot_@@PAPAX@Z 00479e60 f   libwt:WButtonGroup.obj
 0001:00078e70       ?undoTriggerSlot@WApplication@@MAE_NPBVWSlot_@@PAPAX@Z 00479e70 f   libwt:WApplication.obj
 0001:00078e70       ?undoTriggerSlot@WSignalMapper@@MAE_NPBVWSlot_@@PAPAX@Z 00479e70 f   libwt:WSignalMapper.obj
 0001:00078e70       ?undoTriggerSlot@WButtonGroup@@MAE_NPBVWSlot_@@PAPAX@Z 00479e70 f   libwt:WButtonGroup.obj
 0001:00078e70       ?undoTriggerSlot@WResource@@MAE_NPBVWSlot_@@PAPAX@Z 00479e70 f   libwt:WResource.obj
 0001:00078e70       ?undoTriggerSlot@WScrollBar@@MAE_NPBVWSlot_@@PAPAX@Z 00479e70 f   libwt:WScrollBar.obj
 0001:00078e80       ??0WResource@@QAE@XZ       00479e80 f   libwt:WResource.obj
 0001:00078ea0       ??1WResource@@UAE@XZ       00479ea0 f   libwt:WResource.obj
 0001:00078f10       ?decodeResource@WResource@@KAPAV1@V?$basic_string@DU?$char_traits@D@std@@V?$allocator@D@2@@std@@@Z 00479f10 f   libwt:WResource.obj
 0001:00078fd0       ??_EWResource@@UAEPAXI@Z   00479fd0 f i libwt:WResource.obj
 0001:00079030       ?generateUrl@WResource@@QBE?BV?$basic_string@DU?$char_traits@D@std@@V?$allocator@D@2@@std@@XZ 0047a030 f   libwt:WResource.obj
 0001:00079200       ?buildSlotMap@WResource@@MAEXAAV?$map@V?$basic_string@DU?$char_traits@D@std@@V?$allocator@D@2@@std@@PAVWSlotInstance_@@U?$less@V?$basic_string@DU?$char_traits@D@std@@V?$allocator@D@2@@std@@@2@V?$allocator@U?$pair@$$CBV?$basic_string@DU?$char_traits@D@std@@V?$allocator@D@2@@std@@PAVWSlotInstance_@@@std@@@2@@std@@@Z 0047a200 f   libwt:WResource.obj
 0001:000792c0       ?buildSignalMap@WResource@@MAEXAAV?$map@V?$basic_string@DU?$char_traits@D@std@@V?$allocator@D@2@@std@@PAVWSignalInstance_@@U?$less@V?$basic_string@DU?$char_traits@D@std@@V?$allocator@D@2@@std@@@2@V?$allocator@U?$pair@$$CBV?$basic_string@DU?$char_traits@D@std@@V?$allocator@D@2@@std@@PAVWSignalInstance_@@@std@@@2@@std@@@Z 0047a2c0 f   libwt:WResource.obj
 0001:00079380       ??0JavaScript@@QAE@XZ      0047a380 f   libwt:JavaScript.obj
 0001:000793d0       ?addStatement@JavaScript@@QAEXV?$basic_string@DU?$char_traits@D@std@@V?$allocator@D@2@@std@@@Z 0047a3d0 f   libwt:JavaScript.obj
 0001:00079420       ??0JSVar@@AAE@XZ           0047a420 f   libwt:JavaScript.obj
 0001:000794a0       ?declareVar@JavaScript@@QAE?AVJSVar@@V?$basic_string@DU?$char_traits@D@std@@V?$allocator@D@2@@std@@@Z 0047a4a0 f   libwt:JavaScript.obj
 0001:00079650       ?getTempFunctionName@JavaScript@@QAE?BV?$basic_string@DU?$char_traits@D@std@@V?$allocator@D@2@@std@@XZ 0047a650 f   libwt:JavaScript.obj
 0001:000796e0       ??0WConnection_@@QAE@PAVWSignalInstance_@@PAVWSlotInstance_@@W4ConnectionType@WObject@@@Z 0047a6e0 f   libwt:WConnection_.obj
 0001:00079720       ??1WConnection_@@QAE@XZ    0047a720 f   libwt:WConnection_.obj
 0001:00079740       ?trigger@WConnection_@@QAE_NPAPAX@Z 0047a740 f   libwt:WConnection_.obj
 0001:00079760       ?getStaticCode@WConnection_@@QBE?AV?$basic_string@DU?$char_traits@D@std@@V?$allocator@D@2@@std@@XZ 0047a760 f   libwt:WConnection_.obj
 0001:00079780       ?setValue@WScrollBar@@QAEXH@Z 0047a780 f   libwt:WScrollBar.obj
 0001:000797a0       ?triggerSlot@WScrollBar@@MAE_NPAVWObject@@PBVWSlot_@@PAPAX@Z 0047a7a0 f   libwt:WScrollBar.obj
 0001:000797e0       ?updateDom@WScrollBar@@AAEXAAVDomElement@@_N@Z 0047a7e0 f   libwt:WScrollBar.obj
 0001:00079b10       ?_Insert_n@?$vector@PAVWScrollBar@@V?$allocator@PAVWScrollBar@@@std@@@std@@IAEXViterator@12@IABQAVWScrollBar@@@Z 0047ab10 f i libwt:WScrollBar.obj
 0001:00079d00       ??0WScrollBar@@AAE@PAVWScrollArea@@W4Orientation@0@@Z 0047ad00 f   libwt:WScrollBar.obj
 0001:00079d60       ?unTie@WScrollBar@@SAXPAV1@0@Z 0047ad60 f   libwt:WScrollBar.obj
 0001:00079df0       ??1WScrollBar@@EAE@XZ      0047adf0 f   libwt:WScrollBar.obj
 0001:00079e90       ??_EWScrollBar@@EAEPAXI@Z  0047ae90 f i libwt:WScrollBar.obj
 0001:00079ef0       ?tie@WScrollBar@@SAXPAV1@0@Z 0047aef0 f   libwt:WScrollBar.obj
 0001:00079fa0       ?buildSlotMap@WScrollBar@@MAEXAAV?$map@V?$basic_string@DU?$char_traits@D@std@@V?$allocator@D@2@@std@@PAVWSlotInstance_@@U?$less@V?$basic_string@DU?$char_traits@D@std@@V?$allocator@D@2@@std@@@2@V?$allocator@U?$pair@$$CBV?$basic_string@DU?$char_traits@D@std@@V?$allocator@D@2@@std@@PAVWSlotInstance_@@@std@@@2@@std@@@Z 0047afa0 f   libwt:WScrollBar.obj
 0001:0007a060       ?buildSignalMap@WScrollBar@@MAEXAAV?$map@V?$basic_string@DU?$char_traits@D@std@@V?$allocator@D@2@@std@@PAVWSignalInstance_@@U?$less@V?$basic_string@DU?$char_traits@D@std@@V?$allocator@D@2@@std@@@2@V?$allocator@U?$pair@$$CBV?$basic_string@DU?$char_traits@D@std@@V?$allocator@D@2@@std@@PAVWSignalInstance_@@@std@@@2@@std@@@Z 0047b060 f   libwt:WScrollBar.obj
 0001:0007a120       ??0WFont@@QAE@XZ           0047b120 f   libwt:WFont.obj
 0001:0007a1a0       ??0WFont@@AAE@PAVWWebWidget@@@Z 0047b1a0 f   libwt:WFont.obj
 0001:0007a220       ?setFamily@WFont@@QAEXW4GenericFamily@1@V?$basic_string@DU?$char_traits@D@std@@V?$allocator@D@2@@std@@@Z 0047b220 f   libwt:WFont.obj
 0001:0007a290       ?setStyle@WFont@@QAEXW4Style@1@@Z 0047b290 f   libwt:WFont.obj
 0001:0007a2b0       ?setVariant@WFont@@QAEXW4Variant@1@@Z 0047b2b0 f   libwt:WFont.obj
 0001:0007a2d0       ?setWeight@WFont@@QAEXW4Weight@1@H@Z 0047b2d0 f   libwt:WFont.obj
 0001:0007a2f0       ?setSize@WFont@@QAEXW4Size@1@VWLength@@@Z 0047b2f0 f   libwt:WFont.obj
 0001:0007a330       ?updateDomElement@WFont@@AAEXAAVDomElement@@_N1@Z 0047b330 f   libwt:WFont.obj
 0001:0007a790       ??0WColor@@QAE@XZ          0047b790 f   libwt:WColor.obj
 0001:0007a7b0       ??0WColor@@QAE@HHH@Z       0047b7b0 f   libwt:WColor.obj
 0001:0007a7e0       ??0WColor@@QAE@V?$basic_string@DU?$char_traits@D@std@@V?$allocator@D@2@@std@@@Z 0047b7e0 f   libwt:WColor.obj
 0001:0007a840       ?cssText@WColor@@QBE?BV?$basic_string@DU?$char_traits@D@std@@V?$allocator@D@2@@std@@XZ 0047b840 f   libwt:WColor.obj
 0001:0007aa50       ??0WBorder@@QAE@XZ         0047ba50 f   libwt:WBorder.obj
 0001:0007aa80       ??0WBorder@@QAE@W4Style@0@W4Width@0@VWColor@@@Z 0047ba80 f   libwt:WBorder.obj
 0001:0007ab10       ?setWidth@WBorder@@QAEXW4Width@1@VWLength@@@Z 0047bb10 f   libwt:WBorder.obj
 0001:0007ab40       ?setColor@WBorder@@QAEXVWColor@@@Z 0047bb40 f   libwt:WBorder.obj
 0001:0007abb0       ?setStyle@WBorder@@QAEXW4Style@1@@Z 0047bbb0 f   libwt:WBorder.obj
 0001:0007abc0       ?cssText@WBorder@@QBE?AV?$basic_string@DU?$char_traits@D@std@@V?$allocator@D@2@@std@@XZ 0047bbc0 f   libwt:WBorder.obj
 0001:0007ae70       ?readResourceFile@WMessageResources@@AAEXV?$basic_string@DU?$char_traits@D@std@@V?$allocator@D@2@@std@@AAV?$map@V?$basic_string@DU?$char_traits@D@std@@V?$allocator@D@2@@std@@V12@U?$less@V?$basic_string@DU?$char_traits@D@std@@V?$allocator@D@2@@std@@@2@V?$allocator@U?$pair@$$CBV?$basic_string@DU?$char_traits@D@std@@V?$allocator@D@2@@std@@V12@@std@@@2@@3@@Z 0047be70 f   libwt:WMessageResources.obj
 0001:0007ae80       ?refresh@WMessageResources@@QAEXXZ 0047be80 f   libwt:WMessageResources.obj
 0001:0007aec0       ?find@?$_Tree@V?$_Tmap_traits@V?$basic_string@DU?$char_traits@D@std@@V?$allocator@D@2@@std@@V12@U?$less@V?$basic_string@DU?$char_traits@D@std@@V?$allocator@D@2@@std@@@2@V?$allocator@U?$pair@$$CBV?$basic_string@DU?$char_traits@D@std@@V?$allocator@D@2@@std@@V12@@std@@@2@$0A@@std@@@std@@QBE?AVconst_iterator@12@ABV?$basic_string@DU?$char_traits@D@std@@V?$allocator@D@2@@2@@Z 0047bec0 f i libwt:WMessageResources.obj
 0001:0007aec0       ?find@?$_Tree@V?$_Tmap_traits@V?$basic_string@DU?$char_traits@D@std@@V?$allocator@D@2@@std@@V12@U?$less@V?$basic_string@DU?$char_traits@D@std@@V?$allocator@D@2@@std@@@2@V?$allocator@U?$pair@$$CBV?$basic_string@DU?$char_traits@D@std@@V?$allocator@D@2@@std@@V12@@std@@@2@$0A@@std@@@std@@QAE?AViterator@12@ABV?$basic_string@DU?$char_traits@D@std@@V?$allocator@D@2@@2@@Z 0047bec0 f i resstring.obj
 0001:0007af20       ?getValue@WMessageResources@@QBE_NABVWMessage@@AAV?$basic_string@DU?$char_traits@D@std@@V?$allocator@D@2@@std@@@Z 0047bf20 f   libwt:WMessageResources.obj
 0001:0007b030       ??0WMessageResources@@QAE@V?$basic_string@DU?$char_traits@D@std@@V?$allocator@D@2@@std@@@Z 0047c030 f   libwt:WMessageResources.obj
 0001:0007b120       ?DogOnUsb@SafeDog@@QAEHAA_N@Z 0047c120 f   usbdog:safedog.obj
 0001:0007b170       ?GetDeviceNum@SafeDog@@QAEHAAV?$basic_string@DU?$char_traits@D@std@@V?$allocator@D@2@@std@@@Z 0047c170 f   usbdog:safedog.obj
 0001:0007b260       ?GetNodeNum@SafeDog@@QAEHAAV?$basic_string@DU?$char_traits@D@std@@V?$allocator@D@2@@std@@@Z 0047c260 f   usbdog:safedog.obj
 0001:0007b344       _AAAAAAAAAt                0047c344     usbdog:Mhwin32c.obj
 0001:0007c6ca       _AAAAAAAAA2                0047d6ca     usbdog:Mhwin32c.obj
 0001:0007c755       _AAAAAAAAA3                0047d755     usbdog:Mhwin32c.obj
 0001:0007c7e0       _AAAAAAAAA4                0047d7e0     usbdog:Mhwin32c.obj
 0001:0007c86b       _AAAAAAAAA5                0047d86b     usbdog:Mhwin32c.obj
 0001:0007c8f6       _AAAAAAAAA6                0047d8f6     usbdog:Mhwin32c.obj
 0001:0007c981       _DogConvert                0047d981     usbdog:Mhwin32c.obj
 0001:0007ca0c       _JJJJJJJJJt                0047da0c     usbdog:Mhwin32c.obj
 0001:0007ca97       _DogEncrypt                0047da97     usbdog:Mhwin32c.obj
 0001:0007cb22       _JJJJJJJJJ2                0047db22     usbdog:Mhwin32c.obj
 0001:0007cbad       _JJJJJJJJJ3                0047dbad     usbdog:Mhwin32c.obj
 0001:0007cc38       _JJJJJJJJJ4                0047dc38     usbdog:Mhwin32c.obj
 0001:0007ccc3       _JJJJJJJJJ5                0047dcc3     usbdog:Mhwin32c.obj
 0001:0007cd4e       _JJJJJJJJJ6                0047dd4e     usbdog:Mhwin32c.obj
 0001:0007cdd9       _DogDecrypt                0047ddd9     usbdog:Mhwin32c.obj
 0001:0007ce64       _KKKKKKKKK1                0047de64     usbdog:Mhwin32c.obj
 0001:0007ceef       _KKKKKKKKK2                0047deef     usbdog:Mhwin32c.obj
 0001:0007cf7a       _KKKKKKKKK3                0047df7a     usbdog:Mhwin32c.obj
 0001:0007d005       _KKKKKKKKK4                0047e005     usbdog:Mhwin32c.obj
 0001:0007d090       _KKKKKKKKK5                0047e090     usbdog:Mhwin32c.obj
 0001:0007d11b       _KKKKKKKKK6                0047e11b     usbdog:Mhwin32c.obj
 0001:0007d1a6       _PPPPPPPPm                 0047e1a6     usbdog:Mhwin32c.obj
 0001:0007d231       _PPPPPPPP1                 0047e231     usbdog:Mhwin32c.obj
 0001:0007d2bc       _GetRandom                 0047e2bc     usbdog:Mhwin32c.obj
 0001:0007d347       _PPPPPPPP3                 0047e347     usbdog:Mhwin32c.obj
 0001:0007d3d2       _PPPPPPPP4                 0047e3d2     usbdog:Mhwin32c.obj
 0001:0007d45d       _PPPPPPPP5                 0047e45d     usbdog:Mhwin32c.obj
 0001:0007d4e8       _PPPPPPPP6                 0047e4e8     usbdog:Mhwin32c.obj
 0001:0007d573       _FFFFFFFFFFd               0047e573     usbdog:Mhwin32c.obj
 0001:0007d5fe       _FFFFFFFFFF1               0047e5fe     usbdog:Mhwin32c.obj
 0001:0007d689       _SetPassword               0047e689     usbdog:Mhwin32c.obj
 0001:0007d714       _FFFFFFFFFF3               0047e714     usbdog:Mhwin32c.obj
 0001:0007d79f       _FFFFFFFFFF4               0047e79f     usbdog:Mhwin32c.obj
 0001:0007d82a       _FFFFFFFFFF5               0047e82a     usbdog:Mhwin32c.obj
 0001:0007d8b5       _FFFFFFFFFF6               0047e8b5     usbdog:Mhwin32c.obj
 0001:0007d940       _HHHHHHHHx                 0047e940     usbdog:Mhwin32c.obj
 0001:0007d9cb       _HHHHHHHH1                 0047e9cb     usbdog:Mhwin32c.obj
 0001:0007da56       _HHHHHHHH2                 0047ea56     usbdog:Mhwin32c.obj
 0001:0007dae1       _ReadDogEx                 0047eae1     usbdog:Mhwin32c.obj
 0001:0007db6c       _HHHHHHHH4                 0047eb6c     usbdog:Mhwin32c.obj
 0001:0007dbf7       _HHHHHHHH5                 0047ebf7     usbdog:Mhwin32c.obj
 0001:0007dc82       _HHHHHHHH6                 0047ec82     usbdog:Mhwin32c.obj
 0001:0007dd0d       _IIIIIIIIIx                0047ed0d     usbdog:Mhwin32c.obj
 0001:0007dd98       _IIIIIIIII1                0047ed98     usbdog:Mhwin32c.obj
 0001:0007de23       _WriteDogEx                0047ee23     usbdog:Mhwin32c.obj
 0001:0007deae       _IIIIIIIII3                0047eeae     usbdog:Mhwin32c.obj
 0001:0007df39       _IIIIIIIII4                0047ef39     usbdog:Mhwin32c.obj
 0001:0007dfc4       _IIIIIIIII5                0047efc4     usbdog:Mhwin32c.obj
 0001:0007e04f       _IIIIIIIII6                0047f04f     usbdog:Mhwin32c.obj
 0001:0007e0da       _LLLLLLh                   0047f0da     usbdog:Mhwin32c.obj
 0001:0007e165       _LLLLLL1                   0047f165     usbdog:Mhwin32c.obj
 0001:0007e1f0       _LLLLLL2                   0047f1f0     usbdog:Mhwin32c.obj
 0001:0007e27b       _LLLLLL3                   0047f27b     usbdog:Mhwin32c.obj
 0001:0007e306       _LLLLLL4                   0047f306     usbdog:Mhwin32c.obj
 0001:0007e391       _LLLLLL5                   0047f391     usbdog:Mhwin32c.obj
 0001:0007e41c       _DogHash                   0047f41c     usbdog:Mhwin32c.obj
 0001:0007e4a7       _MMMMMMn                   0047f4a7     usbdog:Mhwin32c.obj
 0001:0007e532       _MMMMMM1                   0047f532     usbdog:Mhwin32c.obj
 0001:0007e5bd       _MMMMMM2                   0047f5bd     usbdog:Mhwin32c.obj
 0001:0007e648       _MMMMMM3                   0047f648     usbdog:Mhwin32c.obj
 0001:0007e6d3       _MMMMMM4                   0047f6d3     usbdog:Mhwin32c.obj
 0001:0007e75e       _DogSign                   0047f75e     usbdog:Mhwin32c.obj
 0001:0007e7e9       _MMMMMM6                   0047f7e9     usbdog:Mhwin32c.obj
 0001:0007e874       _GGGGGGGGGGGe              0047f874     usbdog:Mhwin32c.obj
 0001:0007e8ff       _GGGGGGGGGGG1              0047f8ff     usbdog:Mhwin32c.obj
 0001:0007e98a       _GGGGGGGGGGG2              0047f98a     usbdog:Mhwin32c.obj
 0001:0007ea15       _GGGGGGGGGGG3              0047fa15     usbdog:Mhwin32c.obj
 0001:0007eaa0       _GetDogExSize              0047faa0     usbdog:Mhwin32c.obj
 0001:0007eb2b       _GGGGGGGGGGG5              0047fb2b     usbdog:Mhwin32c.obj
 0001:0007ebb6       _GGGGGGGGGGG6              0047fbb6     usbdog:Mhwin32c.obj
 0001:0007ec41       _NNNNNNNNNNy               0047fc41     usbdog:Mhwin32c.obj
 0001:0007eccc       _NNNNNNNNNN1               0047fccc     usbdog:Mhwin32c.obj
 0001:0007ed57       _NNNNNNNNNN2               0047fd57     usbdog:Mhwin32c.obj
 0001:0007ede2       _NNNNNNNNNN3               0047fde2     usbdog:Mhwin32c.obj
 0001:0007ee6d       _SetCryptKey               0047fe6d     usbdog:Mhwin32c.obj
 0001:0007eef8       _NNNNNNNNNN5               0047fef8     usbdog:Mhwin32c.obj
 0001:0007ef83       _NNNNNNNNNN6               0047ff83     usbdog:Mhwin32c.obj
 0001:0007f00e       _OOOOOOOOOy                0048000e     usbdog:Mhwin32c.obj
 0001:0007f099       _OOOOOOOOO1                00480099     usbdog:Mhwin32c.obj
 0001:0007f124       _OOOOOOOOO2                00480124     usbdog:Mhwin32c.obj
 0001:0007f1af       _SetSignKey                004801af     usbdog:Mhwin32c.obj
 0001:0007f23a       _OOOOOOOOO4                0048023a     usbdog:Mhwin32c.obj
 0001:0007f2c5       _OOOOOOOOO5                004802c5     usbdog:Mhwin32c.obj
 0001:0007f350       _OOOOOOOOO6                00480350     usbdog:Mhwin32c.obj
 0001:0007f3db       _AuthenticateDevice        004803db     usbdog:Mhwin32c.obj
 0001:0007f466       _AuthenticateDevic1        00480466     usbdog:Mhwin32c.obj
 0001:0007f4f1       _AuthenticateDevic2        004804f1     usbdog:Mhwin32c.obj
 0001:0007f57c       _AuthenticateDevic3        0048057c     usbdog:Mhwin32c.obj
 0001:0007f607       _AuthenticateDevic4        00480607     usbdog:Mhwin32c.obj
 0001:0007f692       _AuthenticateDevic5        00480692     usbdog:Mhwin32c.obj
 0001:0007f71d       _AuthenticateDevic6        0048071d     usbdog:Mhwin32c.obj
 0001:0007f7a8       _RRRRRRRRRRRt              004807a8     usbdog:Mhwin32c.obj
 0001:0007f8bc       _RRRRRRRRRRR1              004808bc     usbdog:Mhwin32c.obj
 0001:0007f9ad       _RRRRRRRRRRR2              004809ad     usbdog:Mhwin32c.obj
 0001:0007fa9e       _GetTimeLimit              00480a9e     usbdog:Mhwin32c.obj
 0001:0007fb8f       _RRRRRRRRRRR4              00480b8f     usbdog:Mhwin32c.obj
 0001:0007fc80       _RRRRRRRRRRR5              00480c80     usbdog:Mhwin32c.obj
 0001:0007fd71       _RRRRRRRRRRR6              00480d71     usbdog:Mhwin32c.obj
 0001:0007fe62       _SetTimeLimit              00480e62     usbdog:Mhwin32c.obj
 0001:0007ff5e       _SetTimeLimi1              00480f5e     usbdog:Mhwin32c.obj
 0001:00080058       _SetTimeLimi2              00481058     usbdog:Mhwin32c.obj
 0001:00080154       _SetTimeLimi3              00481154     usbdog:Mhwin32c.obj
 0001:00080250       _SetTimeLimi4              00481250     usbdog:Mhwin32c.obj
 0001:0008034c       _SetTimeLimi5              0048134c     usbdog:Mhwin32c.obj
 0001:00080448       _SetTimeLimi6              00481448     usbdog:Mhwin32c.obj
 0001:00080544       _ActivateTimeLimit         00481544     usbdog:Mhwin32c.obj
 0001:0008062b       _ActivateTimeLimi1         0048162b     usbdog:Mhwin32c.obj
 0001:00080714       _ActivateTimeLimi2         00481714     usbdog:Mhwin32c.obj
 0001:000807fd       _ActivateTimeLimi3         004817fd     usbdog:Mhwin32c.obj
 0001:000808e6       _ActivateTimeLimi4         004818e6     usbdog:Mhwin32c.obj
 0001:000809cf       _ActivateTimeLimi5         004819cf     usbdog:Mhwin32c.obj
 0001:00080ab8       _ActivateTimeLimi6         00481ab8     usbdog:Mhwin32c.obj
 0001:00080ba1       _QQQQQQQQQQQQo             00481ba1     usbdog:Mhwin32c.obj
 0001:00080c2c       _QQQQQQQQQQQQ1             00481c2c     usbdog:Mhwin32c.obj
 0001:00080cb7       _QQQQQQQQQQQQ2             00481cb7     usbdog:Mhwin32c.obj
 0001:00080d42       _QQQQQQQQQQQQ3             00481d42     usbdog:Mhwin32c.obj
 0001:00080dcd       _GetDeviceInfo             00481dcd     usbdog:Mhwin32c.obj
 0001:00080e58       _QQQQQQQQQQQQ5             00481e58     usbdog:Mhwin32c.obj
 0001:00080ee3       _QQQQQQQQQQQQ6             00481ee3     usbdog:Mhwin32c.obj
 0001:00080f6e       _TTTTTTTg                  00481f6e     usbdog:Mhwin32c.obj
 0001:00080ff9       _TTTTTTT1                  00481ff9     usbdog:Mhwin32c.obj
 0001:00081084       _WriteDog                  00482084     usbdog:Mhwin32c.obj
 0001:0008110f       _TTTTTTT3                  0048210f     usbdog:Mhwin32c.obj
 0001:0008119a       _TTTTTTT4                  0048219a     usbdog:Mhwin32c.obj
 0001:00081225       _TTTTTTT5                  00482225     usbdog:Mhwin32c.obj
 0001:000812b0       _TTTTTTT6                  004822b0     usbdog:Mhwin32c.obj
 0001:0008133b       _DogCheck                  0048233b     usbdog:Mhwin32c.obj
 0001:000813bb       _BBBBBBB1                  004823bb     usbdog:Mhwin32c.obj
 0001:0008143b       _BBBBBBB2                  0048243b     usbdog:Mhwin32c.obj
 0001:000814bb       _BBBBBBB3                  004824bb     usbdog:Mhwin32c.obj
 0001:0008153b       _BBBBBBB4                  0048253b     usbdog:Mhwin32c.obj
 0001:000815bb       _BBBBBBB5                  004825bb     usbdog:Mhwin32c.obj
 0001:0008163b       _BBBBBBB6                  0048263b     usbdog:Mhwin32c.obj
 0001:000816bb       _SSSSSSg                   004826bb     usbdog:Mhwin32c.obj
 0001:0008174b       _SSSSSS1                   0048274b     usbdog:Mhwin32c.obj
 0001:000817db       _SSSSSS2                   004827db     usbdog:Mhwin32c.obj
 0001:0008186b       _SSSSSS3                   0048286b     usbdog:Mhwin32c.obj
 0001:000818fb       _ReadDog                   004828fb     usbdog:Mhwin32c.obj
 0001:0008198b       _SSSSSS5                   0048298b     usbdog:Mhwin32c.obj
 0001:00081a1b       _SSSSSS6                   00482a1b     usbdog:Mhwin32c.obj
 0001:00081aab       _DDDDDDDDDDDo              00482aab     usbdog:Mhwin32c.obj
 0001:00081b2d       _DDDDDDDDDDD1              00482b2d     usbdog:Mhwin32c.obj
 0001:00081baf       _DDDDDDDDDDD2              00482baf     usbdog:Mhwin32c.obj
 0001:00081c31       _DDDDDDDDDDD3              00482c31     usbdog:Mhwin32c.obj
 0001:00081cb3       _DDDDDDDDDDD4              00482cb3     usbdog:Mhwin32c.obj
 0001:00081d35       _GetCurrentNo              00482d35     usbdog:Mhwin32c.obj
 0001:00081db7       _DDDDDDDDDDD6              00482db7     usbdog:Mhwin32c.obj
 0001:00081ed7       _CCCCCCCCCCCe              00482ed7     usbdog:Mhwin32c.obj
 0001:00081f64       _CCCCCCCCCCC1              00482f64     usbdog:Mhwin32c.obj
 0001:00081ff1       _CCCCCCCCCCC2              00482ff1     usbdog:Mhwin32c.obj
 0001:0008207e       _CCCCCCCCCCC3              0048307e     usbdog:Mhwin32c.obj
 0001:0008210b       _DisableShare              0048310b     usbdog:Mhwin32c.obj
 0001:00082198       _CCCCCCCCCCC5              00483198     usbdog:Mhwin32c.obj
 0001:00082225       _CCCCCCCCCCC6              00483225     usbdog:Mhwin32c.obj
 0001:000822b2       _EEEEEEEEEEEEe             004832b2     usbdog:Mhwin32c.obj
 0001:0008233d       _EEEEEEEEEEEE1             0048333d     usbdog:Mhwin32c.obj
 0001:000823c8       _EEEEEEEEEEEE2             004833c8     usbdog:Mhwin32c.obj
 0001:00082453       _SetDogCascade             00483453     usbdog:Mhwin32c.obj
 0001:000824de       _EEEEEEEEEEEE4             004834de     usbdog:Mhwin32c.obj
 0001:00082569       _EEEEEEEEEEEE5             00483569     usbdog:Mhwin32c.obj
 0001:000825f4       _EEEEEEEEEEEE6             004835f4     usbdog:Mhwin32c.obj
 0001:0008267f       _GetSerialNumber           0048367f     usbdog:Mhwin32c.obj
 0001:00088b60       ??0Des@@QAE@XZ             00489b60 f   svdes:Des.obj
 0001:00088b70       ??1Des@@UAE@XZ             00489b70 f   svdes:Des.obj
 0001:00088b80       ?bitsel@Des@@AAEIPAIPBHH@Z 00489b80 f   svdes:Des.obj
 0001:00088be0       ?des_encipher@Des@@AAEXPAIIIPAUDESContext@@@Z 00489be0 f   svdes:Des.obj
 0001:00089560       ?des_decipher@Des@@AAEXPAIIIPAUDESContext@@@Z 0048a560 f   svdes:Des.obj
 0001:00089ee0       ??_GDes@@UAEPAXI@Z         0048aee0 f i svdes:Des.obj
 0001:00089ee0       ??_EDes@@UAEPAXI@Z         0048aee0 f i svdes:Des.obj
 0001:00089f00       ?des_key_setup@Des@@AAEXIIPAUDESContext@@@Z 0048af00 f   svdes:Des.obj
 0001:0008a080       ?des_cbc_encrypt@Des@@AAEXPAEPBEIPAUDESContext@@@Z 0048b080 f   svdes:Des.obj
 0001:0008a170       ?des_cbc_decrypt@Des@@AAEXPAEPBEIPAUDESContext@@@Z 0048b170 f   svdes:Des.obj
 0001:0008a2a0       ?Encrypt@Des@@QAE_NPBDPAD@Z 0048b2a0 f   svdes:Des.obj
 0001:0008a4e0       ?Decrypt@Des@@QAE_NPBDPAD@Z 0048b4e0 f   svdes:Des.obj
 0001:0008a6f8       ??2@YAPAXI@Z               0048b6f8 f   msvcprt:newop_s.obj
 0001:0008a71d       ??_U@YAPAXI@Z              0048b71d f   msvcprt:newaop_s.obj
 0001:0008a722       ___CxxFrameHandler         0048b722 f   MSVCRT:MSVCR71.dll
 0001:0008a730       ??3@YAXPAX@Z               0048b730 f   MSVCRT:MSVCR71.dll
 0001:0008a736       __purecall                 0048b736 f   MSVCRT:MSVCR71.dll
 0001:0008a73c       ??_V@YAXPAX@Z              0048b73c f   MSVCRT:MSVCR71.dll
 0001:0008a742       ?__ArrayUnwind@@YGXPAXIHP6EX0@Z@Z 0048b742 f   MSVCRT:ehvecdtr.obj
 0001:0008a7a0       ??_M@YGXPAXIHP6EX0@Z@Z     0048b7a0 f   MSVCRT:ehvecdtr.obj
 0001:0008a800       ??0exception@@QAE@ABV0@@Z  0048b800 f   MSVCRT:MSVCR71.dll
 0001:0008a806       ??_Etype_info@@UAEPAXI@Z   0048b806 f i MSVCRT:ti_inst.obj
 0001:0008a852       __CxxThrowException@8      0048b852 f   MSVCRT:MSVCR71.dll
 0001:0008a858       ??0bad_cast@@QAE@ABV0@@Z   0048b858 f   MSVCRT:MSVCR71.dll
 0001:0008a88f       @__security_check_cookie@4 0048b88f f   MSVCRT:secchk.obj
 0001:0008a8a0       __chkstk                   0048b8a0 f   MSVCRT:chkstk.obj
 0001:0008a8a0       __alloca_probe             0048b8a0     MSVCRT:chkstk.obj
 0001:0008a8dd       __onexit                   0048b8dd f   MSVCRT:atonexit.obj
 0001:0008a903       _atexit                    0048b903 f   MSVCRT:atonexit.obj
 0001:0008a915       _mainCRTStartup            0048b915 f   MSVCRT:crtexe.obj
 0001:0008aaae       _malloc                    0048baae f   MSVCRT:MSVCR71.dll
 0001:0008aab4       ___RTDynamicCast           0048bab4 f   MSVCRT:MSVCR71.dll
 0001:0008aaba       __callnewh                 0048baba f   MSVCRT:MSVCR71.dll
 0001:0008aac0       ?terminate@@YAXXZ          0048bac0 f   MSVCRT:MSVCR71.dll
 0001:0008aac8       __SEH_prolog               0048bac8 f   MSVCRT:sehprolg.obj
 0001:0008ab03       __SEH_epilog               0048bb03 f   MSVCRT:sehprolg.obj
 0001:0008ab14       __except_handler3          0048bb14 f   MSVCRT:MSVCR71.dll
 0001:0008ab1a       ??1type_info@@UAE@XZ       0048bb1a f   MSVCRT:MSVCR71.dll
 0001:0008ab20       ___security_init_cookie    0048bb20 f   MSVCRT:seccinit.obj
 0001:0008ab86       ___security_error_handler  0048bb86 f   MSVCRT:MSVCR71.dll
 0001:0008ab8c       ___dllonexit               0048bb8c f   MSVCRT:MSVCR71.dll
 0001:0008ab92       __XcptFilter               0048bb92 f   MSVCRT:MSVCR71.dll
 0001:0008ab98       __amsg_exit                0048bb98 f   MSVCRT:MSVCR71.dll
 0001:0008ab9e       __RTC_Initialize           0048bb9e f   MSVCRT:initsect.obj
 0001:0008abe2       __RTC_Terminate            0048bbe2 f   MSVCRT:initsect.obj
 0001:0008ac26       __initterm                 0048bc26 f   MSVCRT:MSVCR71.dll
 0001:0008ac2c       __setdefaultprecision      0048bc2c f   MSVCRT:fp8.obj
 0001:0008ac3e       __setargv                  0048bc3e f   MSVCRT:dllargv.obj
 0001:0008ac3e       __matherr                  0048bc3e f   MSVCRT:merr.obj
 0001:0008ac42       __controlfp                0048bc42 f   MSVCRT:MSVCR71.dll
 0001:0008ac50       ??1invalid_argument@std@@UAE@XZ 0048bc50 f i libboost_regex-vc71-mt-1_33_1:instances.obj
 0001:0008ac60       ??_Einvalid_argument@std@@UAEPAXI@Z 0048bc60 f i libboost_regex-vc71-mt-1_33_1:instances.obj
 0001:0008ac60       ??_Ginvalid_argument@std@@UAEPAXI@Z 0048bc60 f i libboost_regex-vc71-mt-1_33_1:instances.obj
 0001:0008ac80       ??0runtime_error@std@@QAE@ABV?$basic_string@DU?$char_traits@D@std@@V?$allocator@D@2@@1@@Z 0048bc80 f i libboost_regex-vc71-mt-1_33_1:instances.obj
 0001:0008ace0       ??1runtime_error@std@@UAE@XZ 0048bce0 f i libboost_regex-vc71-mt-1_33_1:instances.obj
 0001:0008ad40       ?what@runtime_error@std@@UBEPBDXZ 0048bd40 f i libboost_regex-vc71-mt-1_33_1:instances.obj
 0001:0008ad40       ?what@logic_error@std@@UBEPBDXZ 0048bd40 f i main.obj
 0001:0008ad50       ??_Gruntime_error@std@@UAEPAXI@Z 0048bd50 f i libboost_regex-vc71-mt-1_33_1:instances.obj
 0001:0008ad50       ??_Eruntime_error@std@@UAEPAXI@Z 0048bd50 f i libboost_regex-vc71-mt-1_33_1:instances.obj
 0001:0008ad70       ?destroy@sp_counted_base@detail@boost@@UAEXXZ 0048bd70 f i libboost_regex-vc71-mt-1_33_1:instances.obj
 0001:0008ad80       ??_Esp_counted_base@detail@boost@@UAEPAXI@Z 0048bd80 f i libboost_regex-vc71-mt-1_33_1:instances.obj
 0001:0008ad80       ??_Gsp_counted_base@detail@boost@@UAEPAXI@Z 0048bd80 f i libboost_regex-vc71-mt-1_33_1:instances.obj
 0001:0008ada0       ??_Gabstract_protected_call@re_detail@boost@@UAEPAXI@Z 0048bda0 f i libboost_regex-vc71-mt-1_33_1:instances.obj
 0001:0008ada0       ??_Eabstract_protected_call@re_detail@boost@@UAEPAXI@Z 0048bda0 f i libboost_regex-vc71-mt-1_33_1:instances.obj
 0001:0008adc0       ?match_wild@?$perl_matcher@Vconst_iterator@?$basic_string@DU?$char_traits@D@std@@V?$allocator@D@2@@std@@V?$allocator@U?$sub_match@Vconst_iterator@?$basic_string@DU?$char_traits@D@std@@V?$allocator@D@2@@std@@@boost@@@3@U?$regex_traits@DV?$w32_regex_traits@D@boost@@@boost@@@re_detail@boost@@AAE_NXZ 0048bdc0 f i libboost_regex-vc71-mt-1_33_1:instances.obj
 0001:0008ae00       ?match_buffer_start@?$perl_matcher@Vconst_iterator@?$basic_string@DU?$char_traits@D@std@@V?$allocator@D@2@@std@@V?$allocator@U?$sub_match@Vconst_iterator@?$basic_string@DU?$char_traits@D@std@@V?$allocator@D@2@@std@@@boost@@@3@U?$regex_traits@DV?$w32_regex_traits@D@boost@@@boost@@@re_detail@boost@@AAE_NXZ 0048be00 f i libboost_regex-vc71-mt-1_33_1:instances.obj
 0001:0008ae20       ?match_buffer_end@?$perl_matcher@Vconst_iterator@?$basic_string@DU?$char_traits@D@std@@V?$allocator@D@2@@std@@V?$allocator@U?$sub_match@Vconst_iterator@?$basic_string@DU?$char_traits@D@std@@V?$allocator@D@2@@std@@@boost@@@3@U?$regex_traits@DV?$w32_regex_traits@D@boost@@@boost@@@re_detail@boost@@AAE_NXZ 0048be20 f i libboost_regex-vc71-mt-1_33_1:instances.obj
 0001:0008ae40       ?match_jump@?$perl_matcher@Vconst_iterator@?$basic_string@DU?$char_traits@D@std@@V?$allocator@D@2@@std@@V?$allocator@U?$sub_match@Vconst_iterator@?$basic_string@DU?$char_traits@D@std@@V?$allocator@D@2@@std@@@boost@@@3@U?$regex_traits@DV?$w32_regex_traits@D@boost@@@boost@@@re_detail@boost@@AAE_NXZ 0048be40 f i libboost_regex-vc71-mt-1_33_1:instances.obj
 0001:0008ae50       ?match_alt@?$perl_matcher@Vconst_iterator@?$basic_string@DU?$char_traits@D@std@@V?$allocator@D@2@@std@@V?$allocator@U?$sub_match@Vconst_iterator@?$basic_string@DU?$char_traits@D@std@@V?$allocator@D@2@@std@@@boost@@@3@U?$regex_traits@DV?$w32_regex_traits@D@boost@@@boost@@@re_detail@boost@@AAE_NXZ 0048be50 f i libboost_regex-vc71-mt-1_33_1:instances.obj
 0001:0008aed0       ?match_restart_continue@?$perl_matcher@Vconst_iterator@?$basic_string@DU?$char_traits@D@std@@V?$allocator@D@2@@std@@V?$allocator@U?$sub_match@Vconst_iterator@?$basic_string@DU?$char_traits@D@std@@V?$allocator@D@2@@std@@@boost@@@3@U?$regex_traits@DV?$w32_regex_traits@D@boost@@@boost@@@re_detail@boost@@AAE_NXZ 0048bed0 f i libboost_regex-vc71-mt-1_33_1:instances.obj
 0001:0008aef0       ?match_toggle_case@?$perl_matcher@Vconst_iterator@?$basic_string@DU?$char_traits@D@std@@V?$allocator@D@2@@std@@V?$allocator@U?$sub_match@Vconst_iterator@?$basic_string@DU?$char_traits@D@std@@V?$allocator@D@2@@std@@@boost@@@3@U?$regex_traits@DV?$w32_regex_traits@D@boost@@@boost@@@re_detail@boost@@AAE_NXZ 0048bef0 f i libboost_regex-vc71-mt-1_33_1:instances.obj
 0001:0008af10       ?find_restart_lit@?$perl_matcher@Vconst_iterator@?$basic_string@DU?$char_traits@D@std@@V?$allocator@D@2@@std@@V?$allocator@U?$sub_match@Vconst_iterator@?$basic_string@DU?$char_traits@D@std@@V?$allocator@D@2@@std@@@boost@@@3@U?$regex_traits@DV?$w32_regex_traits@D@boost@@@boost@@@re_detail@boost@@AAE_NXZ 0048bf10 f i libboost_regex-vc71-mt-1_33_1:instances.obj
 0001:0008af20       ??0runtime_error@std@@QAE@ABV01@@Z 0048bf20 f i libboost_regex-vc71-mt-1_33_1:instances.obj
 0001:0008af80       ??1?$concrete_protected_call@V?$perl_matcher@Vconst_iterator@?$basic_string@DU?$char_traits@D@std@@V?$allocator@D@2@@std@@V?$allocator@U?$sub_match@Vconst_iterator@?$basic_string@DU?$char_traits@D@std@@V?$allocator@D@2@@std@@@boost@@@3@U?$regex_traits@DV?$w32_regex_traits@D@boost@@@boost@@@re_detail@boost@@@re_detail@boost@@UAE@XZ 0048bf80 f i libboost_regex-vc71-mt-1_33_1:instances.obj
 0001:0008af90       ?isctype@?$w32_regex_traits@D@boost@@QBE_NDK@Z 0048bf90 f i libboost_regex-vc71-mt-1_33_1:instances.obj
 0001:0008afd0       ??0?$repeater_count@Vconst_iterator@?$basic_string@DU?$char_traits@D@std@@V?$allocator@D@2@@std@@@re_detail@boost@@QAE@HPAPAV012@Vconst_iterator@?$basic_string@DU?$char_traits@D@std@@V?$allocator@D@2@@std@@@Z 0048bfd0 f i libboost_regex-vc71-mt-1_33_1:instances.obj
 0001:0008b020       ??0invalid_argument@std@@QAE@ABV01@@Z 0048c020 f i libboost_regex-vc71-mt-1_33_1:instances.obj
 0001:0008b040       ?transform@?$w32_regex_traits@D@boost@@QBE?AV?$basic_string@DU?$char_traits@D@std@@V?$allocator@D@2@@std@@PBD0@Z 0048c040 f i libboost_regex-vc71-mt-1_33_1:instances.obj
 0001:0008b070       ?flags@?$basic_regex_creator@DU?$regex_traits@DV?$w32_regex_traits@D@boost@@@boost@@@re_detail@boost@@QAEXI@Z 0048c070 f i libboost_regex-vc71-mt-1_33_1:instances.obj
 0001:0008b090       ?transform@?$w32_regex_traits_implementation@D@re_detail@boost@@QBE?AV?$basic_string@DU?$char_traits@D@std@@V?$allocator@D@2@@std@@PBD0@Z 0048c090 f i libboost_regex-vc71-mt-1_33_1:instances.obj
 0001:0008b0c0       ?get_deleter@?$sp_counted_impl_p@V?$w32_regex_traits_implementation@D@re_detail@boost@@@detail@boost@@UAEPAXABVtype_info@@@Z 0048c0c0 f i libboost_regex-vc71-mt-1_33_1:instances.obj
 0001:0008b0c0       ?get_deleter@?$sp_counted_impl_p@V?$basic_regex_implementation@DU?$regex_traits@DV?$w32_regex_traits@D@boost@@@boost@@@re_detail@boost@@@detail@boost@@UAEPAXABVtype_info@@@Z 0048c0c0 f i libboost_regex-vc71-mt-1_33_1:instances.obj
 0001:0008b0c0       ?get_deleter@?$sp_counted_impl_p@U?$regex_traits_wrapper@U?$regex_traits@DV?$w32_regex_traits@D@boost@@@boost@@@boost@@@detail@boost@@UAEPAXABVtype_info@@@Z 0048c0c0 f i libboost_regex-vc71-mt-1_33_1:instances.obj
 0001:0008b0d0       ?fixup_pointers@?$basic_regex_creator@DU?$regex_traits@DV?$w32_regex_traits@D@boost@@@boost@@@re_detail@boost@@AAEXPAUre_syntax_base@23@@Z 0048c0d0 f i libboost_regex-vc71-mt-1_33_1:instances.obj
 0001:0008b160       ?get_restart_type@?$basic_regex_creator@DU?$regex_traits@DV?$w32_regex_traits@D@boost@@@boost@@@re_detail@boost@@AAEIPAUre_syntax_base@23@@Z 0048c160 f i libboost_regex-vc71-mt-1_33_1:instances.obj
 0001:0008b1e0       ?probe_leading_repeat@?$basic_regex_creator@DU?$regex_traits@DV?$w32_regex_traits@D@boost@@@boost@@@re_detail@boost@@AAEXPAUre_syntax_base@23@@Z 0048c1e0 f i libboost_regex-vc71-mt-1_33_1:instances.obj
 0001:0008b250       ??$throw_exception@Vruntime_error@std@@@boost@@YAXABVruntime_error@std@@@Z 0048c250 f i libboost_regex-vc71-mt-1_33_1:instances.obj
 0001:0008b280       ?_Xlen@?$vector@U?$digraph@D@re_detail@boost@@V?$allocator@U?$digraph@D@re_detail@boost@@@std@@@std@@IBEXXZ 0048c280 f i libboost_regex-vc71-mt-1_33_1:instances.obj
 0001:0008b280       ?_Xlen@?$vector@JV?$allocator@J@std@@@std@@IBEXXZ 0048c280 f i libboost_regex-vc71-mt-1_33_1:instances.obj
 0001:0008b280       ?_Xlen@?$vector@U?$pair@_NPAUre_syntax_base@re_detail@boost@@@std@@V?$allocator@U?$pair@_NPAUre_syntax_base@re_detail@boost@@@std@@@2@@std@@IBEXXZ 0048c280 f i libboost_regex-vc71-mt-1_33_1:instances.obj
 0001:0008b300       ?_Max@?$_Tree@V?$_Tmap_traits@HPAVWLineEdit@@U?$less@H@std@@V?$allocator@U?$pair@$$CBHPAVWLineEdit@@@std@@@3@$0A@@std@@@std@@KAPAU_Node@?$_Tree_nod@V?$_Tmap_traits@HPAVWLineEdit@@U?$less@H@std@@V?$allocator@U?$pair@$$CBHPAVWLineEdit@@@std@@@3@$0A@@std@@@2@PAU342@@Z 0048c300 f i sortlist.obj
 0001:0008b300       ?_Max@?$_Tree@V?$_Tmap_traits@PAVWObject@@PAVWWidget@@U?$less@PAVWObject@@@std@@V?$allocator@U?$pair@QAVWObject@@PAVWWidget@@@std@@@4@$0A@@std@@@std@@KAPAU_Node@?$_Tree_nod@V?$_Tmap_traits@PAVWObject@@PAVWWidget@@U?$less@PAVWObject@@@std@@V?$allocator@U?$pair@QAVWObject@@PAVWWidget@@@std@@@4@$0A@@std@@@2@PAU342@@Z 0048c300 f i libwt:WSignalMapper.obj
 0001:0008b300       ?_Max@?$_Tree@V?$_Tmap_traits@HPAVCEccButton@@U?$less@H@std@@V?$allocator@U?$pair@$$CBHPAVCEccButton@@@std@@@3@$0A@@std@@@std@@KAPAU_Node@?$_Tree_nod@V?$_Tmap_traits@HPAVCEccButton@@U?$less@H@std@@V?$allocator@U?$pair@$$CBHPAVCEccButton@@@std@@@3@$0A@@std@@@2@PAU342@@Z 0048c300 f i listtable.obj
 0001:0008b300       ?_Max@?$_Tree@V?$_Tmap_traits@PAVWObject@@HU?$less@PAVWObject@@@std@@V?$allocator@U?$pair@QAVWObject@@H@std@@@3@$0A@@std@@@std@@KAPAU_Node@?$_Tree_nod@V?$_Tmap_traits@PAVWObject@@HU?$less@PAVWObject@@@std@@V?$allocator@U?$pair@QAVWObject@@H@std@@@3@$0A@@std@@@2@PAU342@@Z 0048c300 f i libwt:WSignalMapper.obj
 0001:0008b300       ?_Max@?$_Tree@V?$_Tmap_traits@KViterator@?$list@U?$pair@V?$shared_ptr@V?$w32_regex_traits_implementation@D@re_detail@boost@@@boost@@PBK@std@@V?$allocator@U?$pair@V?$shared_ptr@V?$w32_regex_traits_implementation@D@re_detail@boost@@@boost@@PBK@std@@@2@@std@@U?$less@K@3@V?$allocator@U?$pair@$$CBKViterator@?$list@U?$pair@V?$shared_ptr@V?$w32_regex_traits_implementation@D@re_detail@boost@@@boost@@PBK@std@@V?$allocator@U?$pair@V?$shared_ptr@V?$w32_regex_traits_implementation@D@re_detail@boost@@@boost@@PBK@std@@@2@@std@@@std@@@3@$0A@@std@@@std@@KAPAU_Node@?$_Tree_nod@V?$_Tmap_traits@KViterator@?$list@U?$pair@V?$shared_ptr@V?$w32_regex_traits_implementation@D@re_detail@boost@@@boost@@PBK@std@@V?$allocator@U?$pair@V?$shared_ptr@V?$w32_regex_traits_implementation@D@re_detail@boost@@@boost@@PBK@std@@@2@@std@@U?$less@K@3@V?$allocator@U?$pair@$$CBKViterator@?$list@U?$pair@V?$shared_ptr@V?$w32_regex_traits_implementation@D@re_detail@boost@@@boost@@PBK@std@@V?$allocator@U?$pair@V?$shared_ptr@V?$w32_regex_traits_implementation@D@re_detail@boost@@@boost@@PBK@std@@@2@@std@@@std@@@3@$0A@@std@@@2@PAU342@@Z 0048c300 f i libboost_regex-vc71-mt-1_33_1:instances.obj
 0001:0008b320       ?_Min@?$_Tree@V?$_Tmap_traits@HPAVWLineEdit@@U?$less@H@std@@V?$allocator@U?$pair@$$CBHPAVWLineEdit@@@std@@@3@$0A@@std@@@std@@KAPAU_Node@?$_Tree_nod@V?$_Tmap_traits@HPAVWLineEdit@@U?$less@H@std@@V?$allocator@U?$pair@$$CBHPAVWLineEdit@@@std@@@3@$0A@@std@@@2@PAU342@@Z 0048c320 f i sortlist.obj
 0001:0008b320       ?_Min@?$_Tree@V?$_Tmap_traits@HPAVCEccButton@@U?$less@H@std@@V?$allocator@U?$pair@$$CBHPAVCEccButton@@@std@@@3@$0A@@std@@@std@@KAPAU_Node@?$_Tree_nod@V?$_Tmap_traits@HPAVCEccButton@@U?$less@H@std@@V?$allocator@U?$pair@$$CBHPAVCEccButton@@@std@@@3@$0A@@std@@@2@PAU342@@Z 0048c320 f i listtable.obj
 0001:0008b320       ?_Min@?$_Tree@V?$_Tmap_traits@PAVWObject@@PAVWWidget@@U?$less@PAVWObject@@@std@@V?$allocator@U?$pair@QAVWObject@@PAVWWidget@@@std@@@4@$0A@@std@@@std@@KAPAU_Node@?$_Tree_nod@V?$_Tmap_traits@PAVWObject@@PAVWWidget@@U?$less@PAVWObject@@@std@@V?$allocator@U?$pair@QAVWObject@@PAVWWidget@@@std@@@4@$0A@@std@@@2@PAU342@@Z 0048c320 f i libwt:WSignalMapper.obj
 0001:0008b320       ?_Min@?$_Tree@V?$_Tmap_traits@KViterator@?$list@U?$pair@V?$shared_ptr@V?$w32_regex_traits_implementation@D@re_detail@boost@@@boost@@PBK@std@@V?$allocator@U?$pair@V?$shared_ptr@V?$w32_regex_traits_implementation@D@re_detail@boost@@@boost@@PBK@std@@@2@@std@@U?$less@K@3@V?$allocator@U?$pair@$$CBKViterator@?$list@U?$pair@V?$shared_ptr@V?$w32_regex_traits_implementation@D@re_detail@boost@@@boost@@PBK@std@@V?$allocator@U?$pair@V?$shared_ptr@V?$w32_regex_traits_implementation@D@re_detail@boost@@@boost@@PBK@std@@@2@@std@@@std@@@3@$0A@@std@@@std@@KAPAU_Node@?$_Tree_nod@V?$_Tmap_traits@KViterator@?$list@U?$pair@V?$shared_ptr@V?$w32_regex_traits_implementation@D@re_detail@boost@@@boost@@PBK@std@@V?$allocator@U?$pair@V?$shared_ptr@V?$w32_regex_traits_implementation@D@re_detail@boost@@@boost@@PBK@std@@@2@@std@@U?$less@K@3@V?$allocator@U?$pair@$$CBKViterator@?$list@U?$pair@V?$shared_ptr@V?$w32_regex_traits_implementation@D@re_detail@boost@@@boost@@PBK@std@@V?$allocator@U?$pair@V?$shared_ptr@V?$w32_regex_traits_implementation@D@re_detail@boost@@@boost@@PBK@std@@@2@@std@@@std@@@3@$0A@@std@@@2@PAU342@@Z 0048c320 f i libboost_regex-vc71-mt-1_33_1:instances.obj
 0001:0008b320       ?_Min@?$_Tree@V?$_Tmap_traits@PAVWObject@@HU?$less@PAVWObject@@@std@@V?$allocator@U?$pair@QAVWObject@@H@std@@@3@$0A@@std@@@std@@KAPAU_Node@?$_Tree_nod@V?$_Tmap_traits@PAVWObject@@HU?$less@PAVWObject@@@std@@V?$allocator@U?$pair@QAVWObject@@H@std@@@3@$0A@@std@@@2@PAU342@@Z 0048c320 f i libwt:WSignalMapper.obj
 0001:0008b340       ?set_all_masks@?$basic_regex_creator@DU?$regex_traits@DV?$w32_regex_traits@D@boost@@@boost@@@re_detail@boost@@AAEXPAEE@Z 0048c340 f i libboost_regex-vc71-mt-1_33_1:instances.obj
 0001:0008b3a0       ?is_bad_repeat@?$basic_regex_creator@DU?$regex_traits@DV?$w32_regex_traits@D@boost@@@boost@@@re_detail@boost@@AAE_NPAUre_syntax_base@23@@Z 0048c3a0 f i libboost_regex-vc71-mt-1_33_1:instances.obj
 0001:0008b3f0       ?set_bad_repeat@?$basic_regex_creator@DU?$regex_traits@DV?$w32_regex_traits@D@boost@@@boost@@@re_detail@boost@@AAEXPAUre_syntax_base@23@@Z 0048c3f0 f i libboost_regex-vc71-mt-1_33_1:instances.obj
 0001:0008b430       ?get_repeat_type@?$basic_regex_creator@DU?$regex_traits@DV?$w32_regex_traits@D@boost@@@boost@@@re_detail@boost@@AAE?AW4syntax_element_type@23@PAUre_syntax_base@23@@Z 0048c430 f i libboost_regex-vc71-mt-1_33_1:instances.obj
 0001:0008b4b0       ?_Rrotate@?$_Tree@V?$_Tmap_traits@PAVWObject@@V?$basic_string@DU?$char_traits@D@std@@V?$allocator@D@2@@std@@U?$less@PAVWObject@@@3@V?$allocator@U?$pair@QAVWObject@@V?$basic_string@DU?$char_traits@D@std@@V?$allocator@D@2@@std@@@std@@@3@$0A@@std@@@std@@IAEXPAU_Node@?$_Tree_nod@V?$_Tmap_traits@PAVWObject@@V?$basic_string@DU?$char_traits@D@std@@V?$allocator@D@2@@std@@U?$less@PAVWObject@@@3@V?$allocator@U?$pair@QAVWObject@@V?$basic_string@DU?$char_traits@D@std@@V?$allocator@D@2@@std@@@std@@@3@$0A@@std@@@2@@Z 0048c4b0 f i libwt:WSignalMapper.obj
 0001:0008b4b0       ?_Rrotate@?$_Tree@V?$_Tmap_traits@V?$basic_string@DU?$char_traits@D@std@@V?$allocator@D@2@@std@@PAVWSlotInstance_@@U?$less@V?$basic_string@DU?$char_traits@D@std@@V?$allocator@D@2@@std@@@2@V?$allocator@U?$pair@$$CBV?$basic_string@DU?$char_traits@D@std@@V?$allocator@D@2@@std@@PAVWSlotInstance_@@@std@@@2@$0A@@std@@@std@@IAEXPAU_Node@?$_Tree_nod@V?$_Tmap_traits@V?$basic_string@DU?$char_traits@D@std@@V?$allocator@D@2@@std@@PAVWSlotInstance_@@U?$less@V?$basic_string@DU?$char_traits@D@std@@V?$allocator@D@2@@std@@@2@V?$allocator@U?$pair@$$CBV?$basic_string@DU?$char_traits@D@std@@V?$allocator@D@2@@std@@PAVWSlotInstance_@@@std@@@2@$0A@@std@@@2@@Z 0048c4b0 f i libwt:WWebWidget.obj
 0001:0008b4b0       ?_Rrotate@?$_Tree@V?$_Tmap_traits@HV?$basic_string@DU?$char_traits@D@std@@V?$allocator@D@2@@std@@U?$less@H@2@V?$allocator@U?$pair@$$CBHV?$basic_string@DU?$char_traits@D@std@@V?$allocator@D@2@@std@@@std@@@2@$0A@@std@@@std@@IAEXPAU_Node@?$_Tree_nod@V?$_Tmap_traits@HV?$basic_string@DU?$char_traits@D@std@@V?$allocator@D@2@@std@@U?$less@H@2@V?$allocator@U?$pair@$$CBHV?$basic_string@DU?$char_traits@D@std@@V?$allocator@D@2@@std@@@std@@@2@$0A@@std@@@2@@Z 0048c4b0 f i sortlist.obj
 0001:0008b4b0       ?_Rrotate@?$_Tree@V?$_Tmap_traits@V?$basic_string@DU?$char_traits@D@std@@V?$allocator@D@2@@std@@KU?$less@V?$basic_string@DU?$char_traits@D@std@@V?$allocator@D@2@@std@@@2@V?$allocator@U?$pair@$$CBV?$basic_string@DU?$char_traits@D@std@@V?$allocator@D@2@@std@@K@std@@@2@$0A@@std@@@std@@IAEXPAU_Node@?$_Tree_nod@V?$_Tmap_traits@V?$basic_string@DU?$char_traits@D@std@@V?$allocator@D@2@@std@@KU?$less@V?$basic_string@DU?$char_traits@D@std@@V?$allocator@D@2@@std@@@2@V?$allocator@U?$pair@$$CBV?$basic_string@DU?$char_traits@D@std@@V?$allocator@D@2@@std@@K@std@@@2@$0A@@std@@@2@@Z 0048c4b0 f i libboost_regex-vc71-mt-1_33_1:instances.obj
 0001:0008b4b0       ?_Rrotate@?$_Tree@V?$_Tmap_traits@PAVWLineEdit@@V?$basic_string@DU?$char_traits@D@std@@V?$allocator@D@2@@std@@U?$less@PAVWLineEdit@@@3@V?$allocator@U?$pair@QAVWLineEdit@@V?$basic_string@DU?$char_traits@D@std@@V?$allocator@D@2@@std@@@std@@@3@$0A@@std@@@std@@IAEXPAU_Node@?$_Tree_nod@V?$_Tmap_traits@PAVWLineEdit@@V?$basic_string@DU?$char_traits@D@std@@V?$allocator@D@2@@std@@U?$less@PAVWLineEdit@@@3@V?$allocator@U?$pair@QAVWLineEdit@@V?$basic_string@DU?$char_traits@D@std@@V?$allocator@D@2@@std@@@std@@@3@$0A@@std@@@2@@Z 0048c4b0 f i sortlist.obj
 0001:0008b4b0       ?_Rrotate@?$_Tree@V?$_Tmap_traits@V?$basic_string@DU?$char_traits@D@std@@V?$allocator@D@2@@std@@PAVWCheckBox@@U?$less@V?$basic_string@DU?$char_traits@D@std@@V?$allocator@D@2@@std@@@2@V?$allocator@U?$pair@$$CBV?$basic_string@DU?$char_traits@D@std@@V?$allocator@D@2@@std@@PAVWCheckBox@@@std@@@2@$0A@@std@@@std@@IAEXPAU_Node@?$_Tree_nod@V?$_Tmap_traits@V?$basic_string@DU?$char_traits@D@std@@V?$allocator@D@2@@std@@PAVWCheckBox@@U?$less@V?$basic_string@DU?$char_traits@D@std@@V?$allocator@D@2@@std@@@2@V?$allocator@U?$pair@$$CBV?$basic_string@DU?$char_traits@D@std@@V?$allocator@D@2@@std@@PAVWCheckBox@@@std@@@2@$0A@@std@@@2@@Z 0048c4b0 f i listtable.obj
 0001:0008b4b0       ?_Rrotate@?$_Tree@V?$_Tmap_traits@V?$basic_string@DU?$char_traits@D@std@@V?$allocator@D@2@@std@@PAVWSignalInstance_@@U?$less@V?$basic_string@DU?$char_traits@D@std@@V?$allocator@D@2@@std@@@2@V?$allocator@U?$pair@$$CBV?$basic_string@DU?$char_traits@D@std@@V?$allocator@D@2@@std@@PAVWSignalInstance_@@@std@@@2@$0A@@std@@@std@@IAEXPAU_Node@?$_Tree_nod@V?$_Tmap_traits@V?$basic_string@DU?$char_traits@D@std@@V?$allocator@D@2@@std@@PAVWSignalInstance_@@U?$less@V?$basic_string@DU?$char_traits@D@std@@V?$allocator@D@2@@std@@@2@V?$allocator@U?$pair@$$CBV?$basic_string@DU?$char_traits@D@std@@V?$allocator@D@2@@std@@PAVWSignalInstance_@@@std@@@2@$0A@@std@@@2@@Z 0048c4b0 f i mainviewwt.obj
 0001:0008b4b0       ?_Rrotate@?$_Tree@V?$_Tmap_traits@V?$basic_string@DU?$char_traits@D@std@@V?$allocator@D@2@@std@@PAVWCssRule@@U?$less@V?$basic_string@DU?$char_traits@D@std@@V?$allocator@D@2@@std@@@2@V?$allocator@U?$pair@$$CBV?$basic_string@DU?$char_traits@D@std@@V?$allocator@D@2@@std@@PAVWCssRule@@@std@@@2@$0A@@std@@@std@@IAEXPAU_Node@?$_Tree_nod@V?$_Tmap_traits@V?$basic_string@DU?$char_traits@D@std@@V?$allocator@D@2@@std@@PAVWCssRule@@U?$less@V?$basic_string@DU?$char_traits@D@std@@V?$allocator@D@2@@std@@@2@V?$allocator@U?$pair@$$CBV?$basic_string@DU?$char_traits@D@std@@V?$allocator@D@2@@std@@PAVWCssRule@@@std@@@2@$0A@@std@@@2@@Z 0048c4b0 f i main.obj
 0001:0008b4b0       ?_Rrotate@?$_Tree@V?$_Tmap_traits@V?$basic_string@DU?$char_traits@D@std@@V?$allocator@D@2@@std@@PAUScopeFunc@@U?$less@V?$basic_string@DU?$char_traits@D@std@@V?$allocator@D@2@@std@@@2@V?$allocator@U?$pair@$$CBV?$basic_string@DU?$char_traits@D@std@@V?$allocator@D@2@@std@@PAUScopeFunc@@@std@@@2@$0A@@std@@@std@@IAEXPAU_Node@?$_Tree_nod@V?$_Tmap_traits@V?$basic_string@DU?$char_traits@D@std@@V?$allocator@D@2@@std@@PAUScopeFunc@@U?$less@V?$basic_string@DU?$char_traits@D@std@@V?$allocator@D@2@@std@@@2@V?$allocator@U?$pair@$$CBV?$basic_string@DU?$char_traits@D@std@@V?$allocator@D@2@@std@@PAUScopeFunc@@@std@@@2@$0A@@std@@@2@@Z 0048c4b0 f i User.obj
 0001:0008b4b0       ?_Rrotate@?$_Tree@V?$_Tmap_traits@W4Property@Wt@@V?$basic_string@DU?$char_traits@D@std@@V?$allocator@D@2@@std@@U?$less@W4Property@Wt@@@4@V?$allocator@U?$pair@$$CBW4Property@Wt@@V?$basic_string@DU?$char_traits@D@std@@V?$allocator@D@2@@std@@@std@@@4@$0A@@std@@@std@@IAEXPAU_Node@?$_Tree_nod@V?$_Tmap_traits@W4Property@Wt@@V?$basic_string@DU?$char_traits@D@std@@V?$allocator@D@2@@std@@U?$less@W4Property@Wt@@@4@V?$allocator@U?$pair@$$CBW4Property@Wt@@V?$basic_string@DU?$char_traits@D@std@@V?$allocator@D@2@@std@@@std@@@4@$0A@@std@@@2@@Z 0048c4b0 f i libwt:WWebWidget.obj
 0001:0008b4b0       ?_Rrotate@?$_Tree@V?$_Tmap_traits@V?$basic_string@DU?$char_traits@D@std@@V?$allocator@D@2@@std@@_NU?$less@V?$basic_string@DU?$char_traits@D@std@@V?$allocator@D@2@@std@@@2@V?$allocator@U?$pair@$$CBV?$basic_string@DU?$char_traits@D@std@@V?$allocator@D@2@@std@@_N@std@@@2@$0A@@std@@@std@@IAEXPAU_Node@?$_Tree_nod@V?$_Tmap_traits@V?$basic_string@DU?$char_traits@D@std@@V?$allocator@D@2@@std@@_NU?$less@V?$basic_string@DU?$char_traits@D@std@@V?$allocator@D@2@@std@@@2@V?$allocator@U?$pair@$$CBV?$basic_string@DU?$char_traits@D@std@@V?$allocator@D@2@@std@@_N@std@@@2@$0A@@std@@@2@@Z 0048c4b0 f i User.obj
 0001:0008b510       ??$lexicographical_compare@PBDPBD@std@@YA_NPBD000@Z 0048c510 f i libboost_regex-vc71-mt-1_33_1:instances.obj
 0001:0008b560       ??$fill@PAU?$digraph@D@re_detail@boost@@U123@@std@@YAXPAU?$digraph@D@re_detail@boost@@0ABU123@@Z 0048c560 f i libboost_regex-vc71-mt-1_33_1:instances.obj
 0001:0008b580       ??$count_chars@V?$basic_string@DU?$char_traits@D@std@@V?$allocator@D@2@@std@@D@re_detail@boost@@YAIABV?$basic_string@DU?$char_traits@D@std@@V?$allocator@D@2@@std@@D@Z 0048c580 f i libboost_regex-vc71-mt-1_33_1:instances.obj
 0001:0008b5c0       ??4shared_count@detail@boost@@QAEAAV012@ABV012@@Z 0048c5c0 f i libboost_regex-vc71-mt-1_33_1:instances.obj
 0001:0008b620       ?match_literal@?$perl_matcher@Vconst_iterator@?$basic_string@DU?$char_traits@D@std@@V?$allocator@D@2@@std@@V?$allocator@U?$sub_match@Vconst_iterator@?$basic_string@DU?$char_traits@D@std@@V?$allocator@D@2@@std@@@boost@@@3@U?$regex_traits@DV?$w32_regex_traits@D@boost@@@boost@@@re_detail@boost@@AAE_NXZ 0048c620 f i libboost_regex-vc71-mt-1_33_1:instances.obj
 0001:0008b680       ?match_start_line@?$perl_matcher@Vconst_iterator@?$basic_string@DU?$char_traits@D@std@@V?$allocator@D@2@@std@@V?$allocator@U?$sub_match@Vconst_iterator@?$basic_string@DU?$char_traits@D@std@@V?$allocator@D@2@@std@@@boost@@@3@U?$regex_traits@DV?$w32_regex_traits@D@boost@@@boost@@@re_detail@boost@@AAE_NXZ 0048c680 f i libboost_regex-vc71-mt-1_33_1:instances.obj
 0001:0008b6e0       ?match_end_line@?$perl_matcher@Vconst_iterator@?$basic_string@DU?$char_traits@D@std@@V?$allocator@D@2@@std@@V?$allocator@U?$sub_match@Vconst_iterator@?$basic_string@DU?$char_traits@D@std@@V?$allocator@D@2@@std@@@boost@@@3@U?$regex_traits@DV?$w32_regex_traits@D@boost@@@boost@@@re_detail@boost@@AAE_NXZ 0048c6e0 f i libboost_regex-vc71-mt-1_33_1:instances.obj
 0001:0008b730       ?match_word_boundary@?$perl_matcher@Vconst_iterator@?$basic_string@DU?$char_traits@D@std@@V?$allocator@D@2@@std@@V?$allocator@U?$sub_match@Vconst_iterator@?$basic_string@DU?$char_traits@D@std@@V?$allocator@D@2@@std@@@boost@@@3@U?$regex_traits@DV?$w32_regex_traits@D@boost@@@boost@@@re_detail@boost@@AAE_NXZ 0048c730 f i libboost_regex-vc71-mt-1_33_1:instances.obj
 0001:0008b800       ?match_within_word@?$perl_matcher@Vconst_iterator@?$basic_string@DU?$char_traits@D@std@@V?$allocator@D@2@@std@@V?$allocator@U?$sub_match@Vconst_iterator@?$basic_string@DU?$char_traits@D@std@@V?$allocator@D@2@@std@@@boost@@@3@U?$regex_traits@DV?$w32_regex_traits@D@boost@@@boost@@@re_detail@boost@@AAE_NXZ 0048c800 f i libboost_regex-vc71-mt-1_33_1:instances.obj
 0001:0008b880       ?match_word_start@?$perl_matcher@Vconst_iterator@?$basic_string@DU?$char_traits@D@std@@V?$allocator@D@2@@std@@V?$allocator@U?$sub_match@Vconst_iterator@?$basic_string@DU?$char_traits@D@std@@V?$allocator@D@2@@std@@@boost@@@3@U?$regex_traits@DV?$w32_regex_traits@D@boost@@@boost@@@re_detail@boost@@AAE_NXZ 0048c880 f i libboost_regex-vc71-mt-1_33_1:instances.obj
 0001:0008b900       ?match_word_end@?$perl_matcher@Vconst_iterator@?$basic_string@DU?$char_traits@D@std@@V?$allocator@D@2@@std@@V?$allocator@U?$sub_match@Vconst_iterator@?$basic_string@DU?$char_traits@D@std@@V?$allocator@D@2@@std@@@boost@@@3@U?$regex_traits@DV?$w32_regex_traits@D@boost@@@boost@@@re_detail@boost@@AAE_NXZ 0048c900 f i libboost_regex-vc71-mt-1_33_1:instances.obj
 0001:0008b980       ?match_set@?$perl_matcher@Vconst_iterator@?$basic_string@DU?$char_traits@D@std@@V?$allocator@D@2@@std@@V?$allocator@U?$sub_match@Vconst_iterator@?$basic_string@DU?$char_traits@D@std@@V?$allocator@D@2@@std@@@boost@@@3@U?$regex_traits@DV?$w32_regex_traits@D@boost@@@boost@@@re_detail@boost@@AAE_NXZ 0048c980 f i libboost_regex-vc71-mt-1_33_1:instances.obj
 0001:0008b9c0       ?match_rep@?$perl_matcher@Vconst_iterator@?$basic_string@DU?$char_traits@D@std@@V?$allocator@D@2@@std@@V?$allocator@U?$sub_match@Vconst_iterator@?$basic_string@DU?$char_traits@D@std@@V?$allocator@D@2@@std@@@boost@@@3@U?$regex_traits@DV?$w32_regex_traits@D@boost@@@boost@@@re_detail@boost@@AAE_NXZ 0048c9c0 f i libboost_regex-vc71-mt-1_33_1:instances.obj
 0001:0008bba0       ?match_combining@?$perl_matcher@Vconst_iterator@?$basic_string@DU?$char_traits@D@std@@V?$allocator@D@2@@std@@V?$allocator@U?$sub_match@Vconst_iterator@?$basic_string@DU?$char_traits@D@std@@V?$allocator@D@2@@std@@@boost@@@3@U?$regex_traits@DV?$w32_regex_traits@D@boost@@@boost@@@re_detail@boost@@AAE_NXZ 0048cba0 f i libboost_regex-vc71-mt-1_33_1:instances.obj
 0001:0008bbc0       ?match_soft_buffer_end@?$perl_matcher@Vconst_iterator@?$basic_string@DU?$char_traits@D@std@@V?$allocator@D@2@@std@@V?$allocator@U?$sub_match@Vconst_iterator@?$basic_string@DU?$char_traits@D@std@@V?$allocator@D@2@@std@@@boost@@@3@U?$regex_traits@DV?$w32_regex_traits@D@boost@@@boost@@@re_detail@boost@@AAE_NXZ 0048cbc0 f i libboost_regex-vc71-mt-1_33_1:instances.obj
 0001:0008bc20       ?backtrack_till_match@?$perl_matcher@Vconst_iterator@?$basic_string@DU?$char_traits@D@std@@V?$allocator@D@2@@std@@V?$allocator@U?$sub_match@Vconst_iterator@?$basic_string@DU?$char_traits@D@std@@V?$allocator@D@2@@std@@@boost@@@3@U?$regex_traits@DV?$w32_regex_traits@D@boost@@@boost@@@re_detail@boost@@AAE_NI@Z 0048cc20 f i libboost_regex-vc71-mt-1_33_1:instances.obj
 0001:0008bce0       ??$fill@PAU?$sub_match@Vconst_iterator@?$basic_string@DU?$char_traits@D@std@@V?$allocator@D@2@@std@@@boost@@U12@@std@@YAXPAU?$sub_match@Vconst_iterator@?$basic_string@DU?$char_traits@D@std@@V?$allocator@D@2@@std@@@boost@@0ABU12@@Z 0048cce0 f i libboost_regex-vc71-mt-1_33_1:instances.obj
 0001:0008bd10       ??$copy_backward@PAU?$sub_match@Vconst_iterator@?$basic_string@DU?$char_traits@D@std@@V?$allocator@D@2@@std@@@boost@@PAU12@@std@@YAPAU?$sub_match@Vconst_iterator@?$basic_string@DU?$char_traits@D@std@@V?$allocator@D@2@@std@@@boost@@PAU12@00@Z 0048cd10 f i libboost_regex-vc71-mt-1_33_1:instances.obj
 0001:0008bd50       ??_G?$concrete_protected_call@V?$perl_matcher@Vconst_iterator@?$basic_string@DU?$char_traits@D@std@@V?$allocator@D@2@@std@@V?$allocator@U?$sub_match@Vconst_iterator@?$basic_string@DU?$char_traits@D@std@@V?$allocator@D@2@@std@@@boost@@@3@U?$regex_traits@DV?$w32_regex_traits@D@boost@@@boost@@@re_detail@boost@@@re_detail@boost@@UAEPAXI@Z 0048cd50 f i libboost_regex-vc71-mt-1_33_1:instances.obj
 0001:0008bd50       ??_E?$concrete_protected_call@V?$perl_matcher@Vconst_iterator@?$basic_string@DU?$char_traits@D@std@@V?$allocator@D@2@@std@@V?$allocator@U?$sub_match@Vconst_iterator@?$basic_string@DU?$char_traits@D@std@@V?$allocator@D@2@@std@@@boost@@@3@U?$regex_traits@DV?$w32_regex_traits@D@boost@@@boost@@@re_detail@boost@@@re_detail@boost@@UAEPAXI@Z 0048cd50 f i libboost_regex-vc71-mt-1_33_1:instances.obj
 0001:0008bd70       ?call@?$concrete_protected_call@V?$perl_matcher@Vconst_iterator@?$basic_string@DU?$char_traits@D@std@@V?$allocator@D@2@@std@@V?$allocator@U?$sub_match@Vconst_iterator@?$basic_string@DU?$char_traits@D@std@@V?$allocator@D@2@@std@@@boost@@@3@U?$regex_traits@DV?$w32_regex_traits@D@boost@@@boost@@@re_detail@boost@@@re_detail@boost@@EBE_NXZ 0048cd70 f i libboost_regex-vc71-mt-1_33_1:instances.obj
 0001:0008bd80       ??1?$basic_regex@DU?$regex_traits@DV?$w32_regex_traits@D@boost@@@boost@@@boost@@QAE@XZ 0048cd80 f i basefunc.obj
 0001:0008bd80       ??1?$pair@V?$shared_ptr@V?$w32_regex_traits_implementation@D@re_detail@boost@@@boost@@PBK@std@@QAE@XZ 0048cd80 f i libboost_regex-vc71-mt-1_33_1:instances.obj
 0001:0008bd80       ??1?$regex_traits_wrapper@U?$regex_traits@DV?$w32_regex_traits@D@boost@@@boost@@@boost@@QAE@XZ 0048cd80 f i libboost_regex-vc71-mt-1_33_1:instances.obj
 0001:0008bd80       ??1?$shared_ptr@V?$w32_regex_traits_implementation@D@re_detail@boost@@@boost@@QAE@XZ 0048cd80 f i libboost_regex-vc71-mt-1_33_1:instances.obj
 0001:0008bd80       ??1?$shared_ptr@V?$basic_regex_implementation@DU?$regex_traits@DV?$w32_regex_traits@D@boost@@@boost@@@re_detail@boost@@@boost@@QAE@XZ 0048cd80 f i basefunc.obj
 0001:0008bd80       ??1?$shared_ptr@X@boost@@QAE@XZ 0048cd80 f i libboost_regex-vc71-mt-1_33_1:instances.obj
 0001:0008bdc0       ??$throw_exception@Vinvalid_argument@std@@@boost@@YAXABVinvalid_argument@std@@@Z 0048cdc0 f i libboost_regex-vc71-mt-1_33_1:instances.obj
 0001:0008bdf0       ?transform_primary@?$w32_regex_traits_implementation@D@re_detail@boost@@QBE?AV?$basic_string@DU?$char_traits@D@std@@V?$allocator@D@2@@std@@PBD0@Z 0048cdf0 f i libboost_regex-vc71-mt-1_33_1:instances.obj
 0001:0008c070       ??1?$sp_counted_impl_pd@PAUHINSTANCE__@@P6AXPAX@Z@detail@boost@@UAE@XZ 0048d070 f i libboost_regex-vc71-mt-1_33_1:w32_regex_traits.obj
 0001:0008c070       ??1?$sp_counted_impl_p@V?$basic_regex_implementation@DU?$regex_traits@DV?$w32_regex_traits@D@boost@@@boost@@@re_detail@boost@@@detail@boost@@UAE@XZ 0048d070 f i libboost_regex-vc71-mt-1_33_1:instances.obj
 0001:0008c070       ??1?$sp_counted_impl_p@V?$w32_regex_traits_implementation@D@re_detail@boost@@@detail@boost@@UAE@XZ 0048d070 f i libboost_regex-vc71-mt-1_33_1:instances.obj
 0001:0008c070       ??1?$sp_counted_impl_p@U?$regex_traits_wrapper@U?$regex_traits@DV?$w32_regex_traits@D@boost@@@boost@@@boost@@@detail@boost@@UAE@XZ 0048d070 f i libboost_regex-vc71-mt-1_33_1:instances.obj
 0001:0008c080       ??_E?$sp_counted_impl_p@V?$w32_regex_traits_implementation@D@re_detail@boost@@@detail@boost@@UAEPAXI@Z 0048d080 f i libboost_regex-vc71-mt-1_33_1:instances.obj
 0001:0008c080       ??_G?$sp_counted_impl_p@V?$basic_regex_implementation@DU?$regex_traits@DV?$w32_regex_traits@D@boost@@@boost@@@re_detail@boost@@@detail@boost@@UAEPAXI@Z 0048d080 f i libboost_regex-vc71-mt-1_33_1:instances.obj
 0001:0008c080       ??_G?$sp_counted_impl_p@V?$w32_regex_traits_implementation@D@re_detail@boost@@@detail@boost@@UAEPAXI@Z 0048d080 f i libboost_regex-vc71-mt-1_33_1:instances.obj
 0001:0008c080       ??_E?$sp_counted_impl_pd@PAUHINSTANCE__@@P6AXPAX@Z@detail@boost@@UAEPAXI@Z 0048d080 f i libboost_regex-vc71-mt-1_33_1:w32_regex_traits.obj
 0001:0008c080       ??_E?$sp_counted_impl_p@U?$regex_traits_wrapper@U?$regex_traits@DV?$w32_regex_traits@D@boost@@@boost@@@boost@@@detail@boost@@UAEPAXI@Z 0048d080 f i libboost_regex-vc71-mt-1_33_1:instances.obj
 0001:0008c080       ??_E?$sp_counted_impl_p@V?$basic_regex_implementation@DU?$regex_traits@DV?$w32_regex_traits@D@boost@@@boost@@@re_detail@boost@@@detail@boost@@UAEPAXI@Z 0048d080 f i libboost_regex-vc71-mt-1_33_1:instances.obj
 0001:0008c080       ??_G?$sp_counted_impl_pd@PAUHINSTANCE__@@P6AXPAX@Z@detail@boost@@UAEPAXI@Z 0048d080 f i libboost_regex-vc71-mt-1_33_1:w32_regex_traits.obj
 0001:0008c080       ??_G?$sp_counted_impl_p@U?$regex_traits_wrapper@U?$regex_traits@DV?$w32_regex_traits@D@boost@@@boost@@@boost@@@detail@boost@@UAEPAXI@Z 0048d080 f i libboost_regex-vc71-mt-1_33_1:instances.obj
 0001:0008c0a0       ?insert_state@?$basic_regex_creator@DU?$regex_traits@DV?$w32_regex_traits@D@boost@@@boost@@@re_detail@boost@@QAEPAUre_syntax_base@23@HW4syntax_element_type@23@I@Z 0048d0a0 f i libboost_regex-vc71-mt-1_33_1:instances.obj
 0001:0008c130       ?calculate_backstep@?$basic_regex_creator@DU?$regex_traits@DV?$w32_regex_traits@D@boost@@@boost@@@re_detail@boost@@AAEHPAUre_syntax_base@23@@Z 0048d130 f i libboost_regex-vc71-mt-1_33_1:instances.obj
 0001:0008c230       ??$copy_backward@PAUTableData@WTableRow@@PAU12@@std@@YAPAUTableData@WTableRow@@PAU12@00@Z 0048d230 f i libwt:WTable.obj
 0001:0008c230       ??$copy_backward@PAU?$pair@_NPAUre_syntax_base@re_detail@boost@@@std@@PAU12@@std@@YAPAU?$pair@_NPAUre_syntax_base@re_detail@boost@@@0@PAU10@00@Z 0048d230 f i libboost_regex-vc71-mt-1_33_1:instances.obj
