 depend

 Timestamp is 45b72e6a (Wed Jan 24 18:01:14 2007)

 Preferred load address is 00400000

 Start         Length     Name                   Class
 0001:00000000 0002d608H .text                   CODE
 0001:0002d610 0000514eH .text$x                 CODE
 0001:00032760 00002556H .text$yc                CODE
 0001:00034cc0 00000934H .text$yd                CODE
 0002:00000000 0000025cH .idata$5                DATA
 0002:00000260 00005180H .rdata                  DATA
 0002:000053e0 00000044H .rdata$r                DATA
 0002:00005430 000004fcH .rdata$sxdata           DATA
 0002:0000592c 00000004H .rtc$IAA                DATA
 0002:00005930 00000004H .rtc$IZZ                DATA
 0002:00005934 00000004H .rtc$TAA                DATA
 0002:00005938 00000004H .rtc$TZZ                DATA
 0002:0000593c 00005730H .xdata$x                DATA
 0002:0000b06c 00000064H .idata$2                DATA
 0002:0000b0d0 00000014H .idata$3                DATA
 0002:0000b0e4 0000025cH .idata$4                DATA
 0002:0000b340 00001b3cH .idata$6                DATA
 0002:0000ce80 0000fb1cH .edata                  DATA
 0003:00000000 00000004H .CRT$XCA                DATA
 0003:00000004 00000004H .CRT$XCAA               DATA
 0003:00000008 0000013cH .CRT$XCU                DATA
 0003:00000144 00000004H .CRT$XCZ                DATA
 0003:00000148 00000004H .CRT$XIA                DATA
 0003:0000014c 00000004H .CRT$XIZ                DATA
 0003:00000150 00000204H .data                   DATA
 0003:00000358 00001e34H .bss                    DATA

  Address         Publics by Value              Rva+Base     Lib:Object

 0000:00000000       __except_list              00000000     <absolute>
 0000:0000013f       ___safe_se_handler_count   0000013f     <absolute>
 0000:00009876       __ldused                   00009876     <absolute>
 0000:00009876       __fltused                  00009876     <absolute>
 0001:00000000       ?DoApp1@CCheckBoxTreeView@@AAEXXZ 00401000 f i dependtree:CheckBoxTreeView.obj
 0001:00000000       ?refresh@WSPopTable@@UAEXXZ 00401000 f i WSPopTable.obj
 0001:00000000       ?signalConnectionsChanged@WObject@@EAEXXZ 00401000 f i dependtree:WObject.obj
 0001:00000000       ?BtnProc@WSPopTable@@AAEXXZ 00401000 f i WSPopTable.obj
 0001:00000000       ?DoSetAppEnable@CCheckBoxTreeView@@AAEXXZ 00401000 f i dependtree:CheckBoxTreeView.obj
 0001:00000000       ??3@YAXPAX0@Z              00401000 f i depend.obj
 0001:00000000       ?DoAppDec@CCheckBoxTreeView@@AAEXXZ 00401000 f i dependtree:CheckBoxTreeView.obj
 0001:00000010       ??1logic_error@std@@UAE@XZ 00401010 f i depend.obj
 0001:00000070       ?what@logic_error@std@@UBEPBDXZ 00401070 f i depend.obj
 0001:00000080       ??_Elogic_error@std@@UAEPAXI@Z 00401080 f i depend.obj
 0001:00000080       ??_Glogic_error@std@@UAEPAXI@Z 00401080 f i depend.obj
 0001:000000a0       ??_Elength_error@std@@UAEPAXI@Z 004010a0 f i depend.obj
 0001:000000a0       ??_Glength_error@std@@UAEPAXI@Z 004010a0 f i depend.obj
 0001:000000c0       ??1length_error@std@@UAE@XZ 004010c0 f i depend.obj
 0001:000000d0       ??_Eout_of_range@std@@UAEPAXI@Z 004010d0 f i depend.obj
 0001:000000d0       ??_Gout_of_range@std@@UAEPAXI@Z 004010d0 f i depend.obj
 0001:000000f0       ??1out_of_range@std@@UAE@XZ 004010f0 f i depend.obj
 0001:00000100       ?haveJavaScript@WebSession@@QBE_NXZ 00401100 f i depend.obj
 0001:00000110       ?havaAjax@WebSession@@QBE_NXZ 00401110 f i depend.obj
 0001:00000120       ?genericFamily@WFont@@QBE?AW4GenericFamily@1@XZ 00401120 f i depend.obj
 0001:00000120       ?sender@WObject@@ABEPAV1@XZ 00401120 f i depend.obj
 0001:00000120       ?object@WSignalInstance_@@QBEPAVWObject@@XZ 00401120 f i dependformwt.obj
 0001:00000120       ?cursor@WCssDecorationStyle@@QBE?AW4Cursor@1@XZ 00401120 f i depend.obj
 0001:00000120       ?slot@WConnection_@@QBEPAVWSlotInstance_@@XZ 00401120 f i dependtree:WebSession.obj
 0001:00000120       ?unit@WLength@@QBE?AW4Unit@1@XZ 00401120 f i depend.obj
 0001:00000120       ?red@WColor@@QBEHXZ        00401120 f i depend.obj
 0001:00000130       ??4WWidget@@QAEAAV0@ABV0@@Z 00401130 f i depend.obj
 0001:00000130       ??4WObject@@QAEAAV0@ABV0@@Z 00401130 f i depend.obj
 0001:00000130       ??4WResource@@QAEAAV0@ABV0@@Z 00401130 f i depend.obj
 0001:00000160       ?value@WLength@@QBENXZ     00401160 f i depend.obj
 0001:00000170       ??4WLength@@QAEAAV0@ABV0@@Z 00401170 f i depend.obj
 0001:000001a0       ?isAuto@WLength@@QBE_NXZ   004011a0 f i depend.obj
 0001:000001a0       ?isDefault@WColor@@QBE_NXZ 004011a0 f i depend.obj
 0001:000001b0       ?blue@WColor@@QBEHXZ       004011b0 f i depend.obj
 0001:000001c0       ?name@WColor@@QBE?AV?$basic_string@DU?$char_traits@D@std@@V?$allocator@D@2@@std@@XZ 004011c0 f i depend.obj
 0001:000001f0       ??0WColor@@QAE@ABV0@@Z     004011f0 f i depend.obj
 0001:00000220       ??4WColor@@QAEAAV0@ABV0@@Z 00401220 f i depend.obj
 0001:00000250       ?width@WBorder@@QBE?AW4Width@1@XZ 00401250 f i depend.obj
 0001:00000250       ?signal@WConnection_@@QBEPAVWSignalInstance_@@XZ 00401250 f i dependtree:WebSession.obj
 0001:00000260       ?explicitWidth@WBorder@@QBE?AVWLength@@XZ 00401260 f i depend.obj
 0001:00000290       ?color@WBorder@@QBE?AVWColor@@XZ 00401290 f i depend.obj
 0001:000002d0       ?style@WBorder@@QBE?AW4Style@1@XZ 004012d0 f i depend.obj
 0001:000002e0       ??1WBorder@@QAE@XZ         004012e0 f i depend.obj
 0001:000002f0       ??0WBorder@@QAE@ABV0@@Z    004012f0 f i depend.obj
 0001:00000350       ??4WBorder@@QAEAAV0@ABV0@@Z 00401350 f i depend.obj
 0001:000003b0       ?specificFamilies@WFont@@QBE?BV?$basic_string@DU?$char_traits@D@std@@V?$allocator@D@2@@std@@XZ 004013b0 f i depend.obj
 0001:000003e0       ?style@WFont@@QBE?AW4Style@1@XZ 004013e0 f i depend.obj
 0001:000003f0       ?variant@WFont@@QBE?AW4Variant@1@XZ 004013f0 f i depend.obj
 0001:00000400       ?weight@WFont@@QBE?AW4Weight@1@XZ 00401400 f i depend.obj
 0001:00000410       ?weightValue@WFont@@QBEHXZ 00401410 f i depend.obj
 0001:00000420       ?size@WFont@@QBE?AW4Size@1@XZ 00401420 f i depend.obj
 0001:00000420       ?getRefreshTime@WApplication@@QAEHXZ 00401420 f i depend.obj
 0001:00000430       ?fixedSize@WFont@@QBE?AVWLength@@XZ 00401430 f i depend.obj
 0001:00000460       ??0WFont@@QAE@ABV0@@Z      00401460 f i depend.obj
 0001:000004e0       ??4WFont@@QAEAAV0@ABV0@@Z  004014e0 f i depend.obj
 0001:00000560       ?backgroundColor@WCssDecorationStyle@@QBE?AVWColor@@XZ 00401560 f i depend.obj
 0001:000005a0       ?backgroundImage@WCssDecorationStyle@@QBE?BV?$basic_string@DU?$char_traits@D@std@@V?$allocator@D@2@@std@@XZ 004015a0 f i depend.obj
 0001:000005d0       ?backgroundImageRepeat@WCssDecorationStyle@@QBE?AW4Repeat@1@XZ 004015d0 f i depend.obj
 0001:000005e0       ?foregroundColor@WCssDecorationStyle@@QBE?AVWColor@@XZ 004015e0 f i depend.obj
 0001:00000630       ?border@WCssDecorationStyle@@QBE?AVWBorder@@XZ 00401630 f i depend.obj
 0001:00000650       ??1WCssDecorationStyle@@QAE@XZ 00401650 f i depend.obj
 0001:000006e0       ??0WCssDecorationStyle@@QAE@ABV0@@Z 004016e0 f i depend.obj
 0001:00000820       ??4WCssDecorationStyle@@QAEAAV0@ABV0@@Z 00401820 f i depend.obj
 0001:00000920       ?selector@WCssRule@@QBE?BV?$basic_string@DU?$char_traits@D@std@@V?$allocator@D@2@@std@@XZ 00401920 f i depend.obj
 0001:00000950       ??0WCssRule@@QAE@ABV0@@Z   00401950 f i depend.obj
 0001:00000970       ??4WCssRule@@QAEAAV0@ABV0@@Z 00401970 f i depend.obj
 0001:00000990       ??_EWCssRule@@UAEPAXI@Z    00401990 f i depend.obj
 0001:000009f0       ?styleSheet@WApplication@@QAEAAVWCssStyleSheet@@XZ 004019f0 f i depend.obj
 0001:00000a00       ?root@WApplication@@QBEPAVWContainerWidget@@XZ 00401a00 f i depend.obj
 0001:00000a10       ?title@WApplication@@QBE?AV?$basic_string@DU?$char_traits@D@std@@V?$allocator@D@2@@std@@XZ 00401a10 f i depend.obj
 0001:00000a40       ?loading@WApplication@@QBE_NXZ 00401a40 f i depend.obj
 0001:00000a50       ?setLoading@WApplication@@QAEX_N@Z 00401a50 f i depend.obj
 0001:00000a60       ?messageResourceBundle@WApplication@@QAEAAVWMessageResourceBundle@@XZ 00401a60 f i depend.obj
 0001:00000a70       ?locale@WApplication@@QBE?AV?$basic_string@DU?$char_traits@D@std@@V?$allocator@D@2@@std@@XZ 00401a70 f i depend.obj
 0001:00000aa0       ?getBodyAttribute@WApplication@@QAE?BV?$basic_string@DU?$char_traits@D@std@@V?$allocator@D@2@@std@@XZ 00401aa0 f i depend.obj
 0001:00000ad0       ?setBeforBodyStr@WApplication@@QAEXV?$basic_string@DU?$char_traits@D@std@@V?$allocator@D@2@@std@@@Z 00401ad0 f i depend.obj
 0001:00000b20       ?getBeforBodyStr@WApplication@@QAE?BV?$basic_string@DU?$char_traits@D@std@@V?$allocator@D@2@@std@@XZ 00401b20 f i depend.obj
 0001:00000b50       ?getRefreshFunc@WApplication@@QAE?AV?$basic_string@DU?$char_traits@D@std@@V?$allocator@D@2@@std@@XZ 00401b50 f i depend.obj
 0001:00000b80       ?isQuited@WApplication@@ABE_NXZ 00401b80 f i depend.obj
 0001:00000b90       ?empty@WMessage@@QBE_NXZ   00401b90 f i depend.obj
 0001:00000ba0       ??4WMessage@@QAEAAV0@ABV0@@Z 00401ba0 f i depend.obj
 0001:00000bc0       ?positionScheme@WWebWidget@@UBE?AW4PositionScheme@WWidget@@XZ 00401bc0 f i depend.obj
 0001:00000bd0       ?width@WWebWidget@@UBE?AVWLength@@XZ 00401bd0 f i depend.obj
 0001:00000c00       ?height@WWebWidget@@UBE?AVWLength@@XZ 00401c00 f i depend.obj
 0001:00000c30       ?isHidden@WWebWidget@@UBE_NXZ 00401c30 f i depend.obj
 0001:00000c40       ?isPopup@WWebWidget@@UBE_NXZ 00401c40 f i depend.obj
 0001:00000c50       ?isInline@WWebWidget@@UBE_NXZ 00401c50 f i depend.obj
 0001:00000c60       ?decorationStyle@WWebWidget@@UAEAAVWCssDecorationStyle@@XZ 00401c60 f i depend.obj
 0001:00000c60       ?font@WCssDecorationStyle@@QAEAAVWFont@@XZ 00401c60 f i depend.obj
 0001:00000c70       ?styleClass@WWebWidget@@UBE?BV?$basic_string@DU?$char_traits@D@std@@V?$allocator@D@2@@std@@XZ 00401c70 f i depend.obj
 0001:00000ca0       ?verticalAlignment@WWebWidget@@UBE?AW4VerticalAlignment@WWidget@@XZ 00401ca0 f i depend.obj
 0001:00000cb0       ?verticalAlignmentLength@WWebWidget@@UBE?AVWLength@@XZ 00401cb0 f i depend.obj
 0001:00000ce0       ?toolTip@WWebWidget@@UBE?AV?$basic_string@DU?$char_traits@D@std@@V?$allocator@D@2@@std@@XZ 00401ce0 f i depend.obj
 0001:00000d10       ?toolTipMessage@WWebWidget@@UBEABVWMessage@@XZ 00401d10 f i depend.obj
 0001:00000d20       ?renderState@WWebWidget@@IBE?AW4RenderState@1@XZ 00401d20 f i depend.obj
 0001:00000d30       ?webWidget@WWebWidget@@MAEPAV1@XZ 00401d30 f i depend.obj
 0001:00000d40       ?children@WWebWidget@@MBEABV?$vector@PAVWWidget@@V?$allocator@PAVWWidget@@@std@@@std@@XZ 00401d40 f i depend.obj
 0001:00000d50       ??_FWWebWidget@@QAEXXZ     00401d50 f i depend.obj
 0001:00000d60       ?widget@WScrollArea@@QBEPAVWWidget@@XZ 00401d60 f i depend.obj
 0001:00000d60       ?data@WInteractWidget@@QAEPAXXZ 00401d60 f i depend.obj
 0001:00000d70       ??1WBreak@@UAE@XZ          00401d70 f i dependtree:CheckBoxTreeView.obj
 0001:00000d70       ??1WInteractWidget@@UAE@XZ 00401d70 f i depend.obj
 0001:00000d80       ??_FWInteractWidget@@QAEXXZ 00401d80 f i depend.obj
 0001:00000d90       ??_FWContainerWidget@@QAEXXZ 00401d90 f i depend.obj
 0001:00000da0       ?table@WTableRow@@QBEPAVWTable@@XZ 00401da0 f i depend.obj
 0001:00000db0       ??_FWTable@@QAEXXZ         00401db0 f i depend.obj
 0001:00000dc0       ?rowSpan@WTableCell@@QBEHXZ 00401dc0 f i depend.obj
 0001:00000dd0       ?columnSpan@WTableCell@@QBEHXZ 00401dd0 f i depend.obj
 0001:00000de0       ?column@WTableCell@@QBEHXZ 00401de0 f i depend.obj
 0001:00000df0       ?text@WText@@QBE?BV?$basic_string@DU?$char_traits@D@std@@V?$allocator@D@2@@std@@XZ 00401df0 f i depend.obj
 0001:00000df0       ?imageRef@WImage@@QBE?BV?$basic_string@DU?$char_traits@D@std@@V?$allocator@D@2@@std@@XZ 00401df0 f i dependtree:WImage.obj
 0001:00000e20       ?message@WText@@QBEABVWMessage@@XZ 00401e20 f i depend.obj
 0001:00000e30       ??1WText@@UAE@XZ           00401e30 f i depend.obj
 0001:00000ea0       ??_FWText@@QAEXXZ          00401ea0 f i depend.obj
 0001:00000eb0       ?alternateText@WImage@@QBE?BV?$basic_string@DU?$char_traits@D@std@@V?$allocator@D@2@@std@@XZ 00401eb0 f i depend.obj
 0001:00000ee0       ?formatting@WText@@QBE?AW4Formatting@1@XZ 00401ee0 f i depend.obj
 0001:00000ee0       ?resource@WImage@@QBEPAVWResource@@XZ 00401ee0 f i depend.obj
 0001:00000ef0       ??1WImage@@UAE@XZ          00401ef0 f i depend.obj
 0001:00000f60       ??_FWImage@@QAEXXZ         00401f60 f i depend.obj
 0001:00000f70       ?label@WFormWidget@@QBEPAVWLabel@@XZ 00401f70 f i depend.obj
 0001:00000f70       ?contentAlignment@WContainerWidget@@QBE?AW4HorizontalAlignment@WWidget@@XZ 00401f70 f i depend.obj
 0001:00000f70       ?buddy@WLabel@@QBEPAVWFormWidget@@XZ 00401f70 f i dependtree:WFormWidget.obj
 0001:00000f80       ?isEnabled@WFormWidget@@QBE_NXZ 00401f80 f i depend.obj
 0001:00000f90       ??_FWFormWidget@@QAEXXZ    00401f90 f i depend.obj
 0001:00000fa0       ?text@WPushButton@@QBE?AV?$basic_string@DU?$char_traits@D@std@@V?$allocator@D@2@@std@@XZ 00401fa0 f i depend.obj
 0001:00000fd0       ?message@WPushButton@@QBEABVWMessage@@XZ 00401fd0 f i depend.obj
 0001:00000fe0       ??1WPushButton@@UAE@XZ     00401fe0 f i depend.obj
 0001:00001050       ??_FWPushButton@@QAEXXZ    00402050 f i depend.obj
 0001:00001060       ?horizontalScrollBar@WScrollArea@@QBEPAVWScrollBar@@XZ 00402060 f i depend.obj
 0001:00001070       ?verticalScrollBar@WScrollArea@@QBEPAVWScrollBar@@XZ 00402070 f i depend.obj
 0001:00001080       ??_FWScrollArea@@QAEXXZ    00402080 f i depend.obj
 0001:00001090       ?PrintDebugString@@YAXPBD@Z 00402090 f   depend.obj
 0001:000010b0       ?_Xlen@?$vector@PAVWTableRow@@V?$allocator@PAVWTableRow@@@std@@@std@@IBEXXZ 004020b0 f i depend.obj
 0001:000010b0       ?_Xlen@?$vector@UTableData@WTableRow@@V?$allocator@UTableData@WTableRow@@@std@@@std@@IBEXXZ 004020b0 f i depend.obj
 0001:000010b0       ?_Xlen@?$vector@PAVWWidget@@V?$allocator@PAVWWidget@@@std@@@std@@IBEXXZ 004020b0 f i depend.obj
 0001:000010b0       ?_Xlen@?$vector@PAVDomElement@@V?$allocator@PAVDomElement@@@std@@@std@@IBEXXZ 004020b0 f i depend.obj
 0001:000010b0       ?_Xlen@?$vector@PAVWMessageResources@@V?$allocator@PAVWMessageResources@@@std@@@std@@IBEXXZ 004020b0 f i depend.obj
 0001:000010b0       ?_Xlen@?$vector@PAVWObject@@V?$allocator@PAVWObject@@@std@@@std@@IBEXXZ 004020b0 f i depend.obj
 0001:00001130       ??1_Sentry_base@?$basic_ostream@DU?$char_traits@D@std@@@std@@QAE@XZ 00402130 f i depend.obj
 0001:00001150       ??0logic_error@std@@QAE@ABV01@@Z 00402150 f i depend.obj
 0001:000011b0       ??$?HDU?$char_traits@D@std@@V?$allocator@D@1@@std@@YA?AV?$basic_string@DU?$char_traits@D@std@@V?$allocator@D@2@@0@ABV10@0@Z 004021b0 f i depend.obj
 0001:00001230       ??$?HDU?$char_traits@D@std@@V?$allocator@D@1@@std@@YA?AV?$basic_string@DU?$char_traits@D@std@@V?$allocator@D@2@@0@PBDABV10@@Z 00402230 f i depend.obj
 0001:000012b0       ??$?HDU?$char_traits@D@std@@V?$allocator@D@1@@std@@YA?AV?$basic_string@DU?$char_traits@D@std@@V?$allocator@D@2@@0@DABV10@@Z 004022b0 f i depend.obj
 0001:00001330       ??$?HDU?$char_traits@D@std@@V?$allocator@D@1@@std@@YA?AV?$basic_string@DU?$char_traits@D@std@@V?$allocator@D@2@@0@ABV10@PBD@Z 00402330 f i depend.obj
 0001:000013b0       ??$?HDU?$char_traits@D@std@@V?$allocator@D@1@@std@@YA?AV?$basic_string@DU?$char_traits@D@std@@V?$allocator@D@2@@0@ABV10@D@Z 004023b0 f i depend.obj
 0001:00001430       ??1_Node@?$_Tree_nod@V?$_Tmap_traits@V?$basic_string@DU?$char_traits@D@std@@V?$allocator@D@2@@std@@PAVWCssRule@@U?$less@V?$basic_string@DU?$char_traits@D@std@@V?$allocator@D@2@@std@@@2@V?$allocator@U?$pair@$$CBV?$basic_string@DU?$char_traits@D@std@@V?$allocator@D@2@@std@@PAVWCssRule@@@std@@@2@$0A@@std@@@std@@QAE@XZ 00402430 f i depend.obj
 0001:00001430       ??1_Node@?$_Tree_nod@V?$_Tmap_traits@V?$basic_string@DU?$char_traits@D@std@@V?$allocator@D@2@@std@@PAVWSignalInstance_@@U?$less@V?$basic_string@DU?$char_traits@D@std@@V?$allocator@D@2@@std@@@2@V?$allocator@U?$pair@$$CBV?$basic_string@DU?$char_traits@D@std@@V?$allocator@D@2@@std@@PAVWSignalInstance_@@@std@@@2@$0A@@std@@@std@@QAE@XZ 00402430 f i dependtree:WObject.obj
 0001:00001430       ??1_Node@?$_Tree_nod@V?$_Tmap_traits@V?$basic_string@DU?$char_traits@D@std@@V?$allocator@D@2@@std@@PAVWCheckBox@@U?$less@V?$basic_string@DU?$char_traits@D@std@@V?$allocator@D@2@@std@@@2@V?$allocator@U?$pair@$$CBV?$basic_string@DU?$char_traits@D@std@@V?$allocator@D@2@@std@@PAVWCheckBox@@@std@@@2@$0A@@std@@@std@@QAE@XZ 00402430 f i dependtree:CheckBoxTreeView.obj
 0001:00001430       ??1_Node@?$_Tree_nod@V?$_Tmap_traits@V?$basic_string@DU?$char_traits@D@std@@V?$allocator@D@2@@std@@_NU?$less@V?$basic_string@DU?$char_traits@D@std@@V?$allocator@D@2@@std@@@2@V?$allocator@U?$pair@$$CBV?$basic_string@DU?$char_traits@D@std@@V?$allocator@D@2@@std@@_N@std@@@2@$0A@@std@@@std@@QAE@XZ 00402430 f i dependtree:WTreeNode.obj
 0001:00001430       ??1_Node@?$_Tree_nod@V?$_Tmap_traits@V?$basic_string@DU?$char_traits@D@std@@V?$allocator@D@2@@std@@PAVWSlotInstance_@@U?$less@V?$basic_string@DU?$char_traits@D@std@@V?$allocator@D@2@@std@@@2@V?$allocator@U?$pair@$$CBV?$basic_string@DU?$char_traits@D@std@@V?$allocator@D@2@@std@@PAVWSlotInstance_@@@std@@@2@$0A@@std@@@std@@QAE@XZ 00402430 f i dependtree:WObject.obj
 0001:00001440       ??0sentry@?$basic_ostream@DU?$char_traits@D@std@@@std@@QAE@AAV12@@Z 00402440 f i depend.obj
 0001:000014d0       ??1sentry@?$basic_ostream@DU?$char_traits@D@std@@@std@@QAE@XZ 004024d0 f i depend.obj
 0001:00001540       ?_Max@?$_Tree@V?$_Tset_traits@PBVWResource@@U?$less@PBVWResource@@@std@@V?$allocator@PBVWResource@@@3@$0A@@std@@@std@@KAPAU_Node@?$_Tree_nod@V?$_Tset_traits@PBVWResource@@U?$less@PBVWResource@@@std@@V?$allocator@PBVWResource@@@3@$0A@@std@@@2@PAU342@@Z 00402540 f i depend.obj
 0001:00001540       ?_Max@?$_Tree@V?$_Tset_traits@PBVWSignalInstance_@@U?$less@PBVWSignalInstance_@@@std@@V?$allocator@PBVWSignalInstance_@@@3@$0A@@std@@@std@@KAPAU_Node@?$_Tree_nod@V?$_Tset_traits@PBVWSignalInstance_@@U?$less@PBVWSignalInstance_@@@std@@V?$allocator@PBVWSignalInstance_@@@3@$0A@@std@@@2@PAU342@@Z 00402540 f i depend.obj
 0001:00001560       ?_Min@?$_Tree@V?$_Tset_traits@PBVWSignalInstance_@@U?$less@PBVWSignalInstance_@@@std@@V?$allocator@PBVWSignalInstance_@@@3@$0A@@std@@@std@@KAPAU_Node@?$_Tree_nod@V?$_Tset_traits@PBVWSignalInstance_@@U?$less@PBVWSignalInstance_@@@std@@V?$allocator@PBVWSignalInstance_@@@3@$0A@@std@@@2@PAU342@@Z 00402560 f i depend.obj
 0001:00001560       ?_Min@?$_Tree@V?$_Tset_traits@PBVWResource@@U?$less@PBVWResource@@@std@@V?$allocator@PBVWResource@@@3@$0A@@std@@@std@@KAPAU_Node@?$_Tree_nod@V?$_Tset_traits@PBVWResource@@U?$less@PBVWResource@@@std@@V?$allocator@PBVWResource@@@3@$0A@@std@@@2@PAU342@@Z 00402560 f i depend.obj
 0001:00001580       ??0length_error@std@@QAE@ABV01@@Z 00402580 f i depend.obj
 0001:000015a0       ?_Lrotate@?$_Tree@V?$_Tset_traits@PBVWResource@@U?$less@PBVWResource@@@std@@V?$allocator@PBVWResource@@@3@$0A@@std@@@std@@IAEXPAU_Node@?$_Tree_nod@V?$_Tset_traits@PBVWResource@@U?$less@PBVWResource@@@std@@V?$allocator@PBVWResource@@@3@$0A@@std@@@2@@Z 004025a0 f i depend.obj
 0001:000015a0       ?_Lrotate@?$_Tree@V?$_Tset_traits@PBVWSignalInstance_@@U?$less@PBVWSignalInstance_@@@std@@V?$allocator@PBVWSignalInstance_@@@3@$0A@@std@@@std@@IAEXPAU_Node@?$_Tree_nod@V?$_Tset_traits@PBVWSignalInstance_@@U?$less@PBVWSignalInstance_@@@std@@V?$allocator@PBVWSignalInstance_@@@3@$0A@@std@@@2@@Z 004025a0 f i depend.obj
 0001:00001600       ?_Rrotate@?$_Tree@V?$_Tset_traits@PBVWSignalInstance_@@U?$less@PBVWSignalInstance_@@@std@@V?$allocator@PBVWSignalInstance_@@@3@$0A@@std@@@std@@IAEXPAU_Node@?$_Tree_nod@V?$_Tset_traits@PBVWSignalInstance_@@U?$less@PBVWSignalInstance_@@@std@@V?$allocator@PBVWSignalInstance_@@@3@$0A@@std@@@2@@Z 00402600 f i depend.obj
 0001:00001600       ?_Rrotate@?$_Tree@V?$_Tset_traits@PBVWResource@@U?$less@PBVWResource@@@std@@V?$allocator@PBVWResource@@@3@$0A@@std@@@std@@IAEXPAU_Node@?$_Tree_nod@V?$_Tset_traits@PBVWResource@@U?$less@PBVWResource@@@std@@V?$allocator@PBVWResource@@@3@$0A@@std@@@2@@Z 00402600 f i depend.obj
 0001:00001660       ?_Inc@const_iterator@?$_Tree@V?$_Tset_traits@PBVWResource@@U?$less@PBVWResource@@@std@@V?$allocator@PBVWResource@@@3@$0A@@std@@@std@@QAEXXZ 00402660 f i depend.obj
 0001:00001660       ?_Inc@const_iterator@?$_Tree@V?$_Tset_traits@PBVWSignalInstance_@@U?$less@PBVWSignalInstance_@@@std@@V?$allocator@PBVWSignalInstance_@@@3@$0A@@std@@@std@@QAEXXZ 00402660 f i depend.obj
 0001:000016c0       ??$?6DU?$char_traits@D@std@@V?$allocator@D@1@@std@@YAAAV?$basic_ostream@DU?$char_traits@D@std@@@0@AAV10@ABV?$basic_string@DU?$char_traits@D@std@@V?$allocator@D@2@@0@@Z 004026c0 f i depend.obj
 0001:000018c0       ??$copy@PAPAVWConnection_@@PAPAV1@@std@@YAPAPAVWConnection_@@PAPAV1@00@Z 004028c0 f i dependformwt.obj
 0001:000018c0       ??$copy@PAPAVWWidget@@PAPAV1@@std@@YAPAPAVWWidget@@PAPAV1@00@Z 004028c0 f i depend.obj
 0001:000018c0       ??$copy@PAPAVWObject@@PAPAV1@@std@@YAPAPAVWObject@@PAPAV1@00@Z 004028c0 f i depend.obj
 0001:000018c0       ??$copy@PAPAVWScrollBar@@PAPAV1@@std@@YAPAPAVWScrollBar@@PAPAV1@00@Z 004028c0 f i dependtree:WScrollArea.obj
 0001:000018c0       ??$copy@PAPAVWTableRow@@PAPAV1@@std@@YAPAPAVWTableRow@@PAPAV1@00@Z 004028c0 f i depend.obj
 0001:000018c0       ??$copy@PAPAVDomElement@@PAPAV1@@std@@YAPAPAVDomElement@@PAPAV1@00@Z 004028c0 f i depend.obj
 0001:000018c0       ??$copy@PAPAVWMessageResources@@PAPAV1@@std@@YAPAPAVWMessageResources@@PAPAV1@00@Z 004028c0 f i depend.obj
 0001:000018f0       ??$copy@PAUTableData@WTableRow@@PAU12@@std@@YAPAUTableData@WTableRow@@PAU12@00@Z 004028f0 f i depend.obj
 0001:00001920       ?_Buy@?$vector@PAVWObject@@V?$allocator@PAVWObject@@@std@@@std@@IAE_NI@Z 00402920 f i depend.obj
 0001:00001920       ?_Buy@?$vector@PAVWWidget@@V?$allocator@PAVWWidget@@@std@@@std@@IAE_NI@Z 00402920 f i depend.obj
 0001:00001920       ?_Buy@?$vector@PAVWTableRow@@V?$allocator@PAVWTableRow@@@std@@@std@@IAE_NI@Z 00402920 f i depend.obj
 0001:00001920       ?_Buy@?$vector@PAVWMessageResources@@V?$allocator@PAVWMessageResources@@@std@@@std@@IAE_NI@Z 00402920 f i depend.obj
 0001:00001920       ?_Buy@?$vector@PAVDomElement@@V?$allocator@PAVDomElement@@@std@@@std@@IAE_NI@Z 00402920 f i depend.obj
 0001:00001970       ?_Buy@?$vector@UTableData@WTableRow@@V?$allocator@UTableData@WTableRow@@@std@@@std@@IAE_NI@Z 00402970 f i depend.obj
 0001:000019c0       ?_Buynode@?$_Tree@V?$_Tmap_traits@V?$basic_string@DU?$char_traits@D@std@@V?$allocator@D@2@@std@@PAVWCssRule@@U?$less@V?$basic_string@DU?$char_traits@D@std@@V?$allocator@D@2@@std@@@2@V?$allocator@U?$pair@$$CBV?$basic_string@DU?$char_traits@D@std@@V?$allocator@D@2@@std@@PAVWCssRule@@@std@@@2@$0A@@std@@@std@@IAEPAU_Node@?$_Tree_nod@V?$_Tmap_traits@V?$basic_string@DU?$char_traits@D@std@@V?$allocator@D@2@@std@@PAVWCssRule@@U?$less@V?$basic_string@DU?$char_traits@D@std@@V?$allocator@D@2@@std@@@2@V?$allocator@U?$pair@$$CBV?$basic_string@DU?$char_traits@D@std@@V?$allocator@D@2@@std@@PAVWCssRule@@@std@@@2@$0A@@std@@@2@PAU342@00ABU?$pair@$$CBV?$basic_string@DU?$char_traits@D@std@@V?$allocator@D@2@@std@@PAVWCssRule@@@2@D@Z 004029c0 f i depend.obj
 0001:00001a60       ?_Erase@?$_Tree@V?$_Tset_traits@PBVWSignalInstance_@@U?$less@PBVWSignalInstance_@@@std@@V?$allocator@PBVWSignalInstance_@@@3@$0A@@std@@@std@@IAEXPAU_Node@?$_Tree_nod@V?$_Tset_traits@PBVWSignalInstance_@@U?$less@PBVWSignalInstance_@@@std@@V?$allocator@PBVWSignalInstance_@@@3@$0A@@std@@@2@@Z 00402a60 f i depend.obj
 0001:00001aa0       ?_Erase@?$_Tree@V?$_Tset_traits@PBVWResource@@U?$less@PBVWResource@@@std@@V?$allocator@PBVWResource@@@3@$0A@@std@@@std@@IAEXPAU_Node@?$_Tree_nod@V?$_Tset_traits@PBVWResource@@U?$less@PBVWResource@@@std@@V?$allocator@PBVWResource@@@3@$0A@@std@@@2@@Z 00402aa0 f i depend.obj
 0001:00001ae0       ?_Buynode@?$_Tree@V?$_Tset_traits@PBVWSignalInstance_@@U?$less@PBVWSignalInstance_@@@std@@V?$allocator@PBVWSignalInstance_@@@3@$0A@@std@@@std@@IAEPAU_Node@?$_Tree_nod@V?$_Tset_traits@PBVWSignalInstance_@@U?$less@PBVWSignalInstance_@@@std@@V?$allocator@PBVWSignalInstance_@@@3@$0A@@std@@@2@PAU342@00ABQBVWSignalInstance_@@D@Z 00402ae0 f i depend.obj
 0001:00001ae0       ?_Buynode@?$_Tree@V?$_Tset_traits@PBVWResource@@U?$less@PBVWResource@@@std@@V?$allocator@PBVWResource@@@3@$0A@@std@@@std@@IAEPAU_Node@?$_Tree_nod@V?$_Tset_traits@PBVWResource@@U?$less@PBVWResource@@@std@@V?$allocator@PBVWResource@@@3@$0A@@std@@@2@PAU342@00ABQBVWResource@@D@Z 00402ae0 f i depend.obj
 0001:00001b20       ??$_Uninit_copy@PAUTableData@WTableRow@@PAU12@V?$allocator@UTableData@WTableRow@@@std@@@std@@YAPAUTableData@WTableRow@@PAU12@00AAV?$allocator@UTableData@WTableRow@@@0@U_Nonscalar_ptr_iterator_tag@0@@Z 00402b20 f i depend.obj
 0001:00001b50       ?_Copy@?$_Tree@V?$_Tset_traits@PBVWSignalInstance_@@U?$less@PBVWSignalInstance_@@@std@@V?$allocator@PBVWSignalInstance_@@@3@$0A@@std@@@std@@IAEPAU_Node@?$_Tree_nod@V?$_Tset_traits@PBVWSignalInstance_@@U?$less@PBVWSignalInstance_@@@std@@V?$allocator@PBVWSignalInstance_@@@3@$0A@@std@@@2@PAU342@0@Z 00402b50 f i depend.obj
 0001:00001c00       ?_Copy@?$_Tree@V?$_Tset_traits@PBVWResource@@U?$less@PBVWResource@@@std@@V?$allocator@PBVWResource@@@3@$0A@@std@@@std@@IAEPAU_Node@?$_Tree_nod@V?$_Tset_traits@PBVWResource@@U?$less@PBVWResource@@@std@@V?$allocator@PBVWResource@@@3@$0A@@std@@@2@PAU342@0@Z 00402c00 f i depend.obj
 0001:00001cb0       ??1WebSession@@QAE@XZ      00402cb0 f i depend.obj
 0001:00001d90       ??1SVDepend@@UAE@XZ        00402d90 f i depend.obj
 0001:00001ee0       ??4?$vector@PAVWTableRow@@V?$allocator@PAVWTableRow@@@std@@@std@@QAEAAV01@ABV01@@Z 00402ee0 f i depend.obj
 0001:00001ee0       ??4?$vector@PAVWWidget@@V?$allocator@PAVWWidget@@@std@@@std@@QAEAAV01@ABV01@@Z 00402ee0 f i depend.obj
 0001:00001ee0       ??4?$vector@PAVWObject@@V?$allocator@PAVWObject@@@std@@@std@@QAEAAV01@ABV01@@Z 00402ee0 f i depend.obj
 0001:00001ee0       ??4?$vector@PAVDomElement@@V?$allocator@PAVDomElement@@@std@@@std@@QAEAAV01@ABV01@@Z 00402ee0 f i depend.obj
 0001:00001ee0       ??4?$vector@PAVWMessageResources@@V?$allocator@PAVWMessageResources@@@std@@@std@@QAEAAV01@ABV01@@Z 00402ee0 f i depend.obj
 0001:00002030       ?_Copy@?$_Tree@V?$_Tset_traits@PBVWSignalInstance_@@U?$less@PBVWSignalInstance_@@@std@@V?$allocator@PBVWSignalInstance_@@@3@$0A@@std@@@std@@IAEXABV12@@Z 00403030 f i depend.obj
 0001:000020c0       ?_Copy@?$_Tree@V?$_Tset_traits@PBVWResource@@U?$less@PBVWResource@@@std@@V?$allocator@PBVWResource@@@3@$0A@@std@@@std@@IAEXABV12@@Z 004030c0 f i depend.obj
 0001:00002150       ?erase@?$_Tree@V?$_Tmap_traits@V?$basic_string@DU?$char_traits@D@std@@V?$allocator@D@2@@std@@PAVWCssRule@@U?$less@V?$basic_string@DU?$char_traits@D@std@@V?$allocator@D@2@@std@@@2@V?$allocator@U?$pair@$$CBV?$basic_string@DU?$char_traits@D@std@@V?$allocator@D@2@@std@@PAVWCssRule@@@std@@@2@$0A@@std@@@std@@QAE?AViterator@12@V312@@Z 00403150 f i depend.obj
 0001:00002430       ??0out_of_range@std@@QAE@ABV01@@Z 00403430 f i depend.obj
 0001:00002450       ?erase@?$_Tree@V?$_Tset_traits@PBVWResource@@U?$less@PBVWResource@@@std@@V?$allocator@PBVWResource@@@3@$0A@@std@@@std@@QAE?AViterator@12@V312@@Z 00403450 f i depend.obj
 0001:00002450       ?erase@?$_Tree@V?$_Tset_traits@PBVWSignalInstance_@@U?$less@PBVWSignalInstance_@@@std@@V?$allocator@PBVWSignalInstance_@@@3@$0A@@std@@@std@@QAE?AViterator@12@V312@@Z 00403450 f i depend.obj
 0001:00002720       ?_Erase@?$_Tree@V?$_Tmap_traits@V?$basic_string@DU?$char_traits@D@std@@V?$allocator@D@2@@std@@PAVWCssRule@@U?$less@V?$basic_string@DU?$char_traits@D@std@@V?$allocator@D@2@@std@@@2@V?$allocator@U?$pair@$$CBV?$basic_string@DU?$char_traits@D@std@@V?$allocator@D@2@@std@@PAVWCssRule@@@std@@@2@$0A@@std@@@std@@IAEXPAU_Node@?$_Tree_nod@V?$_Tmap_traits@V?$basic_string@DU?$char_traits@D@std@@V?$allocator@D@2@@std@@PAVWCssRule@@U?$less@V?$basic_string@DU?$char_traits@D@std@@V?$allocator@D@2@@std@@@2@V?$allocator@U?$pair@$$CBV?$basic_string@DU?$char_traits@D@std@@V?$allocator@D@2@@std@@PAVWCssRule@@@std@@@2@$0A@@std@@@2@@Z 00403720 f i depend.obj
 0001:00002760       ??$_Ucopy@PAUTableData@WTableRow@@@?$vector@UTableData@WTableRow@@V?$allocator@UTableData@WTableRow@@@std@@@std@@IAEPAUTableData@WTableRow@@PAU23@00@Z 00403760 f i depend.obj
 0001:00002780       ??4WebSession@@QAEAAV0@ABV0@@Z 00403780 f i depend.obj
 0001:00002940       ??4WMessageResourceBundle@@QAEAAV0@ABV0@@Z 00403940 f i depend.obj
 0001:00002960       ??4WWebWidget@@QAEAAV0@ABV0@@Z 00403960 f i depend.obj
 0001:00002ca0       ??4WInteractWidget@@QAEAAV0@ABV0@@Z 00403ca0 f i depend.obj
 0001:00002ce0       ??4WContainerWidget@@QAEAAV0@ABV0@@Z 00403ce0 f i depend.obj
 0001:00002dc0       ??4WTable@@QAEAAV0@ABV0@@Z 00403dc0 f i depend.obj
 0001:00002f20       ??4WTableCell@@QAEAAV0@ABV0@@Z 00403f20 f i depend.obj
 0001:00002f80       ??4WText@@QAEAAV0@ABV0@@Z  00403f80 f i depend.obj
 0001:00002fe0       ??4WImage@@QAEAAV0@ABV0@@Z 00403fe0 f i depend.obj
 0001:00003040       ??4WFormWidget@@QAEAAV0@ABV0@@Z 00404040 f i depend.obj
 0001:00003090       ??4WPushButton@@QAEAAV0@ABV0@@Z 00404090 f i depend.obj
 0001:00003120       ??4WScrollArea@@QAEAAV0@ABV0@@Z 00404120 f i depend.obj
 0001:00003190       ?testdevice@@YAXHQAPAD@Z   00404190 f   depend.obj
 0001:00003330       _main                      00404330 f   depend.obj
 0001:000034e0       ??0?$vector@PAVWMessageResources@@V?$allocator@PAVWMessageResources@@@std@@@std@@QAE@ABV01@@Z 004044e0 f i depend.obj
 0001:000034e0       ??0?$vector@PAVWObject@@V?$allocator@PAVWObject@@@std@@@std@@QAE@ABV01@@Z 004044e0 f i depend.obj
 0001:000035a0       ?erase@?$_Tree@V?$_Tset_traits@PBVWSignalInstance_@@U?$less@PBVWSignalInstance_@@@std@@V?$allocator@PBVWSignalInstance_@@@3@$0A@@std@@@std@@QAE?AViterator@12@V312@0@Z 004045a0 f i depend.obj
 0001:00003660       ?erase@?$_Tree@V?$_Tset_traits@PBVWResource@@U?$less@PBVWResource@@@std@@V?$allocator@PBVWResource@@@3@$0A@@std@@@std@@QAE?AViterator@12@V312@0@Z 00404660 f i depend.obj
 0001:00003720       ?_Copy@?$_Tree@V?$_Tmap_traits@V?$basic_string@DU?$char_traits@D@std@@V?$allocator@D@2@@std@@PAVWCssRule@@U?$less@V?$basic_string@DU?$char_traits@D@std@@V?$allocator@D@2@@std@@@2@V?$allocator@U?$pair@$$CBV?$basic_string@DU?$char_traits@D@std@@V?$allocator@D@2@@std@@PAVWCssRule@@@std@@@2@$0A@@std@@@std@@IAEPAU_Node@?$_Tree_nod@V?$_Tmap_traits@V?$basic_string@DU?$char_traits@D@std@@V?$allocator@D@2@@std@@PAVWCssRule@@U?$less@V?$basic_string@DU?$char_traits@D@std@@V?$allocator@D@2@@std@@@2@V?$allocator@U?$pair@$$CBV?$basic_string@DU?$char_traits@D@std@@V?$allocator@D@2@@std@@PAVWCssRule@@@std@@@2@$0A@@std@@@2@PAU342@0@Z 00404720 f i depend.obj
 0001:000037d0       ??0WebSession@@QAE@ABV0@@Z 004047d0 f i depend.obj
 0001:000039e0       ??0WMessageResourceBundle@@QAE@ABV0@@Z 004049e0 f i depend.obj
 0001:00003a00       ??1WTableRow@@UAE@XZ       00404a00 f i depend.obj
 0001:00003aa0       ??4?$vector@UTableData@WTableRow@@V?$allocator@UTableData@WTableRow@@@std@@@std@@QAEAAV01@ABV01@@Z 00404aa0 f i depend.obj
 0001:00003bf0       ?erase@?$_Tree@V?$_Tmap_traits@V?$basic_string@DU?$char_traits@D@std@@V?$allocator@D@2@@std@@PAVWCssRule@@U?$less@V?$basic_string@DU?$char_traits@D@std@@V?$allocator@D@2@@std@@@2@V?$allocator@U?$pair@$$CBV?$basic_string@DU?$char_traits@D@std@@V?$allocator@D@2@@std@@PAVWCssRule@@@std@@@2@$0A@@std@@@std@@QAE?AViterator@12@V312@0@Z 00404bf0 f i depend.obj
 0001:00003cb0       ?_Copy@?$_Tree@V?$_Tmap_traits@V?$basic_string@DU?$char_traits@D@std@@V?$allocator@D@2@@std@@PAVWCssRule@@U?$less@V?$basic_string@DU?$char_traits@D@std@@V?$allocator@D@2@@std@@@2@V?$allocator@U?$pair@$$CBV?$basic_string@DU?$char_traits@D@std@@V?$allocator@D@2@@std@@PAVWCssRule@@@std@@@2@$0A@@std@@@std@@IAEXABV12@@Z 00404cb0 f i depend.obj
 0001:00003d40       ??4WTableRow@@QAEAAV0@ABV0@@Z 00404d40 f i depend.obj
 0001:00003d90       ??4WApplication@@QAEAAV0@ABV0@@Z 00404d90 f i depend.obj
 0001:00003ee0       ?getSelMonitorID@CCheckBoxTreeView@@QAE?AV?$basic_string@DU?$char_traits@D@std@@V?$allocator@D@2@@std@@XZ 00404ee0 f i dependform.obj
 0001:00003f10       ?loadString@SVDepend@@AAEXXZ 00404f10 f   dependform.obj
 0001:000040e0       ?getSEID@SVDepend@@AAE?AV?$basic_string@DU?$char_traits@D@std@@V?$allocator@D@2@@std@@PBD@Z 004050e0 f   dependform.obj
 0001:000041d0       ?AddJsParam@SVDepend@@AAEXV?$basic_string@DU?$char_traits@D@std@@V?$allocator@D@2@@std@@0@Z 004051d0 f   dependform.obj
 0001:000042e0       ?ExChange@SVDepend@@AAEXXZ 004052e0 f   dependform.obj
 0001:00004390       ?Translate@SVDepend@@AAEXXZ 00405390 f   dependform.obj
 0001:000043d0       ?createOperate@SVDepend@@AAEXXZ 004053d0 f   dependform.obj
 0001:00004620       ?cancel@SVDepend@@AAEXXZ   00405620 f   dependform.obj
 0001:00004640       ?showTranslate@SVDepend@@AAEXXZ 00405640 f   dependform.obj
 0001:00004880       ?initForm@SVDepend@@AAEXXZ 00405880 f   dependform.obj
 0001:00004e10       ?refresh@SVDepend@@UAEXXZ  00405e10 f   dependform.obj
 0001:000050d0       ?closeWnd@SVDepend@@AAEXXZ 004060d0 f   dependform.obj
 0001:000051d0       ??0SVDepend@@QAE@PAVWContainerWidget@@@Z 004061d0 f   dependform.obj
 0001:00005320       ??_GSVDepend@@UAEPAXI@Z    00406320 f i dependform.obj
 0001:00005320       ??_ESVDepend@@UAEPAXI@Z    00406320 f i dependform.obj
 0001:00005340       ?good@WSlot_@@QAE_NXZ      00406340 f i dependformwt.obj
 0001:00005340       ?good@WSignal_@@QBE_NXZ    00406340 f i dependformwt.obj
 0001:00005350       ?canStatic@WSlot_@@QBE_NXZ 00406350 f i dependformwt.obj
 0001:00005350       ?exposable@WSignal_@@QBE_NXZ 00406350 f i dependformwt.obj
 0001:00005360       ??4WSignal_@@QAEAAV0@ABV0@@Z 00406360 f i dependformwt.obj
 0001:00005360       ??4WSlot_@@QAEAAV0@ABV0@@Z 00406360 f i dependformwt.obj
 0001:00005380       ?staticCodeChanged@WSignalInstance_@@QBE_NXZ 00406380 f i dependformwt.obj
 0001:00005390       ?connectivityChanged@WSignalInstance_@@QBE_NXZ 00406390 f i dependformwt.obj
 0001:000053a0       ??0WSlot_@@QAE@ABV0@@Z     004063a0 f i dependformwt.obj
 0001:000053a0       ??0WSignal_@@QAE@ABV0@@Z   004063a0 f i dependformwt.obj
 0001:000053c0       ?staticCodeCollected@WSlotInstance_@@QBE_NXZ 004063c0 f i dependformwt.obj
 0001:000053d0       ?buildSlotMap@SVDepend@@MAEXAAV?$map@V?$basic_string@DU?$char_traits@D@std@@V?$allocator@D@2@@std@@PAVWSlotInstance_@@U?$less@V?$basic_string@DU?$char_traits@D@std@@V?$allocator@D@2@@std@@@2@V?$allocator@U?$pair@$$CBV?$basic_string@DU?$char_traits@D@std@@V?$allocator@D@2@@std@@PAVWSlotInstance_@@@std@@@2@@std@@@Z 004063d0 f   dependformwt.obj
 0001:000054c0       ?triggerSlot@SVDepend@@MAE_NPAVWObject@@PBVWSlot_@@PAPAX@Z 004064c0 f   dependformwt.obj
 0001:00005530       ??R?$less@V?$basic_string@DU?$char_traits@D@std@@V?$allocator@D@2@@std@@@std@@QBE_NABV?$basic_string@DU?$char_traits@D@std@@V?$allocator@D@2@@1@0@Z 00406530 f i dependformwt.obj
 0001:00005550       ?_Xlen@?$vector@PAVWConnection_@@V?$allocator@PAVWConnection_@@@std@@@std@@IBEXXZ 00406550 f i dependformwt.obj
 0001:000055d0       ?_Dec@const_iterator@?$_Tree@V?$_Tmap_traits@V?$basic_string@DU?$char_traits@D@std@@V?$allocator@D@2@@std@@PAVWCheckBox@@U?$less@V?$basic_string@DU?$char_traits@D@std@@V?$allocator@D@2@@std@@@2@V?$allocator@U?$pair@$$CBV?$basic_string@DU?$char_traits@D@std@@V?$allocator@D@2@@std@@PAVWCheckBox@@@std@@@2@$0A@@std@@@std@@QAEXXZ 004065d0 f i dependtree:CheckBoxTreeView.obj
 0001:000055d0       ?_Dec@const_iterator@?$_Tree@V?$_Tmap_traits@V?$basic_string@DU?$char_traits@D@std@@V?$allocator@D@2@@std@@PAVWSignalInstance_@@U?$less@V?$basic_string@DU?$char_traits@D@std@@V?$allocator@D@2@@std@@@2@V?$allocator@U?$pair@$$CBV?$basic_string@DU?$char_traits@D@std@@V?$allocator@D@2@@std@@PAVWSignalInstance_@@@std@@@2@$0A@@std@@@std@@QAEXXZ 004065d0 f i dependformwt.obj
 0001:000055d0       ?_Dec@const_iterator@?$_Tree@V?$_Tmap_traits@V?$basic_string@DU?$char_traits@D@std@@V?$allocator@D@2@@std@@PAVWSlotInstance_@@U?$less@V?$basic_string@DU?$char_traits@D@std@@V?$allocator@D@2@@std@@@2@V?$allocator@U?$pair@$$CBV?$basic_string@DU?$char_traits@D@std@@V?$allocator@D@2@@std@@PAVWSlotInstance_@@@std@@@2@$0A@@std@@@std@@QAEXXZ 004065d0 f i dependtree:WWebWidget.obj
 0001:000055d0       ?_Dec@const_iterator@?$_Tree@V?$_Tmap_traits@W4Property@Wt@@V?$basic_string@DU?$char_traits@D@std@@V?$allocator@D@2@@std@@U?$less@W4Property@Wt@@@4@V?$allocator@U?$pair@$$CBW4Property@Wt@@V?$basic_string@DU?$char_traits@D@std@@V?$allocator@D@2@@std@@@std@@@4@$0A@@std@@@std@@QAEXXZ 004065d0 f i dependtree:DomElement.obj
 0001:00005630       ?isConnected@WSignalInstance_@@ABE_NXZ 00406630 f i dependformwt.obj
 0001:00005660       ?_Buy@?$vector@PAVWConnection_@@V?$allocator@PAVWConnection_@@@std@@@std@@IAE_NI@Z 00406660 f i dependformwt.obj
 0001:000056b0       ??1?$vector@PAVWTable@@V?$allocator@PAVWTable@@@std@@@std@@QAE@XZ 004066b0 f i WSPopTable.obj
 0001:000056b0       ??1?$vector@PAVWScrollBar@@V?$allocator@PAVWScrollBar@@@std@@@std@@QAE@XZ 004066b0 f i dependtree:WScrollBar.obj
 0001:000056b0       ?_Tidy@?$vector@PAVWObject@@V?$allocator@PAVWObject@@@std@@@std@@IAEXXZ 004066b0 f i depend.obj
 0001:000056b0       ??1?$vector@PAVWWidget@@V?$allocator@PAVWWidget@@@std@@@std@@QAE@XZ 004066b0 f i depend.obj
 0001:000056b0       ??1?$vector@PAVDomElement@@V?$allocator@PAVDomElement@@@std@@@std@@QAE@XZ 004066b0 f i dependtree:WWebWidget.obj
 0001:000056b0       ?_Tidy@?$vector@PAVWConnection_@@V?$allocator@PAVWConnection_@@@std@@@std@@IAEXXZ 004066b0 f i dependformwt.obj
 0001:000056b0       ??1?$vector@UTableData@WTableRow@@V?$allocator@UTableData@WTableRow@@@std@@@std@@QAE@XZ 004066b0 f i depend.obj
 0001:000056b0       ??1?$vector@PAVWTreeNode@@V?$allocator@PAVWTreeNode@@@std@@@std@@QAE@XZ 004066b0 f i dependtree:CheckBoxTreeView.obj
 0001:000056b0       ??1?$vector@PAVWConnection_@@V?$allocator@PAVWConnection_@@@std@@@std@@QAE@XZ 004066b0 f i dependformwt.obj
 0001:000056b0       ??1WMessageResourceBundle@@QAE@XZ 004066b0 f i depend.obj
 0001:000056b0       ?_Tidy@?$vector@PAVWMessageResources@@V?$allocator@PAVWMessageResources@@@std@@@std@@IAEXXZ 004066b0 f i depend.obj
 0001:000056b0       ??1?$vector@PAVWObject@@V?$allocator@PAVWObject@@@std@@@std@@QAE@XZ 004066b0 f i depend.obj
 0001:000056b0       ??1?$vector@PAVWTableRow@@V?$allocator@PAVWTableRow@@@std@@@std@@QAE@XZ 004066b0 f i dependtree:WTable.obj
 0001:000056e0       ?_Buynode@?$_Tree@V?$_Tmap_traits@V?$basic_string@DU?$char_traits@D@std@@V?$allocator@D@2@@std@@PAVWSignalInstance_@@U?$less@V?$basic_string@DU?$char_traits@D@std@@V?$allocator@D@2@@std@@@2@V?$allocator@U?$pair@$$CBV?$basic_string@DU?$char_traits@D@std@@V?$allocator@D@2@@std@@PAVWSignalInstance_@@@std@@@2@$0A@@std@@@std@@IAEPAU_Node@?$_Tree_nod@V?$_Tmap_traits@V?$basic_string@DU?$char_traits@D@std@@V?$allocator@D@2@@std@@PAVWSignalInstance_@@U?$less@V?$basic_string@DU?$char_traits@D@std@@V?$allocator@D@2@@std@@@2@V?$allocator@U?$pair@$$CBV?$basic_string@DU?$char_traits@D@std@@V?$allocator@D@2@@std@@PAVWSignalInstance_@@@std@@@2@$0A@@std@@@2@PAU342@00ABU?$pair@$$CBV?$basic_string@DU?$char_traits@D@std@@V?$allocator@D@2@@std@@PAVWSignalInstance_@@@2@D@Z 004066e0 f i dependformwt.obj
 0001:00005780       ??$_Uninit_copy@Vconst_iterator@?$vector@PAVWConnection_@@V?$allocator@PAVWConnection_@@@std@@@std@@PAPAVWConnection_@@V?$allocator@PAVWConnection_@@@3@@std@@YAPAPAVWConnection_@@Vconst_iterator@?$vector@PAVWConnection_@@V?$allocator@PAVWConnection_@@@std@@@0@0PAPAV1@AAV?$allocator@PAVWConnection_@@@0@U_Nonscalar_ptr_iterator_tag@0@@Z 00406780 f i dependformwt.obj
 0001:00005780       ??$_Uninit_copy@Vconst_iterator@?$vector@PAVWObject@@V?$allocator@PAVWObject@@@std@@@std@@PAPAVWObject@@V?$allocator@PAVWObject@@@3@@std@@YAPAPAVWObject@@Vconst_iterator@?$vector@PAVWObject@@V?$allocator@PAVWObject@@@std@@@0@0PAPAV1@AAV?$allocator@PAVWObject@@@0@U_Nonscalar_ptr_iterator_tag@0@@Z 00406780 f i depend.obj
 0001:00005780       ??$_Uninit_copy@Vconst_iterator@?$vector@PAVWMessageResources@@V?$allocator@PAVWMessageResources@@@std@@@std@@PAPAVWMessageResources@@V?$allocator@PAVWMessageResources@@@3@@std@@YAPAPAVWMessageResources@@Vconst_iterator@?$vector@PAVWMessageResources@@V?$allocator@PAVWMessageResources@@@std@@@0@0PAPAV1@AAV?$allocator@PAVWMessageResources@@@0@U_Nonscalar_ptr_iterator_tag@0@@Z 00406780 f i depend.obj
 0001:000057b0       ?_Insert@?$_Tree@V?$_Tmap_traits@V?$basic_string@DU?$char_traits@D@std@@V?$allocator@D@2@@std@@PAVWSignalInstance_@@U?$less@V?$basic_string@DU?$char_traits@D@std@@V?$allocator@D@2@@std@@@2@V?$allocator@U?$pair@$$CBV?$basic_string@DU?$char_traits@D@std@@V?$allocator@D@2@@std@@PAVWSignalInstance_@@@std@@@2@$0A@@std@@@std@@IAE?AViterator@12@_NPAU_Node@?$_Tree_nod@V?$_Tmap_traits@V?$basic_string@DU?$char_traits@D@std@@V?$allocator@D@2@@std@@PAVWSignalInstance_@@U?$less@V?$basic_string@DU?$char_traits@D@std@@V?$allocator@D@2@@std@@@2@V?$allocator@U?$pair@$$CBV?$basic_string@DU?$char_traits@D@std@@V?$allocator@D@2@@std@@PAVWSignalInstance_@@@std@@@2@$0A@@std@@@2@ABU?$pair@$$CBV?$basic_string@DU?$char_traits@D@std@@V?$allocator@D@2@@std@@PAVWSignalInstance_@@@2@@Z 004067b0 f i dependformwt.obj
 0001:00005970       ??4?$vector@PAVWConnection_@@V?$allocator@PAVWConnection_@@@std@@@std@@QAEAAV01@ABV01@@Z 00406970 f i dependformwt.obj
 0001:00005ac0       ?insert@?$_Tree@V?$_Tmap_traits@V?$basic_string@DU?$char_traits@D@std@@V?$allocator@D@2@@std@@PAVWSignalInstance_@@U?$less@V?$basic_string@DU?$char_traits@D@std@@V?$allocator@D@2@@std@@@2@V?$allocator@U?$pair@$$CBV?$basic_string@DU?$char_traits@D@std@@V?$allocator@D@2@@std@@PAVWSignalInstance_@@@std@@@2@$0A@@std@@@std@@QAE?AU?$pair@Viterator@?$_Tree@V?$_Tmap_traits@V?$basic_string@DU?$char_traits@D@std@@V?$allocator@D@2@@std@@PAVWSignalInstance_@@U?$less@V?$basic_string@DU?$char_traits@D@std@@V?$allocator@D@2@@std@@@2@V?$allocator@U?$pair@$$CBV?$basic_string@DU?$char_traits@D@std@@V?$allocator@D@2@@std@@PAVWSignalInstance_@@@std@@@2@$0A@@std@@@std@@_N@2@ABU?$pair@$$CBV?$basic_string@DU?$char_traits@D@std@@V?$allocator@D@2@@std@@PAVWSignalInstance_@@@2@@Z 00406ac0 f i dependformwt.obj
 0001:00005ba0       ??4WSignalInstance_@@QAEAAV0@ABV0@@Z 00406ba0 f i dependformwt.obj
 0001:00005bf0       ??4WSlotInstance_@@QAEAAV0@ABV0@@Z 00406bf0 f i dependformwt.obj
 0001:00005c30       ??0?$vector@PAVWConnection_@@V?$allocator@PAVWConnection_@@@std@@@std@@QAE@ABV01@@Z 00406c30 f i dependformwt.obj
 0001:00005cf0       ?insert@?$_Tree@V?$_Tmap_traits@V?$basic_string@DU?$char_traits@D@std@@V?$allocator@D@2@@std@@PAVWSignalInstance_@@U?$less@V?$basic_string@DU?$char_traits@D@std@@V?$allocator@D@2@@std@@@2@V?$allocator@U?$pair@$$CBV?$basic_string@DU?$char_traits@D@std@@V?$allocator@D@2@@std@@PAVWSignalInstance_@@@std@@@2@$0A@@std@@@std@@QAE?AViterator@12@V312@ABU?$pair@$$CBV?$basic_string@DU?$char_traits@D@std@@V?$allocator@D@2@@std@@PAVWSignalInstance_@@@2@@Z 00406cf0 f i dependformwt.obj
 0001:00005eb0       ??0WSignalInstance_@@QAE@ABV0@@Z 00406eb0 f i dependformwt.obj
 0001:00005f30       ??0WSlotInstance_@@QAE@ABV0@@Z 00406f30 f i dependformwt.obj
 0001:00005fa0       ??A?$map@V?$basic_string@DU?$char_traits@D@std@@V?$allocator@D@2@@std@@PAVWSignalInstance_@@U?$less@V?$basic_string@DU?$char_traits@D@std@@V?$allocator@D@2@@std@@@2@V?$allocator@U?$pair@$$CBV?$basic_string@DU?$char_traits@D@std@@V?$allocator@D@2@@std@@PAVWSignalInstance_@@@std@@@2@@std@@QAEAAPAVWSignalInstance_@@ABV?$basic_string@DU?$char_traits@D@std@@V?$allocator@D@2@@1@@Z 00406fa0 f i dependformwt.obj
 0001:00006040       ?buildSignalMap@SVDepend@@MAEXAAV?$map@V?$basic_string@DU?$char_traits@D@std@@V?$allocator@D@2@@std@@PAVWSignalInstance_@@U?$less@V?$basic_string@DU?$char_traits@D@std@@V?$allocator@D@2@@std@@@2@V?$allocator@U?$pair@$$CBV?$basic_string@DU?$char_traits@D@std@@V?$allocator@D@2@@std@@PAVWSignalInstance_@@@std@@@2@@std@@@Z 00407040 f   dependformwt.obj
 0001:00006100       ??1WSPopButton@@UAE@XZ     00407100 f   WSPopButton.obj
 0001:00006110       ??0WSPopButton@@QAE@PAVWContainerWidget@@V?$basic_string@DU?$char_traits@D@std@@V?$allocator@D@2@@std@@11_N@Z 00407110 f   WSPopButton.obj
 0001:00006840       ??_GWSPopButton@@UAEPAXI@Z 00407840 f i WSPopButton.obj
 0001:00006840       ??_EWSPopButton@@UAEPAXI@Z 00407840 f i WSPopButton.obj
 0001:00006860       ?ShowTop@WSPopTable@@AAEXPAVWTable@@@Z 00407860 f   WSPopTable.obj
 0001:000069a0       ?ShowBottom@WSPopTable@@AAEXPAVWTable@@@Z 004079a0 f   WSPopTable.obj
 0001:00006ae0       ?_Xlen@?$vector@PAVWTable@@V?$allocator@PAVWTable@@@std@@@std@@IBEXXZ 00407ae0 f i WSPopTable.obj
 0001:00006b60       ?_Ufill@?$vector@PAVWObject@@V?$allocator@PAVWObject@@@std@@@std@@IAEPAPAVWObject@@PAPAV3@IABQAV3@@Z 00407b60 f i dependtree:WWebWidget.obj
 0001:00006b60       ?_Ufill@?$vector@PAVWTable@@V?$allocator@PAVWTable@@@std@@@std@@IAEPAPAVWTable@@PAPAV3@IABQAV3@@Z 00407b60 f i WSPopTable.obj
 0001:00006b60       ?_Ufill@?$vector@PAVWTreeNode@@V?$allocator@PAVWTreeNode@@@std@@@std@@IAEPAPAVWTreeNode@@PAPAV3@IABQAV3@@Z 00407b60 f i dependtree:CheckBoxTreeView.obj
 0001:00006b60       ?_Ufill@?$vector@PAVWConnection_@@V?$allocator@PAVWConnection_@@@std@@@std@@IAEPAPAVWConnection_@@PAPAV3@IABQAV3@@Z 00407b60 f i dependtree:WSlotInstance_.obj
 0001:00006b60       ?_Ufill@?$vector@PAVWScrollBar@@V?$allocator@PAVWScrollBar@@@std@@@std@@IAEPAPAVWScrollBar@@PAPAV3@IABQAV3@@Z 00407b60 f i dependtree:WScrollBar.obj
 0001:00006b60       ?_Ufill@?$vector@PAVWMessageResources@@V?$allocator@PAVWMessageResources@@@std@@@std@@IAEPAPAVWMessageResources@@PAPAV3@IABQAV3@@Z 00407b60 f i dependtree:WMessageResourceBundle.obj
 0001:00006b60       ?_Ufill@?$vector@PAVWTableRow@@V?$allocator@PAVWTableRow@@@std@@@std@@IAEPAPAVWTableRow@@PAPAV3@IABQAV3@@Z 00407b60 f i dependtree:WTable.obj
 0001:00006b60       ?_Ufill@?$vector@PAVWWidget@@V?$allocator@PAVWWidget@@@std@@@std@@IAEPAPAVWWidget@@PAPAV3@IABQAV3@@Z 00407b60 f i dependtree:WWebWidget.obj
 0001:00006b60       ?_Ufill@?$vector@PAVDomElement@@V?$allocator@PAVDomElement@@@std@@@std@@IAEPAPAVDomElement@@PAPAV3@IABQAV3@@Z 00407b60 f i dependtree:WWebWidget.obj
 0001:00006b90       ?_Insert_n@?$vector@PAVWTable@@V?$allocator@PAVWTable@@@std@@@std@@IAEXViterator@12@IABQAVWTable@@@Z 00407b90 f i WSPopTable.obj
 0001:00006d80       ?GeRowContentTable@WSPopTable@@QAEPAVWTable@@H@Z 00407d80 f   WSPopTable.obj
 0001:00006db0       ?GeRowActionTable@WSPopTable@@QAEPAVWTable@@H@Z 00407db0 f   WSPopTable.obj
 0001:00006de0       ??0WSPopTable@@QAE@PAVWContainerWidget@@_N@Z 00407de0 f   WSPopTable.obj
 0001:00006fe0       ??_GWSPopTable@@UAEPAXI@Z  00407fe0 f i WSPopTable.obj
 0001:00006fe0       ??_EWSPopTable@@UAEPAXI@Z  00407fe0 f i WSPopTable.obj
 0001:00007000       ??1WSPopTable@@UAE@XZ      00408000 f i WSPopTable.obj
 0001:00007060       ?AppendRows@WSPopTable@@QAEXV?$basic_string@DU?$char_traits@D@std@@V?$allocator@D@2@@std@@@Z 00408060 f   WSPopTable.obj
 0001:00007790       ?buildSlotMap@WSPopTable@@MAEXAAV?$map@V?$basic_string@DU?$char_traits@D@std@@V?$allocator@D@2@@std@@PAVWSlotInstance_@@U?$less@V?$basic_string@DU?$char_traits@D@std@@V?$allocator@D@2@@std@@@2@V?$allocator@U?$pair@$$CBV?$basic_string@DU?$char_traits@D@std@@V?$allocator@D@2@@std@@PAVWSlotInstance_@@@std@@@2@@std@@@Z 00408790 f   WSPopTableWt.obj
 0001:00007880       ?triggerSlot@WSPopTable@@MAE_NPAVWObject@@PBVWSlot_@@PAPAX@Z 00408880 f   WSPopTableWt.obj
 0001:000078b0       ?buildSignalMap@WSPopTable@@MAEXAAV?$map@V?$basic_string@DU?$char_traits@D@std@@V?$allocator@D@2@@std@@PAVWSignalInstance_@@U?$less@V?$basic_string@DU?$char_traits@D@std@@V?$allocator@D@2@@std@@@2@V?$allocator@U?$pair@$$CBV?$basic_string@DU?$char_traits@D@std@@V?$allocator@D@2@@std@@PAVWSignalInstance_@@@std@@@2@@std@@@Z 004088b0 f   WSPopTableWt.obj
 0001:00007970       ??0WCssRule@@QAE@V?$basic_string@DU?$char_traits@D@std@@V?$allocator@D@2@@std@@@Z 00408970 f   dependtree:WCssStyleSheet.obj
 0001:000079d0       ??1WCssRule@@UAE@XZ        004089d0 f   dependtree:WCssStyleSheet.obj
 0001:000079e0       ?cssText@WCssStyleSheet@@QBE?AV?$basic_string@DU?$char_traits@D@std@@V?$allocator@D@2@@std@@XZ 004089e0 f   dependtree:WCssStyleSheet.obj
 0001:00007b70       ??1?$map@V?$basic_string@DU?$char_traits@D@std@@V?$allocator@D@2@@std@@PAVWCssRule@@U?$less@V?$basic_string@DU?$char_traits@D@std@@V?$allocator@D@2@@std@@@2@V?$allocator@U?$pair@$$CBV?$basic_string@DU?$char_traits@D@std@@V?$allocator@D@2@@std@@PAVWCssRule@@@std@@@2@@std@@QAE@XZ 00408b70 f i dependtree:WCssStyleSheet.obj
 0001:00007ba0       ??1WCssStyleSheet@@QAE@XZ  00408ba0 f   dependtree:WCssStyleSheet.obj
 0001:00007c60       ??0WCssStyleSheet@@QAE@XZ  00408c60 f   dependtree:WCssStyleSheet.obj
 0001:00007c90       ?what@bad_lexical_cast@boost@@UBEPBDXZ 00408c90 f i dependtree:WWebWidget.obj
 0001:00007ca0       ??1bad_lexical_cast@boost@@UAE@XZ 00408ca0 f i dependtree:WWebWidget.obj
 0001:00007cb0       ??_Gbad_lexical_cast@boost@@UAEPAXI@Z 00408cb0 f i dependtree:WWebWidget.obj
 0001:00007cb0       ??_Ebad_lexical_cast@boost@@UAEPAXI@Z 00408cb0 f i dependtree:WWebWidget.obj
 0001:00007cd0       ?type@DomElement@@QBE?AW4ElementType@1@XZ 00408cd0 f i dependtree:WWebWidget.obj
 0001:00007cd0       ?floatSide@WWebWidget@@UBE?AW4Side@WWidget@@XZ 00408cd0 f i dependtree:WWebWidget.obj
 0001:00007cd0       ?orientation@WScrollBar@@QBE?AW4Orientation@1@XZ 00408cd0 f i dependtree:WScrollArea.obj
 0001:00007ce0       ?getStaticCode@WSlotInstance_@@QAE?AV?$basic_string@DU?$char_traits@D@std@@V?$allocator@D@2@@std@@XZ 00408ce0 f i dependformwt.obj
 0001:00007ce0       ?staticCode@WSlotInstance_@@QBE?BV?$basic_string@DU?$char_traits@D@std@@V?$allocator@D@2@@std@@XZ 00408ce0 f i dependformwt.obj
 0001:00007ce0       ?id@DomElement@@QBE?AV?$basic_string@DU?$char_traits@D@std@@V?$allocator@D@2@@std@@XZ 00408ce0 f i dependtree:WWebWidget.obj
 0001:00007ce0       ?statements@JavaScript@@QBE?BV?$basic_string@DU?$char_traits@D@std@@V?$allocator@D@2@@std@@XZ 00408ce0 f i dependtree:WWebWidget.obj
 0001:00007d10       ??1JavaScript@@QAE@XZ      00408d10 f i dependtree:WWebWidget.obj
 0001:00007d10       ??1?$pair@$$CBV?$basic_string@DU?$char_traits@D@std@@V?$allocator@D@2@@std@@V12@@std@@QAE@XZ 00408d10 f i dependtree:WWebWidget.obj
 0001:00007d10       ??1?$pair@V?$basic_string@DU?$char_traits@D@std@@V?$allocator@D@2@@std@@V12@@std@@QAE@XZ 00408d10 f i dependtree:WWebWidget.obj
 0001:00007d60       ??4JavaScript@@QAEAAV0@ABV0@@Z 00408d60 f i dependtree:WWebWidget.obj
 0001:00007d90       ?triggerSlot@WCompositeWidget@@MAE_NPAVWObject@@PBVWSlot_@@PAPAX@Z 00408d90 f   dependtree:WCompositeWidget.obj
 0001:00007d90       ?triggerSlot@WWebWidget@@MAE_NPAVWObject@@PBVWSlot_@@PAPAX@Z 00408d90 f   dependtree:WWebWidget.obj
 0001:00007da0       ?setFormObject@WWebWidget@@IAEX_N@Z 00408da0 f   dependtree:WWebWidget.obj
 0001:00007db0       ?renderOk@WWebWidget@@IAEXXZ 00408db0 f   dependtree:WWebWidget.obj
 0001:00007dc0       ?repaint@WWebWidget@@IAEXXZ 00408dc0 f   dependtree:WWebWidget.obj
 0001:00007dc0       ?signalConnectionsChanged@WWebWidget@@EAEXXZ 00408dc0 f   dependtree:WWebWidget.obj
 0001:00007dd0       ?setParent@WWebWidget@@MAEXPAVWWidget@@@Z 00408dd0 f   dependtree:WWebWidget.obj
 0001:00007e00       ?parent@WWebWidget@@UBEPAVWWidget@@XZ 00408e00 f   dependtree:WWebWidget.obj
 0001:00007e10       ?setPositionScheme@WWebWidget@@UAEXW4PositionScheme@WWidget@@@Z 00408e10 f   dependtree:WWebWidget.obj
 0001:00007e40       ?resize@WWebWidget@@UAEXVWLength@@0@Z 00408e40 f   dependtree:WWebWidget.obj
 0001:00007e90       ?setMinimumSize@WWebWidget@@UAEXVWLength@@0@Z 00408e90 f   dependtree:WWebWidget.obj
 0001:00007ef0       ?setMaximumSize@WWebWidget@@UAEXVWLength@@0@Z 00408ef0 f   dependtree:WWebWidget.obj
 0001:00007f50       ?setFloatSide@WWebWidget@@UAEXW4Side@WWidget@@@Z 00408f50 f   dependtree:WWebWidget.obj
 0001:00007f70       ?setClearSides@WWebWidget@@UAEXH@Z 00408f70 f   dependtree:WWebWidget.obj
 0001:00007f90       ?clearSides@WWebWidget@@UBEHXZ 00408f90 f   dependtree:WWebWidget.obj
 0001:00007fa0       ?setVerticalAlignment@WWebWidget@@UAEXW4VerticalAlignment@WWidget@@VWLength@@@Z 00408fa0 f   dependtree:WWebWidget.obj
 0001:00007fe0       ?setOffset@WWebWidget@@UAEXW4Side@WWidget@@VWLength@@@Z 00408fe0 f   dependtree:WWebWidget.obj
 0001:00008060       ?offset@WWebWidget@@UBE?AVWLength@@W4Side@WWidget@@@Z 00409060 f   dependtree:WWebWidget.obj
 0001:00008110       ?zIndex@WWebWidget@@ABEHXZ 00409110 f   dependtree:WWebWidget.obj
 0001:00008150       ?setInline@WWebWidget@@UAEX_N@Z 00409150 f   dependtree:WWebWidget.obj
 0001:00008170       ?setPopup@WWebWidget@@UAEX_N@Z 00409170 f   dependtree:WWebWidget.obj
 0001:00008190       ?setMargin@WWebWidget@@UAEXVWLength@@H@Z 00409190 f   dependtree:WWebWidget.obj
 0001:00008220       ?margin@WWebWidget@@UBE?AVWLength@@W4Side@WWidget@@@Z 00409220 f   dependtree:WWebWidget.obj
 0001:000082d0       ?setStyleClass@WWebWidget@@UAEXV?$basic_string@DU?$char_traits@D@std@@V?$allocator@D@2@@std@@@Z 004092d0 f   dependtree:WWebWidget.obj
 0001:00008340       ?setToolTip@WWebWidget@@UAEXV?$basic_string@DU?$char_traits@D@std@@V?$allocator@D@2@@std@@@Z 00409340 f   dependtree:WWebWidget.obj
 0001:000083e0       ?setToolTipMessage@WWebWidget@@UAEXABVWMessage@@@Z 004093e0 f   dependtree:WWebWidget.obj
 0001:00008420       ?setHidden@WWebWidget@@UAEX_N@Z 00409420 f   dependtree:WWebWidget.obj
 0001:00008440       ?hide@WWebWidget@@UAEXXZ   00409440 f   dependtree:WWebWidget.obj
 0001:00008460       ?show@WWebWidget@@UAEXXZ   00409460 f   dependtree:WWebWidget.obj
 0001:00008480       ?undoHide@WWebWidget@@EAEXXZ 00409480 f   dependtree:WWebWidget.obj
 0001:00008490       ?undoShow@WWebWidget@@EAEXXZ 00409490 f   dependtree:WWebWidget.obj
 0001:000084a0       ?isLoaded@WWebWidget@@IBE_NXZ 004094a0 f   dependtree:WWebWidget.obj
 0001:000084e0       ?getSFormObjects@WWebWidget@@AAEXAAV?$vector@PAVWObject@@V?$allocator@PAVWObject@@@std@@@std@@@Z 004094e0 f   dependtree:WWebWidget.obj
 0001:00008500       ?createSDomElement@WWebWidget@@AAEPAVDomElement@@XZ 00409500 f   dependtree:WWebWidget.obj
 0001:00008580       ?getEncodeCmd@WWebWidget@@QAE?AV?$basic_string@DU?$char_traits@D@std@@V?$allocator@D@2@@std@@PBD@Z 00409580 f   dependtree:WWebWidget.obj
 0001:000085e0       ?updateSignalConnection@WWebWidget@@IAEXAAVDomElement@@PBDV?$basic_string@DU?$char_traits@D@std@@V?$allocator@D@2@@std@@1_N1@Z 004095e0 f   dependtree:WWebWidget.obj
 0001:000086c0       ?setNoFormData@WWebWidget@@EAEXXZ 004096c0 f   dependtree:WWebWidget.obj
 0001:000086e0       ?_Max@?$_Tree@V?$_Tmap_traits@V?$basic_string@DU?$char_traits@D@std@@V?$allocator@D@2@@std@@V12@U?$less@V?$basic_string@DU?$char_traits@D@std@@V?$allocator@D@2@@std@@@2@V?$allocator@U?$pair@$$CBV?$basic_string@DU?$char_traits@D@std@@V?$allocator@D@2@@std@@V12@@std@@@2@$0A@@std@@@std@@KAPAU_Node@?$_Tree_nod@V?$_Tmap_traits@V?$basic_string@DU?$char_traits@D@std@@V?$allocator@D@2@@std@@V12@U?$less@V?$basic_string@DU?$char_traits@D@std@@V?$allocator@D@2@@std@@@2@V?$allocator@U?$pair@$$CBV?$basic_string@DU?$char_traits@D@std@@V?$allocator@D@2@@std@@V12@@std@@@2@$0A@@std@@@2@PAU342@@Z 004096e0 f i dependtree:WWebWidget.obj
 0001:00008700       ?_Min@?$_Tree@V?$_Tmap_traits@V?$basic_string@DU?$char_traits@D@std@@V?$allocator@D@2@@std@@V12@U?$less@V?$basic_string@DU?$char_traits@D@std@@V?$allocator@D@2@@std@@@2@V?$allocator@U?$pair@$$CBV?$basic_string@DU?$char_traits@D@std@@V?$allocator@D@2@@std@@V12@@std@@@2@$0A@@std@@@std@@KAPAU_Node@?$_Tree_nod@V?$_Tmap_traits@V?$basic_string@DU?$char_traits@D@std@@V?$allocator@D@2@@std@@V12@U?$less@V?$basic_string@DU?$char_traits@D@std@@V?$allocator@D@2@@std@@@2@V?$allocator@U?$pair@$$CBV?$basic_string@DU?$char_traits@D@std@@V?$allocator@D@2@@std@@V12@@std@@@2@$0A@@std@@@2@PAU342@@Z 00409700 f i dependtree:WWebWidget.obj
 0001:00008720       ?_Min@?$_Tree@V?$_Tmap_traits@V?$basic_string@DU?$char_traits@D@std@@V?$allocator@D@2@@std@@PAVWCheckBox@@U?$less@V?$basic_string@DU?$char_traits@D@std@@V?$allocator@D@2@@std@@@2@V?$allocator@U?$pair@$$CBV?$basic_string@DU?$char_traits@D@std@@V?$allocator@D@2@@std@@PAVWCheckBox@@@std@@@2@$0A@@std@@@std@@KAPAU_Node@?$_Tree_nod@V?$_Tmap_traits@V?$basic_string@DU?$char_traits@D@std@@V?$allocator@D@2@@std@@PAVWCheckBox@@U?$less@V?$basic_string@DU?$char_traits@D@std@@V?$allocator@D@2@@std@@@2@V?$allocator@U?$pair@$$CBV?$basic_string@DU?$char_traits@D@std@@V?$allocator@D@2@@std@@PAVWCheckBox@@@std@@@2@$0A@@std@@@2@PAU342@@Z 00409720 f i dependtree:CheckBoxTreeView.obj
 0001:00008720       ?_Min@?$_Tree@V?$_Tmap_traits@V?$basic_string@DU?$char_traits@D@std@@V?$allocator@D@2@@std@@PAVWSlotInstance_@@U?$less@V?$basic_string@DU?$char_traits@D@std@@V?$allocator@D@2@@std@@@2@V?$allocator@U?$pair@$$CBV?$basic_string@DU?$char_traits@D@std@@V?$allocator@D@2@@std@@PAVWSlotInstance_@@@std@@@2@$0A@@std@@@std@@KAPAU_Node@?$_Tree_nod@V?$_Tmap_traits@V?$basic_string@DU?$char_traits@D@std@@V?$allocator@D@2@@std@@PAVWSlotInstance_@@U?$less@V?$basic_string@DU?$char_traits@D@std@@V?$allocator@D@2@@std@@@2@V?$allocator@U?$pair@$$CBV?$basic_string@DU?$char_traits@D@std@@V?$allocator@D@2@@std@@PAVWSlotInstance_@@@std@@@2@$0A@@std@@@2@PAU342@@Z 00409720 f i dependtree:WWebWidget.obj
 0001:00008720       ?_Min@?$_Tree@V?$_Tmap_traits@V?$basic_string@DU?$char_traits@D@std@@V?$allocator@D@2@@std@@PAVWSignalInstance_@@U?$less@V?$basic_string@DU?$char_traits@D@std@@V?$allocator@D@2@@std@@@2@V?$allocator@U?$pair@$$CBV?$basic_string@DU?$char_traits@D@std@@V?$allocator@D@2@@std@@PAVWSignalInstance_@@@std@@@2@$0A@@std@@@std@@KAPAU_Node@?$_Tree_nod@V?$_Tmap_traits@V?$basic_string@DU?$char_traits@D@std@@V?$allocator@D@2@@std@@PAVWSignalInstance_@@U?$less@V?$basic_string@DU?$char_traits@D@std@@V?$allocator@D@2@@std@@@2@V?$allocator@U?$pair@$$CBV?$basic_string@DU?$char_traits@D@std@@V?$allocator@D@2@@std@@PAVWSignalInstance_@@@std@@@2@$0A@@std@@@2@PAU342@@Z 00409720 f i dependformwt.obj
 0001:00008720       ?_Min@?$_Tree@V?$_Tmap_traits@V?$basic_string@DU?$char_traits@D@std@@V?$allocator@D@2@@std@@PAVWCssRule@@U?$less@V?$basic_string@DU?$char_traits@D@std@@V?$allocator@D@2@@std@@@2@V?$allocator@U?$pair@$$CBV?$basic_string@DU?$char_traits@D@std@@V?$allocator@D@2@@std@@PAVWCssRule@@@std@@@2@$0A@@std@@@std@@KAPAU_Node@?$_Tree_nod@V?$_Tmap_traits@V?$basic_string@DU?$char_traits@D@std@@V?$allocator@D@2@@std@@PAVWCssRule@@U?$less@V?$basic_string@DU?$char_traits@D@std@@V?$allocator@D@2@@std@@@2@V?$allocator@U?$pair@$$CBV?$basic_string@DU?$char_traits@D@std@@V?$allocator@D@2@@std@@PAVWCssRule@@@std@@@2@$0A@@std@@@2@PAU342@@Z 00409720 f i depend.obj
 0001:00008720       ?_Min@?$_Tree@V?$_Tmap_traits@W4Property@Wt@@V?$basic_string@DU?$char_traits@D@std@@V?$allocator@D@2@@std@@U?$less@W4Property@Wt@@@4@V?$allocator@U?$pair@$$CBW4Property@Wt@@V?$basic_string@DU?$char_traits@D@std@@V?$allocator@D@2@@std@@@std@@@4@$0A@@std@@@std@@KAPAU_Node@?$_Tree_nod@V?$_Tmap_traits@W4Property@Wt@@V?$basic_string@DU?$char_traits@D@std@@V?$allocator@D@2@@std@@U?$less@W4Property@Wt@@@4@V?$allocator@U?$pair@$$CBW4Property@Wt@@V?$basic_string@DU?$char_traits@D@std@@V?$allocator@D@2@@std@@@std@@@4@$0A@@std@@@2@PAU342@@Z 00409720 f i dependtree:WWebWidget.obj
 0001:00008720       ?_Min@?$_Tree@V?$_Tmap_traits@V?$basic_string@DU?$char_traits@D@std@@V?$allocator@D@2@@std@@_NU?$less@V?$basic_string@DU?$char_traits@D@std@@V?$allocator@D@2@@std@@@2@V?$allocator@U?$pair@$$CBV?$basic_string@DU?$char_traits@D@std@@V?$allocator@D@2@@std@@_N@std@@@2@$0A@@std@@@std@@KAPAU_Node@?$_Tree_nod@V?$_Tmap_traits@V?$basic_string@DU?$char_traits@D@std@@V?$allocator@D@2@@std@@_NU?$less@V?$basic_string@DU?$char_traits@D@std@@V?$allocator@D@2@@std@@@2@V?$allocator@U?$pair@$$CBV?$basic_string@DU?$char_traits@D@std@@V?$allocator@D@2@@std@@_N@std@@@2@$0A@@std@@@2@PAU342@@Z 00409720 f i dependtree:WTreeNode.obj
 0001:00008740       ?_Max@?$_Tree@V?$_Tmap_traits@V?$basic_string@DU?$char_traits@D@std@@V?$allocator@D@2@@std@@U?$pair@V?$basic_string@DU?$char_traits@D@std@@V?$allocator@D@2@@std@@V12@@2@U?$less@V?$basic_string@DU?$char_traits@D@std@@V?$allocator@D@2@@std@@@2@V?$allocator@U?$pair@$$CBV?$basic_string@DU?$char_traits@D@std@@V?$allocator@D@2@@std@@U?$pair@V?$basic_string@DU?$char_traits@D@std@@V?$allocator@D@2@@std@@V12@@2@@std@@@2@$0A@@std@@@std@@KAPAU_Node@?$_Tree_nod@V?$_Tmap_traits@V?$basic_string@DU?$char_traits@D@std@@V?$allocator@D@2@@std@@U?$pair@V?$basic_string@DU?$char_traits@D@std@@V?$allocator@D@2@@std@@V12@@2@U?$less@V?$basic_string@DU?$char_traits@D@std@@V?$allocator@D@2@@std@@@2@V?$allocator@U?$pair@$$CBV?$basic_string@DU?$char_traits@D@std@@V?$allocator@D@2@@std@@U?$pair@V?$basic_string@DU?$char_traits@D@std@@V?$allocator@D@2@@std@@V12@@2@@std@@@2@$0A@@std@@@2@PAU342@@Z 00409740 f i dependtree:WWebWidget.obj
 0001:00008760       ?_Min@?$_Tree@V?$_Tmap_traits@V?$basic_string@DU?$char_traits@D@std@@V?$allocator@D@2@@std@@U?$pair@V?$basic_string@DU?$char_traits@D@std@@V?$allocator@D@2@@std@@V12@@2@U?$less@V?$basic_string@DU?$char_traits@D@std@@V?$allocator@D@2@@std@@@2@V?$allocator@U?$pair@$$CBV?$basic_string@DU?$char_traits@D@std@@V?$allocator@D@2@@std@@U?$pair@V?$basic_string@DU?$char_traits@D@std@@V?$allocator@D@2@@std@@V12@@2@@std@@@2@$0A@@std@@@std@@KAPAU_Node@?$_Tree_nod@V?$_Tmap_traits@V?$basic_string@DU?$char_traits@D@std@@V?$allocator@D@2@@std@@U?$pair@V?$basic_string@DU?$char_traits@D@std@@V?$allocator@D@2@@std@@V12@@2@U?$less@V?$basic_string@DU?$char_traits@D@std@@V?$allocator@D@2@@std@@@2@V?$allocator@U?$pair@$$CBV?$basic_string@DU?$char_traits@D@std@@V?$allocator@D@2@@std@@U?$pair@V?$basic_string@DU?$char_traits@D@std@@V?$allocator@D@2@@std@@V12@@2@@std@@@2@$0A@@std@@@2@PAU342@@Z 00409760 f i dependtree:WWebWidget.obj
 0001:00008780       ?_Xlen@?$vector@U?$pair@V?$basic_string@DU?$char_traits@D@std@@V?$allocator@D@2@@std@@PAVDomElement@@@std@@V?$allocator@U?$pair@V?$basic_string@DU?$char_traits@D@std@@V?$allocator@D@2@@std@@PAVDomElement@@@std@@@2@@std@@IBEXXZ 00409780 f i dependtree:WWebWidget.obj
 0001:00008800       ?_Lrotate@?$_Tree@V?$_Tmap_traits@V?$basic_string@DU?$char_traits@D@std@@V?$allocator@D@2@@std@@V12@U?$less@V?$basic_string@DU?$char_traits@D@std@@V?$allocator@D@2@@std@@@2@V?$allocator@U?$pair@$$CBV?$basic_string@DU?$char_traits@D@std@@V?$allocator@D@2@@std@@V12@@std@@@2@$0A@@std@@@std@@IAEXPAU_Node@?$_Tree_nod@V?$_Tmap_traits@V?$basic_string@DU?$char_traits@D@std@@V?$allocator@D@2@@std@@V12@U?$less@V?$basic_string@DU?$char_traits@D@std@@V?$allocator@D@2@@std@@@2@V?$allocator@U?$pair@$$CBV?$basic_string@DU?$char_traits@D@std@@V?$allocator@D@2@@std@@V12@@std@@@2@$0A@@std@@@2@@Z 00409800 f i dependtree:WWebWidget.obj
 0001:00008860       ?_Rrotate@?$_Tree@V?$_Tmap_traits@V?$basic_string@DU?$char_traits@D@std@@V?$allocator@D@2@@std@@V12@U?$less@V?$basic_string@DU?$char_traits@D@std@@V?$allocator@D@2@@std@@@2@V?$allocator@U?$pair@$$CBV?$basic_string@DU?$char_traits@D@std@@V?$allocator@D@2@@std@@V12@@std@@@2@$0A@@std@@@std@@IAEXPAU_Node@?$_Tree_nod@V?$_Tmap_traits@V?$basic_string@DU?$char_traits@D@std@@V?$allocator@D@2@@std@@V12@U?$less@V?$basic_string@DU?$char_traits@D@std@@V?$allocator@D@2@@std@@@2@V?$allocator@U?$pair@$$CBV?$basic_string@DU?$char_traits@D@std@@V?$allocator@D@2@@std@@V12@@std@@@2@$0A@@std@@@2@@Z 00409860 f i dependtree:WWebWidget.obj
 0001:000088c0       ?_Rrotate@?$_Tree@V?$_Tmap_traits@V?$basic_string@DU?$char_traits@D@std@@V?$allocator@D@2@@std@@PAVWCssRule@@U?$less@V?$basic_string@DU?$char_traits@D@std@@V?$allocator@D@2@@std@@@2@V?$allocator@U?$pair@$$CBV?$basic_string@DU?$char_traits@D@std@@V?$allocator@D@2@@std@@PAVWCssRule@@@std@@@2@$0A@@std@@@std@@IAEXPAU_Node@?$_Tree_nod@V?$_Tmap_traits@V?$basic_string@DU?$char_traits@D@std@@V?$allocator@D@2@@std@@PAVWCssRule@@U?$less@V?$basic_string@DU?$char_traits@D@std@@V?$allocator@D@2@@std@@@2@V?$allocator@U?$pair@$$CBV?$basic_string@DU?$char_traits@D@std@@V?$allocator@D@2@@std@@PAVWCssRule@@@std@@@2@$0A@@std@@@2@@Z 004098c0 f i depend.obj
 0001:000088c0       ?_Rrotate@?$_Tree@V?$_Tmap_traits@W4Property@Wt@@V?$basic_string@DU?$char_traits@D@std@@V?$allocator@D@2@@std@@U?$less@W4Property@Wt@@@4@V?$allocator@U?$pair@$$CBW4Property@Wt@@V?$basic_string@DU?$char_traits@D@std@@V?$allocator@D@2@@std@@@std@@@4@$0A@@std@@@std@@IAEXPAU_Node@?$_Tree_nod@V?$_Tmap_traits@W4Property@Wt@@V?$basic_string@DU?$char_traits@D@std@@V?$allocator@D@2@@std@@U?$less@W4Property@Wt@@@4@V?$allocator@U?$pair@$$CBW4Property@Wt@@V?$basic_string@DU?$char_traits@D@std@@V?$allocator@D@2@@std@@@std@@@4@$0A@@std@@@2@@Z 004098c0 f i dependtree:WWebWidget.obj
 0001:000088c0       ?_Rrotate@?$_Tree@V?$_Tmap_traits@V?$basic_string@DU?$char_traits@D@std@@V?$allocator@D@2@@std@@PAVWCheckBox@@U?$less@V?$basic_string@DU?$char_traits@D@std@@V?$allocator@D@2@@std@@@2@V?$allocator@U?$pair@$$CBV?$basic_string@DU?$char_traits@D@std@@V?$allocator@D@2@@std@@PAVWCheckBox@@@std@@@2@$0A@@std@@@std@@IAEXPAU_Node@?$_Tree_nod@V?$_Tmap_traits@V?$basic_string@DU?$char_traits@D@std@@V?$allocator@D@2@@std@@PAVWCheckBox@@U?$less@V?$basic_string@DU?$char_traits@D@std@@V?$allocator@D@2@@std@@@2@V?$allocator@U?$pair@$$CBV?$basic_string@DU?$char_traits@D@std@@V?$allocator@D@2@@std@@PAVWCheckBox@@@std@@@2@$0A@@std@@@2@@Z 004098c0 f i dependtree:CheckBoxTreeView.obj
 0001:000088c0       ?_Rrotate@?$_Tree@V?$_Tmap_traits@V?$basic_string@DU?$char_traits@D@std@@V?$allocator@D@2@@std@@_NU?$less@V?$basic_string@DU?$char_traits@D@std@@V?$allocator@D@2@@std@@@2@V?$allocator@U?$pair@$$CBV?$basic_string@DU?$char_traits@D@std@@V?$allocator@D@2@@std@@_N@std@@@2@$0A@@std@@@std@@IAEXPAU_Node@?$_Tree_nod@V?$_Tmap_traits@V?$basic_string@DU?$char_traits@D@std@@V?$allocator@D@2@@std@@_NU?$less@V?$basic_string@DU?$char_traits@D@std@@V?$allocator@D@2@@std@@@2@V?$allocator@U?$pair@$$CBV?$basic_string@DU?$char_traits@D@std@@V?$allocator@D@2@@std@@_N@std@@@2@$0A@@std@@@2@@Z 004098c0 f i dependtree:WTreeNode.obj
 0001:000088c0       ?_Rrotate@?$_Tree@V?$_Tmap_traits@V?$basic_string@DU?$char_traits@D@std@@V?$allocator@D@2@@std@@PAVWSignalInstance_@@U?$less@V?$basic_string@DU?$char_traits@D@std@@V?$allocator@D@2@@std@@@2@V?$allocator@U?$pair@$$CBV?$basic_string@DU?$char_traits@D@std@@V?$allocator@D@2@@std@@PAVWSignalInstance_@@@std@@@2@$0A@@std@@@std@@IAEXPAU_Node@?$_Tree_nod@V?$_Tmap_traits@V?$basic_string@DU?$char_traits@D@std@@V?$allocator@D@2@@std@@PAVWSignalInstance_@@U?$less@V?$basic_string@DU?$char_traits@D@std@@V?$allocator@D@2@@std@@@2@V?$allocator@U?$pair@$$CBV?$basic_string@DU?$char_traits@D@std@@V?$allocator@D@2@@std@@PAVWSignalInstance_@@@std@@@2@$0A@@std@@@2@@Z 004098c0 f i dependformwt.obj
 0001:000088c0       ?_Rrotate@?$_Tree@V?$_Tmap_traits@V?$basic_string@DU?$char_traits@D@std@@V?$allocator@D@2@@std@@PAVWSlotInstance_@@U?$less@V?$basic_string@DU?$char_traits@D@std@@V?$allocator@D@2@@std@@@2@V?$allocator@U?$pair@$$CBV?$basic_string@DU?$char_traits@D@std@@V?$allocator@D@2@@std@@PAVWSlotInstance_@@@std@@@2@$0A@@std@@@std@@IAEXPAU_Node@?$_Tree_nod@V?$_Tmap_traits@V?$basic_string@DU?$char_traits@D@std@@V?$allocator@D@2@@std@@PAVWSlotInstance_@@U?$less@V?$basic_string@DU?$char_traits@D@std@@V?$allocator@D@2@@std@@@2@V?$allocator@U?$pair@$$CBV?$basic_string@DU?$char_traits@D@std@@V?$allocator@D@2@@std@@PAVWSlotInstance_@@@std@@@2@$0A@@std@@@2@@Z 004098c0 f i dependtree:WWebWidget.obj
 0001:00008920       ?_Lrotate@?$_Tree@V?$_Tmap_traits@V?$basic_string@DU?$char_traits@D@std@@V?$allocator@D@2@@std@@U?$pair@V?$basic_string@DU?$char_traits@D@std@@V?$allocator@D@2@@std@@V12@@2@U?$less@V?$basic_string@DU?$char_traits@D@std@@V?$allocator@D@2@@std@@@2@V?$allocator@U?$pair@$$CBV?$basic_string@DU?$char_traits@D@std@@V?$allocator@D@2@@std@@U?$pair@V?$basic_string@DU?$char_traits@D@std@@V?$allocator@D@2@@std@@V12@@2@@std@@@2@$0A@@std@@@std@@IAEXPAU_Node@?$_Tree_nod@V?$_Tmap_traits@V?$basic_string@DU?$char_traits@D@std@@V?$allocator@D@2@@std@@U?$pair@V?$basic_string@DU?$char_traits@D@std@@V?$allocator@D@2@@std@@V12@@2@U?$less@V?$basic_string@DU?$char_traits@D@std@@V?$allocator@D@2@@std@@@2@V?$allocator@U?$pair@$$CBV?$basic_string@DU?$char_traits@D@std@@V?$allocator@D@2@@std@@U?$pair@V?$basic_string@DU?$char_traits@D@std@@V?$allocator@D@2@@std@@V12@@2@@std@@@2@$0A@@std@@@2@@Z 00409920 f i dependtree:WWebWidget.obj
 0001:00008980       ?_Rrotate@?$_Tree@V?$_Tmap_traits@V?$basic_string@DU?$char_traits@D@std@@V?$allocator@D@2@@std@@U?$pair@V?$basic_string@DU?$char_traits@D@std@@V?$allocator@D@2@@std@@V12@@2@U?$less@V?$basic_string@DU?$char_traits@D@std@@V?$allocator@D@2@@std@@@2@V?$allocator@U?$pair@$$CBV?$basic_string@DU?$char_traits@D@std@@V?$allocator@D@2@@std@@U?$pair@V?$basic_string@DU?$char_traits@D@std@@V?$allocator@D@2@@std@@V12@@2@@std@@@2@$0A@@std@@@std@@IAEXPAU_Node@?$_Tree_nod@V?$_Tmap_traits@V?$basic_string@DU?$char_traits@D@std@@V?$allocator@D@2@@std@@U?$pair@V?$basic_string@DU?$char_traits@D@std@@V?$allocator@D@2@@std@@V12@@2@U?$less@V?$basic_string@DU?$char_traits@D@std@@V?$allocator@D@2@@std@@@2@V?$allocator@U?$pair@$$CBV?$basic_string@DU?$char_traits@D@std@@V?$allocator@D@2@@std@@U?$pair@V?$basic_string@DU?$char_traits@D@std@@V?$allocator@D@2@@std@@V12@@2@@std@@@2@$0A@@std@@@2@@Z 00409980 f i dependtree:WWebWidget.obj
 0001:000089e0       ??0JavaScript@@QAE@ABV0@@Z 004099e0 f i dependtree:WWebWidget.obj
 0001:000089e0       ??0?$pair@V?$basic_string@DU?$char_traits@D@std@@V?$allocator@D@2@@std@@V12@@std@@QAE@ABU01@@Z 004099e0 f i dependtree:WWebWidget.obj
 0001:000089e0       ??0?$pair@$$CBV?$basic_string@DU?$char_traits@D@std@@V?$allocator@D@2@@std@@V12@@std@@QAE@ABU01@@Z 004099e0 f i dependtree:WWebWidget.obj
 0001:00008a40       ??1?$pair@$$CBW4Property@Wt@@V?$basic_string@DU?$char_traits@D@std@@V?$allocator@D@2@@std@@@std@@QAE@XZ 00409a40 f i dependtree:WWebWidget.obj
 0001:00008a50       ?_Inc@const_iterator@?$_Tree@V?$_Tmap_traits@V?$basic_string@DU?$char_traits@D@std@@V?$allocator@D@2@@std@@V12@U?$less@V?$basic_string@DU?$char_traits@D@std@@V?$allocator@D@2@@std@@@2@V?$allocator@U?$pair@$$CBV?$basic_string@DU?$char_traits@D@std@@V?$allocator@D@2@@std@@V12@@std@@@2@$0A@@std@@@std@@QAEXXZ 00409a50 f i dependtree:WWebWidget.obj
 0001:00008ab0       ?_Inc@const_iterator@?$_Tree@V?$_Tmap_traits@V?$basic_string@DU?$char_traits@D@std@@V?$allocator@D@2@@std@@U?$pair@V?$basic_string@DU?$char_traits@D@std@@V?$allocator@D@2@@std@@V12@@2@U?$less@V?$basic_string@DU?$char_traits@D@std@@V?$allocator@D@2@@std@@@2@V?$allocator@U?$pair@$$CBV?$basic_string@DU?$char_traits@D@std@@V?$allocator@D@2@@std@@U?$pair@V?$basic_string@DU?$char_traits@D@std@@V?$allocator@D@2@@std@@V12@@2@@std@@@2@$0A@@std@@@std@@QAEXXZ 00409ab0 f i dependtree:WWebWidget.obj
 0001:00008b10       ??1_Node@?$_Tree_nod@V?$_Tmap_traits@V?$basic_string@DU?$char_traits@D@std@@V?$allocator@D@2@@std@@V12@U?$less@V?$basic_string@DU?$char_traits@D@std@@V?$allocator@D@2@@std@@@2@V?$allocator@U?$pair@$$CBV?$basic_string@DU?$char_traits@D@std@@V?$allocator@D@2@@std@@V12@@std@@@2@$0A@@std@@@std@@QAE@XZ 00409b10 f i dependtree:WWebWidget.obj
 0001:00008b20       ??1_Node@?$_Tree_nod@V?$_Tmap_traits@W4Property@Wt@@V?$basic_string@DU?$char_traits@D@std@@V?$allocator@D@2@@std@@U?$less@W4Property@Wt@@@4@V?$allocator@U?$pair@$$CBW4Property@Wt@@V?$basic_string@DU?$char_traits@D@std@@V?$allocator@D@2@@std@@@std@@@4@$0A@@std@@@std@@QAE@XZ 00409b20 f i dependtree:WWebWidget.obj
 0001:00008b20       ??1WColor@@QAE@XZ          00409b20 f i depend.obj
 0001:00008b30       ??5?$lexical_stream@V?$basic_string@DU?$char_traits@D@std@@V?$allocator@D@2@@std@@H@detail@boost@@QAE_NAAV?$basic_string@DU?$char_traits@D@std@@V?$allocator@D@2@@std@@@Z 00409b30 f i dependtree:WWebWidget.obj
 0001:00008b90       ??0bad_lexical_cast@boost@@QAE@ABV01@@Z 00409b90 f i dependtree:WWebWidget.obj
 0001:00008bc0       ?updateSignalConnection@WWebWidget@@IAEXAAVDomElement@@PBDV?$basic_string@DU?$char_traits@D@std@@V?$allocator@D@2@@std@@_N1@Z 00409bc0 f   dependtree:WWebWidget.obj
 0001:00008c40       ?_Lbound@?$_Tree@V?$_Tmap_traits@V?$basic_string@DU?$char_traits@D@std@@V?$allocator@D@2@@std@@PAVWSignalInstance_@@U?$less@V?$basic_string@DU?$char_traits@D@std@@V?$allocator@D@2@@std@@@2@V?$allocator@U?$pair@$$CBV?$basic_string@DU?$char_traits@D@std@@V?$allocator@D@2@@std@@PAVWSignalInstance_@@@std@@@2@$0A@@std@@@std@@IBEPAU_Node@?$_Tree_nod@V?$_Tmap_traits@V?$basic_string@DU?$char_traits@D@std@@V?$allocator@D@2@@std@@PAVWSignalInstance_@@U?$less@V?$basic_string@DU?$char_traits@D@std@@V?$allocator@D@2@@std@@@2@V?$allocator@U?$pair@$$CBV?$basic_string@DU?$char_traits@D@std@@V?$allocator@D@2@@std@@PAVWSignalInstance_@@@std@@@2@$0A@@std@@@2@ABV?$basic_string@DU?$char_traits@D@std@@V?$allocator@D@2@@2@@Z 00409c40 f i dependformwt.obj
 0001:00008c40       ?_Lbound@?$_Tree@V?$_Tmap_traits@V?$basic_string@DU?$char_traits@D@std@@V?$allocator@D@2@@std@@PAVWSlotInstance_@@U?$less@V?$basic_string@DU?$char_traits@D@std@@V?$allocator@D@2@@std@@@2@V?$allocator@U?$pair@$$CBV?$basic_string@DU?$char_traits@D@std@@V?$allocator@D@2@@std@@PAVWSlotInstance_@@@std@@@2@$0A@@std@@@std@@IBEPAU_Node@?$_Tree_nod@V?$_Tmap_traits@V?$basic_string@DU?$char_traits@D@std@@V?$allocator@D@2@@std@@PAVWSlotInstance_@@U?$less@V?$basic_string@DU?$char_traits@D@std@@V?$allocator@D@2@@std@@@2@V?$allocator@U?$pair@$$CBV?$basic_string@DU?$char_traits@D@std@@V?$allocator@D@2@@std@@PAVWSlotInstance_@@@std@@@2@$0A@@std@@@2@ABV?$basic_string@DU?$char_traits@D@std@@V?$allocator@D@2@@2@@Z 00409c40 f i dependtree:WWebWidget.obj
 0001:00008c40       ?_Lbound@?$_Tree@V?$_Tmap_traits@V?$basic_string@DU?$char_traits@D@std@@V?$allocator@D@2@@std@@PAVWCheckBox@@U?$less@V?$basic_string@DU?$char_traits@D@std@@V?$allocator@D@2@@std@@@2@V?$allocator@U?$pair@$$CBV?$basic_string@DU?$char_traits@D@std@@V?$allocator@D@2@@std@@PAVWCheckBox@@@std@@@2@$0A@@std@@@std@@IBEPAU_Node@?$_Tree_nod@V?$_Tmap_traits@V?$basic_string@DU?$char_traits@D@std@@V?$allocator@D@2@@std@@PAVWCheckBox@@U?$less@V?$basic_string@DU?$char_traits@D@std@@V?$allocator@D@2@@std@@@2@V?$allocator@U?$pair@$$CBV?$basic_string@DU?$char_traits@D@std@@V?$allocator@D@2@@std@@PAVWCheckBox@@@std@@@2@$0A@@std@@@2@ABV?$basic_string@DU?$char_traits@D@std@@V?$allocator@D@2@@2@@Z 00409c40 f i dependtree:CheckBoxTreeView.obj
 0001:00008c90       ?_Lrotate@?$_Tree@V?$_Tmap_traits@V?$basic_string@DU?$char_traits@D@std@@V?$allocator@D@2@@std@@PAVWSlotInstance_@@U?$less@V?$basic_string@DU?$char_traits@D@std@@V?$allocator@D@2@@std@@@2@V?$allocator@U?$pair@$$CBV?$basic_string@DU?$char_traits@D@std@@V?$allocator@D@2@@std@@PAVWSlotInstance_@@@std@@@2@$0A@@std@@@std@@IAEXPAU_Node@?$_Tree_nod@V?$_Tmap_traits@V?$basic_string@DU?$char_traits@D@std@@V?$allocator@D@2@@std@@PAVWSlotInstance_@@U?$less@V?$basic_string@DU?$char_traits@D@std@@V?$allocator@D@2@@std@@@2@V?$allocator@U?$pair@$$CBV?$basic_string@DU?$char_traits@D@std@@V?$allocator@D@2@@std@@PAVWSlotInstance_@@@std@@@2@$0A@@std@@@2@@Z 00409c90 f i dependtree:WWebWidget.obj
 0001:00008c90       ?_Lrotate@?$_Tree@V?$_Tmap_traits@V?$basic_string@DU?$char_traits@D@std@@V?$allocator@D@2@@std@@PAVWSignalInstance_@@U?$less@V?$basic_string@DU?$char_traits@D@std@@V?$allocator@D@2@@std@@@2@V?$allocator@U?$pair@$$CBV?$basic_string@DU?$char_traits@D@std@@V?$allocator@D@2@@std@@PAVWSignalInstance_@@@std@@@2@$0A@@std@@@std@@IAEXPAU_Node@?$_Tree_nod@V?$_Tmap_traits@V?$basic_string@DU?$char_traits@D@std@@V?$allocator@D@2@@std@@PAVWSignalInstance_@@U?$less@V?$basic_string@DU?$char_traits@D@std@@V?$allocator@D@2@@std@@@2@V?$allocator@U?$pair@$$CBV?$basic_string@DU?$char_traits@D@std@@V?$allocator@D@2@@std@@PAVWSignalInstance_@@@std@@@2@$0A@@std@@@2@@Z 00409c90 f i dependformwt.obj
 0001:00008c90       ?_Lrotate@?$_Tree@V?$_Tmap_traits@W4Property@Wt@@V?$basic_string@DU?$char_traits@D@std@@V?$allocator@D@2@@std@@U?$less@W4Property@Wt@@@4@V?$allocator@U?$pair@$$CBW4Property@Wt@@V?$basic_string@DU?$char_traits@D@std@@V?$allocator@D@2@@std@@@std@@@4@$0A@@std@@@std@@IAEXPAU_Node@?$_Tree_nod@V?$_Tmap_traits@W4Property@Wt@@V?$basic_string@DU?$char_traits@D@std@@V?$allocator@D@2@@std@@U?$less@W4Property@Wt@@@4@V?$allocator@U?$pair@$$CBW4Property@Wt@@V?$basic_string@DU?$char_traits@D@std@@V?$allocator@D@2@@std@@@std@@@4@$0A@@std@@@2@@Z 00409c90 f i dependtree:WWebWidget.obj
 0001:00008c90       ?_Lrotate@?$_Tree@V?$_Tmap_traits@V?$basic_string@DU?$char_traits@D@std@@V?$allocator@D@2@@std@@_NU?$less@V?$basic_string@DU?$char_traits@D@std@@V?$allocator@D@2@@std@@@2@V?$allocator@U?$pair@$$CBV?$basic_string@DU?$char_traits@D@std@@V?$allocator@D@2@@std@@_N@std@@@2@$0A@@std@@@std@@IAEXPAU_Node@?$_Tree_nod@V?$_Tmap_traits@V?$basic_string@DU?$char_traits@D@std@@V?$allocator@D@2@@std@@_NU?$less@V?$basic_string@DU?$char_traits@D@std@@V?$allocator@D@2@@std@@@2@V?$allocator@U?$pair@$$CBV?$basic_string@DU?$char_traits@D@std@@V?$allocator@D@2@@std@@_N@std@@@2@$0A@@std@@@2@@Z 00409c90 f i dependtree:WTreeNode.obj
 0001:00008c90       ?_Lrotate@?$_Tree@V?$_Tmap_traits@V?$basic_string@DU?$char_traits@D@std@@V?$allocator@D@2@@std@@PAVWCssRule@@U?$less@V?$basic_string@DU?$char_traits@D@std@@V?$allocator@D@2@@std@@@2@V?$allocator@U?$pair@$$CBV?$basic_string@DU?$char_traits@D@std@@V?$allocator@D@2@@std@@PAVWCssRule@@@std@@@2@$0A@@std@@@std@@IAEXPAU_Node@?$_Tree_nod@V?$_Tmap_traits@V?$basic_string@DU?$char_traits@D@std@@V?$allocator@D@2@@std@@PAVWCssRule@@U?$less@V?$basic_string@DU?$char_traits@D@std@@V?$allocator@D@2@@std@@@2@V?$allocator@U?$pair@$$CBV?$basic_string@DU?$char_traits@D@std@@V?$allocator@D@2@@std@@PAVWCssRule@@@std@@@2@$0A@@std@@@2@@Z 00409c90 f i depend.obj
 0001:00008c90       ?_Lrotate@?$_Tree@V?$_Tmap_traits@V?$basic_string@DU?$char_traits@D@std@@V?$allocator@D@2@@std@@PAVWCheckBox@@U?$less@V?$basic_string@DU?$char_traits@D@std@@V?$allocator@D@2@@std@@@2@V?$allocator@U?$pair@$$CBV?$basic_string@DU?$char_traits@D@std@@V?$allocator@D@2@@std@@PAVWCheckBox@@@std@@@2@$0A@@std@@@std@@IAEXPAU_Node@?$_Tree_nod@V?$_Tmap_traits@V?$basic_string@DU?$char_traits@D@std@@V?$allocator@D@2@@std@@PAVWCheckBox@@U?$less@V?$basic_string@DU?$char_traits@D@std@@V?$allocator@D@2@@std@@@2@V?$allocator@U?$pair@$$CBV?$basic_string@DU?$char_traits@D@std@@V?$allocator@D@2@@std@@PAVWCheckBox@@@std@@@2@$0A@@std@@@2@@Z 00409c90 f i dependtree:CheckBoxTreeView.obj
 0001:00008cf0       ?_Inc@const_iterator@?$_Tree@V?$_Tmap_traits@V?$basic_string@DU?$char_traits@D@std@@V?$allocator@D@2@@std@@_NU?$less@V?$basic_string@DU?$char_traits@D@std@@V?$allocator@D@2@@std@@@2@V?$allocator@U?$pair@$$CBV?$basic_string@DU?$char_traits@D@std@@V?$allocator@D@2@@std@@_N@std@@@2@$0A@@std@@@std@@QAEXXZ 00409cf0 f i dependtree:WTreeNode.obj
 0001:00008cf0       ?_Inc@const_iterator@?$_Tree@V?$_Tmap_traits@V?$basic_string@DU?$char_traits@D@std@@V?$allocator@D@2@@std@@PAVWSignalInstance_@@U?$less@V?$basic_string@DU?$char_traits@D@std@@V?$allocator@D@2@@std@@@2@V?$allocator@U?$pair@$$CBV?$basic_string@DU?$char_traits@D@std@@V?$allocator@D@2@@std@@PAVWSignalInstance_@@@std@@@2@$0A@@std@@@std@@QAEXXZ 00409cf0 f i dependformwt.obj
 0001:00008cf0       ?_Inc@const_iterator@?$_Tree@V?$_Tmap_traits@W4Property@Wt@@V?$basic_string@DU?$char_traits@D@std@@V?$allocator@D@2@@std@@U?$less@W4Property@Wt@@@4@V?$allocator@U?$pair@$$CBW4Property@Wt@@V?$basic_string@DU?$char_traits@D@std@@V?$allocator@D@2@@std@@@std@@@4@$0A@@std@@@std@@QAEXXZ 00409cf0 f i dependtree:WWebWidget.obj
 0001:00008cf0       ?_Inc@const_iterator@?$_Tree@V?$_Tmap_traits@V?$basic_string@DU?$char_traits@D@std@@V?$allocator@D@2@@std@@PAVWCssRule@@U?$less@V?$basic_string@DU?$char_traits@D@std@@V?$allocator@D@2@@std@@@2@V?$allocator@U?$pair@$$CBV?$basic_string@DU?$char_traits@D@std@@V?$allocator@D@2@@std@@PAVWCssRule@@@std@@@2@$0A@@std@@@std@@QAEXXZ 00409cf0 f i depend.obj
 0001:00008cf0       ?_Inc@const_iterator@?$_Tree@V?$_Tmap_traits@V?$basic_string@DU?$char_traits@D@std@@V?$allocator@D@2@@std@@PAVWSlotInstance_@@U?$less@V?$basic_string@DU?$char_traits@D@std@@V?$allocator@D@2@@std@@@2@V?$allocator@U?$pair@$$CBV?$basic_string@DU?$char_traits@D@std@@V?$allocator@D@2@@std@@PAVWSlotInstance_@@@std@@@2@$0A@@std@@@std@@QAEXXZ 00409cf0 f i dependtree:WWebWidget.obj
 0001:00008cf0       ?_Inc@const_iterator@?$_Tree@V?$_Tmap_traits@V?$basic_string@DU?$char_traits@D@std@@V?$allocator@D@2@@std@@PAVWCheckBox@@U?$less@V?$basic_string@DU?$char_traits@D@std@@V?$allocator@D@2@@std@@@2@V?$allocator@U?$pair@$$CBV?$basic_string@DU?$char_traits@D@std@@V?$allocator@D@2@@std@@PAVWCheckBox@@@std@@@2@$0A@@std@@@std@@QAEXXZ 00409cf0 f i dependtree:CheckBoxTreeView.obj
 0001:00008d50       ??0?$pair@$$CBV?$basic_string@DU?$char_traits@D@std@@V?$allocator@D@2@@std@@U?$pair@V?$basic_string@DU?$char_traits@D@std@@V?$allocator@D@2@@std@@V12@@2@@std@@QAE@ABU01@@Z 00409d50 f i dependtree:WWebWidget.obj
 0001:00008db0       ??1?$pair@$$CBV?$basic_string@DU?$char_traits@D@std@@V?$allocator@D@2@@std@@U?$pair@V?$basic_string@DU?$char_traits@D@std@@V?$allocator@D@2@@std@@V12@@2@@std@@QAE@XZ 00409db0 f i dependtree:WWebWidget.obj
 0001:00008e00       ??1_Node@?$_Tree_nod@V?$_Tmap_traits@V?$basic_string@DU?$char_traits@D@std@@V?$allocator@D@2@@std@@U?$pair@V?$basic_string@DU?$char_traits@D@std@@V?$allocator@D@2@@std@@V12@@2@U?$less@V?$basic_string@DU?$char_traits@D@std@@V?$allocator@D@2@@std@@@2@V?$allocator@U?$pair@$$CBV?$basic_string@DU?$char_traits@D@std@@V?$allocator@D@2@@std@@U?$pair@V?$basic_string@DU?$char_traits@D@std@@V?$allocator@D@2@@std@@V12@@2@@std@@@2@$0A@@std@@@std@@QAE@XZ 00409e00 f i dependtree:WWebWidget.obj
 0001:00008e10       ??$throw_exception@Vbad_lexical_cast@boost@@@boost@@YAXABVbad_lexical_cast@0@@Z 00409e10 f i dependtree:WWebWidget.obj
 0001:00008e40       ??$_Copy_opt@PAU?$pair@V?$basic_string@DU?$char_traits@D@std@@V?$allocator@D@2@@std@@PAVDomElement@@@std@@PAU12@@std@@YAPAU?$pair@V?$basic_string@DU?$char_traits@D@std@@V?$allocator@D@2@@std@@PAVDomElement@@@0@PAU10@00U_Nonscalar_ptr_iterator_tag@0@@Z 00409e40 f i dependtree:WWebWidget.obj
 0001:00008e80       ?_Buy@?$vector@U?$pair@V?$basic_string@DU?$char_traits@D@std@@V?$allocator@D@2@@std@@PAVDomElement@@@std@@V?$allocator@U?$pair@V?$basic_string@DU?$char_traits@D@std@@V?$allocator@D@2@@std@@PAVDomElement@@@std@@@2@@std@@IAE_NI@Z 00409e80 f i dependtree:WWebWidget.obj
 0001:00008ed0       ?_Buynode@?$_Tree@V?$_Tmap_traits@V?$basic_string@DU?$char_traits@D@std@@V?$allocator@D@2@@std@@V12@U?$less@V?$basic_string@DU?$char_traits@D@std@@V?$allocator@D@2@@std@@@2@V?$allocator@U?$pair@$$CBV?$basic_string@DU?$char_traits@D@std@@V?$allocator@D@2@@std@@V12@@std@@@2@$0A@@std@@@std@@IAEPAU_Node@?$_Tree_nod@V?$_Tmap_traits@V?$basic_string@DU?$char_traits@D@std@@V?$allocator@D@2@@std@@V12@U?$less@V?$basic_string@DU?$char_traits@D@std@@V?$allocator@D@2@@std@@@2@V?$allocator@U?$pair@$$CBV?$basic_string@DU?$char_traits@D@std@@V?$allocator@D@2@@std@@V12@@std@@@2@$0A@@std@@@2@XZ 00409ed0 f i dependtree:WWebWidget.obj
 0001:00008f10       ?_Buynode@?$_Tree@V?$_Tmap_traits@V?$basic_string@DU?$char_traits@D@std@@V?$allocator@D@2@@std@@U?$pair@V?$basic_string@DU?$char_traits@D@std@@V?$allocator@D@2@@std@@V12@@2@U?$less@V?$basic_string@DU?$char_traits@D@std@@V?$allocator@D@2@@std@@@2@V?$allocator@U?$pair@$$CBV?$basic_string@DU?$char_traits@D@std@@V?$allocator@D@2@@std@@U?$pair@V?$basic_string@DU?$char_traits@D@std@@V?$allocator@D@2@@std@@V12@@2@@std@@@2@$0A@@std@@@std@@IAEPAU_Node@?$_Tree_nod@V?$_Tmap_traits@V?$basic_string@DU?$char_traits@D@std@@V?$allocator@D@2@@std@@U?$pair@V?$basic_string@DU?$char_traits@D@std@@V?$allocator@D@2@@std@@V12@@2@U?$less@V?$basic_string@DU?$char_traits@D@std@@V?$allocator@D@2@@std@@@2@V?$allocator@U?$pair@$$CBV?$basic_string@DU?$char_traits@D@std@@V?$allocator@D@2@@std@@U?$pair@V?$basic_string@DU?$char_traits@D@std@@V?$allocator@D@2@@std@@V12@@2@@std@@@2@$0A@@std@@@2@XZ 00409f10 f i dependtree:WWebWidget.obj
 0001:00008f50       ?_Buynode@?$_Tree@V?$_Tmap_traits@V?$basic_string@DU?$char_traits@D@std@@V?$allocator@D@2@@std@@V12@U?$less@V?$basic_string@DU?$char_traits@D@std@@V?$allocator@D@2@@std@@@2@V?$allocator@U?$pair@$$CBV?$basic_string@DU?$char_traits@D@std@@V?$allocator@D@2@@std@@V12@@std@@@2@$0A@@std@@@std@@IAEPAU_Node@?$_Tree_nod@V?$_Tmap_traits@V?$basic_string@DU?$char_traits@D@std@@V?$allocator@D@2@@std@@V12@U?$less@V?$basic_string@DU?$char_traits@D@std@@V?$allocator@D@2@@std@@@2@V?$allocator@U?$pair@$$CBV?$basic_string@DU?$char_traits@D@std@@V?$allocator@D@2@@std@@V12@@std@@@2@$0A@@std@@@2@PAU342@00ABU?$pair@$$CBV?$basic_string@DU?$char_traits@D@std@@V?$allocator@D@2@@std@@V12@@2@D@Z 00409f50 f i dependtree:WWebWidget.obj
 0001:00008ff0       ?_Buynode@?$_Tree@V?$_Tmap_traits@W4Property@Wt@@V?$basic_string@DU?$char_traits@D@std@@V?$allocator@D@2@@std@@U?$less@W4Property@Wt@@@4@V?$allocator@U?$pair@$$CBW4Property@Wt@@V?$basic_string@DU?$char_traits@D@std@@V?$allocator@D@2@@std@@@std@@@4@$0A@@std@@@std@@IAEPAU_Node@?$_Tree_nod@V?$_Tmap_traits@W4Property@Wt@@V?$basic_string@DU?$char_traits@D@std@@V?$allocator@D@2@@std@@U?$less@W4Property@Wt@@@4@V?$allocator@U?$pair@$$CBW4Property@Wt@@V?$basic_string@DU?$char_traits@D@std@@V?$allocator@D@2@@std@@@std@@@4@$0A@@std@@@2@PAU342@00ABU?$pair@$$CBW4Property@Wt@@V?$basic_string@DU?$char_traits@D@std@@V?$allocator@D@2@@std@@@2@D@Z 00409ff0 f i dependtree:WWebWidget.obj
 0001:00009090       ?_Buynode@?$_Tree@V?$_Tmap_traits@V?$basic_string@DU?$char_traits@D@std@@V?$allocator@D@2@@std@@PAVWSlotInstance_@@U?$less@V?$basic_string@DU?$char_traits@D@std@@V?$allocator@D@2@@std@@@2@V?$allocator@U?$pair@$$CBV?$basic_string@DU?$char_traits@D@std@@V?$allocator@D@2@@std@@PAVWSlotInstance_@@@std@@@2@$0A@@std@@@std@@IAEPAU_Node@?$_Tree_nod@V?$_Tmap_traits@V?$basic_string@DU?$char_traits@D@std@@V?$allocator@D@2@@std@@PAVWSlotInstance_@@U?$less@V?$basic_string@DU?$char_traits@D@std@@V?$allocator@D@2@@std@@@2@V?$allocator@U?$pair@$$CBV?$basic_string@DU?$char_traits@D@std@@V?$allocator@D@2@@std@@PAVWSlotInstance_@@@std@@@2@$0A@@std@@@2@PAU342@00ABU?$pair@$$CBV?$basic_string@DU?$char_traits@D@std@@V?$allocator@D@2@@std@@PAVWSlotInstance_@@@2@D@Z 0040a090 f i dependtree:WWebWidget.obj
 0001:00009130       ??$lexical_cast@V?$basic_string@DU?$char_traits@D@std@@V?$allocator@D@2@@std@@H@boost@@YA?AV?$basic_string@DU?$char_traits@D@std@@V?$allocator@D@2@@std@@ABH@Z 0040a130 f i dependtree:WWebWidget.obj
 0001:00009290       ?refresh@WWebWidget@@UAEXXZ 0040a290 f   dependtree:WWebWidget.obj
 0001:00009380       ?_Insert@?$_Tree@V?$_Tmap_traits@V?$basic_string@DU?$char_traits@D@std@@V?$allocator@D@2@@std@@PAVWSlotInstance_@@U?$less@V?$basic_string@DU?$char_traits@D@std@@V?$allocator@D@2@@std@@@2@V?$allocator@U?$pair@$$CBV?$basic_string@DU?$char_traits@D@std@@V?$allocator@D@2@@std@@PAVWSlotInstance_@@@std@@@2@$0A@@std@@@std@@IAE?AViterator@12@_NPAU_Node@?$_Tree_nod@V?$_Tmap_traits@V?$basic_string@DU?$char_traits@D@std@@V?$allocator@D@2@@std@@PAVWSlotInstance_@@U?$less@V?$basic_string@DU?$char_traits@D@std@@V?$allocator@D@2@@std@@@2@V?$allocator@U?$pair@$$CBV?$basic_string@DU?$char_traits@D@std@@V?$allocator@D@2@@std@@PAVWSlotInstance_@@@std@@@2@$0A@@std@@@2@ABU?$pair@$$CBV?$basic_string@DU?$char_traits@D@std@@V?$allocator@D@2@@std@@PAVWSlotInstance_@@@2@@Z 0040a380 f i dependtree:WWebWidget.obj
 0001:00009540       ?_Insert_n@?$vector@PAVDomElement@@V?$allocator@PAVDomElement@@@std@@@std@@IAEXViterator@12@IABQAVDomElement@@@Z 0040a540 f i dependtree:WWebWidget.obj
 0001:00009540       ?_Insert_n@?$vector@PAVWTableRow@@V?$allocator@PAVWTableRow@@@std@@@std@@IAEXViterator@12@IABQAVWTableRow@@@Z 0040a540 f i dependtree:WTable.obj
 0001:00009540       ?_Insert_n@?$vector@PAVWWidget@@V?$allocator@PAVWWidget@@@std@@@std@@IAEXViterator@12@IABQAVWWidget@@@Z 0040a540 f i dependtree:WWebWidget.obj
 0001:00009540       ?_Insert_n@?$vector@PAVWMessageResources@@V?$allocator@PAVWMessageResources@@@std@@@std@@IAEXViterator@12@IABQAVWMessageResources@@@Z 0040a540 f i dependtree:WMessageResourceBundle.obj
 0001:00009540       ?_Insert_n@?$vector@PAVWObject@@V?$allocator@PAVWObject@@@std@@@std@@IAEXViterator@12@IABQAVWObject@@@Z 0040a540 f i dependtree:WWebWidget.obj
 0001:00009730       ?_Buynode@?$_Tree@V?$_Tmap_traits@V?$basic_string@DU?$char_traits@D@std@@V?$allocator@D@2@@std@@U?$pair@V?$basic_string@DU?$char_traits@D@std@@V?$allocator@D@2@@std@@V12@@2@U?$less@V?$basic_string@DU?$char_traits@D@std@@V?$allocator@D@2@@std@@@2@V?$allocator@U?$pair@$$CBV?$basic_string@DU?$char_traits@D@std@@V?$allocator@D@2@@std@@U?$pair@V?$basic_string@DU?$char_traits@D@std@@V?$allocator@D@2@@std@@V12@@2@@std@@@2@$0A@@std@@@std@@IAEPAU_Node@?$_Tree_nod@V?$_Tmap_traits@V?$basic_string@DU?$char_traits@D@std@@V?$allocator@D@2@@std@@U?$pair@V?$basic_string@DU?$char_traits@D@std@@V?$allocator@D@2@@std@@V12@@2@U?$less@V?$basic_string@DU?$char_traits@D@std@@V?$allocator@D@2@@std@@@2@V?$allocator@U?$pair@$$CBV?$basic_string@DU?$char_traits@D@std@@V?$allocator@D@2@@std@@U?$pair@V?$basic_string@DU?$char_traits@D@std@@V?$allocator@D@2@@std@@V12@@2@@std@@@2@$0A@@std@@@2@PAU342@00ABU?$pair@$$CBV?$basic_string@DU?$char_traits@D@std@@V?$allocator@D@2@@std@@U?$pair@V?$basic_string@DU?$char_traits@D@std@@V?$allocator@D@2@@std@@V12@@2@@2@D@Z 0040a730 f i dependtree:WWebWidget.obj
 0001:000097d0       ??$_Uninit_copy@PAU?$pair@V?$basic_string@DU?$char_traits@D@std@@V?$allocator@D@2@@std@@PAVDomElement@@@std@@PAU12@V?$allocator@U?$pair@V?$basic_string@DU?$char_traits@D@std@@V?$allocator@D@2@@std@@PAVDomElement@@@std@@@2@@std@@YAPAU?$pair@V?$basic_string@DU?$char_traits@D@std@@V?$allocator@D@2@@std@@PAVDomElement@@@0@PAU10@00AAV?$allocator@U?$pair@V?$basic_string@DU?$char_traits@D@std@@V?$allocator@D@2@@std@@PAVDomElement@@@std@@@0@U_Nonscalar_ptr_iterator_tag@0@@Z 0040a7d0 f i dependtree:WWebWidget.obj
 0001:000097d0       ??$_Uninit_copy@Vconst_iterator@?$vector@U?$pair@V?$basic_string@DU?$char_traits@D@std@@V?$allocator@D@2@@std@@PAVDomElement@@@std@@V?$allocator@U?$pair@V?$basic_string@DU?$char_traits@D@std@@V?$allocator@D@2@@std@@PAVDomElement@@@std@@@2@@std@@PAU?$pair@V?$basic_string@DU?$char_traits@D@std@@V?$allocator@D@2@@std@@PAVDomElement@@@3@V?$allocator@U?$pair@V?$basic_string@DU?$char_traits@D@std@@V?$allocator@D@2@@std@@PAVDomElement@@@std@@@3@@std@@YAPAU?$pair@V?$basic_string@DU?$char_traits@D@std@@V?$allocator@D@2@@std@@PAVDomElement@@@0@Vconst_iterator@?$vector@U?$pair@V?$basic_string@DU?$char_traits@D@std@@V?$allocator@D@2@@std@@PAVDomElement@@@std@@V?$allocator@U?$pair@V?$basic_string@DU?$char_traits@D@std@@V?$allocator@D@2@@std@@PAVDomElement@@@std@@@2@@0@0PAU10@AAV?$allocator@U?$pair@V?$basic_string@DU?$char_traits@D@std@@V?$allocator@D@2@@std@@PAVDomElement@@@std@@@0@U_Nonscalar_ptr_iterator_tag@0@@Z 0040a7d0 f i dependtree:WWebWidget.obj
 0001:00009870       ??0WWebWidget@@QAE@PAVWContainerWidget@@@Z 0040a870 f   dependtree:WWebWidget.obj
 0001:00009a80       ??1WWebWidget@@UAE@XZ      0040aa80 f   dependtree:WWebWidget.obj
 0001:00009be0       ?updateDom@WWebWidget@@MAEXAAVDomElement@@_N@Z 0040abe0 f   dependtree:WWebWidget.obj
 0001:0000a340       ?erase@?$_Tree@V?$_Tmap_traits@V?$basic_string@DU?$char_traits@D@std@@V?$allocator@D@2@@std@@V12@U?$less@V?$basic_string@DU?$char_traits@D@std@@V?$allocator@D@2@@std@@@2@V?$allocator@U?$pair@$$CBV?$basic_string@DU?$char_traits@D@std@@V?$allocator@D@2@@std@@V12@@std@@@2@$0A@@std@@@std@@QAE?AViterator@12@V312@@Z 0040b340 f i dependtree:WWebWidget.obj
 0001:0000a640       ?erase@?$_Tree@V?$_Tmap_traits@W4Property@Wt@@V?$basic_string@DU?$char_traits@D@std@@V?$allocator@D@2@@std@@U?$less@W4Property@Wt@@@4@V?$allocator@U?$pair@$$CBW4Property@Wt@@V?$basic_string@DU?$char_traits@D@std@@V?$allocator@D@2@@std@@@std@@@4@$0A@@std@@@std@@QAE?AViterator@12@V312@@Z 0040b640 f i dependtree:WWebWidget.obj
 0001:0000a920       ?insert@?$_Tree@V?$_Tmap_traits@V?$basic_string@DU?$char_traits@D@std@@V?$allocator@D@2@@std@@PAVWSlotInstance_@@U?$less@V?$basic_string@DU?$char_traits@D@std@@V?$allocator@D@2@@std@@@2@V?$allocator@U?$pair@$$CBV?$basic_string@DU?$char_traits@D@std@@V?$allocator@D@2@@std@@PAVWSlotInstance_@@@std@@@2@$0A@@std@@@std@@QAE?AU?$pair@Viterator@?$_Tree@V?$_Tmap_traits@V?$basic_string@DU?$char_traits@D@std@@V?$allocator@D@2@@std@@PAVWSlotInstance_@@U?$less@V?$basic_string@DU?$char_traits@D@std@@V?$allocator@D@2@@std@@@2@V?$allocator@U?$pair@$$CBV?$basic_string@DU?$char_traits@D@std@@V?$allocator@D@2@@std@@PAVWSlotInstance_@@@std@@@2@$0A@@std@@@std@@_N@2@ABU?$pair@$$CBV?$basic_string@DU?$char_traits@D@std@@V?$allocator@D@2@@std@@PAVWSlotInstance_@@@2@@Z 0040b920 f i dependtree:WWebWidget.obj
 0001:0000aa00       ?_Erase@?$_Tree@V?$_Tmap_traits@V?$basic_string@DU?$char_traits@D@std@@V?$allocator@D@2@@std@@V12@U?$less@V?$basic_string@DU?$char_traits@D@std@@V?$allocator@D@2@@std@@@2@V?$allocator@U?$pair@$$CBV?$basic_string@DU?$char_traits@D@std@@V?$allocator@D@2@@std@@V12@@std@@@2@$0A@@std@@@std@@IAEXPAU_Node@?$_Tree_nod@V?$_Tmap_traits@V?$basic_string@DU?$char_traits@D@std@@V?$allocator@D@2@@std@@V12@U?$less@V?$basic_string@DU?$char_traits@D@std@@V?$allocator@D@2@@std@@@2@V?$allocator@U?$pair@$$CBV?$basic_string@DU?$char_traits@D@std@@V?$allocator@D@2@@std@@V12@@std@@@2@$0A@@std@@@2@@Z 0040ba00 f i dependtree:WWebWidget.obj
 0001:0000aa40       ?_Erase@?$_Tree@V?$_Tmap_traits@W4Property@Wt@@V?$basic_string@DU?$char_traits@D@std@@V?$allocator@D@2@@std@@U?$less@W4Property@Wt@@@4@V?$allocator@U?$pair@$$CBW4Property@Wt@@V?$basic_string@DU?$char_traits@D@std@@V?$allocator@D@2@@std@@@std@@@4@$0A@@std@@@std@@IAEXPAU_Node@?$_Tree_nod@V?$_Tmap_traits@W4Property@Wt@@V?$basic_string@DU?$char_traits@D@std@@V?$allocator@D@2@@std@@U?$less@W4Property@Wt@@@4@V?$allocator@U?$pair@$$CBW4Property@Wt@@V?$basic_string@DU?$char_traits@D@std@@V?$allocator@D@2@@std@@@std@@@4@$0A@@std@@@2@@Z 0040ba40 f i dependtree:WWebWidget.obj
 0001:0000aa80       ??_EWWebWidget@@UAEPAXI@Z  0040ba80 f i dependtree:WWebWidget.obj
 0001:0000aae0       ?push_back@?$vector@PAVWObject@@V?$allocator@PAVWObject@@@std@@@std@@QAEXABQAVWObject@@@Z 0040bae0 f i dependtree:WWebWidget.obj
 0001:0000aae0       ?push_back@?$vector@PAVWWidget@@V?$allocator@PAVWWidget@@@std@@@std@@QAEXABQAVWWidget@@@Z 0040bae0 f i dependtree:WWebWidget.obj
 0001:0000aae0       ?push_back@?$vector@PAVDomElement@@V?$allocator@PAVDomElement@@@std@@@std@@QAEXABQAVDomElement@@@Z 0040bae0 f i dependtree:WWebWidget.obj
 0001:0000ab30       ?insert@?$_Tree@V?$_Tmap_traits@V?$basic_string@DU?$char_traits@D@std@@V?$allocator@D@2@@std@@PAVWSlotInstance_@@U?$less@V?$basic_string@DU?$char_traits@D@std@@V?$allocator@D@2@@std@@@2@V?$allocator@U?$pair@$$CBV?$basic_string@DU?$char_traits@D@std@@V?$allocator@D@2@@std@@PAVWSlotInstance_@@@std@@@2@$0A@@std@@@std@@QAE?AViterator@12@V312@ABU?$pair@$$CBV?$basic_string@DU?$char_traits@D@std@@V?$allocator@D@2@@std@@PAVWSlotInstance_@@@2@@Z 0040bb30 f i dependtree:WWebWidget.obj
 0001:0000acf0       ?_Copy@?$_Tree@V?$_Tmap_traits@V?$basic_string@DU?$char_traits@D@std@@V?$allocator@D@2@@std@@V12@U?$less@V?$basic_string@DU?$char_traits@D@std@@V?$allocator@D@2@@std@@@2@V?$allocator@U?$pair@$$CBV?$basic_string@DU?$char_traits@D@std@@V?$allocator@D@2@@std@@V12@@std@@@2@$0A@@std@@@std@@IAEPAU_Node@?$_Tree_nod@V?$_Tmap_traits@V?$basic_string@DU?$char_traits@D@std@@V?$allocator@D@2@@std@@V12@U?$less@V?$basic_string@DU?$char_traits@D@std@@V?$allocator@D@2@@std@@@2@V?$allocator@U?$pair@$$CBV?$basic_string@DU?$char_traits@D@std@@V?$allocator@D@2@@std@@V12@@std@@@2@$0A@@std@@@2@PAU342@0@Z 0040bcf0 f i dependtree:WWebWidget.obj
 0001:0000ada0       ?_Copy@?$_Tree@V?$_Tmap_traits@W4Property@Wt@@V?$basic_string@DU?$char_traits@D@std@@V?$allocator@D@2@@std@@U?$less@W4Property@Wt@@@4@V?$allocator@U?$pair@$$CBW4Property@Wt@@V?$basic_string@DU?$char_traits@D@std@@V?$allocator@D@2@@std@@@std@@@4@$0A@@std@@@std@@IAEPAU_Node@?$_Tree_nod@V?$_Tmap_traits@W4Property@Wt@@V?$basic_string@DU?$char_traits@D@std@@V?$allocator@D@2@@std@@U?$less@W4Property@Wt@@@4@V?$allocator@U?$pair@$$CBW4Property@Wt@@V?$basic_string@DU?$char_traits@D@std@@V?$allocator@D@2@@std@@@std@@@4@$0A@@std@@@2@PAU342@0@Z 0040bda0 f i dependtree:WWebWidget.obj
 0001:0000ae50       ?erase@?$_Tree@V?$_Tmap_traits@V?$basic_string@DU?$char_traits@D@std@@V?$allocator@D@2@@std@@U?$pair@V?$basic_string@DU?$char_traits@D@std@@V?$allocator@D@2@@std@@V12@@2@U?$less@V?$basic_string@DU?$char_traits@D@std@@V?$allocator@D@2@@std@@@2@V?$allocator@U?$pair@$$CBV?$basic_string@DU?$char_traits@D@std@@V?$allocator@D@2@@std@@U?$pair@V?$basic_string@DU?$char_traits@D@std@@V?$allocator@D@2@@std@@V12@@2@@std@@@2@$0A@@std@@@std@@QAE?AViterator@12@V312@@Z 0040be50 f i dependtree:WWebWidget.obj
 0001:0000b160       ?_Erase@?$_Tree@V?$_Tmap_traits@V?$basic_string@DU?$char_traits@D@std@@V?$allocator@D@2@@std@@U?$pair@V?$basic_string@DU?$char_traits@D@std@@V?$allocator@D@2@@std@@V12@@2@U?$less@V?$basic_string@DU?$char_traits@D@std@@V?$allocator@D@2@@std@@@2@V?$allocator@U?$pair@$$CBV?$basic_string@DU?$char_traits@D@std@@V?$allocator@D@2@@std@@U?$pair@V?$basic_string@DU?$char_traits@D@std@@V?$allocator@D@2@@std@@V12@@2@@std@@@2@$0A@@std@@@std@@IAEXPAU_Node@?$_Tree_nod@V?$_Tmap_traits@V?$basic_string@DU?$char_traits@D@std@@V?$allocator@D@2@@std@@U?$pair@V?$basic_string@DU?$char_traits@D@std@@V?$allocator@D@2@@std@@V12@@2@U?$less@V?$basic_string@DU?$char_traits@D@std@@V?$allocator@D@2@@std@@@2@V?$allocator@U?$pair@$$CBV?$basic_string@DU?$char_traits@D@std@@V?$allocator@D@2@@std@@U?$pair@V?$basic_string@DU?$char_traits@D@std@@V?$allocator@D@2@@std@@V12@@2@@std@@@2@$0A@@std@@@2@@Z 0040c160 f i dependtree:WWebWidget.obj
 0001:0000b1a0       ??$_Ucopy@PAU?$pair@V?$basic_string@DU?$char_traits@D@std@@V?$allocator@D@2@@std@@PAVDomElement@@@std@@@?$vector@U?$pair@V?$basic_string@DU?$char_traits@D@std@@V?$allocator@D@2@@std@@PAVDomElement@@@std@@V?$allocator@U?$pair@V?$basic_string@DU?$char_traits@D@std@@V?$allocator@D@2@@std@@PAVDomElement@@@std@@@2@@std@@IAEPAU?$pair@V?$basic_string@DU?$char_traits@D@std@@V?$allocator@D@2@@std@@PAVDomElement@@@1@PAU21@00@Z 0040c1a0 f i dependtree:WWebWidget.obj
 0001:0000b1c0       ?removeChild@WWebWidget@@MAEXPAVWWidget@@@Z 0040c1c0 f   dependtree:WWebWidget.obj
 0001:0000b290       ?addChild@WWebWidget@@MAEXPAVWWidget@@@Z 0040c290 f   dependtree:WWebWidget.obj
 0001:0000b2f0       ?getFormObjects@WWebWidget@@EAEXAAV?$vector@PAVWObject@@V?$allocator@PAVWObject@@@std@@@std@@@Z 0040c2f0 f   dependtree:WWebWidget.obj
 0001:0000b360       ?getSDomChanges@WWebWidget@@AAEXAAV?$vector@PAVDomElement@@V?$allocator@PAVDomElement@@@std@@@std@@@Z 0040c360 f   dependtree:WWebWidget.obj
 0001:0000b480       ??A?$map@V?$basic_string@DU?$char_traits@D@std@@V?$allocator@D@2@@std@@PAVWSlotInstance_@@U?$less@V?$basic_string@DU?$char_traits@D@std@@V?$allocator@D@2@@std@@@2@V?$allocator@U?$pair@$$CBV?$basic_string@DU?$char_traits@D@std@@V?$allocator@D@2@@std@@PAVWSlotInstance_@@@std@@@2@@std@@QAEAAPAVWSlotInstance_@@ABV?$basic_string@DU?$char_traits@D@std@@V?$allocator@D@2@@1@@Z 0040c480 f i dependtree:WWebWidget.obj
 0001:0000b520       ?erase@?$_Tree@V?$_Tmap_traits@V?$basic_string@DU?$char_traits@D@std@@V?$allocator@D@2@@std@@V12@U?$less@V?$basic_string@DU?$char_traits@D@std@@V?$allocator@D@2@@std@@@2@V?$allocator@U?$pair@$$CBV?$basic_string@DU?$char_traits@D@std@@V?$allocator@D@2@@std@@V12@@std@@@2@$0A@@std@@@std@@QAE?AViterator@12@V312@0@Z 0040c520 f i dependtree:WWebWidget.obj
 0001:0000b5e0       ?_Copy@?$_Tree@V?$_Tmap_traits@V?$basic_string@DU?$char_traits@D@std@@V?$allocator@D@2@@std@@V12@U?$less@V?$basic_string@DU?$char_traits@D@std@@V?$allocator@D@2@@std@@@2@V?$allocator@U?$pair@$$CBV?$basic_string@DU?$char_traits@D@std@@V?$allocator@D@2@@std@@V12@@std@@@2@$0A@@std@@@std@@IAEXABV12@@Z 0040c5e0 f i dependtree:WWebWidget.obj
 0001:0000b670       ??1?$map@V?$basic_string@DU?$char_traits@D@std@@V?$allocator@D@2@@std@@V12@U?$less@V?$basic_string@DU?$char_traits@D@std@@V?$allocator@D@2@@std@@@2@V?$allocator@U?$pair@$$CBV?$basic_string@DU?$char_traits@D@std@@V?$allocator@D@2@@std@@V12@@std@@@2@@std@@QAE@XZ 0040c670 f i dependtree:WWebWidget.obj
 0001:0000b670       ?_Tidy@?$_Tree@V?$_Tmap_traits@V?$basic_string@DU?$char_traits@D@std@@V?$allocator@D@2@@std@@V12@U?$less@V?$basic_string@DU?$char_traits@D@std@@V?$allocator@D@2@@std@@@2@V?$allocator@U?$pair@$$CBV?$basic_string@DU?$char_traits@D@std@@V?$allocator@D@2@@std@@V12@@std@@@2@$0A@@std@@@std@@IAEXXZ 0040c670 f i dependtree:WWebWidget.obj
 0001:0000b6a0       ?erase@?$_Tree@V?$_Tmap_traits@W4Property@Wt@@V?$basic_string@DU?$char_traits@D@std@@V?$allocator@D@2@@std@@U?$less@W4Property@Wt@@@4@V?$allocator@U?$pair@$$CBW4Property@Wt@@V?$basic_string@DU?$char_traits@D@std@@V?$allocator@D@2@@std@@@std@@@4@$0A@@std@@@std@@QAE?AViterator@12@V312@0@Z 0040c6a0 f i dependtree:WWebWidget.obj
 0001:0000b760       ?_Copy@?$_Tree@V?$_Tmap_traits@W4Property@Wt@@V?$basic_string@DU?$char_traits@D@std@@V?$allocator@D@2@@std@@U?$less@W4Property@Wt@@@4@V?$allocator@U?$pair@$$CBW4Property@Wt@@V?$basic_string@DU?$char_traits@D@std@@V?$allocator@D@2@@std@@@std@@@4@$0A@@std@@@std@@IAEXABV12@@Z 0040c760 f i dependtree:WWebWidget.obj
 0001:0000b7f0       ??1?$map@W4Property@Wt@@V?$basic_string@DU?$char_traits@D@std@@V?$allocator@D@2@@std@@U?$less@W4Property@Wt@@@4@V?$allocator@U?$pair@$$CBW4Property@Wt@@V?$basic_string@DU?$char_traits@D@std@@V?$allocator@D@2@@std@@@std@@@4@@std@@QAE@XZ 0040c7f0 f i dependtree:WWebWidget.obj
 0001:0000b7f0       ?_Tidy@?$_Tree@V?$_Tmap_traits@W4Property@Wt@@V?$basic_string@DU?$char_traits@D@std@@V?$allocator@D@2@@std@@U?$less@W4Property@Wt@@@4@V?$allocator@U?$pair@$$CBW4Property@Wt@@V?$basic_string@DU?$char_traits@D@std@@V?$allocator@D@2@@std@@@std@@@4@$0A@@std@@@std@@IAEXXZ 0040c7f0 f i dependtree:WWebWidget.obj
 0001:0000b820       ?_Destroy@?$vector@U?$pair@V?$basic_string@DU?$char_traits@D@std@@V?$allocator@D@2@@std@@PAVDomElement@@@std@@V?$allocator@U?$pair@V?$basic_string@DU?$char_traits@D@std@@V?$allocator@D@2@@std@@PAVDomElement@@@std@@@2@@std@@IAEXPAU?$pair@V?$basic_string@DU?$char_traits@D@std@@V?$allocator@D@2@@std@@PAVDomElement@@@2@0@Z 0040c820 f i dependtree:WWebWidget.obj
 0001:0000b850       ?_Tidy@?$vector@U?$pair@V?$basic_string@DU?$char_traits@D@std@@V?$allocator@D@2@@std@@PAVDomElement@@@std@@V?$allocator@U?$pair@V?$basic_string@DU?$char_traits@D@std@@V?$allocator@D@2@@std@@PAVDomElement@@@std@@@2@@std@@IAEXXZ 0040c850 f i dependtree:WWebWidget.obj
 0001:0000b8a0       ?_Copy@?$_Tree@V?$_Tmap_traits@V?$basic_string@DU?$char_traits@D@std@@V?$allocator@D@2@@std@@U?$pair@V?$basic_string@DU?$char_traits@D@std@@V?$allocator@D@2@@std@@V12@@2@U?$less@V?$basic_string@DU?$char_traits@D@std@@V?$allocator@D@2@@std@@@2@V?$allocator@U?$pair@$$CBV?$basic_string@DU?$char_traits@D@std@@V?$allocator@D@2@@std@@U?$pair@V?$basic_string@DU?$char_traits@D@std@@V?$allocator@D@2@@std@@V12@@2@@std@@@2@$0A@@std@@@std@@IAEPAU_Node@?$_Tree_nod@V?$_Tmap_traits@V?$basic_string@DU?$char_traits@D@std@@V?$allocator@D@2@@std@@U?$pair@V?$basic_string@DU?$char_traits@D@std@@V?$allocator@D@2@@std@@V12@@2@U?$less@V?$basic_string@DU?$char_traits@D@std@@V?$allocator@D@2@@std@@@2@V?$allocator@U?$pair@$$CBV?$basic_string@DU?$char_traits@D@std@@V?$allocator@D@2@@std@@U?$pair@V?$basic_string@DU?$char_traits@D@std@@V?$allocator@D@2@@std@@V12@@2@@std@@@2@$0A@@std@@@2@PAU342@0@Z 0040c8a0 f i dependtree:WWebWidget.obj
 0001:0000b950       ?buildSlotMap@WWebWidget@@MAEXAAV?$map@V?$basic_string@DU?$char_traits@D@std@@V?$allocator@D@2@@std@@PAVWSlotInstance_@@U?$less@V?$basic_string@DU?$char_traits@D@std@@V?$allocator@D@2@@std@@@2@V?$allocator@U?$pair@$$CBV?$basic_string@DU?$char_traits@D@std@@V?$allocator@D@2@@std@@PAVWSlotInstance_@@@std@@@2@@std@@@Z 0040c950 f   dependtree:WWebWidget.obj
 0001:0000ba10       ?buildSignalMap@WWebWidget@@MAEXAAV?$map@V?$basic_string@DU?$char_traits@D@std@@V?$allocator@D@2@@std@@PAVWSignalInstance_@@U?$less@V?$basic_string@DU?$char_traits@D@std@@V?$allocator@D@2@@std@@@2@V?$allocator@U?$pair@$$CBV?$basic_string@DU?$char_traits@D@std@@V?$allocator@D@2@@std@@PAVWSignalInstance_@@@std@@@2@@std@@@Z 0040ca10 f   dependtree:WWebWidget.obj
 0001:0000bad0       ??0?$_Tree@V?$_Tmap_traits@V?$basic_string@DU?$char_traits@D@std@@V?$allocator@D@2@@std@@V12@U?$less@V?$basic_string@DU?$char_traits@D@std@@V?$allocator@D@2@@std@@@2@V?$allocator@U?$pair@$$CBV?$basic_string@DU?$char_traits@D@std@@V?$allocator@D@2@@std@@V12@@std@@@2@$0A@@std@@@std@@QAE@ABV01@@Z 0040cad0 f i dependtree:WWebWidget.obj
 0001:0000bb60       ??0?$_Tree@V?$_Tmap_traits@W4Property@Wt@@V?$basic_string@DU?$char_traits@D@std@@V?$allocator@D@2@@std@@U?$less@W4Property@Wt@@@4@V?$allocator@U?$pair@$$CBW4Property@Wt@@V?$basic_string@DU?$char_traits@D@std@@V?$allocator@D@2@@std@@@std@@@4@$0A@@std@@@std@@QAE@ABV01@@Z 0040cb60 f i dependtree:WWebWidget.obj
 0001:0000bbf0       ??0?$vector@U?$pair@V?$basic_string@DU?$char_traits@D@std@@V?$allocator@D@2@@std@@PAVDomElement@@@std@@V?$allocator@U?$pair@V?$basic_string@DU?$char_traits@D@std@@V?$allocator@D@2@@std@@PAVDomElement@@@std@@@2@@std@@QAE@ABV01@@Z 0040cbf0 f i dependtree:WWebWidget.obj
 0001:0000bcb0       ??1?$vector@U?$pair@V?$basic_string@DU?$char_traits@D@std@@V?$allocator@D@2@@std@@PAVDomElement@@@std@@V?$allocator@U?$pair@V?$basic_string@DU?$char_traits@D@std@@V?$allocator@D@2@@std@@PAVDomElement@@@std@@@2@@std@@QAE@XZ 0040ccb0 f i dependtree:WWebWidget.obj
 0001:0000bcc0       ?erase@?$_Tree@V?$_Tmap_traits@V?$basic_string@DU?$char_traits@D@std@@V?$allocator@D@2@@std@@U?$pair@V?$basic_string@DU?$char_traits@D@std@@V?$allocator@D@2@@std@@V12@@2@U?$less@V?$basic_string@DU?$char_traits@D@std@@V?$allocator@D@2@@std@@@2@V?$allocator@U?$pair@$$CBV?$basic_string@DU?$char_traits@D@std@@V?$allocator@D@2@@std@@U?$pair@V?$basic_string@DU?$char_traits@D@std@@V?$allocator@D@2@@std@@V12@@2@@std@@@2@$0A@@std@@@std@@QAE?AViterator@12@V312@0@Z 0040ccc0 f i dependtree:WWebWidget.obj
 0001:0000bd80       ?_Copy@?$_Tree@V?$_Tmap_traits@V?$basic_string@DU?$char_traits@D@std@@V?$allocator@D@2@@std@@U?$pair@V?$basic_string@DU?$char_traits@D@std@@V?$allocator@D@2@@std@@V12@@2@U?$less@V?$basic_string@DU?$char_traits@D@std@@V?$allocator@D@2@@std@@@2@V?$allocator@U?$pair@$$CBV?$basic_string@DU?$char_traits@D@std@@V?$allocator@D@2@@std@@U?$pair@V?$basic_string@DU?$char_traits@D@std@@V?$allocator@D@2@@std@@V12@@2@@std@@@2@$0A@@std@@@std@@IAEXABV12@@Z 0040cd80 f i dependtree:WWebWidget.obj
 0001:0000be10       ??1?$map@V?$basic_string@DU?$char_traits@D@std@@V?$allocator@D@2@@std@@U?$pair@V?$basic_string@DU?$char_traits@D@std@@V?$allocator@D@2@@std@@V12@@2@U?$less@V?$basic_string@DU?$char_traits@D@std@@V?$allocator@D@2@@std@@@2@V?$allocator@U?$pair@$$CBV?$basic_string@DU?$char_traits@D@std@@V?$allocator@D@2@@std@@U?$pair@V?$basic_string@DU?$char_traits@D@std@@V?$allocator@D@2@@std@@V12@@2@@std@@@2@@std@@QAE@XZ 0040ce10 f i dependtree:WWebWidget.obj
 0001:0000be10       ?_Tidy@?$_Tree@V?$_Tmap_traits@V?$basic_string@DU?$char_traits@D@std@@V?$allocator@D@2@@std@@U?$pair@V?$basic_string@DU?$char_traits@D@std@@V?$allocator@D@2@@std@@V12@@2@U?$less@V?$basic_string@DU?$char_traits@D@std@@V?$allocator@D@2@@std@@@2@V?$allocator@U?$pair@$$CBV?$basic_string@DU?$char_traits@D@std@@V?$allocator@D@2@@std@@U?$pair@V?$basic_string@DU?$char_traits@D@std@@V?$allocator@D@2@@std@@V12@@2@@std@@@2@$0A@@std@@@std@@IAEXXZ 0040ce10 f i dependtree:WWebWidget.obj
 0001:0000be40       ??0?$_Tree@V?$_Tmap_traits@V?$basic_string@DU?$char_traits@D@std@@V?$allocator@D@2@@std@@U?$pair@V?$basic_string@DU?$char_traits@D@std@@V?$allocator@D@2@@std@@V12@@2@U?$less@V?$basic_string@DU?$char_traits@D@std@@V?$allocator@D@2@@std@@@2@V?$allocator@U?$pair@$$CBV?$basic_string@DU?$char_traits@D@std@@V?$allocator@D@2@@std@@U?$pair@V?$basic_string@DU?$char_traits@D@std@@V?$allocator@D@2@@std@@V12@@2@@std@@@2@$0A@@std@@@std@@QAE@ABV01@@Z 0040ce40 f i dependtree:WWebWidget.obj
 0001:0000bed0       ??4?$vector@U?$pair@V?$basic_string@DU?$char_traits@D@std@@V?$allocator@D@2@@std@@PAVDomElement@@@std@@V?$allocator@U?$pair@V?$basic_string@DU?$char_traits@D@std@@V?$allocator@D@2@@std@@PAVDomElement@@@std@@@2@@std@@QAEAAV01@ABV01@@Z 0040ced0 f i dependtree:WWebWidget.obj
 0001:0000c030       ??0DomElement@@QAE@ABV0@@Z 0040d030 f i dependtree:WWebWidget.obj
 0001:0000c0f0       ??4DomElement@@QAEAAV0@ABV0@@Z 0040d0f0 f i dependtree:WWebWidget.obj
 0001:0000c1c0       ??_EWInteractWidget@@UAEPAXI@Z 0040d1c0 f i dependtree:WInteractWidget.obj
 0001:0000c220       ?keyWentDown@WInteractWidget@@QAEXH@Z 0040d220 f   dependtree:WInteractWidget.obj
 0001:0000c240       ?keyPressed@WInteractWidget@@QAEXH@Z 0040d240 f   dependtree:WInteractWidget.obj
 0001:0000c260       ?keyWentUp@WInteractWidget@@QAEXH@Z 0040d260 f   dependtree:WInteractWidget.obj
 0001:0000c280       ?clicked@WInteractWidget@@QAEXXZ 0040d280 f   dependtree:WInteractWidget.obj
 0001:0000c290       ?doubleClicked@WInteractWidget@@QAEXXZ 0040d290 f   dependtree:WInteractWidget.obj
 0001:0000c2a0       ?mouseWentDown@WInteractWidget@@QAEXXZ 0040d2a0 f   dependtree:WInteractWidget.obj
 0001:0000c2b0       ?mouseWentUp@WInteractWidget@@QAEXXZ 0040d2b0 f   dependtree:WInteractWidget.obj
 0001:0000c2c0       ?mouseWentOut@WInteractWidget@@QAEXXZ 0040d2c0 f   dependtree:WInteractWidget.obj
 0001:0000c2d0       ?mouseWentOver@WInteractWidget@@QAEXXZ 0040d2d0 f   dependtree:WInteractWidget.obj
 0001:0000c2e0       ?mouseMoved@WInteractWidget@@QAEXXZ 0040d2e0 f   dependtree:WInteractWidget.obj
 0001:0000c2f0       ?clicked@WInteractWidget@@QAEXPAX@Z 0040d2f0 f   dependtree:WInteractWidget.obj
 0001:0000c310       ?contextmenu@WInteractWidget@@QAEXXZ 0040d310 f   dependtree:WInteractWidget.obj
 0001:0000c320       ??0WInteractWidget@@QAE@PAVWContainerWidget@@@Z 0040d320 f   dependtree:WInteractWidget.obj
 0001:0000c360       ?setData@WInteractWidget@@QAEXPAX@Z 0040d360 f   dependtree:WInteractWidget.obj
 0001:0000c370       ?updateDom@WInteractWidget@@MAEXAAVDomElement@@_N@Z 0040d370 f   dependtree:WInteractWidget.obj
 0001:0000c5e0       ?gotClick@WInteractWidget@@AAEXXZ 0040d5e0 f   dependtree:WInteractWidget.obj
 0001:0000c610       ?triggerSlot@WInteractWidget@@MAE_NPAVWObject@@PBVWSlot_@@PAPAX@Z 0040d610 f   dependtree:WInteractWidget.obj
 0001:0000c660       ?buildSlotMap@WInteractWidget@@MAEXAAV?$map@V?$basic_string@DU?$char_traits@D@std@@V?$allocator@D@2@@std@@PAVWSlotInstance_@@U?$less@V?$basic_string@DU?$char_traits@D@std@@V?$allocator@D@2@@std@@@2@V?$allocator@U?$pair@$$CBV?$basic_string@DU?$char_traits@D@std@@V?$allocator@D@2@@std@@PAVWSlotInstance_@@@std@@@2@@std@@@Z 0040d660 f   dependtree:WInteractWidget.obj
 0001:0000c720       ?buildSignalMap@WInteractWidget@@MAEXAAV?$map@V?$basic_string@DU?$char_traits@D@std@@V?$allocator@D@2@@std@@PAVWSignalInstance_@@U?$less@V?$basic_string@DU?$char_traits@D@std@@V?$allocator@D@2@@std@@@2@V?$allocator@U?$pair@$$CBV?$basic_string@DU?$char_traits@D@std@@V?$allocator@D@2@@std@@PAVWSignalInstance_@@@std@@@2@@std@@@Z 0040d720 f   dependtree:WInteractWidget.obj
 0001:0000c7e0       ?removeWidget@WContainerWidget@@UAEXPAVWWidget@@@Z 0040d7e0 f   dependtree:WContainerWidget.obj
 0001:0000c800       ?setContentAlignment@WContainerWidget@@QAEXW4HorizontalAlignment@WWidget@@@Z 0040d800 f   dependtree:WContainerWidget.obj
 0001:0000c820       ?setPadding@WContainerWidget@@QAEXVWLength@@H@Z 0040d820 f   dependtree:WContainerWidget.obj
 0001:0000c8b0       ?padding@WContainerWidget@@QBE?AVWLength@@W4Side@WWidget@@@Z 0040d8b0 f   dependtree:WContainerWidget.obj
 0001:0000c960       ?clear@WContainerWidget@@QAEXXZ 0040d960 f   dependtree:WContainerWidget.obj
 0001:0000c9a0       ??_EWContainerWidget@@UAEPAXI@Z 0040d9a0 f i dependtree:WContainerWidget.obj
 0001:0000ca00       ??0WContainerWidget@@QAE@PAV0@@Z 0040da00 f   dependtree:WContainerWidget.obj
 0001:0000caa0       ?removeChild@WContainerWidget@@MAEXPAVWWidget@@@Z 0040daa0 f   dependtree:WContainerWidget.obj
 0001:0000cb00       ?updateDom@WContainerWidget@@MAEXAAVDomElement@@_N@Z 0040db00 f   dependtree:WContainerWidget.obj
 0001:0000cff0       ?createDomChildren@WContainerWidget@@IAEXAAVDomElement@@@Z 0040dff0 f   dependtree:WContainerWidget.obj
 0001:0000d090       ?createDomElement@WContainerWidget@@MAEPAVDomElement@@XZ 0040e090 f   dependtree:WContainerWidget.obj
 0001:0000d110       ?addWidget@WContainerWidget@@UAEXPAVWWidget@@@Z 0040e110 f   dependtree:WContainerWidget.obj
 0001:0000d180       ?getDomChanges@WContainerWidget@@MAEXAAV?$vector@PAVDomElement@@V?$allocator@PAVDomElement@@@std@@@std@@@Z 0040e180 f   dependtree:WContainerWidget.obj
 0001:0000d220       ?buildSlotMap@WContainerWidget@@MAEXAAV?$map@V?$basic_string@DU?$char_traits@D@std@@V?$allocator@D@2@@std@@PAVWSlotInstance_@@U?$less@V?$basic_string@DU?$char_traits@D@std@@V?$allocator@D@2@@std@@@2@V?$allocator@U?$pair@$$CBV?$basic_string@DU?$char_traits@D@std@@V?$allocator@D@2@@std@@PAVWSlotInstance_@@@std@@@2@@std@@@Z 0040e220 f   dependtree:WContainerWidget.obj
 0001:0000d2e0       ?buildSignalMap@WContainerWidget@@MAEXAAV?$map@V?$basic_string@DU?$char_traits@D@std@@V?$allocator@D@2@@std@@PAVWSignalInstance_@@U?$less@V?$basic_string@DU?$char_traits@D@std@@V?$allocator@D@2@@std@@@2@V?$allocator@U?$pair@$$CBV?$basic_string@DU?$char_traits@D@std@@V?$allocator@D@2@@std@@PAVWSignalInstance_@@@std@@@2@@std@@@Z 0040e2e0 f   dependtree:WContainerWidget.obj
 0001:0000d3a0       ?triggerSlot@WTableRow@@MAE_NPAVWObject@@PBVWSlot_@@PAPAX@Z 0040e3a0 f   dependtree:WTable.obj
 0001:0000d3a0       ?triggerSlot@WTableCell@@MAE_NPAVWObject@@PBVWSlot_@@PAPAX@Z 0040e3a0 f   dependtree:WTableCell.obj
 0001:0000d3b0       ?undoTriggerSlot@CCheckBoxTreeView@@MAE_NPBVWSlot_@@PAPAX@Z 0040e3b0 f   dependtree:CheckBoxTreeViewWt.obj
 0001:0000d3b0       ?undoTriggerSlot@WSPopTable@@MAE_NPBVWSlot_@@PAPAX@Z 0040e3b0 f   WSPopTableWt.obj
 0001:0000d3b0       ?undoTriggerSlot@WTableRow@@MAE_NPBVWSlot_@@PAPAX@Z 0040e3b0 f   dependtree:WTable.obj
 0001:0000d3b0       ?undoTriggerSlot@WTableCell@@MAE_NPBVWSlot_@@PAPAX@Z 0040e3b0 f   dependtree:WTableCell.obj
 0001:0000d3b0       ?undoTriggerSlot@SVDepend@@MAE_NPBVWSlot_@@PAPAX@Z 0040e3b0 f   dependformwt.obj
 0001:0000d3c0       ?createDomElement@WTableRow@@MAEPAVDomElement@@XZ 0040e3c0 f   dependtree:WTable.obj
 0001:0000d400       ?updateDom@WTableCell@@MAEXAAVDomElement@@_N@Z 0040e400 f   dependtree:WTableCell.obj
 0001:0000d400       ?updateDom@WTableRow@@MAEXAAVDomElement@@_N@Z 0040e400 f   dependtree:WTable.obj
 0001:0000d410       ?setCellPadding@WTable@@QAEXH@Z 0040e410 f   dependtree:WTable.obj
 0001:0000d420       ?SetLine@WTable@@QAEX_N@Z  0040e420 f   dependtree:WTable.obj
 0001:0000d430       ?updateDom@WTable@@MAEXAAVDomElement@@_N@Z 0040e430 f   dependtree:WTable.obj
 0001:0000d450       ?setCellSpaceing@WTable@@QAEXH@Z 0040e450 f   dependtree:WTable.obj
 0001:0000d460       ??$fill@PAUTableData@WTableRow@@U12@@std@@YAXPAUTableData@WTableRow@@0ABU12@@Z 0040e460 f i dependtree:WTable.obj
 0001:0000d490       ?numRows@WTable@@QBEHXZ    0040e490 f   dependtree:WTable.obj
 0001:0000d4b0       ??$copy_backward@PAUTableData@WTableRow@@PAU12@@std@@YAPAUTableData@WTableRow@@PAU12@00@Z 0040e4b0 f i dependtree:WTable.obj
 0001:0000d4e0       ??$_Uninit_fill_n@PAUTableData@WTableRow@@IU12@V?$allocator@UTableData@WTableRow@@@std@@@std@@YAXPAUTableData@WTableRow@@IABU12@AAV?$allocator@UTableData@WTableRow@@@0@U_Nonscalar_ptr_iterator_tag@0@@Z 0040e4e0 f i dependtree:WTable.obj
 0001:0000d510       ?rowNum@WTableRow@@QBEHXZ  0040e510 f   dependtree:WTable.obj
 0001:0000d550       ?numColumns@WTable@@QBEHXZ 0040e550 f   dependtree:WTable.obj
 0001:0000d590       ?itemAt@WTable@@AAEAAUTableData@WTableRow@@HH@Z 0040e590 f   dependtree:WTable.obj
 0001:0000d5b0       ?GetRow@WTable@@QAEPAVWTableRow@@H@Z 0040e5b0 f   dependtree:WTable.obj
 0001:0000d5d0       ?adjustRowStyle@WTable@@QAEXV?$basic_string@DU?$char_traits@D@std@@V?$allocator@D@2@@std@@0@Z 0040e5d0 f   dependtree:WTable.obj
 0001:0000d6b0       ??0WTable@@QAE@PAVWContainerWidget@@@Z 0040e6b0 f   dependtree:WTable.obj
 0001:0000d740       ??1WTable@@UAE@XZ          0040e740 f   dependtree:WTable.obj
 0001:0000d7f0       ?printDebug@WTable@@QAEXXZ 0040e7f0 f   dependtree:WTable.obj
 0001:0000d9d0       ?removeCell@WTable@@QAEXHH@Z 0040e9d0 f   dependtree:WTable.obj
 0001:0000da70       ?deleteRow@WTable@@QAEXH@Z 0040ea70 f   dependtree:WTable.obj
 0001:0000db40       ?clear@WTable@@QAEXXZ      0040eb40 f   dependtree:WTable.obj
 0001:0000db90       ?createDomElement@WTable@@MAEPAVDomElement@@XZ 0040eb90 f   dependtree:WTable.obj
 0001:0000e010       ?_Ufill@?$vector@UTableData@WTableRow@@V?$allocator@UTableData@WTableRow@@@std@@@std@@IAEPAUTableData@WTableRow@@PAU34@IABU34@@Z 0040f010 f i dependtree:WTable.obj
 0001:0000e040       ??_EWTable@@UAEPAXI@Z      0040f040 f i dependtree:WTable.obj
 0001:0000e0a0       ?removeCell@WTable@@QAEXPAVWTableCell@@@Z 0040f0a0 f   dependtree:WTable.obj
 0001:0000e0c0       ?_Insert_n@?$vector@UTableData@WTableRow@@V?$allocator@UTableData@WTableRow@@@std@@@std@@IAEXViterator@12@IABUTableData@WTableRow@@@Z 0040f0c0 f i dependtree:WTable.obj
 0001:0000e310       ??_EWTableRow@@UAEPAXI@Z   0040f310 f i dependtree:WTable.obj
 0001:0000e370       ?getDomChanges@WTable@@MAEXAAV?$vector@PAVDomElement@@V?$allocator@PAVDomElement@@@std@@@std@@@Z 0040f370 f   dependtree:WTable.obj
 0001:0000e490       ?buildSlotMap@WTableRow@@MAEXAAV?$map@V?$basic_string@DU?$char_traits@D@std@@V?$allocator@D@2@@std@@PAVWSlotInstance_@@U?$less@V?$basic_string@DU?$char_traits@D@std@@V?$allocator@D@2@@std@@@2@V?$allocator@U?$pair@$$CBV?$basic_string@DU?$char_traits@D@std@@V?$allocator@D@2@@std@@PAVWSlotInstance_@@@std@@@2@@std@@@Z 0040f490 f   dependtree:WTable.obj
 0001:0000e550       ?buildSignalMap@WTableRow@@MAEXAAV?$map@V?$basic_string@DU?$char_traits@D@std@@V?$allocator@D@2@@std@@PAVWSignalInstance_@@U?$less@V?$basic_string@DU?$char_traits@D@std@@V?$allocator@D@2@@std@@@2@V?$allocator@U?$pair@$$CBV?$basic_string@DU?$char_traits@D@std@@V?$allocator@D@2@@std@@PAVWSignalInstance_@@@std@@@2@@std@@@Z 0040f550 f   dependtree:WTable.obj
 0001:0000e610       ?buildSlotMap@WTable@@MAEXAAV?$map@V?$basic_string@DU?$char_traits@D@std@@V?$allocator@D@2@@std@@PAVWSlotInstance_@@U?$less@V?$basic_string@DU?$char_traits@D@std@@V?$allocator@D@2@@std@@@2@V?$allocator@U?$pair@$$CBV?$basic_string@DU?$char_traits@D@std@@V?$allocator@D@2@@std@@PAVWSlotInstance_@@@std@@@2@@std@@@Z 0040f610 f   dependtree:WTable.obj
 0001:0000e6d0       ?buildSignalMap@WTable@@MAEXAAV?$map@V?$basic_string@DU?$char_traits@D@std@@V?$allocator@D@2@@std@@PAVWSignalInstance_@@U?$less@V?$basic_string@DU?$char_traits@D@std@@V?$allocator@D@2@@std@@@2@V?$allocator@U?$pair@$$CBV?$basic_string@DU?$char_traits@D@std@@V?$allocator@D@2@@std@@PAVWSignalInstance_@@@std@@@2@@std@@@Z 0040f6d0 f   dependtree:WTable.obj
 0001:0000e790       ?insertColumn@WTableRow@@QAEXH@Z 0040f790 f   dependtree:WTable.obj
 0001:0000e860       ?insertColumn@WTable@@QAEXH@Z 0040f860 f   dependtree:WTable.obj
 0001:0000e8b0       ?expand@WTableRow@@AAEXH@Z 0040f8b0 f   dependtree:WTable.obj
 0001:0000e9d0       ??0WTableRow@@QAE@PAVWTable@@H@Z 0040f9d0 f   dependtree:WTable.obj
 0001:0000ea50       ?expand@WTable@@AAEXHHHH@Z 0040fa50 f   dependtree:WTable.obj
 0001:0000ec00       ?insertRow@WTable@@QAEXH@Z 0040fc00 f   dependtree:WTable.obj
 0001:0000ecd0       ?insertRow@WTable@@QAEXHV?$basic_string@DU?$char_traits@D@std@@V?$allocator@D@2@@std@@@Z 0040fcd0 f   dependtree:WTable.obj
 0001:0000edd0       ?elementAt@WTable@@QAEPAVWTableCell@@HH@Z 0040fdd0 f   dependtree:WTable.obj
 0001:0000ee10       ??_EWText@@UAEPAXI@Z       0040fe10 f i dependtree:WText.obj
 0001:0000ee70       ??0WText@@QAE@PAVWContainerWidget@@@Z 0040fe70 f   dependtree:WText.obj
 0001:0000ef10       ??0WText@@QAE@V?$basic_string@DU?$char_traits@D@std@@V?$allocator@D@2@@std@@PAVWContainerWidget@@@Z 0040ff10 f   dependtree:WText.obj
 0001:0000efd0       ??0WText@@QAE@ABVWMessage@@PAVWContainerWidget@@@Z 0040ffd0 f   dependtree:WText.obj
 0001:0000f090       ?hintedWidth@WText@@QBE?AVWLength@@XZ 00410090 f   dependtree:WText.obj
 0001:0000f0d0       ?setText@WText@@QAEXV?$basic_string@DU?$char_traits@D@std@@V?$allocator@D@2@@std@@@Z 004100d0 f   dependtree:WText.obj
 0001:0000f160       ?setMessage@WText@@QAEXABVWMessage@@@Z 00410160 f   dependtree:WText.obj
 0001:0000f240       ?setFormatting@WText@@QAEXW4Formatting@1@@Z 00410240 f   dependtree:WText.obj
 0001:0000f250       ?formattedText@WText@@QBE?AV?$basic_string@DU?$char_traits@D@std@@V?$allocator@D@2@@std@@XZ 00410250 f   dependtree:WText.obj
 0001:0000f3c0       ?createDomElement@WText@@MAEPAVDomElement@@XZ 004103c0 f   dependtree:WText.obj
 0001:0000f3c0       ?createDomElement@WSVLinkText@@MAEPAVDomElement@@XZ 004103c0 f   dependtree:WSVLinkText.obj
 0001:0000f400       ?refresh@WText@@UAEXXZ     00410400 f   dependtree:WText.obj
 0001:0000f500       ?updateDom@WText@@MAEXAAVDomElement@@_N@Z 00410500 f   dependtree:WText.obj
 0001:0000f560       ?buildSlotMap@WText@@MAEXAAV?$map@V?$basic_string@DU?$char_traits@D@std@@V?$allocator@D@2@@std@@PAVWSlotInstance_@@U?$less@V?$basic_string@DU?$char_traits@D@std@@V?$allocator@D@2@@std@@@2@V?$allocator@U?$pair@$$CBV?$basic_string@DU?$char_traits@D@std@@V?$allocator@D@2@@std@@PAVWSlotInstance_@@@std@@@2@@std@@@Z 00410560 f   dependtree:WText.obj
 0001:0000f620       ?buildSignalMap@WText@@MAEXAAV?$map@V?$basic_string@DU?$char_traits@D@std@@V?$allocator@D@2@@std@@PAVWSignalInstance_@@U?$less@V?$basic_string@DU?$char_traits@D@std@@V?$allocator@D@2@@std@@@2@V?$allocator@U?$pair@$$CBV?$basic_string@DU?$char_traits@D@std@@V?$allocator@D@2@@std@@PAVWSignalInstance_@@@std@@@2@@std@@@Z 00410620 f   dependtree:WText.obj
 0001:0000f6e0       ??_EWImage@@UAEPAXI@Z      004106e0 f i dependtree:WImage.obj
 0001:0000f740       ??0WImage@@QAE@PAVWContainerWidget@@@Z 00410740 f   dependtree:WImage.obj
 0001:0000f7c0       ??0WImage@@QAE@V?$basic_string@DU?$char_traits@D@std@@V?$allocator@D@2@@std@@PAVWContainerWidget@@@Z 004107c0 f   dependtree:WImage.obj
 0001:0000f860       ??0WImage@@QAE@V?$basic_string@DU?$char_traits@D@std@@V?$allocator@D@2@@std@@0PAVWContainerWidget@@@Z 00410860 f   dependtree:WImage.obj
 0001:0000f910       ??0WImage@@QAE@PAVWResource@@V?$basic_string@DU?$char_traits@D@std@@V?$allocator@D@2@@std@@PAVWContainerWidget@@@Z 00410910 f   dependtree:WImage.obj
 0001:0000fa00       ?setAlternateText@WImage@@QAEXV?$basic_string@DU?$char_traits@D@std@@V?$allocator@D@2@@std@@@Z 00410a00 f   dependtree:WImage.obj
 0001:0000fa70       ?setImageRef@WImage@@QAEXV?$basic_string@DU?$char_traits@D@std@@V?$allocator@D@2@@std@@@Z 00410a70 f   dependtree:WImage.obj
 0001:0000fae0       ?resourceChanged@WImage@@AAEXXZ 00410ae0 f   dependtree:WImage.obj
 0001:0000fb10       ?updateDom@WImage@@MAEXAAVDomElement@@_N@Z 00410b10 f   dependtree:WImage.obj
 0001:0000fb80       ?createDomElement@WImage@@MAEPAVDomElement@@XZ 00410b80 f   dependtree:WImage.obj
 0001:0000fbb0       ?triggerSlot@WImage@@MAE_NPAVWObject@@PBVWSlot_@@PAPAX@Z 00410bb0 f   dependtree:WImage.obj
 0001:0000fbe0       ?getDomChanges@WImage@@MAEXAAV?$vector@PAVDomElement@@V?$allocator@PAVDomElement@@@std@@@std@@@Z 00410be0 f   dependtree:WImage.obj
 0001:0000fc20       ?buildSlotMap@WImage@@MAEXAAV?$map@V?$basic_string@DU?$char_traits@D@std@@V?$allocator@D@2@@std@@PAVWSlotInstance_@@U?$less@V?$basic_string@DU?$char_traits@D@std@@V?$allocator@D@2@@std@@@2@V?$allocator@U?$pair@$$CBV?$basic_string@DU?$char_traits@D@std@@V?$allocator@D@2@@std@@PAVWSlotInstance_@@@std@@@2@@std@@@Z 00410c20 f   dependtree:WImage.obj
 0001:0000fce0       ?buildSignalMap@WImage@@MAEXAAV?$map@V?$basic_string@DU?$char_traits@D@std@@V?$allocator@D@2@@std@@PAVWSignalInstance_@@U?$less@V?$basic_string@DU?$char_traits@D@std@@V?$allocator@D@2@@std@@@2@V?$allocator@U?$pair@$$CBV?$basic_string@DU?$char_traits@D@std@@V?$allocator@D@2@@std@@PAVWSignalInstance_@@@std@@@2@@std@@@Z 00410ce0 f   dependtree:WImage.obj
 0001:0000fda0       ?image@WLabel@@QBEPAVWImage@@XZ 00410da0 f i dependtree:WFormWidget.obj
 0001:0000fdb0       ??_FWLabel@@QAEXXZ         00410db0 f i dependtree:WFormWidget.obj
 0001:0000fdc0       ?changed@WFormWidget@@QAEXXZ 00410dc0 f   dependtree:WFormWidget.obj
 0001:0000fdd0       ?selected@WFormWidget@@QAEXXZ 00410dd0 f   dependtree:WFormWidget.obj
 0001:0000fde0       ?blurred@WFormWidget@@QAEXXZ 00410de0 f   dependtree:WFormWidget.obj
 0001:0000fdf0       ?focussed@WFormWidget@@QAEXXZ 00410df0 f   dependtree:WFormWidget.obj
 0001:0000fe00       ??0WFormWidget@@QAE@PAVWContainerWidget@@@Z 00410e00 f   dependtree:WFormWidget.obj
 0001:0000fe30       ??1WFormWidget@@UAE@XZ     00410e30 f   dependtree:WFormWidget.obj
 0001:0000fe90       ?setEnabled@WFormWidget@@QAEX_N@Z 00410e90 f   dependtree:WFormWidget.obj
 0001:0000feb0       ?updateDom@WFormWidget@@MAEXAAVDomElement@@_N@Z 00410eb0 f   dependtree:WFormWidget.obj
 0001:0000ffa0       ?setLabel@WFormWidget@@AAEXPAVWLabel@@@Z 00410fa0 f   dependtree:WFormWidget.obj
 0001:0000ffb0       ?setHidden@WFormWidget@@UAEX_N@Z 00410fb0 f   dependtree:WFormWidget.obj
 0001:0000ffe0       ??_EWFormWidget@@UAEPAXI@Z 00410fe0 f i dependtree:WFormWidget.obj
 0001:00010040       ?enable@WFormWidget@@QAEXXZ 00411040 f   dependtree:WFormWidget.obj
 0001:00010060       ?disable@WFormWidget@@QAEXXZ 00411060 f   dependtree:WFormWidget.obj
 0001:00010080       ?undoEnable@WFormWidget@@AAEXXZ 00411080 f   dependtree:WFormWidget.obj
 0001:00010080       ?undoDisable@WFormWidget@@AAEXXZ 00411080 f   dependtree:WFormWidget.obj
 0001:000100a0       ?triggerSlot@WFormWidget@@MAE_NPAVWObject@@PBVWSlot_@@PAPAX@Z 004110a0 f   dependtree:WFormWidget.obj
 0001:00010140       ?undoTriggerSlot@WFormWidget@@MAE_NPBVWSlot_@@PAPAX@Z 00411140 f   dependtree:WFormWidget.obj
 0001:000101a0       ??4WLabel@@QAEAAV0@ABV0@@Z 004111a0 f i dependtree:WFormWidget.obj
 0001:000101f0       ?buildSlotMap@WFormWidget@@MAEXAAV?$map@V?$basic_string@DU?$char_traits@D@std@@V?$allocator@D@2@@std@@PAVWSlotInstance_@@U?$less@V?$basic_string@DU?$char_traits@D@std@@V?$allocator@D@2@@std@@@2@V?$allocator@U?$pair@$$CBV?$basic_string@DU?$char_traits@D@std@@V?$allocator@D@2@@std@@PAVWSlotInstance_@@@std@@@2@@std@@@Z 004111f0 f   dependtree:WFormWidget.obj
 0001:000102b0       ?buildSignalMap@WFormWidget@@MAEXAAV?$map@V?$basic_string@DU?$char_traits@D@std@@V?$allocator@D@2@@std@@PAVWSignalInstance_@@U?$less@V?$basic_string@DU?$char_traits@D@std@@V?$allocator@D@2@@std@@@2@V?$allocator@U?$pair@$$CBV?$basic_string@DU?$char_traits@D@std@@V?$allocator@D@2@@std@@PAVWSignalInstance_@@@std@@@2@@std@@@Z 004112b0 f   dependtree:WFormWidget.obj
 0001:00010370       ??_EWPushButton@@UAEPAXI@Z 00411370 f i dependtree:WPushButton.obj
 0001:000103d0       ?triggerSlot@WPushButton@@MAE_NPAVWObject@@PBVWSlot_@@PAPAX@Z 004113d0 f   dependtree:WPushButton.obj
 0001:000103e0       ??0WPushButton@@QAE@PAVWContainerWidget@@@Z 004113e0 f   dependtree:WPushButton.obj
 0001:00010460       ??0WPushButton@@QAE@V?$basic_string@DU?$char_traits@D@std@@V?$allocator@D@2@@std@@PAVWContainerWidget@@@Z 00411460 f   dependtree:WPushButton.obj
 0001:00010500       ??0WPushButton@@QAE@ABVWMessage@@PAVWContainerWidget@@@Z 00411500 f   dependtree:WPushButton.obj
 0001:000105c0       ?setText@WPushButton@@QAEXV?$basic_string@DU?$char_traits@D@std@@V?$allocator@D@2@@std@@@Z 004115c0 f   dependtree:WPushButton.obj
 0001:00010650       ?setMessage@WPushButton@@QAEXABVWMessage@@@Z 00411650 f   dependtree:WPushButton.obj
 0001:00010690       ?updateDom@WPushButton@@MAEXAAVDomElement@@_N@Z 00411690 f   dependtree:WPushButton.obj
 0001:000106f0       ?createDomElement@WPushButton@@MAEPAVDomElement@@XZ 004116f0 f   dependtree:WPushButton.obj
 0001:00010790       ?refresh@WPushButton@@UAEXXZ 00411790 f   dependtree:WPushButton.obj
 0001:00010890       ?buildSlotMap@WPushButton@@MAEXAAV?$map@V?$basic_string@DU?$char_traits@D@std@@V?$allocator@D@2@@std@@PAVWSlotInstance_@@U?$less@V?$basic_string@DU?$char_traits@D@std@@V?$allocator@D@2@@std@@@2@V?$allocator@U?$pair@$$CBV?$basic_string@DU?$char_traits@D@std@@V?$allocator@D@2@@std@@PAVWSlotInstance_@@@std@@@2@@std@@@Z 00411890 f   dependtree:WPushButton.obj
 0001:00010950       ?buildSignalMap@WPushButton@@MAEXAAV?$map@V?$basic_string@DU?$char_traits@D@std@@V?$allocator@D@2@@std@@PAVWSignalInstance_@@U?$less@V?$basic_string@DU?$char_traits@D@std@@V?$allocator@D@2@@std@@@2@V?$allocator@U?$pair@$$CBV?$basic_string@DU?$char_traits@D@std@@V?$allocator@D@2@@std@@PAVWSignalInstance_@@@std@@@2@@std@@@Z 00411950 f   dependtree:WPushButton.obj
 0001:00010a10       ??0WScrollArea@@QAE@PAVWContainerWidget@@@Z 00411a10 f   dependtree:WScrollArea.obj
 0001:00010af0       ??1WScrollArea@@UAE@XZ     00411af0 f   dependtree:WScrollArea.obj
 0001:00010b60       ?scrollBarChanged@WScrollArea@@AAEXXZ 00411b60 f   dependtree:WScrollArea.obj
 0001:00010b70       ?setWidget@WScrollArea@@QAEXPAVWWidget@@@Z 00411b70 f   dependtree:WScrollArea.obj
 0001:00010bc0       ?takeWidget@WScrollArea@@QAEPAVWWidget@@XZ 00411bc0 f   dependtree:WScrollArea.obj
 0001:00010c00       ?setScrollBarPolicy@WScrollArea@@QAEXW4ScrollBarPolicy@1@@Z 00411c00 f   dependtree:WScrollArea.obj
 0001:00010c20       ?updateDom@WScrollArea@@MAEXAAVDomElement@@_N@Z 00411c20 f   dependtree:WScrollArea.obj
 0001:00010d40       ?createDomElement@WScrollArea@@MAEPAVDomElement@@XZ 00411d40 f   dependtree:WScrollArea.obj
 0001:00010d70       ?_Xlen@?$vector@PAVWScrollBar@@V?$allocator@PAVWScrollBar@@@std@@@std@@IBEXXZ 00411d70 f i dependtree:WScrollArea.obj
 0001:00010df0       ??_EWScrollArea@@UAEPAXI@Z 00411df0 f i dependtree:WScrollArea.obj
 0001:00010e50       ?_Buy@?$vector@PAVWScrollBar@@V?$allocator@PAVWScrollBar@@@std@@@std@@IAE_NI@Z 00411e50 f i dependtree:WScrollArea.obj
 0001:00010ea0       ??$_Ucopy@PAPAVWMessageResources@@@?$vector@PAVWMessageResources@@V?$allocator@PAVWMessageResources@@@std@@@std@@IAEPAPAVWMessageResources@@PAPAV2@00@Z 00411ea0 f i depend.obj
 0001:00010ea0       ??$_Ucopy@PAPAVWTable@@@?$vector@PAVWTable@@V?$allocator@PAVWTable@@@std@@@std@@IAEPAPAVWTable@@PAPAV2@00@Z 00411ea0 f i WSPopTable.obj
 0001:00010ea0       ??$_Ucopy@PAPAVWTreeNode@@@?$vector@PAVWTreeNode@@V?$allocator@PAVWTreeNode@@@std@@@std@@IAEPAPAVWTreeNode@@PAPAV2@00@Z 00411ea0 f i dependtree:CheckBoxTreeView.obj
 0001:00010ea0       ??$_Ucopy@PAPAVWWidget@@@?$vector@PAVWWidget@@V?$allocator@PAVWWidget@@@std@@@std@@IAEPAPAVWWidget@@PAPAV2@00@Z 00411ea0 f i depend.obj
 0001:00010ea0       ??$_Ucopy@PAPAVWScrollBar@@@?$vector@PAVWScrollBar@@V?$allocator@PAVWScrollBar@@@std@@@std@@IAEPAPAVWScrollBar@@PAPAV2@00@Z 00411ea0 f i dependtree:WScrollArea.obj
 0001:00010ea0       ??$_Ucopy@PAPAVWConnection_@@@?$vector@PAVWConnection_@@V?$allocator@PAVWConnection_@@@std@@@std@@IAEPAPAVWConnection_@@PAPAV2@00@Z 00411ea0 f i dependformwt.obj
 0001:00010ea0       ??$_Ucopy@PAPAVWObject@@@?$vector@PAVWObject@@V?$allocator@PAVWObject@@@std@@@std@@IAEPAPAVWObject@@PAPAV2@00@Z 00411ea0 f i depend.obj
 0001:00010ea0       ??$_Ucopy@PAPAVWTableRow@@@?$vector@PAVWTableRow@@V?$allocator@PAVWTableRow@@@std@@@std@@IAEPAPAVWTableRow@@PAPAV2@00@Z 00411ea0 f i depend.obj
 0001:00010ea0       ??$_Ucopy@PAPAVDomElement@@@?$vector@PAVDomElement@@V?$allocator@PAVDomElement@@@std@@@std@@IAEPAPAVDomElement@@PAPAV2@00@Z 00411ea0 f i depend.obj
 0001:00010ed0       ??4?$vector@PAVWScrollBar@@V?$allocator@PAVWScrollBar@@@std@@@std@@QAEAAV01@ABV01@@Z 00411ed0 f i dependtree:WScrollArea.obj
 0001:00011020       ??4WScrollBar@@QAEAAV0@ABV0@@Z 00412020 f i dependtree:WScrollArea.obj
 0001:00011080       ?getDomChanges@WScrollArea@@MAEXAAV?$vector@PAVDomElement@@V?$allocator@PAVDomElement@@@std@@@std@@@Z 00412080 f   dependtree:WScrollArea.obj
 0001:000110e0       ?buildSlotMap@WScrollArea@@MAEXAAV?$map@V?$basic_string@DU?$char_traits@D@std@@V?$allocator@D@2@@std@@PAVWSlotInstance_@@U?$less@V?$basic_string@DU?$char_traits@D@std@@V?$allocator@D@2@@std@@@2@V?$allocator@U?$pair@$$CBV?$basic_string@DU?$char_traits@D@std@@V?$allocator@D@2@@std@@PAVWSlotInstance_@@@std@@@2@@std@@@Z 004120e0 f   dependtree:WScrollArea.obj
 0001:000111a0       ?buildSignalMap@WScrollArea@@MAEXAAV?$map@V?$basic_string@DU?$char_traits@D@std@@V?$allocator@D@2@@std@@PAVWSignalInstance_@@U?$less@V?$basic_string@DU?$char_traits@D@std@@V?$allocator@D@2@@std@@@2@V?$allocator@U?$pair@$$CBV?$basic_string@DU?$char_traits@D@std@@V?$allocator@D@2@@std@@PAVWSignalInstance_@@@std@@@2@@std@@@Z 004121a0 f   dependtree:WScrollArea.obj
 0001:00011260       ?exec@WApplication@@QAEHXZ 00412260 f   dependtree:WApplication.obj
 0001:00011270       ?instance@WApplication@@SAPAV1@XZ 00412270 f   dependtree:WApplication.obj
 0001:00011280       ?setTitle@WApplication@@QAEXV?$basic_string@DU?$char_traits@D@std@@V?$allocator@D@2@@std@@@Z 00412280 f   dependtree:WApplication.obj
 0001:000112d0       ?url@WApplication@@QBE?AV?$basic_string@DU?$char_traits@D@std@@V?$allocator@D@2@@std@@XZ 004122d0 f   dependtree:WApplication.obj
 0001:00011300       ?submiturl@WApplication@@QBE?AV?$basic_string@DU?$char_traits@D@std@@V?$allocator@D@2@@std@@XZ 00412300 f   dependtree:WApplication.obj
 0001:00011330       ?quit@WApplication@@QAEXXZ 00412330 f   dependtree:WApplication.obj
 0001:00011340       ?scheduleUploadFiles@WApplication@@QAEXXZ 00412340 f   dependtree:WApplication.obj
 0001:00011350       ?setOAPLDownloadPath@WApplication@@QAEXV?$basic_string@DU?$char_traits@D@std@@V?$allocator@D@2@@std@@@Z 00412350 f   dependtree:WApplication.obj
 0001:000113a0       ?haveJavaScript@WApplication@@QBE_NXZ 004123a0 f   dependtree:WApplication.obj
 0001:000113b0       ?refresh@WApplication@@UAEXXZ 004123b0 f   dependtree:WApplication.obj
 0001:000113d0       ?setBodyAttribute@WApplication@@QAEXV?$basic_string@DU?$char_traits@D@std@@V?$allocator@D@2@@std@@@Z 004123d0 f   dependtree:WApplication.obj
 0001:00011420       ?setRefreshTime@WApplication@@QAEXHV?$basic_string@DU?$char_traits@D@std@@V?$allocator@D@2@@std@@@Z 00412420 f   dependtree:WApplication.obj
 0001:00011480       ?_Dec@const_iterator@?$_Tree@V?$_Tset_traits@PBVWResource@@U?$less@PBVWResource@@@std@@V?$allocator@PBVWResource@@@3@$0A@@std@@@std@@QAEXXZ 00412480 f i dependtree:WApplication.obj
 0001:00011480       ?_Dec@const_iterator@?$_Tree@V?$_Tset_traits@PBVWSignalInstance_@@U?$less@PBVWSignalInstance_@@@std@@V?$allocator@PBVWSignalInstance_@@@3@$0A@@std@@@std@@QAEXXZ 00412480 f i dependtree:WApplication.obj
 0001:000114e0       ?triggerSlot@WApplication@@MAE_NPAVWObject@@PBVWSlot_@@PAPAX@Z 004124e0 f   dependtree:WApplication.obj
 0001:00011520       ?_Buynode@?$_Tree@V?$_Tset_traits@PBVWResource@@U?$less@PBVWResource@@@std@@V?$allocator@PBVWResource@@@3@$0A@@std@@@std@@IAEPAU_Node@?$_Tree_nod@V?$_Tset_traits@PBVWResource@@U?$less@PBVWResource@@@std@@V?$allocator@PBVWResource@@@3@$0A@@std@@@2@XZ 00412520 f i dependtree:WApplication.obj
 0001:00011520       ?_Buynode@?$_Tree@V?$_Tset_traits@PBVWSignalInstance_@@U?$less@PBVWSignalInstance_@@@std@@V?$allocator@PBVWSignalInstance_@@@3@$0A@@std@@@std@@IAEPAU_Node@?$_Tree_nod@V?$_Tset_traits@PBVWSignalInstance_@@U?$less@PBVWSignalInstance_@@@std@@V?$allocator@PBVWSignalInstance_@@@3@$0A@@std@@@2@XZ 00412520 f i dependtree:WApplication.obj
 0001:00011560       ?find@?$_Tree@V?$_Tset_traits@PBVWResource@@U?$less@PBVWResource@@@std@@V?$allocator@PBVWResource@@@3@$0A@@std@@@std@@QBE?AVconst_iterator@12@ABQBVWResource@@@Z 00412560 f i dependtree:WApplication.obj
 0001:00011560       ?find@?$_Tree@V?$_Tset_traits@PBVWResource@@U?$less@PBVWResource@@@std@@V?$allocator@PBVWResource@@@3@$0A@@std@@@std@@QAE?AViterator@12@ABQBVWResource@@@Z 00412560 f i dependtree:WApplication.obj
 0001:00011560       ?find@?$_Tree@V?$_Tset_traits@PBVWSignalInstance_@@U?$less@PBVWSignalInstance_@@@std@@V?$allocator@PBVWSignalInstance_@@@3@$0A@@std@@@std@@QAE?AViterator@12@ABQBVWSignalInstance_@@@Z 00412560 f i dependtree:WApplication.obj
 0001:00011560       ?find@?$_Tree@V?$_Tset_traits@PBVWSignalInstance_@@U?$less@PBVWSignalInstance_@@@std@@V?$allocator@PBVWSignalInstance_@@@3@$0A@@std@@@std@@QBE?AVconst_iterator@12@ABQBVWSignalInstance_@@@Z 00412560 f i dependtree:WApplication.obj
 0001:000115d0       ?equal_range@?$_Tree@V?$_Tset_traits@PBVWResource@@U?$less@PBVWResource@@@std@@V?$allocator@PBVWResource@@@3@$0A@@std@@@std@@QAE?AU?$pair@Viterator@?$_Tree@V?$_Tset_traits@PBVWResource@@U?$less@PBVWResource@@@std@@V?$allocator@PBVWResource@@@3@$0A@@std@@@std@@V123@@2@ABQBVWResource@@@Z 004125d0 f i dependtree:WApplication.obj
 0001:000115d0       ?equal_range@?$_Tree@V?$_Tset_traits@PBVWSignalInstance_@@U?$less@PBVWSignalInstance_@@@std@@V?$allocator@PBVWSignalInstance_@@@3@$0A@@std@@@std@@QAE?AU?$pair@Viterator@?$_Tree@V?$_Tset_traits@PBVWSignalInstance_@@U?$less@PBVWSignalInstance_@@@std@@V?$allocator@PBVWSignalInstance_@@@3@$0A@@std@@@std@@V123@@2@ABQBVWSignalInstance_@@@Z 004125d0 f i dependtree:WApplication.obj
 0001:00011640       ?_Insert@?$_Tree@V?$_Tset_traits@PBVWResource@@U?$less@PBVWResource@@@std@@V?$allocator@PBVWResource@@@3@$0A@@std@@@std@@IAE?AViterator@12@_NPAU_Node@?$_Tree_nod@V?$_Tset_traits@PBVWResource@@U?$less@PBVWResource@@@std@@V?$allocator@PBVWResource@@@3@$0A@@std@@@2@ABQBVWResource@@@Z 00412640 f i dependtree:WApplication.obj
 0001:00011640       ?_Insert@?$_Tree@V?$_Tset_traits@PBVWSignalInstance_@@U?$less@PBVWSignalInstance_@@@std@@V?$allocator@PBVWSignalInstance_@@@3@$0A@@std@@@std@@IAE?AViterator@12@_NPAU_Node@?$_Tree_nod@V?$_Tset_traits@PBVWSignalInstance_@@U?$less@PBVWSignalInstance_@@@std@@V?$allocator@PBVWSignalInstance_@@@3@$0A@@std@@@2@ABQBVWSignalInstance_@@@Z 00412640 f i dependtree:WApplication.obj
 0001:00011800       ??$_Distance@Viterator@?$_Tree@V?$_Tset_traits@PBVWSignalInstance_@@U?$less@PBVWSignalInstance_@@@std@@V?$allocator@PBVWSignalInstance_@@@3@$0A@@std@@@std@@I@std@@YAXViterator@?$_Tree@V?$_Tset_traits@PBVWSignalInstance_@@U?$less@PBVWSignalInstance_@@@std@@V?$allocator@PBVWSignalInstance_@@@3@$0A@@std@@@0@0AAI@Z 00412800 f i dependtree:WApplication.obj
 0001:00011800       ??$_Distance@Viterator@?$_Tree@V?$_Tset_traits@PBVWResource@@U?$less@PBVWResource@@@std@@V?$allocator@PBVWResource@@@3@$0A@@std@@@std@@I@std@@YAXViterator@?$_Tree@V?$_Tset_traits@PBVWResource@@U?$less@PBVWResource@@@std@@V?$allocator@PBVWResource@@@3@$0A@@std@@@0@0AAI@Z 00412800 f i dependtree:WApplication.obj
 0001:00011840       ?isExposedSignal@WApplication@@ABE_NPBVWSignalInstance_@@@Z 00412840 f   dependtree:WApplication.obj
 0001:00011870       ?isExposedResource@WApplication@@ABE_NPBVWResource@@@Z 00412870 f   dependtree:WApplication.obj
 0001:000118a0       ?insert@?$_Tree@V?$_Tset_traits@PBVWResource@@U?$less@PBVWResource@@@std@@V?$allocator@PBVWResource@@@3@$0A@@std@@@std@@QAE?AU?$pair@Viterator@?$_Tree@V?$_Tset_traits@PBVWResource@@U?$less@PBVWResource@@@std@@V?$allocator@PBVWResource@@@3@$0A@@std@@@std@@_N@2@ABQBVWResource@@@Z 004128a0 f i dependtree:WApplication.obj
 0001:000118a0       ?insert@?$_Tree@V?$_Tset_traits@PBVWSignalInstance_@@U?$less@PBVWSignalInstance_@@@std@@V?$allocator@PBVWSignalInstance_@@@3@$0A@@std@@@std@@QAE?AU?$pair@Viterator@?$_Tree@V?$_Tset_traits@PBVWSignalInstance_@@U?$less@PBVWSignalInstance_@@@std@@V?$allocator@PBVWSignalInstance_@@@3@$0A@@std@@@std@@_N@2@ABQBVWSignalInstance_@@@Z 004128a0 f i dependtree:WApplication.obj
 0001:00011960       ?addExposedSignal@WApplication@@AAEXPBVWSignalInstance_@@@Z 00412960 f   dependtree:WApplication.obj
 0001:00011980       ?addExposedResource@WApplication@@AAEXPBVWResource@@@Z 00412980 f   dependtree:WApplication.obj
 0001:000119d0       ?erase@?$_Tree@V?$_Tset_traits@PBVWSignalInstance_@@U?$less@PBVWSignalInstance_@@@std@@V?$allocator@PBVWSignalInstance_@@@3@$0A@@std@@@std@@QAEIABQBVWSignalInstance_@@@Z 004129d0 f i dependtree:WApplication.obj
 0001:00011a30       ?erase@?$_Tree@V?$_Tset_traits@PBVWResource@@U?$less@PBVWResource@@@std@@V?$allocator@PBVWResource@@@3@$0A@@std@@@std@@QAEIABQBVWResource@@@Z 00412a30 f i dependtree:WApplication.obj
 0001:00011a90       ??1?$set@PBVWSignalInstance_@@U?$less@PBVWSignalInstance_@@@std@@V?$allocator@PBVWSignalInstance_@@@3@@std@@QAE@XZ 00412a90 f i dependtree:WApplication.obj
 0001:00011ac0       ??1?$set@PBVWResource@@U?$less@PBVWResource@@@std@@V?$allocator@PBVWResource@@@3@@std@@QAE@XZ 00412ac0 f i dependtree:WApplication.obj
 0001:00011af0       ??1WApplication@@UAE@XZ    00412af0 f   dependtree:WApplication.obj
 0001:00011c50       ?removeExposedSignal@WApplication@@AAEXPBVWSignalInstance_@@@Z 00412c50 f   dependtree:WApplication.obj
 0001:00011cc0       ?removeExposedResource@WApplication@@AAEXPBVWResource@@@Z 00412cc0 f   dependtree:WApplication.obj
 0001:00011d50       ??_EWApplication@@UAEPAXI@Z 00412d50 f i dependtree:WApplication.obj
 0001:00011db0       ?buildSlotMap@WApplication@@MAEXAAV?$map@V?$basic_string@DU?$char_traits@D@std@@V?$allocator@D@2@@std@@PAVWSlotInstance_@@U?$less@V?$basic_string@DU?$char_traits@D@std@@V?$allocator@D@2@@std@@@2@V?$allocator@U?$pair@$$CBV?$basic_string@DU?$char_traits@D@std@@V?$allocator@D@2@@std@@PAVWSlotInstance_@@@std@@@2@@std@@@Z 00412db0 f   dependtree:WApplication.obj
 0001:00011e70       ?buildSignalMap@WApplication@@MAEXAAV?$map@V?$basic_string@DU?$char_traits@D@std@@V?$allocator@D@2@@std@@PAVWSignalInstance_@@U?$less@V?$basic_string@DU?$char_traits@D@std@@V?$allocator@D@2@@std@@@2@V?$allocator@U?$pair@$$CBV?$basic_string@DU?$char_traits@D@std@@V?$allocator@D@2@@std@@PAVWSignalInstance_@@@std@@@2@@std@@@Z 00412e70 f   dependtree:WApplication.obj
 0001:00011f30       ??0WApplication@@QAE@HQAPAD@Z 00412f30 f   dependtree:WApplication.obj
 0001:000120a0       ?green@WColor@@QBEHXZ      004130a0 f i depend.obj
 0001:000120a0       ?type@WConnection_@@QBE?AW4ConnectionType@WObject@@XZ 004130a0 f i dependtree:WebSession.obj
 0001:000120b0       ??4WConnection_@@QAEAAV0@ABV0@@Z 004130b0 f i dependtree:WebSession.obj
 0001:000120d0       ?WriteLog@WebSession@@QAEXPAD0@Z 004130d0 f   dependtree:WebSession.obj
 0001:00012100       ?WriteLog1@WebSession@@QAEXPAD0@Z 00413100 f   dependtree:WebSession.obj
 0001:00012130       ?accept@WebSession@@QAE_NXZ 00413130 f   dependtree:WebSession.obj
 0001:00012220       ?GetWebUserID@@YA?AV?$basic_string@DU?$char_traits@D@std@@V?$allocator@D@2@@std@@XZ 00413220 f   dependtree:WebSession.obj
 0001:00012390       ?serveResource@WebSession@@AAEXPAVWResource@@@Z 00413390 f   dependtree:WebSession.obj
 0001:000123f0       ?setCurrentWidget@WebSession@@AAEXPAVWWidget@@@Z 004133f0 f   dependtree:WebSession.obj
 0001:00012460       ?UnicodeToGB@@YAPADPBG@Z   00413460 f   dependtree:WebSession.obj
 0001:000124d0       ?unescape_url@@YAXPAD@Z    004134d0 f   dependtree:WebSession.obj
 0001:000125e0       ?lineread@@YAHPAU_iobuf@@PADH@Z 004135e0 f   dependtree:WebSession.obj
 0001:000126d0       ?cgi_quit1@WebSession@@QAEXXZ 004136d0 f   dependtree:WebSession.obj
 0001:00012810       ?cgi_quit@WebSession@@QAEXXZ 00413810 f   dependtree:WebSession.obj
 0001:00012950       ?cgi_getcookie@WebSession@@QAEPBDPBD@Z 00413950 f   dependtree:WebSession.obj
 0001:000129e0       ?cgi_getnumentries@WebSession@@QAEHPBD@Z 004139e0 f   dependtree:WebSession.obj
 0001:00012a60       ?cgi_getnentrystr@WebSession@@QAEPBDPBDHPAH@Z 00413a60 f   dependtree:WebSession.obj
 0001:00012b50       ?cgi_getnentrytype@WebSession@@QAEPBDPBDH@Z 00413b50 f   dependtree:WebSession.obj
 0001:00012c40       ?cgi_getnentryfilename@WebSession@@QAEPBDPBDH@Z 00413c40 f   dependtree:WebSession.obj
 0001:00012d30       ?cgi_getnentrybool@WebSession@@QAEHPBDHH@Z 00413d30 f   dependtree:WebSession.obj
 0001:00012df0       ?cgi_dump_no_abort@WebSession@@QAEHPBD@Z 00413df0 f   dependtree:WebSession.obj
 0001:00012ea0       ?cgi_dump@WebSession@@QAEXPBD@Z 00413ea0 f   dependtree:WebSession.obj
 0001:00012ee0       ?cgi_error@WebSession@@QAEXPBD@Z 00413ee0 f   dependtree:WebSession.obj
 0001:00012f10       ?cgi_goodemailaddress@WebSession@@QAEHPBD@Z 00413f10 f   dependtree:WebSession.obj
 0001:00013010       ?cgi_strerror@WebSession@@QAEPBDH@Z 00414010 f   dependtree:WebSession.obj
 0001:00013030       ?GetWtEnv@WebSession@@AAEPADPBD@Z 00414030 f   dependtree:WebSession.obj
 0001:00013080       ?GetSessionIdbyCookie@WebSession@@QAEHXZ 00414080 f   dependtree:WebSession.obj
 0001:000130a0       ?GetUserIdbyCookie@WebSession@@QAEHXZ 004140a0 f   dependtree:WebSession.obj
 0001:000130c0       ?cgi_parse_cookies@WebSession@@QAEHXZ 004140c0 f   dependtree:WebSession.obj
 0001:00013260       ?cgi_getentrystr@WebSession@@QAEPBDPBDPAH@Z 00414260 f   dependtree:WebSession.obj
 0001:00013280       ?cgi_getentrytype@WebSession@@QAEPBDPBD@Z 00414280 f   dependtree:WebSession.obj
 0001:00013290       ?cgi_getentryfilename@WebSession@@QAEPBDPBD@Z 00414290 f   dependtree:WebSession.obj
 0001:000132a0       ?cgi_getnentryint@WebSession@@QAEHPBDH@Z 004142a0 f   dependtree:WebSession.obj
 0001:00013310       ?cgi_getnentrydouble@WebSession@@QAENPBDH@Z 00414310 f   dependtree:WebSession.obj
 0001:00013390       ?cgi_getentrybool@WebSession@@QAEHPBDH@Z 00414390 f   dependtree:WebSession.obj
 0001:000133b0       ?cgi_init@WebSession@@QAEHXZ 004143b0 f   dependtree:WebSession.obj
 0001:00013ca0       ?cgi_getentryint@WebSession@@QAEHPBD@Z 00414ca0 f   dependtree:WebSession.obj
 0001:00013cb0       ?cgi_getentrydouble@WebSession@@QAENPBD@Z 00414cb0 f   dependtree:WebSession.obj
 0001:00013cc0       ?handleRequestData@WebSession@@AAEPAVWResource@@XZ 00414cc0 f   dependtree:WebSession.obj
 0001:000140d0       ?createFormsVar@WebSession@@AAE?AV?$basic_string@DU?$char_traits@D@std@@V?$allocator@D@2@@std@@ABV?$vector@PAVWObject@@V?$allocator@PAVWObject@@@std@@@3@@Z 004150d0 f   dependtree:WebSession.obj
 0001:00014230       ??0WebSession@@QAE@V?$basic_string@DU?$char_traits@D@std@@V?$allocator@D@2@@std@@_N1V12@2@Z 00415230 f   dependtree:WebSession.obj
 0001:00014470       ?serveMainpage@WebSession@@AAEXPAVWWidget@@@Z 00415470 f   dependtree:WebSession.obj
 0001:00015260       ?serveJavascriptUpdate@WebSession@@AAEXPAVWWidget@@@Z 00416260 f   dependtree:WebSession.obj
 0001:00015810       ?generateResponse@WebSession@@AAEXPAVWResource@@@Z 00416810 f   dependtree:WebSession.obj
 0001:00015a10       ?start@WebSession@@QAEXP6AXHPAPAD@ZH0@Z 00416a10 f   dependtree:WebSession.obj
 0001:00015b40       ?eventLoop@WebSession@@AAEHXZ 00416b40 f   dependtree:WebSession.obj
 0001:00015bc0       ?eventLoop@WebSession@@AAEHPAVWApplication@@@Z 00416bc0 f   dependtree:WebSession.obj
 0001:00015be0       ?WApplicationExecCallback@WebSession@@SAHPAVWApplication@@@Z 00416be0 f   dependtree:WebSession.obj
 0001:00015c10       ??0WObject@@QAE@XZ         00416c10 f   dependtree:WObject.obj
 0001:00015c30       ?formName@WObject@@QBE?BV?$basic_string@DU?$char_traits@D@std@@V?$allocator@D@2@@std@@XZ 00416c30 f   dependtree:WObject.obj
 0001:00015c80       ?setFormData@WObject@@UAEXPBDH0@Z 00416c80 f   dependtree:WObject.obj
 0001:00015cb0       ?setNoFormData@WObject@@UAEXXZ 00416cb0 f   dependtree:WObject.obj
 0001:00015ce0       ?triggerSlot@WObject@@MAE_NPAV1@PBVWSlot_@@PAPAX@Z 00416ce0 f   dependtree:WObject.obj
 0001:00015d60       ?undoTriggerSlot@WObject@@MAE_NPBVWSlot_@@PAPAX@Z 00416d60 f   dependtree:WObject.obj
 0001:00015de0       ?isConnected@WObject@@IBE_NPBVWSignalInstance_@@@Z 00416de0 f   dependtree:WObject.obj
 0001:00015e20       ?findConnectedNeedTriggerStaticSlot@WObject@@IAEPAVWSlotInstance_@@XZ 00416e20 f   dependtree:WObject.obj
 0001:00015e60       ?find@?$_Tree@V?$_Tmap_traits@V?$basic_string@DU?$char_traits@D@std@@V?$allocator@D@2@@std@@PAVWSlotInstance_@@U?$less@V?$basic_string@DU?$char_traits@D@std@@V?$allocator@D@2@@std@@@2@V?$allocator@U?$pair@$$CBV?$basic_string@DU?$char_traits@D@std@@V?$allocator@D@2@@std@@PAVWSlotInstance_@@@std@@@2@$0A@@std@@@std@@QAE?AViterator@12@ABV?$basic_string@DU?$char_traits@D@std@@V?$allocator@D@2@@2@@Z 00416e60 f i dependtree:WObject.obj
 0001:00015e60       ?find@?$_Tree@V?$_Tmap_traits@V?$basic_string@DU?$char_traits@D@std@@V?$allocator@D@2@@std@@PAVWSignalInstance_@@U?$less@V?$basic_string@DU?$char_traits@D@std@@V?$allocator@D@2@@std@@@2@V?$allocator@U?$pair@$$CBV?$basic_string@DU?$char_traits@D@std@@V?$allocator@D@2@@std@@PAVWSignalInstance_@@@std@@@2@$0A@@std@@@std@@QAE?AViterator@12@ABV?$basic_string@DU?$char_traits@D@std@@V?$allocator@D@2@@2@@Z 00416e60 f i dependtree:WObject.obj
 0001:00015ec0       ?erase@?$_Tree@V?$_Tmap_traits@V?$basic_string@DU?$char_traits@D@std@@V?$allocator@D@2@@std@@PAVWSlotInstance_@@U?$less@V?$basic_string@DU?$char_traits@D@std@@V?$allocator@D@2@@std@@@2@V?$allocator@U?$pair@$$CBV?$basic_string@DU?$char_traits@D@std@@V?$allocator@D@2@@std@@PAVWSlotInstance_@@@std@@@2@$0A@@std@@@std@@QAE?AViterator@12@V312@@Z 00416ec0 f i dependtree:WObject.obj
 0001:00015ec0       ?erase@?$_Tree@V?$_Tmap_traits@V?$basic_string@DU?$char_traits@D@std@@V?$allocator@D@2@@std@@PAVWSignalInstance_@@U?$less@V?$basic_string@DU?$char_traits@D@std@@V?$allocator@D@2@@std@@@2@V?$allocator@U?$pair@$$CBV?$basic_string@DU?$char_traits@D@std@@V?$allocator@D@2@@std@@PAVWSignalInstance_@@@std@@@2@$0A@@std@@@std@@QAE?AViterator@12@V312@@Z 00416ec0 f i dependtree:WObject.obj
 0001:000161a0       ?_Erase@?$_Tree@V?$_Tmap_traits@V?$basic_string@DU?$char_traits@D@std@@V?$allocator@D@2@@std@@PAVWSlotInstance_@@U?$less@V?$basic_string@DU?$char_traits@D@std@@V?$allocator@D@2@@std@@@2@V?$allocator@U?$pair@$$CBV?$basic_string@DU?$char_traits@D@std@@V?$allocator@D@2@@std@@PAVWSlotInstance_@@@std@@@2@$0A@@std@@@std@@IAEXPAU_Node@?$_Tree_nod@V?$_Tmap_traits@V?$basic_string@DU?$char_traits@D@std@@V?$allocator@D@2@@std@@PAVWSlotInstance_@@U?$less@V?$basic_string@DU?$char_traits@D@std@@V?$allocator@D@2@@std@@@2@V?$allocator@U?$pair@$$CBV?$basic_string@DU?$char_traits@D@std@@V?$allocator@D@2@@std@@PAVWSlotInstance_@@@std@@@2@$0A@@std@@@2@@Z 004171a0 f i dependtree:WObject.obj
 0001:000161e0       ?_Erase@?$_Tree@V?$_Tmap_traits@V?$basic_string@DU?$char_traits@D@std@@V?$allocator@D@2@@std@@PAVWSignalInstance_@@U?$less@V?$basic_string@DU?$char_traits@D@std@@V?$allocator@D@2@@std@@@2@V?$allocator@U?$pair@$$CBV?$basic_string@DU?$char_traits@D@std@@V?$allocator@D@2@@std@@PAVWSignalInstance_@@@std@@@2@$0A@@std@@@std@@IAEXPAU_Node@?$_Tree_nod@V?$_Tmap_traits@V?$basic_string@DU?$char_traits@D@std@@V?$allocator@D@2@@std@@PAVWSignalInstance_@@U?$less@V?$basic_string@DU?$char_traits@D@std@@V?$allocator@D@2@@std@@@2@V?$allocator@U?$pair@$$CBV?$basic_string@DU?$char_traits@D@std@@V?$allocator@D@2@@std@@PAVWSignalInstance_@@@std@@@2@$0A@@std@@@2@@Z 004171e0 f i dependtree:WObject.obj
 0001:00016220       ?erase@?$_Tree@V?$_Tmap_traits@V?$basic_string@DU?$char_traits@D@std@@V?$allocator@D@2@@std@@PAVWSlotInstance_@@U?$less@V?$basic_string@DU?$char_traits@D@std@@V?$allocator@D@2@@std@@@2@V?$allocator@U?$pair@$$CBV?$basic_string@DU?$char_traits@D@std@@V?$allocator@D@2@@std@@PAVWSlotInstance_@@@std@@@2@$0A@@std@@@std@@QAE?AViterator@12@V312@0@Z 00417220 f i dependtree:WObject.obj
 0001:000162e0       ?erase@?$_Tree@V?$_Tmap_traits@V?$basic_string@DU?$char_traits@D@std@@V?$allocator@D@2@@std@@PAVWSignalInstance_@@U?$less@V?$basic_string@DU?$char_traits@D@std@@V?$allocator@D@2@@std@@@2@V?$allocator@U?$pair@$$CBV?$basic_string@DU?$char_traits@D@std@@V?$allocator@D@2@@std@@PAVWSignalInstance_@@@std@@@2@$0A@@std@@@std@@QAE?AViterator@12@V312@0@Z 004172e0 f i dependtree:WObject.obj
 0001:000163a0       ?buildSlotMap@WObject@@MAEXAAV?$map@V?$basic_string@DU?$char_traits@D@std@@V?$allocator@D@2@@std@@PAVWSlotInstance_@@U?$less@V?$basic_string@DU?$char_traits@D@std@@V?$allocator@D@2@@std@@@2@V?$allocator@U?$pair@$$CBV?$basic_string@DU?$char_traits@D@std@@V?$allocator@D@2@@std@@PAVWSlotInstance_@@@std@@@2@@std@@@Z 004173a0 f   dependtree:WObject.obj
 0001:00016450       ?buildSignalMap@WObject@@MAEXAAV?$map@V?$basic_string@DU?$char_traits@D@std@@V?$allocator@D@2@@std@@PAVWSignalInstance_@@U?$less@V?$basic_string@DU?$char_traits@D@std@@V?$allocator@D@2@@std@@@2@V?$allocator@U?$pair@$$CBV?$basic_string@DU?$char_traits@D@std@@V?$allocator@D@2@@std@@PAVWSignalInstance_@@@std@@@2@@std@@@Z 00417450 f   dependtree:WObject.obj
 0001:00016500       ?InsertMap@WObject@@SAXAAV?$map@V?$basic_string@DU?$char_traits@D@std@@V?$allocator@D@2@@std@@PAVWSlotInstance_@@U?$less@V?$basic_string@DU?$char_traits@D@std@@V?$allocator@D@2@@std@@@2@V?$allocator@U?$pair@$$CBV?$basic_string@DU?$char_traits@D@std@@V?$allocator@D@2@@std@@PAVWSlotInstance_@@@std@@@2@@std@@V?$basic_string@DU?$char_traits@D@std@@V?$allocator@D@2@@3@PAVWSlotInstance_@@@Z 00417500 f   dependtree:WObject.obj
 0001:00016560       ??1?$map@V?$basic_string@DU?$char_traits@D@std@@V?$allocator@D@2@@std@@PAVWSignalInstance_@@U?$less@V?$basic_string@DU?$char_traits@D@std@@V?$allocator@D@2@@std@@@2@V?$allocator@U?$pair@$$CBV?$basic_string@DU?$char_traits@D@std@@V?$allocator@D@2@@std@@PAVWSignalInstance_@@@std@@@2@@std@@QAE@XZ 00417560 f i dependtree:WObject.obj
 0001:00016590       ??1?$map@V?$basic_string@DU?$char_traits@D@std@@V?$allocator@D@2@@std@@PAVWSlotInstance_@@U?$less@V?$basic_string@DU?$char_traits@D@std@@V?$allocator@D@2@@std@@@2@V?$allocator@U?$pair@$$CBV?$basic_string@DU?$char_traits@D@std@@V?$allocator@D@2@@std@@PAVWSlotInstance_@@@std@@@2@@std@@QAE@XZ 00417590 f i dependtree:WObject.obj
 0001:000165c0       ?getSignal@WObject@@IBEPAVWSignalInstance_@@V?$basic_string@DU?$char_traits@D@std@@V?$allocator@D@2@@std@@@Z 004175c0 f   dependtree:WObject.obj
 0001:00016710       ?getSlot@WObject@@IBEPAVWSlotInstance_@@V?$basic_string@DU?$char_traits@D@std@@V?$allocator@D@2@@std@@@Z 00417710 f   dependtree:WObject.obj
 0001:00016820       ?staticSlotChanged@WObject@@QAEXV?$basic_string@DU?$char_traits@D@std@@V?$allocator@D@2@@std@@@Z 00417820 f   dependtree:WObject.obj
 0001:00016890       ?connect@WObject@@QBE_NPBV1@PBD1W4ConnectionType@1@@Z 00417890 f   dependtree:WObject.obj
 0001:00016970       ?connect@WObject@@QBE_NPBV1@PBD11W4ConnectionType@1@@Z 00417970 f   dependtree:WObject.obj
 0001:00016a40       ?connect@WObject@@SA_NPBV1@PBD101W4ConnectionType@1@@Z 00417a40 f   dependtree:WObject.obj
 0001:00016a70       ?connect@WObject@@SA_NPBV1@PBD01W4ConnectionType@1@@Z 00417a70 f   dependtree:WObject.obj
 0001:00016a90       ?triggerSignal@WObject@@IAEXPBVWSignal_@@PAPAX@Z 00417a90 f   dependtree:WObject.obj
 0001:00016b20       ?destroyed@WObject@@UAEXPAV1@@Z 00417b20 f   dependtree:WObject.obj
 0001:00016b40       ??1WObject@@UAE@XZ         00417b40 f   dependtree:WObject.obj
 0001:00016c70       ??_EWObject@@UAEPAXI@Z     00417c70 f i dependtree:WObject.obj
 0001:00016cd0       ?textSize@WLineEdit@@QBEHXZ 00417cd0 f i dependtree:CheckBoxTreeView.obj
 0001:00016ce0       ?text@WLineEdit@@QBE?BV?$basic_string@DU?$char_traits@D@std@@V?$allocator@D@2@@std@@XZ 00417ce0 f i dependtree:CheckBoxTreeView.obj
 0001:00016d10       ?echoMode@WLineEdit@@QBE?AW4EchoMode@1@XZ 00417d10 f i dependtree:CheckBoxTreeView.obj
 0001:00016d20       ??1WLineEdit@@UAE@XZ       00417d20 f i dependtree:CheckBoxTreeView.obj
 0001:00016d70       ??_FWLineEdit@@QAEXXZ      00417d70 f i dependtree:CheckBoxTreeView.obj
 0001:00016db0       ??4WCompositeWidget@@QAEAAV0@ABV0@@Z 00417db0 f i dependtree:CheckBoxTreeView.obj
 0001:00016de0       ?isChecked@WAbstractToggleButton@@QBE_NXZ 00417de0 f i dependtree:CheckBoxTreeView.obj
 0001:00016df0       ??1WAbstractToggleButton@@UAE@XZ 00417df0 f i dependtree:CheckBoxTreeView.obj
 0001:00016df0       ??1WCheckBox@@UAE@XZ       00417df0 f i dependtree:CheckBoxTreeView.obj
 0001:00016e00       ??_FWAbstractToggleButton@@QAEXXZ 00417e00 f i dependtree:CheckBoxTreeView.obj
 0001:00016e10       ??_FWCheckBox@@QAEXXZ      00417e10 f i dependtree:CheckBoxTreeView.obj
 0001:00016e20       ??_FWComboBox@@QAEXXZ      00417e20 f i dependtree:CheckBoxTreeView.obj
 0001:00016e30       ??_FWBreak@@QAEXXZ         00417e30 f i dependtree:CheckBoxTreeView.obj
 0001:00016e40       ??1WSVLinkText@@UAE@XZ     00417e40 f i dependtree:CheckBoxTreeView.obj
 0001:00016e50       ??_FWSVLinkText@@QAEXXZ    00417e50 f i dependtree:CheckBoxTreeView.obj
 0001:00016e60       ??0base_param@CCheckBoxTreeView@@QAE@XZ 00417e60 f i dependtree:CheckBoxTreeView.obj
 0001:00016eb0       ??1base_param@CCheckBoxTreeView@@QAE@XZ 00417eb0 f i dependtree:CheckBoxTreeView.obj
 0001:00016f00       ?SetTreeNodeRight@CCheckBoxTreeView@@AAEXPAVWTreeNode@@_N@Z 00417f00 f   dependtree:CheckBoxTreeView.obj
 0001:00016f40       ??1?$pair@$$CBV?$basic_string@DU?$char_traits@D@std@@V?$allocator@D@2@@std@@PAVWSignalInstance_@@@std@@QAE@XZ 00417f40 f i dependformwt.obj
 0001:00016f40       ??1?$pair@$$CBV?$basic_string@DU?$char_traits@D@std@@V?$allocator@D@2@@std@@PAVWSlotInstance_@@@std@@QAE@XZ 00417f40 f i dependtree:WWebWidget.obj
 0001:00016f40       ??1?$pair@V?$basic_string@DU?$char_traits@D@std@@V?$allocator@D@2@@std@@PAVDomElement@@@std@@QAE@XZ 00417f40 f i dependtree:WWebWidget.obj
 0001:00016f40       ??1?$pair@$$CBV?$basic_string@DU?$char_traits@D@std@@V?$allocator@D@2@@std@@PAVWCheckBox@@@std@@QAE@XZ 00417f40 f i dependtree:CheckBoxTreeView.obj
 0001:00016f40       ??1WSignal_@@QAE@XZ        00417f40 f i dependformwt.obj
 0001:00016f40       ??1WSlot_@@QAE@XZ          00417f40 f i dependformwt.obj
 0001:00016f40       ??1WMessage@@QAE@XZ        00417f40 f i depend.obj
 0001:00016f40       ??1JSVar@@QAE@XZ           00417f40 f i dependtree:WebSession.obj
 0001:00016f50       ??1?$pair@$$CBHUbase_param@CCheckBoxTreeView@@@std@@QAE@XZ 00417f50 f i dependtree:CheckBoxTreeView.obj
 0001:00016f60       ?size@?$vector@V?$basic_string@DU?$char_traits@D@std@@V?$allocator@D@2@@std@@V?$allocator@V?$basic_string@DU?$char_traits@D@std@@V?$allocator@D@2@@std@@@2@@std@@QBEIXZ 00417f60 f i dependtree:CheckBoxTreeView.obj
 0001:00016f90       ??0base_param@CCheckBoxTreeView@@QAE@ABU01@@Z 00417f90 f i dependtree:CheckBoxTreeView.obj
 0001:00016ff0       ?_Xlen@?$vector@PAVWTreeNode@@V?$allocator@PAVWTreeNode@@@std@@@std@@IBEXXZ 00417ff0 f i dependtree:CheckBoxTreeView.obj
 0001:00016ff0       ?_Xlen@?$vector@V?$basic_string@DU?$char_traits@D@std@@V?$allocator@D@2@@std@@V?$allocator@V?$basic_string@DU?$char_traits@D@std@@V?$allocator@D@2@@std@@@2@@std@@IBEXXZ 00417ff0 f i dependtree:CheckBoxTreeView.obj
 0001:00017070       ?_Rrotate@?$_Tree@V?$_Tmap_traits@HUbase_param@CCheckBoxTreeView@@U?$less@H@std@@V?$allocator@U?$pair@$$CBHUbase_param@CCheckBoxTreeView@@@std@@@4@$0A@@std@@@std@@IAEXPAU_Node@?$_Tree_nod@V?$_Tmap_traits@HUbase_param@CCheckBoxTreeView@@U?$less@H@std@@V?$allocator@U?$pair@$$CBHUbase_param@CCheckBoxTreeView@@@std@@@4@$0A@@std@@@2@@Z 00418070 f i dependtree:CheckBoxTreeView.obj
 0001:000170d0       ?_Max@?$_Tree@V?$_Tmap_traits@V?$basic_string@DU?$char_traits@D@std@@V?$allocator@D@2@@std@@PAVWSignalInstance_@@U?$less@V?$basic_string@DU?$char_traits@D@std@@V?$allocator@D@2@@std@@@2@V?$allocator@U?$pair@$$CBV?$basic_string@DU?$char_traits@D@std@@V?$allocator@D@2@@std@@PAVWSignalInstance_@@@std@@@2@$0A@@std@@@std@@KAPAU_Node@?$_Tree_nod@V?$_Tmap_traits@V?$basic_string@DU?$char_traits@D@std@@V?$allocator@D@2@@std@@PAVWSignalInstance_@@U?$less@V?$basic_string@DU?$char_traits@D@std@@V?$allocator@D@2@@std@@@2@V?$allocator@U?$pair@$$CBV?$basic_string@DU?$char_traits@D@std@@V?$allocator@D@2@@std@@PAVWSignalInstance_@@@std@@@2@$0A@@std@@@2@PAU342@@Z 004180d0 f i dependformwt.obj
 0001:000170d0       ?_Max@?$_Tree@V?$_Tmap_traits@V?$basic_string@DU?$char_traits@D@std@@V?$allocator@D@2@@std@@_NU?$less@V?$basic_string@DU?$char_traits@D@std@@V?$allocator@D@2@@std@@@2@V?$allocator@U?$pair@$$CBV?$basic_string@DU?$char_traits@D@std@@V?$allocator@D@2@@std@@_N@std@@@2@$0A@@std@@@std@@KAPAU_Node@?$_Tree_nod@V?$_Tmap_traits@V?$basic_string@DU?$char_traits@D@std@@V?$allocator@D@2@@std@@_NU?$less@V?$basic_string@DU?$char_traits@D@std@@V?$allocator@D@2@@std@@@2@V?$allocator@U?$pair@$$CBV?$basic_string@DU?$char_traits@D@std@@V?$allocator@D@2@@std@@_N@std@@@2@$0A@@std@@@2@PAU342@@Z 004180d0 f i dependtree:WTreeNode.obj
 0001:000170d0       ?_Max@?$_Tree@V?$_Tmap_traits@V?$basic_string@DU?$char_traits@D@std@@V?$allocator@D@2@@std@@PAVWCssRule@@U?$less@V?$basic_string@DU?$char_traits@D@std@@V?$allocator@D@2@@std@@@2@V?$allocator@U?$pair@$$CBV?$basic_string@DU?$char_traits@D@std@@V?$allocator@D@2@@std@@PAVWCssRule@@@std@@@2@$0A@@std@@@std@@KAPAU_Node@?$_Tree_nod@V?$_Tmap_traits@V?$basic_string@DU?$char_traits@D@std@@V?$allocator@D@2@@std@@PAVWCssRule@@U?$less@V?$basic_string@DU?$char_traits@D@std@@V?$allocator@D@2@@std@@@2@V?$allocator@U?$pair@$$CBV?$basic_string@DU?$char_traits@D@std@@V?$allocator@D@2@@std@@PAVWCssRule@@@std@@@2@$0A@@std@@@2@PAU342@@Z 004180d0 f i depend.obj
 0001:000170d0       ?_Max@?$_Tree@V?$_Tmap_traits@V?$basic_string@DU?$char_traits@D@std@@V?$allocator@D@2@@std@@PAVWSlotInstance_@@U?$less@V?$basic_string@DU?$char_traits@D@std@@V?$allocator@D@2@@std@@@2@V?$allocator@U?$pair@$$CBV?$basic_string@DU?$char_traits@D@std@@V?$allocator@D@2@@std@@PAVWSlotInstance_@@@std@@@2@$0A@@std@@@std@@KAPAU_Node@?$_Tree_nod@V?$_Tmap_traits@V?$basic_string@DU?$char_traits@D@std@@V?$allocator@D@2@@std@@PAVWSlotInstance_@@U?$less@V?$basic_string@DU?$char_traits@D@std@@V?$allocator@D@2@@std@@@2@V?$allocator@U?$pair@$$CBV?$basic_string@DU?$char_traits@D@std@@V?$allocator@D@2@@std@@PAVWSlotInstance_@@@std@@@2@$0A@@std@@@2@PAU342@@Z 004180d0 f i dependtree:WWebWidget.obj
 0001:000170d0       ?_Max@?$_Tree@V?$_Tmap_traits@W4Property@Wt@@V?$basic_string@DU?$char_traits@D@std@@V?$allocator@D@2@@std@@U?$less@W4Property@Wt@@@4@V?$allocator@U?$pair@$$CBW4Property@Wt@@V?$basic_string@DU?$char_traits@D@std@@V?$allocator@D@2@@std@@@std@@@4@$0A@@std@@@std@@KAPAU_Node@?$_Tree_nod@V?$_Tmap_traits@W4Property@Wt@@V?$basic_string@DU?$char_traits@D@std@@V?$allocator@D@2@@std@@U?$less@W4Property@Wt@@@4@V?$allocator@U?$pair@$$CBW4Property@Wt@@V?$basic_string@DU?$char_traits@D@std@@V?$allocator@D@2@@std@@@std@@@4@$0A@@std@@@2@PAU342@@Z 004180d0 f i dependtree:WWebWidget.obj
 0001:000170d0       ?_Max@?$_Tree@V?$_Tmap_traits@V?$basic_string@DU?$char_traits@D@std@@V?$allocator@D@2@@std@@PAVWCheckBox@@U?$less@V?$basic_string@DU?$char_traits@D@std@@V?$allocator@D@2@@std@@@2@V?$allocator@U?$pair@$$CBV?$basic_string@DU?$char_traits@D@std@@V?$allocator@D@2@@std@@PAVWCheckBox@@@std@@@2@$0A@@std@@@std@@KAPAU_Node@?$_Tree_nod@V?$_Tmap_traits@V?$basic_string@DU?$char_traits@D@std@@V?$allocator@D@2@@std@@PAVWCheckBox@@U?$less@V?$basic_string@DU?$char_traits@D@std@@V?$allocator@D@2@@std@@@2@V?$allocator@U?$pair@$$CBV?$basic_string@DU?$char_traits@D@std@@V?$allocator@D@2@@std@@PAVWCheckBox@@@std@@@2@$0A@@std@@@2@PAU342@@Z 004180d0 f i dependtree:CheckBoxTreeView.obj
 0001:000170f0       ?_Max@?$_Tree@V?$_Tmap_traits@HUbase_param@CCheckBoxTreeView@@U?$less@H@std@@V?$allocator@U?$pair@$$CBHUbase_param@CCheckBoxTreeView@@@std@@@4@$0A@@std@@@std@@KAPAU_Node@?$_Tree_nod@V?$_Tmap_traits@HUbase_param@CCheckBoxTreeView@@U?$less@H@std@@V?$allocator@U?$pair@$$CBHUbase_param@CCheckBoxTreeView@@@std@@@4@$0A@@std@@@2@PAU342@@Z 004180f0 f i dependtree:CheckBoxTreeView.obj
 0001:00017110       ?_Min@?$_Tree@V?$_Tmap_traits@HUbase_param@CCheckBoxTreeView@@U?$less@H@std@@V?$allocator@U?$pair@$$CBHUbase_param@CCheckBoxTreeView@@@std@@@4@$0A@@std@@@std@@KAPAU_Node@?$_Tree_nod@V?$_Tmap_traits@HUbase_param@CCheckBoxTreeView@@U?$less@H@std@@V?$allocator@U?$pair@$$CBHUbase_param@CCheckBoxTreeView@@@std@@@4@$0A@@std@@@2@PAU342@@Z 00418110 f i dependtree:CheckBoxTreeView.obj
 0001:00017130       ?_Dec@const_iterator@?$_Tree@V?$_Tmap_traits@HUbase_param@CCheckBoxTreeView@@U?$less@H@std@@V?$allocator@U?$pair@$$CBHUbase_param@CCheckBoxTreeView@@@std@@@4@$0A@@std@@@std@@QAEXXZ 00418130 f i dependtree:CheckBoxTreeView.obj
 0001:00017190       ??$fill@PAV?$basic_string@DU?$char_traits@D@std@@V?$allocator@D@2@@std@@V12@@std@@YAXPAV?$basic_string@DU?$char_traits@D@std@@V?$allocator@D@2@@0@0ABV10@@Z 00418190 f i dependtree:CheckBoxTreeView.obj
 0001:000171c0       ??1WFont@@QAE@XZ           004181c0 f i depend.obj
 0001:000171c0       ??1_Node@?$_List_nod@V?$basic_string@DU?$char_traits@D@std@@V?$allocator@D@2@@std@@V?$allocator@V?$basic_string@DU?$char_traits@D@std@@V?$allocator@D@2@@std@@@2@@std@@QAE@XZ 004181c0 f i dependtree:CheckBoxTreeView.obj
 0001:000171d0       ??1_Node@?$_Tree_nod@V?$_Tmap_traits@HUbase_param@CCheckBoxTreeView@@U?$less@H@std@@V?$allocator@U?$pair@$$CBHUbase_param@CCheckBoxTreeView@@@std@@@4@$0A@@std@@@std@@QAE@XZ 004181d0 f i dependtree:CheckBoxTreeView.obj
 0001:000171e0       ??$_Copy_opt@PAV?$basic_string@DU?$char_traits@D@std@@V?$allocator@D@2@@std@@PAV12@@std@@YAPAV?$basic_string@DU?$char_traits@D@std@@V?$allocator@D@2@@0@PAV10@00U_Nonscalar_ptr_iterator_tag@0@@Z 004181e0 f i dependtree:CheckBoxTreeView.obj
 0001:00017220       ??$_Copy_backward_opt@PAV?$basic_string@DU?$char_traits@D@std@@V?$allocator@D@2@@std@@PAV12@@std@@YAPAV?$basic_string@DU?$char_traits@D@std@@V?$allocator@D@2@@0@PAV10@00U_Nonscalar_ptr_iterator_tag@0@@Z 00418220 f i dependtree:CheckBoxTreeView.obj
 0001:00017260       ?_Lrotate@?$_Tree@V?$_Tmap_traits@HUbase_param@CCheckBoxTreeView@@U?$less@H@std@@V?$allocator@U?$pair@$$CBHUbase_param@CCheckBoxTreeView@@@std@@@4@$0A@@std@@@std@@IAEXPAU_Node@?$_Tree_nod@V?$_Tmap_traits@HUbase_param@CCheckBoxTreeView@@U?$less@H@std@@V?$allocator@U?$pair@$$CBHUbase_param@CCheckBoxTreeView@@@std@@@4@$0A@@std@@@2@@Z 00418260 f i dependtree:CheckBoxTreeView.obj
 0001:000172c0       ?_Inc@const_iterator@?$_Tree@V?$_Tmap_traits@HUbase_param@CCheckBoxTreeView@@U?$less@H@std@@V?$allocator@U?$pair@$$CBHUbase_param@CCheckBoxTreeView@@@std@@@4@$0A@@std@@@std@@QAEXXZ 004182c0 f i dependtree:CheckBoxTreeView.obj
 0001:00017320       ??$find@Viterator@?$vector@V?$basic_string@DU?$char_traits@D@std@@V?$allocator@D@2@@std@@V?$allocator@V?$basic_string@DU?$char_traits@D@std@@V?$allocator@D@2@@std@@@2@@std@@V?$basic_string@DU?$char_traits@D@std@@V?$allocator@D@2@@3@@std@@YA?AViterator@?$vector@V?$basic_string@DU?$char_traits@D@std@@V?$allocator@D@2@@std@@V?$allocator@V?$basic_string@DU?$char_traits@D@std@@V?$allocator@D@2@@std@@@2@@0@V120@0ABV?$basic_string@DU?$char_traits@D@std@@V?$allocator@D@2@@0@@Z 00418320 f i dependtree:CheckBoxTreeView.obj
 0001:00017370       ?_Buy@?$vector@V?$basic_string@DU?$char_traits@D@std@@V?$allocator@D@2@@std@@V?$allocator@V?$basic_string@DU?$char_traits@D@std@@V?$allocator@D@2@@std@@@2@@std@@IAE_NI@Z 00418370 f i dependtree:CheckBoxTreeView.obj
 0001:000173c0       ?_Buynode@?$list@V?$basic_string@DU?$char_traits@D@std@@V?$allocator@D@2@@std@@V?$allocator@V?$basic_string@DU?$char_traits@D@std@@V?$allocator@D@2@@std@@@2@@std@@IAEPAU_Node@?$_List_nod@V?$basic_string@DU?$char_traits@D@std@@V?$allocator@D@2@@std@@V?$allocator@V?$basic_string@DU?$char_traits@D@std@@V?$allocator@D@2@@std@@@2@@2@XZ 004183c0 f i dependtree:CheckBoxTreeView.obj
 0001:000173e0       ?_Buynode@?$_Tree@V?$_Tmap_traits@V?$basic_string@DU?$char_traits@D@std@@V?$allocator@D@2@@std@@PAVWCheckBox@@U?$less@V?$basic_string@DU?$char_traits@D@std@@V?$allocator@D@2@@std@@@2@V?$allocator@U?$pair@$$CBV?$basic_string@DU?$char_traits@D@std@@V?$allocator@D@2@@std@@PAVWCheckBox@@@std@@@2@$0A@@std@@@std@@IAEPAU_Node@?$_Tree_nod@V?$_Tmap_traits@V?$basic_string@DU?$char_traits@D@std@@V?$allocator@D@2@@std@@PAVWCheckBox@@U?$less@V?$basic_string@DU?$char_traits@D@std@@V?$allocator@D@2@@std@@@2@V?$allocator@U?$pair@$$CBV?$basic_string@DU?$char_traits@D@std@@V?$allocator@D@2@@std@@PAVWCheckBox@@@std@@@2@$0A@@std@@@2@PAU342@00ABU?$pair@$$CBV?$basic_string@DU?$char_traits@D@std@@V?$allocator@D@2@@std@@PAVWCheckBox@@@2@D@Z 004183e0 f i dependtree:CheckBoxTreeView.obj
 0001:00017480       ?_Buynode@?$_Tree@V?$_Tmap_traits@HUbase_param@CCheckBoxTreeView@@U?$less@H@std@@V?$allocator@U?$pair@$$CBHUbase_param@CCheckBoxTreeView@@@std@@@4@$0A@@std@@@std@@IAEPAU_Node@?$_Tree_nod@V?$_Tmap_traits@HUbase_param@CCheckBoxTreeView@@U?$less@H@std@@V?$allocator@U?$pair@$$CBHUbase_param@CCheckBoxTreeView@@@std@@@4@$0A@@std@@@2@XZ 00418480 f i dependtree:CheckBoxTreeView.obj
 0001:000174c0       ?_Buynode@?$_Tree@V?$_Tmap_traits@HUbase_param@CCheckBoxTreeView@@U?$less@H@std@@V?$allocator@U?$pair@$$CBHUbase_param@CCheckBoxTreeView@@@std@@@4@$0A@@std@@@std@@IAEPAU_Node@?$_Tree_nod@V?$_Tmap_traits@HUbase_param@CCheckBoxTreeView@@U?$less@H@std@@V?$allocator@U?$pair@$$CBHUbase_param@CCheckBoxTreeView@@@std@@@4@$0A@@std@@@2@PAU342@00ABU?$pair@$$CBHUbase_param@CCheckBoxTreeView@@@2@D@Z 004184c0 f i dependtree:CheckBoxTreeView.obj
 0001:00017560       ??$_Uninit_copy@PAV?$basic_string@DU?$char_traits@D@std@@V?$allocator@D@2@@std@@PAV12@V?$allocator@V?$basic_string@DU?$char_traits@D@std@@V?$allocator@D@2@@std@@@2@@std@@YAPAV?$basic_string@DU?$char_traits@D@std@@V?$allocator@D@2@@0@PAV10@00AAV?$allocator@V?$basic_string@DU?$char_traits@D@std@@V?$allocator@D@2@@std@@@0@U_Nonscalar_ptr_iterator_tag@0@@Z 00418560 f i dependtree:CheckBoxTreeView.obj
 0001:000175f0       ?find@?$_Tree@V?$_Tmap_traits@HUbase_param@CCheckBoxTreeView@@U?$less@H@std@@V?$allocator@U?$pair@$$CBHUbase_param@CCheckBoxTreeView@@@std@@@4@$0A@@std@@@std@@QAE?AViterator@12@ABH@Z 004185f0 f i dependtree:CheckBoxTreeView.obj
 0001:00017660       ?_Insert@?$_Tree@V?$_Tmap_traits@V?$basic_string@DU?$char_traits@D@std@@V?$allocator@D@2@@std@@PAVWCheckBox@@U?$less@V?$basic_string@DU?$char_traits@D@std@@V?$allocator@D@2@@std@@@2@V?$allocator@U?$pair@$$CBV?$basic_string@DU?$char_traits@D@std@@V?$allocator@D@2@@std@@PAVWCheckBox@@@std@@@2@$0A@@std@@@std@@IAE?AViterator@12@_NPAU_Node@?$_Tree_nod@V?$_Tmap_traits@V?$basic_string@DU?$char_traits@D@std@@V?$allocator@D@2@@std@@PAVWCheckBox@@U?$less@V?$basic_string@DU?$char_traits@D@std@@V?$allocator@D@2@@std@@@2@V?$allocator@U?$pair@$$CBV?$basic_string@DU?$char_traits@D@std@@V?$allocator@D@2@@std@@PAVWCheckBox@@@std@@@2@$0A@@std@@@2@ABU?$pair@$$CBV?$basic_string@DU?$char_traits@D@std@@V?$allocator@D@2@@std@@PAVWCheckBox@@@2@@Z 00418660 f i dependtree:CheckBoxTreeView.obj
 0001:00017820       ?_Insert_n@?$vector@PAVWTreeNode@@V?$allocator@PAVWTreeNode@@@std@@@std@@IAEXViterator@12@IABQAVWTreeNode@@@Z 00418820 f i dependtree:CheckBoxTreeView.obj
 0001:00017a10       ?_Insert@?$_Tree@V?$_Tmap_traits@HUbase_param@CCheckBoxTreeView@@U?$less@H@std@@V?$allocator@U?$pair@$$CBHUbase_param@CCheckBoxTreeView@@@std@@@4@$0A@@std@@@std@@IAE?AViterator@12@_NPAU_Node@?$_Tree_nod@V?$_Tmap_traits@HUbase_param@CCheckBoxTreeView@@U?$less@H@std@@V?$allocator@U?$pair@$$CBHUbase_param@CCheckBoxTreeView@@@std@@@4@$0A@@std@@@2@ABU?$pair@$$CBHUbase_param@CCheckBoxTreeView@@@2@@Z 00418a10 f i dependtree:CheckBoxTreeView.obj
 0001:00017bd0       ??$_Uninit_fill_n@PAV?$basic_string@DU?$char_traits@D@std@@V?$allocator@D@2@@std@@IV12@V?$allocator@V?$basic_string@DU?$char_traits@D@std@@V?$allocator@D@2@@std@@@2@@std@@YAXPAV?$basic_string@DU?$char_traits@D@std@@V?$allocator@D@2@@0@IABV10@AAV?$allocator@V?$basic_string@DU?$char_traits@D@std@@V?$allocator@D@2@@std@@@0@U_Nonscalar_ptr_iterator_tag@0@@Z 00418bd0 f i dependtree:CheckBoxTreeView.obj
 0001:00017c60       ?insert@?$_Tree@V?$_Tmap_traits@V?$basic_string@DU?$char_traits@D@std@@V?$allocator@D@2@@std@@PAVWCheckBox@@U?$less@V?$basic_string@DU?$char_traits@D@std@@V?$allocator@D@2@@std@@@2@V?$allocator@U?$pair@$$CBV?$basic_string@DU?$char_traits@D@std@@V?$allocator@D@2@@std@@PAVWCheckBox@@@std@@@2@$0A@@std@@@std@@QAE?AU?$pair@Viterator@?$_Tree@V?$_Tmap_traits@V?$basic_string@DU?$char_traits@D@std@@V?$allocator@D@2@@std@@PAVWCheckBox@@U?$less@V?$basic_string@DU?$char_traits@D@std@@V?$allocator@D@2@@std@@@2@V?$allocator@U?$pair@$$CBV?$basic_string@DU?$char_traits@D@std@@V?$allocator@D@2@@std@@PAVWCheckBox@@@std@@@2@$0A@@std@@@std@@_N@2@ABU?$pair@$$CBV?$basic_string@DU?$char_traits@D@std@@V?$allocator@D@2@@std@@PAVWCheckBox@@@2@@Z 00418c60 f i dependtree:CheckBoxTreeView.obj
 0001:00017d40       ?insert@?$_Tree@V?$_Tmap_traits@HUbase_param@CCheckBoxTreeView@@U?$less@H@std@@V?$allocator@U?$pair@$$CBHUbase_param@CCheckBoxTreeView@@@std@@@4@$0A@@std@@@std@@QAE?AU?$pair@Viterator@?$_Tree@V?$_Tmap_traits@HUbase_param@CCheckBoxTreeView@@U?$less@H@std@@V?$allocator@U?$pair@$$CBHUbase_param@CCheckBoxTreeView@@@std@@@4@$0A@@std@@@std@@_N@2@ABU?$pair@$$CBHUbase_param@CCheckBoxTreeView@@@2@@Z 00418d40 f i dependtree:CheckBoxTreeView.obj
 0001:00017e00       ?clear@?$list@V?$basic_string@DU?$char_traits@D@std@@V?$allocator@D@2@@std@@V?$allocator@V?$basic_string@DU?$char_traits@D@std@@V?$allocator@D@2@@std@@@2@@std@@QAEXXZ 00418e00 f i dependtree:CheckBoxTreeView.obj
 0001:00017e40       ?erase@?$_Tree@V?$_Tmap_traits@V?$basic_string@DU?$char_traits@D@std@@V?$allocator@D@2@@std@@PAVWCheckBox@@U?$less@V?$basic_string@DU?$char_traits@D@std@@V?$allocator@D@2@@std@@@2@V?$allocator@U?$pair@$$CBV?$basic_string@DU?$char_traits@D@std@@V?$allocator@D@2@@std@@PAVWCheckBox@@@std@@@2@$0A@@std@@@std@@QAE?AViterator@12@V312@@Z 00418e40 f i dependtree:CheckBoxTreeView.obj
 0001:00018120       ?erase@?$_Tree@V?$_Tmap_traits@HUbase_param@CCheckBoxTreeView@@U?$less@H@std@@V?$allocator@U?$pair@$$CBHUbase_param@CCheckBoxTreeView@@@std@@@4@$0A@@std@@@std@@QAE?AViterator@12@V312@@Z 00419120 f i dependtree:CheckBoxTreeView.obj
 0001:00018420       ?_Erase@?$_Tree@V?$_Tmap_traits@V?$basic_string@DU?$char_traits@D@std@@V?$allocator@D@2@@std@@PAVWCheckBox@@U?$less@V?$basic_string@DU?$char_traits@D@std@@V?$allocator@D@2@@std@@@2@V?$allocator@U?$pair@$$CBV?$basic_string@DU?$char_traits@D@std@@V?$allocator@D@2@@std@@PAVWCheckBox@@@std@@@2@$0A@@std@@@std@@IAEXPAU_Node@?$_Tree_nod@V?$_Tmap_traits@V?$basic_string@DU?$char_traits@D@std@@V?$allocator@D@2@@std@@PAVWCheckBox@@U?$less@V?$basic_string@DU?$char_traits@D@std@@V?$allocator@D@2@@std@@@2@V?$allocator@U?$pair@$$CBV?$basic_string@DU?$char_traits@D@std@@V?$allocator@D@2@@std@@PAVWCheckBox@@@std@@@2@$0A@@std@@@2@@Z 00419420 f i dependtree:CheckBoxTreeView.obj
 0001:00018460       ?_Erase@?$_Tree@V?$_Tmap_traits@HUbase_param@CCheckBoxTreeView@@U?$less@H@std@@V?$allocator@U?$pair@$$CBHUbase_param@CCheckBoxTreeView@@@std@@@4@$0A@@std@@@std@@IAEXPAU_Node@?$_Tree_nod@V?$_Tmap_traits@HUbase_param@CCheckBoxTreeView@@U?$less@H@std@@V?$allocator@U?$pair@$$CBHUbase_param@CCheckBoxTreeView@@@std@@@4@$0A@@std@@@2@@Z 00419460 f i dependtree:CheckBoxTreeView.obj
 0001:000184a0       ??$_Ucopy@PAV?$basic_string@DU?$char_traits@D@std@@V?$allocator@D@2@@std@@@?$vector@V?$basic_string@DU?$char_traits@D@std@@V?$allocator@D@2@@std@@V?$allocator@V?$basic_string@DU?$char_traits@D@std@@V?$allocator@D@2@@std@@@2@@std@@IAEPAV?$basic_string@DU?$char_traits@D@std@@V?$allocator@D@2@@1@PAV21@00@Z 004194a0 f i dependtree:CheckBoxTreeView.obj
 0001:000184c0       ??4WLineEdit@@QAEAAV0@ABV0@@Z 004194c0 f i dependtree:CheckBoxTreeView.obj
 0001:00018560       ??4WAbstractToggleButton@@QAEAAV0@ABV0@@Z 00419560 f i dependtree:CheckBoxTreeView.obj
 0001:000185d0       ??4WCheckBox@@QAEAAV0@ABV0@@Z 004195d0 f i dependtree:CheckBoxTreeView.obj
 0001:00018650       ??4WBreak@@QAEAAV0@ABV0@@Z 00419650 f i dependtree:CheckBoxTreeView.obj
 0001:00018670       ??4WSVLinkText@@QAEAAV0@ABV0@@Z 00419670 f i dependtree:CheckBoxTreeView.obj
 0001:00018690       ?push_back@?$vector@PAVWTreeNode@@V?$allocator@PAVWTreeNode@@@std@@@std@@QAEXABQAVWTreeNode@@@Z 00419690 f i dependtree:CheckBoxTreeView.obj
 0001:000186e0       ?insert@?$_Tree@V?$_Tmap_traits@V?$basic_string@DU?$char_traits@D@std@@V?$allocator@D@2@@std@@PAVWCheckBox@@U?$less@V?$basic_string@DU?$char_traits@D@std@@V?$allocator@D@2@@std@@@2@V?$allocator@U?$pair@$$CBV?$basic_string@DU?$char_traits@D@std@@V?$allocator@D@2@@std@@PAVWCheckBox@@@std@@@2@$0A@@std@@@std@@QAE?AViterator@12@V312@ABU?$pair@$$CBV?$basic_string@DU?$char_traits@D@std@@V?$allocator@D@2@@std@@PAVWCheckBox@@@2@@Z 004196e0 f i dependtree:CheckBoxTreeView.obj
 0001:000188a0       ?_Destroy@?$vector@V?$basic_string@DU?$char_traits@D@std@@V?$allocator@D@2@@std@@V?$allocator@V?$basic_string@DU?$char_traits@D@std@@V?$allocator@D@2@@std@@@2@@std@@IAEXPAV?$basic_string@DU?$char_traits@D@std@@V?$allocator@D@2@@2@0@Z 004198a0 f i dependtree:CheckBoxTreeView.obj
 0001:000188d0       ?_Tidy@?$vector@V?$basic_string@DU?$char_traits@D@std@@V?$allocator@D@2@@std@@V?$allocator@V?$basic_string@DU?$char_traits@D@std@@V?$allocator@D@2@@std@@@2@@std@@IAEXXZ 004198d0 f i dependtree:CheckBoxTreeView.obj
 0001:00018920       ?_Ufill@?$vector@V?$basic_string@DU?$char_traits@D@std@@V?$allocator@D@2@@std@@V?$allocator@V?$basic_string@DU?$char_traits@D@std@@V?$allocator@D@2@@std@@@2@@std@@IAEPAV?$basic_string@DU?$char_traits@D@std@@V?$allocator@D@2@@2@PAV32@IABV32@@Z 00419920 f i dependtree:CheckBoxTreeView.obj
 0001:00018950       ?insert@?$_Tree@V?$_Tmap_traits@HUbase_param@CCheckBoxTreeView@@U?$less@H@std@@V?$allocator@U?$pair@$$CBHUbase_param@CCheckBoxTreeView@@@std@@@4@$0A@@std@@@std@@QAE?AViterator@12@V312@ABU?$pair@$$CBHUbase_param@CCheckBoxTreeView@@@2@@Z 00419950 f i dependtree:CheckBoxTreeView.obj
 0001:00018ac0       ?_Insert_n@?$vector@V?$basic_string@DU?$char_traits@D@std@@V?$allocator@D@2@@std@@V?$allocator@V?$basic_string@DU?$char_traits@D@std@@V?$allocator@D@2@@std@@@2@@std@@IAEXViterator@12@IABV?$basic_string@DU?$char_traits@D@std@@V?$allocator@D@2@@2@@Z 00419ac0 f i dependtree:CheckBoxTreeView.obj
 0001:00018df0       ?makeTreeMap@CCheckBoxTreeView@@AAEPAVWTreeNode@@V?$basic_string@DU?$char_traits@D@std@@V?$allocator@D@2@@std@@0HPAVWTable@@_N200@Z 00419df0 f   dependtree:CheckBoxTreeView.obj
 0001:00019020       ?makeTreeFile@CCheckBoxTreeView@@AAEPAVWTreeNode@@V?$basic_string@DU?$char_traits@D@std@@V?$allocator@D@2@@std@@V34@HPAV2@_N300@Z 0041a020 f   dependtree:CheckBoxTreeView.obj
 0001:000191d0       ??A?$map@V?$basic_string@DU?$char_traits@D@std@@V?$allocator@D@2@@std@@PAVWCheckBox@@U?$less@V?$basic_string@DU?$char_traits@D@std@@V?$allocator@D@2@@std@@@2@V?$allocator@U?$pair@$$CBV?$basic_string@DU?$char_traits@D@std@@V?$allocator@D@2@@std@@PAVWCheckBox@@@std@@@2@@std@@QAEAAPAVWCheckBox@@ABV?$basic_string@DU?$char_traits@D@std@@V?$allocator@D@2@@1@@Z 0041a1d0 f i dependtree:CheckBoxTreeView.obj
 0001:00019270       ??1?$vector@V?$basic_string@DU?$char_traits@D@std@@V?$allocator@D@2@@std@@V?$allocator@V?$basic_string@DU?$char_traits@D@std@@V?$allocator@D@2@@std@@@2@@std@@QAE@XZ 0041a270 f i dependtree:CheckBoxTreeView.obj
 0001:00019280       ??A?$map@HUbase_param@CCheckBoxTreeView@@U?$less@H@std@@V?$allocator@U?$pair@$$CBHUbase_param@CCheckBoxTreeView@@@std@@@4@@std@@QAEAAUbase_param@CCheckBoxTreeView@@ABH@Z 0041a280 f i dependtree:CheckBoxTreeView.obj
 0001:00019380       ??1?$list@V?$basic_string@DU?$char_traits@D@std@@V?$allocator@D@2@@std@@V?$allocator@V?$basic_string@DU?$char_traits@D@std@@V?$allocator@D@2@@std@@@2@@std@@QAE@XZ 0041a380 f i dependtree:CheckBoxTreeView.obj
 0001:000193a0       ?insert@?$vector@V?$basic_string@DU?$char_traits@D@std@@V?$allocator@D@2@@std@@V?$allocator@V?$basic_string@DU?$char_traits@D@std@@V?$allocator@D@2@@std@@@2@@std@@QAE?AViterator@12@V312@ABV?$basic_string@DU?$char_traits@D@std@@V?$allocator@D@2@@2@@Z 0041a3a0 f i dependtree:CheckBoxTreeView.obj
 0001:00019410       ?erase@?$_Tree@V?$_Tmap_traits@V?$basic_string@DU?$char_traits@D@std@@V?$allocator@D@2@@std@@PAVWCheckBox@@U?$less@V?$basic_string@DU?$char_traits@D@std@@V?$allocator@D@2@@std@@@2@V?$allocator@U?$pair@$$CBV?$basic_string@DU?$char_traits@D@std@@V?$allocator@D@2@@std@@PAVWCheckBox@@@std@@@2@$0A@@std@@@std@@QAE?AViterator@12@V312@0@Z 0041a410 f i dependtree:CheckBoxTreeView.obj
 0001:000194d0       ?erase@?$_Tree@V?$_Tmap_traits@HUbase_param@CCheckBoxTreeView@@U?$less@H@std@@V?$allocator@U?$pair@$$CBHUbase_param@CCheckBoxTreeView@@@std@@@4@$0A@@std@@@std@@QAE?AViterator@12@V312@0@Z 0041a4d0 f i dependtree:CheckBoxTreeView.obj
 0001:00019590       ??1WComboBox@@UAE@XZ       0041a590 f i dependtree:CheckBoxTreeView.obj
 0001:000195e0       ?AddDeviceTreeNode@CCheckBoxTreeView@@AAEXV?$basic_string@DU?$char_traits@D@std@@V?$allocator@D@2@@std@@PAVWTreeNode@@@Z 0041a5e0 f   dependtree:CheckBoxTreeView.obj
 0001:000197d0       ?AddGroupTreeNode@CCheckBoxTreeView@@AAEPAVWTreeNode@@V?$basic_string@DU?$char_traits@D@std@@V?$allocator@D@2@@std@@PAV2@_N@Z 0041a7d0 f   dependtree:CheckBoxTreeView.obj
 0001:000199a0       ?InitRightCell@CCheckBoxTreeView@@AAEXXZ 0041a9a0 f   dependtree:CheckBoxTreeView.obj
 0001:0001a790       ??4?$vector@V?$basic_string@DU?$char_traits@D@std@@V?$allocator@D@2@@std@@V?$allocator@V?$basic_string@DU?$char_traits@D@std@@V?$allocator@D@2@@std@@@2@@std@@QAEAAV01@ABV01@@Z 0041b790 f i dependtree:CheckBoxTreeView.obj
 0001:0001a920       ?push_back@?$vector@V?$basic_string@DU?$char_traits@D@std@@V?$allocator@D@2@@std@@V?$allocator@V?$basic_string@DU?$char_traits@D@std@@V?$allocator@D@2@@std@@@2@@std@@QAEXABV?$basic_string@DU?$char_traits@D@std@@V?$allocator@D@2@@2@@Z 0041b920 f i dependtree:CheckBoxTreeView.obj
 0001:0001a9b0       ??4WComboBox@@QAEAAV0@ABV0@@Z 0041b9b0 f i dependtree:CheckBoxTreeView.obj
 0001:0001aa50       ?PushGroup@CCheckBoxTreeView@@AAEXV?$basic_string@DU?$char_traits@D@std@@V?$allocator@D@2@@std@@AAV?$vector@V?$basic_string@DU?$char_traits@D@std@@V?$allocator@D@2@@std@@V?$allocator@V?$basic_string@DU?$char_traits@D@std@@V?$allocator@D@2@@std@@@2@@3@@Z 0041ba50 f   dependtree:CheckBoxTreeView.obj
 0001:0001abb0       ?ParserToken@CCheckBoxTreeView@@AAE_NAAV?$vector@V?$basic_string@DU?$char_traits@D@std@@V?$allocator@D@2@@std@@V?$allocator@V?$basic_string@DU?$char_traits@D@std@@V?$allocator@D@2@@std@@@2@@std@@PBDPAD@Z 0041bbb0 f   dependtree:CheckBoxTreeView.obj
 0001:0001ac80       ??1?$map@V?$basic_string@DU?$char_traits@D@std@@V?$allocator@D@2@@std@@PAVWCheckBox@@U?$less@V?$basic_string@DU?$char_traits@D@std@@V?$allocator@D@2@@std@@@2@V?$allocator@U?$pair@$$CBV?$basic_string@DU?$char_traits@D@std@@V?$allocator@D@2@@std@@PAVWCheckBox@@@std@@@2@@std@@QAE@XZ 0041bc80 f i dependtree:CheckBoxTreeView.obj
 0001:0001acb0       ??1?$map@HUbase_param@CCheckBoxTreeView@@U?$less@H@std@@V?$allocator@U?$pair@$$CBHUbase_param@CCheckBoxTreeView@@@std@@@4@@std@@QAE@XZ 0041bcb0 f i dependtree:CheckBoxTreeView.obj
 0001:0001ace0       ??0?$map@HUbase_param@CCheckBoxTreeView@@U?$less@H@std@@V?$allocator@U?$pair@$$CBHUbase_param@CCheckBoxTreeView@@@std@@@4@@std@@QAE@XZ 0041bce0 f i dependtree:CheckBoxTreeView.obj
 0001:0001ad10       ??0CCheckBoxTreeView@@QAE@PAVWContainerWidget@@@Z 0041bd10 f   dependtree:CheckBoxTreeView.obj
 0001:0001b050       ??_GCCheckBoxTreeView@@UAEPAXI@Z 0041c050 f i dependtree:CheckBoxTreeView.obj
 0001:0001b050       ??_ECCheckBoxTreeView@@UAEPAXI@Z 0041c050 f i dependtree:CheckBoxTreeView.obj
 0001:0001b070       ??1CCheckBoxTreeView@@UAE@XZ 0041c070 f i dependtree:CheckBoxTreeView.obj
 0001:0001b200       ?AddMontiorInDevice@CCheckBoxTreeView@@AAEXPAVWTreeNode@@_N@Z 0041c200 f   dependtree:CheckBoxTreeView.obj
 0001:0001b700       ?EnumGroup@CCheckBoxTreeView@@AAEXV?$basic_string@DU?$char_traits@D@std@@V?$allocator@D@2@@std@@PAVWTreeNode@@_N@Z 0041c700 f   dependtree:CheckBoxTreeView.obj
 0001:0001c070       ?InitTree@CCheckBoxTreeView@@QAE_NV?$basic_string@DU?$char_traits@D@std@@V?$allocator@D@2@@std@@_N1100@Z 0041d070 f   dependtree:CheckBoxTreeView.obj
 0001:0001cf50       ?ListMonitorInDevice@CCheckBoxTreeView@@AAEXXZ 0041df50 f   dependtree:CheckBoxTreeView.obj
 0001:0001cf80       ?triggerSlot@WWidget@@MAE_NPAVWObject@@PBVWSlot_@@PAPAX@Z 0041df80 f   dependtree:WWidget.obj
 0001:0001cfd0       ?undoTriggerSlot@WWidget@@MAE_NPBVWSlot_@@PAPAX@Z 0041dfd0 f   dependtree:WWidget.obj
 0001:0001d010       ??0WWidget@@QAE@XZ         0041e010 f   dependtree:WWidget.obj
 0001:0001d030       ??1WWidget@@UAE@XZ         0041e030 f   dependtree:WWidget.obj
 0001:0001d040       ?resourceMimeType@WWidget@@MBE?AV?$basic_string@DU?$char_traits@D@std@@V?$allocator@D@2@@std@@XZ 0041e040 f   dependtree:WWidget.obj
 0001:0001d070       ?streamResourceData@WWidget@@MAEXPAUFCGI_FILE@@@Z 0041e070 f   dependtree:WWidget.obj
 0001:0001d140       ??_EWWidget@@UAEPAXI@Z     0041e140 f i dependtree:WWidget.obj
 0001:0001d1a0       ?updateStaticSlotCode@WWidget@@IAEXPAVWWebWidget@@AAVJavaScript@@@Z 0041e1a0 f   dependtree:WWidget.obj
 0001:0001d460       ?buildSlotMap@WWidget@@MAEXAAV?$map@V?$basic_string@DU?$char_traits@D@std@@V?$allocator@D@2@@std@@PAVWSlotInstance_@@U?$less@V?$basic_string@DU?$char_traits@D@std@@V?$allocator@D@2@@std@@@2@V?$allocator@U?$pair@$$CBV?$basic_string@DU?$char_traits@D@std@@V?$allocator@D@2@@std@@PAVWSlotInstance_@@@std@@@2@@std@@@Z 0041e460 f   dependtree:WWidget.obj
 0001:0001d520       ?buildSignalMap@WWidget@@MAEXAAV?$map@V?$basic_string@DU?$char_traits@D@std@@V?$allocator@D@2@@std@@PAVWSignalInstance_@@U?$less@V?$basic_string@DU?$char_traits@D@std@@V?$allocator@D@2@@std@@@2@V?$allocator@U?$pair@$$CBV?$basic_string@DU?$char_traits@D@std@@V?$allocator@D@2@@std@@PAVWSignalInstance_@@@std@@@2@@std@@@Z 0041e520 f   dependtree:WWidget.obj
 0001:0001d5e0       ?invalidateStaticCode@WSlotInstance_@@QAEXXZ 0041e5e0 f   dependtree:WSlotInstance_.obj
 0001:0001d5f0       ?trigger@WSlotInstance_@@QAE_NPAVWObject@@PAPAX@Z 0041e5f0 f   dependtree:WSlotInstance_.obj
 0001:0001d610       ?undoTrigger@WSlotInstance_@@QAEXPAPAX@Z 0041e610 f   dependtree:WSlotInstance_.obj
 0001:0001d630       ?needTriggerStatic@WSlotInstance_@@QBE_NXZ 0041e630 f   dependtree:WSlotInstance_.obj
 0001:0001d650       ??$fill@PAPAVWMessageResources@@PAV1@@std@@YAXPAPAVWMessageResources@@0ABQAV1@@Z 0041e650 f i dependtree:WMessageResourceBundle.obj
 0001:0001d650       ??$fill@PAPAVWTable@@PAV1@@std@@YAXPAPAVWTable@@0ABQAV1@@Z 0041e650 f i WSPopTable.obj
 0001:0001d650       ??$fill@PAPAVWWidget@@PAV1@@std@@YAXPAPAVWWidget@@0ABQAV1@@Z 0041e650 f i dependtree:WWebWidget.obj
 0001:0001d650       ??$fill@PAPAVWTableRow@@PAV1@@std@@YAXPAPAVWTableRow@@0ABQAV1@@Z 0041e650 f i dependtree:WTable.obj
 0001:0001d650       ??$fill@PAPAVWConnection_@@PAV1@@std@@YAXPAPAVWConnection_@@0ABQAV1@@Z 0041e650 f i dependtree:WSlotInstance_.obj
 0001:0001d650       ??$fill@PAPAVWObject@@PAV1@@std@@YAXPAPAVWObject@@0ABQAV1@@Z 0041e650 f i dependtree:WWebWidget.obj
 0001:0001d650       ??$fill@PAPAVWScrollBar@@PAV1@@std@@YAXPAPAVWScrollBar@@0ABQAV1@@Z 0041e650 f i dependtree:WScrollBar.obj
 0001:0001d650       ??$fill@PAPAVDomElement@@PAV1@@std@@YAXPAPAVDomElement@@0ABQAV1@@Z 0041e650 f i dependtree:WWebWidget.obj
 0001:0001d650       ??$fill@PAPAVWTreeNode@@PAV1@@std@@YAXPAPAVWTreeNode@@0ABQAV1@@Z 0041e650 f i dependtree:CheckBoxTreeView.obj
 0001:0001d670       ??$copy_backward@PAPAVWTableRow@@PAPAV1@@std@@YAPAPAVWTableRow@@PAPAV1@00@Z 0041e670 f i dependtree:WTable.obj
 0001:0001d670       ??$copy_backward@PAPAVWMessageResources@@PAPAV1@@std@@YAPAPAVWMessageResources@@PAPAV1@00@Z 0041e670 f i dependtree:WMessageResourceBundle.obj
 0001:0001d670       ??$copy_backward@PAPAVDomElement@@PAPAV1@@std@@YAPAPAVDomElement@@PAPAV1@00@Z 0041e670 f i dependtree:WWebWidget.obj
 0001:0001d670       ??$copy_backward@PAPAVWConnection_@@PAPAV1@@std@@YAPAPAVWConnection_@@PAPAV1@00@Z 0041e670 f i dependtree:WSlotInstance_.obj
 0001:0001d670       ??$copy_backward@PAPAVWTreeNode@@PAPAV1@@std@@YAPAPAVWTreeNode@@PAPAV1@00@Z 0041e670 f i dependtree:CheckBoxTreeView.obj
 0001:0001d670       ??$copy_backward@PAPAVWTable@@PAPAV1@@std@@YAPAPAVWTable@@PAPAV1@00@Z 0041e670 f i WSPopTable.obj
 0001:0001d670       ??$copy_backward@PAPAVWWidget@@PAPAV1@@std@@YAPAPAVWWidget@@PAPAV1@00@Z 0041e670 f i dependtree:WWebWidget.obj
 0001:0001d670       ??$copy_backward@PAPAVWScrollBar@@PAPAV1@@std@@YAPAPAVWScrollBar@@PAPAV1@00@Z 0041e670 f i dependtree:WScrollBar.obj
 0001:0001d670       ??$copy_backward@PAPAVWObject@@PAPAV1@@std@@YAPAPAVWObject@@PAPAV1@00@Z 0041e670 f i dependtree:WWebWidget.obj
 0001:0001d6a0       ?setStaticCode@WSlotInstance_@@QAEXV?$basic_string@DU?$char_traits@D@std@@V?$allocator@D@2@@std@@@Z 0041e6a0 f   dependtree:WSlotInstance_.obj
 0001:0001d720       ?_Insert_n@?$vector@PAVWConnection_@@V?$allocator@PAVWConnection_@@@std@@@std@@IAEXViterator@12@IABQAVWConnection_@@@Z 0041e720 f i dependtree:WSlotInstance_.obj
 0001:0001d910       ??0WSlotInstance_@@QAE@PAVWObject@@PAVWSlot_@@@Z 0041e910 f   dependtree:WSlotInstance_.obj
 0001:0001d980       ??1WSlotInstance_@@QAE@XZ  0041e980 f   dependtree:WSlotInstance_.obj
 0001:0001da20       ?removeConnection@WSlotInstance_@@QAEXPAVWConnection_@@@Z 0041ea20 f   dependtree:WSlotInstance_.obj
 0001:0001dab0       ?addConnection@WSlotInstance_@@QAEXPAVWConnection_@@@Z 0041eab0 f   dependtree:WSlotInstance_.obj
 0001:0001db00       ?SetJsVal@WSignalInstance_@@QAEXPBDW4ConnectionType@WObject@@@Z 0041eb00 f   dependtree:WSignalInstance_.obj
 0001:0001db20       ?setStaticCodeChanged@WSignalInstance_@@AAEXXZ 0041eb20 f   dependtree:WSignalInstance_.obj
 0001:0001db30       ?connectivityOk@WSignalInstance_@@QAEXXZ 0041eb30 f   dependtree:WSignalInstance_.obj
 0001:0001db40       ?encodeCmd@WSignalInstance_@@QBE?BV?$basic_string@DU?$char_traits@D@std@@V?$allocator@D@2@@std@@XZ 0041eb40 f   dependtree:WSignalInstance_.obj
 0001:0001db90       ?decodeSignal@WSignalInstance_@@SAPAV1@V?$basic_string@DU?$char_traits@D@std@@V?$allocator@D@2@@std@@@Z 0041eb90 f   dependtree:WSignalInstance_.obj
 0001:0001dc40       ?connect@WSignalInstance_@@AAE_NPAVWSlotInstance_@@W4ConnectionType@WObject@@@Z 0041ec40 f   dependtree:WSignalInstance_.obj
 0001:0001dce0       ?trigger@WSignalInstance_@@ABEXW4ConnectionType@WObject@@PAPAX@Z 0041ece0 f   dependtree:WSignalInstance_.obj
 0001:0001dd90       ?getStaticCode@WSignalInstance_@@ABEXAAV?$basic_string@DU?$char_traits@D@std@@V?$allocator@D@2@@std@@@Z 0041ed90 f   dependtree:WSignalInstance_.obj
 0001:0001de20       ?findConnectedNeedTriggerStaticSlot@WSignalInstance_@@ABEPAVWSlotInstance_@@XZ 0041ee20 f   dependtree:WSignalInstance_.obj
 0001:0001de70       ??0WSignalInstance_@@QAE@PAVWObject@@PAVWSignal_@@@Z 0041ee70 f   dependtree:WSignalInstance_.obj
 0001:0001dee0       ??1WSignalInstance_@@QAE@XZ 0041eee0 f   dependtree:WSignalInstance_.obj
 0001:0001df90       ?removeConnection@WSignalInstance_@@AAEXPAVWConnection_@@@Z 0041ef90 f   dependtree:WSignalInstance_.obj
 0001:0001e040       ?addConnection@WSignalInstance_@@AAEXPAVWConnection_@@@Z 0041f040 f   dependtree:WSignalInstance_.obj
 0001:0001e0f0       ??0WSlot_@@QAE@XZ          0041f0f0 f   dependtree:WSlot_.obj
 0001:0001e0f0       ??0WSignal_@@QAE@XZ        0041f0f0 f   dependtree:WSignal_.obj
 0001:0001e0f0       ??0WMessage@@QAE@XZ        0041f0f0 f   dependtree:WMessage.obj
 0001:0001e100       ??0WSlot_@@QAE@V?$basic_string@DU?$char_traits@D@std@@V?$allocator@D@2@@std@@_N@Z 0041f100 f   dependtree:WSlot_.obj
 0001:0001e160       ??0WSignal_@@QAE@V?$basic_string@DU?$char_traits@D@std@@V?$allocator@D@2@@std@@_N@Z 0041f160 f   dependtree:WSignal_.obj
 0001:0001e1c0       ??0WLength@@QAE@XZ         0041f1c0 f   dependtree:WLength.obj
 0001:0001e1d0       ??0WLength@@QAE@NW4Unit@0@@Z 0041f1d0 f   dependtree:WLength.obj
 0001:0001e1f0       ??8WLength@@QBE_NABV0@@Z   0041f1f0 f   dependtree:WLength.obj
 0001:0001e220       ??1?$lexical_stream@V?$basic_string@DU?$char_traits@D@std@@V?$allocator@D@2@@std@@I@detail@boost@@QAE@XZ 0041f220 f i dependtree:WComboBox.obj
 0001:0001e220       ??1?$lexical_stream@V?$basic_string@DU?$char_traits@D@std@@V?$allocator@D@2@@std@@H@detail@boost@@QAE@XZ 0041f220 f i dependtree:WWebWidget.obj
 0001:0001e220       ??1?$lexical_stream@HV?$basic_string@DU?$char_traits@D@std@@V?$allocator@D@2@@std@@@detail@boost@@QAE@XZ 0041f220 f i dependtree:WComboBox.obj
 0001:0001e220       ??1?$lexical_stream@V?$basic_string@DU?$char_traits@D@std@@V?$allocator@D@2@@std@@N@detail@boost@@QAE@XZ 0041f220 f i dependtree:WLength.obj
 0001:0001e230       ??5?$lexical_stream@V?$basic_string@DU?$char_traits@D@std@@V?$allocator@D@2@@std@@N@detail@boost@@QAE_NAAV?$basic_string@DU?$char_traits@D@std@@V?$allocator@D@2@@std@@@Z 0041f230 f i dependtree:WLength.obj
 0001:0001e290       ??$lexical_cast@V?$basic_string@DU?$char_traits@D@std@@V?$allocator@D@2@@std@@N@boost@@YA?AV?$basic_string@DU?$char_traits@D@std@@V?$allocator@D@2@@std@@ABN@Z 0041f290 f i dependtree:WLength.obj
 0001:0001e400       ?cssText@WLength@@QBE?BV?$basic_string@DU?$char_traits@D@std@@V?$allocator@D@2@@std@@XZ 0041f400 f   dependtree:WLength.obj
 0001:0001e4b0       ?row@WTableCell@@QBEHXZ    0041f4b0 f   dependtree:WTableCell.obj
 0001:0001e4c0       ?setRowSpan@WTableCell@@QAEXH@Z 0041f4c0 f   dependtree:WTableCell.obj
 0001:0001e510       ?setColumnSpan@WTableCell@@QAEXH@Z 0041f510 f   dependtree:WTableCell.obj
 0001:0001e560       ?setContentAlignment@WTableCell@@QAEXH@Z 0041f560 f   dependtree:WTableCell.obj
 0001:0001e5b0       ?contentAlignment@WTableCell@@QBEHXZ 0041f5b0 f   dependtree:WTableCell.obj
 0001:0001e5d0       ?SetMouseMove@WTableCell@@QAEXV?$basic_string@DU?$char_traits@D@std@@V?$allocator@D@2@@std@@0@Z 0041f5d0 f   dependtree:WTableCell.obj
 0001:0001e620       ?createDomElement@WTableCell@@MAEPAVDomElement@@XZ 0041f620 f   dependtree:WTableCell.obj
 0001:0001e8a0       ??_EWTableCell@@UAEPAXI@Z  0041f8a0 f i dependtree:WTableCell.obj
 0001:0001e900       ??0WTableCell@@AAE@PAVWTableRow@@H@Z 0041f900 f   dependtree:WTableCell.obj
 0001:0001e990       ?buildSlotMap@WTableCell@@MAEXAAV?$map@V?$basic_string@DU?$char_traits@D@std@@V?$allocator@D@2@@std@@PAVWSlotInstance_@@U?$less@V?$basic_string@DU?$char_traits@D@std@@V?$allocator@D@2@@std@@@2@V?$allocator@U?$pair@$$CBV?$basic_string@DU?$char_traits@D@std@@V?$allocator@D@2@@std@@PAVWSlotInstance_@@@std@@@2@@std@@@Z 0041f990 f   dependtree:WTableCell.obj
 0001:0001ea50       ?buildSignalMap@WTableCell@@MAEXAAV?$map@V?$basic_string@DU?$char_traits@D@std@@V?$allocator@D@2@@std@@PAVWSignalInstance_@@U?$less@V?$basic_string@DU?$char_traits@D@std@@V?$allocator@D@2@@std@@@2@V?$allocator@U?$pair@$$CBV?$basic_string@DU?$char_traits@D@std@@V?$allocator@D@2@@std@@PAVWSignalInstance_@@@std@@@2@@std@@@Z 0041fa50 f   dependtree:WTableCell.obj
 0001:0001eb10       ??0WCssDecorationStyle@@QAE@XZ 0041fb10 f   dependtree:WCssDecorationStyle.obj
 0001:0001ebc0       ??0WCssDecorationStyle@@AAE@PAVWWebWidget@@@Z 0041fbc0 f   dependtree:WCssDecorationStyle.obj
 0001:0001ec70       ?setCursor@WCssDecorationStyle@@QAEXW4Cursor@1@@Z 0041fc70 f   dependtree:WCssDecorationStyle.obj
 0001:0001ec90       ?setFont@WCssDecorationStyle@@QAEXABVWFont@@@Z 0041fc90 f   dependtree:WCssDecorationStyle.obj
 0001:0001ecc0       ?setBackgroundImage@WCssDecorationStyle@@QAEXV?$basic_string@DU?$char_traits@D@std@@V?$allocator@D@2@@std@@W4Repeat@1@@Z 0041fcc0 f   dependtree:WCssDecorationStyle.obj
 0001:0001ed40       ?setBackgroundColor@WCssDecorationStyle@@QAEXVWColor@@@Z 0041fd40 f   dependtree:WCssDecorationStyle.obj
 0001:0001edc0       ?setForegroundColor@WCssDecorationStyle@@QAEXVWColor@@@Z 0041fdc0 f   dependtree:WCssDecorationStyle.obj
 0001:0001ee50       ?setBorder@WCssDecorationStyle@@QAEXVWBorder@@@Z 0041fe50 f   dependtree:WCssDecorationStyle.obj
 0001:0001eec0       ?updateDomElement@WCssDecorationStyle@@QAEXAAVDomElement@@_N@Z 0041fec0 f   dependtree:WCssDecorationStyle.obj
 0001:0001f1f0       ?cssText@WCssDecorationStyle@@QBE?AV?$basic_string@DU?$char_traits@D@std@@V?$allocator@D@2@@std@@XZ 004201f0 f   dependtree:WCssDecorationStyle.obj
 0001:0001f4a0       ?insertChild@DomElement@@QAEXPAV1@V?$basic_string@DU?$char_traits@D@std@@V?$allocator@D@2@@std@@@Z 004204a0 f   dependtree:DomElement.obj
 0001:0001f4b0       ?insertBefore@DomElement@@QAEXPAV1@@Z 004204b0 f   dependtree:DomElement.obj
 0001:0001f4c0       ?removeFromParent@DomElement@@QAEXXZ 004204c0 f   dependtree:DomElement.obj
 0001:0001f4d0       ?removeAllChildren@DomElement@@QAEXXZ 004204d0 f   dependtree:DomElement.obj
 0001:0001f4e0       ?replaceWith@DomElement@@QAEXPAV1@@Z 004204e0 f   dependtree:DomElement.obj
 0001:0001f5d0       ?canWriteInnerHTML@DomElement@@ABE_NXZ 004205d0 f   dependtree:DomElement.obj
 0001:0001f5f0       ?isDefaultInline@DomElement@@QBE_NXZ 004205f0 f   dependtree:DomElement.obj
 0001:0001f600       ??0?$pair@$$CBV?$basic_string@DU?$char_traits@D@std@@V?$allocator@D@2@@std@@V12@@std@@QAE@ABV?$basic_string@DU?$char_traits@D@std@@V?$allocator@D@2@@1@0@Z 00420600 f i dependtree:DomElement.obj
 0001:0001f660       ?_Dec@const_iterator@?$_Tree@V?$_Tmap_traits@V?$basic_string@DU?$char_traits@D@std@@V?$allocator@D@2@@std@@U?$pair@V?$basic_string@DU?$char_traits@D@std@@V?$allocator@D@2@@std@@V12@@2@U?$less@V?$basic_string@DU?$char_traits@D@std@@V?$allocator@D@2@@std@@@2@V?$allocator@U?$pair@$$CBV?$basic_string@DU?$char_traits@D@std@@V?$allocator@D@2@@std@@U?$pair@V?$basic_string@DU?$char_traits@D@std@@V?$allocator@D@2@@std@@V12@@2@@std@@@2@$0A@@std@@@std@@QAEXXZ 00420660 f i dependtree:DomElement.obj
 0001:0001f6c0       ?_Dec@const_iterator@?$_Tree@V?$_Tmap_traits@V?$basic_string@DU?$char_traits@D@std@@V?$allocator@D@2@@std@@V12@U?$less@V?$basic_string@DU?$char_traits@D@std@@V?$allocator@D@2@@std@@@2@V?$allocator@U?$pair@$$CBV?$basic_string@DU?$char_traits@D@std@@V?$allocator@D@2@@std@@V12@@std@@@2@$0A@@std@@@std@@QAEXXZ 004206c0 f i dependtree:DomElement.obj
 0001:0001f720       ??$_Copy_backward_opt@PAU?$pair@V?$basic_string@DU?$char_traits@D@std@@V?$allocator@D@2@@std@@PAVDomElement@@@std@@PAU12@@std@@YAPAU?$pair@V?$basic_string@DU?$char_traits@D@std@@V?$allocator@D@2@@std@@PAVDomElement@@@0@PAU10@00U_Nonscalar_ptr_iterator_tag@0@@Z 00420720 f i dependtree:DomElement.obj
 0001:0001f820       ?createReference@DomElement@@QBE?AV?$basic_string@DU?$char_traits@D@std@@V?$allocator@D@2@@std@@XZ 00420820 f   dependtree:DomElement.obj
 0001:0001f8e0       ??0?$pair@$$CBV?$basic_string@DU?$char_traits@D@std@@V?$allocator@D@2@@std@@U?$pair@V?$basic_string@DU?$char_traits@D@std@@V?$allocator@D@2@@std@@V12@@2@@std@@QAE@ABV?$basic_string@DU?$char_traits@D@std@@V?$allocator@D@2@@1@ABU?$pair@V?$basic_string@DU?$char_traits@D@std@@V?$allocator@D@2@@std@@V12@@1@@Z 004208e0 f i dependtree:DomElement.obj
 0001:0001f940       ?_Lbound@?$_Tree@V?$_Tmap_traits@V?$basic_string@DU?$char_traits@D@std@@V?$allocator@D@2@@std@@V12@U?$less@V?$basic_string@DU?$char_traits@D@std@@V?$allocator@D@2@@std@@@2@V?$allocator@U?$pair@$$CBV?$basic_string@DU?$char_traits@D@std@@V?$allocator@D@2@@std@@V12@@std@@@2@$0A@@std@@@std@@IBEPAU_Node@?$_Tree_nod@V?$_Tmap_traits@V?$basic_string@DU?$char_traits@D@std@@V?$allocator@D@2@@std@@V12@U?$less@V?$basic_string@DU?$char_traits@D@std@@V?$allocator@D@2@@std@@@2@V?$allocator@U?$pair@$$CBV?$basic_string@DU?$char_traits@D@std@@V?$allocator@D@2@@std@@V12@@std@@@2@$0A@@std@@@2@ABV?$basic_string@DU?$char_traits@D@std@@V?$allocator@D@2@@2@@Z 00420940 f i dependtree:DomElement.obj
 0001:0001f990       ?_Lbound@?$_Tree@V?$_Tmap_traits@V?$basic_string@DU?$char_traits@D@std@@V?$allocator@D@2@@std@@U?$pair@V?$basic_string@DU?$char_traits@D@std@@V?$allocator@D@2@@std@@V12@@2@U?$less@V?$basic_string@DU?$char_traits@D@std@@V?$allocator@D@2@@std@@@2@V?$allocator@U?$pair@$$CBV?$basic_string@DU?$char_traits@D@std@@V?$allocator@D@2@@std@@U?$pair@V?$basic_string@DU?$char_traits@D@std@@V?$allocator@D@2@@std@@V12@@2@@std@@@2@$0A@@std@@@std@@IBEPAU_Node@?$_Tree_nod@V?$_Tmap_traits@V?$basic_string@DU?$char_traits@D@std@@V?$allocator@D@2@@std@@U?$pair@V?$basic_string@DU?$char_traits@D@std@@V?$allocator@D@2@@std@@V12@@2@U?$less@V?$basic_string@DU?$char_traits@D@std@@V?$allocator@D@2@@std@@@2@V?$allocator@U?$pair@$$CBV?$basic_string@DU?$char_traits@D@std@@V?$allocator@D@2@@std@@U?$pair@V?$basic_string@DU?$char_traits@D@std@@V?$allocator@D@2@@std@@V12@@2@@std@@@2@$0A@@std@@@2@ABV?$basic_string@DU?$char_traits@D@std@@V?$allocator@D@2@@2@@Z 00420990 f i dependtree:DomElement.obj
 0001:0001f9e0       ??$make_pair@V?$basic_string@DU?$char_traits@D@std@@V?$allocator@D@2@@std@@PAVDomElement@@@std@@YA?AU?$pair@V?$basic_string@DU?$char_traits@D@std@@V?$allocator@D@2@@std@@PAVDomElement@@@0@V?$basic_string@DU?$char_traits@D@std@@V?$allocator@D@2@@0@PAVDomElement@@@Z 004209e0 f i dependtree:DomElement.obj
 0001:0001fa50       ??$make_pair@V?$basic_string@DU?$char_traits@D@std@@V?$allocator@D@2@@std@@V12@@std@@YA?AU?$pair@V?$basic_string@DU?$char_traits@D@std@@V?$allocator@D@2@@std@@V12@@0@V?$basic_string@DU?$char_traits@D@std@@V?$allocator@D@2@@0@0@Z 00420a50 f i dependtree:DomElement.obj
 0001:0001fae0       ??$fill@PAU?$pair@V?$basic_string@DU?$char_traits@D@std@@V?$allocator@D@2@@std@@PAVDomElement@@@std@@U12@@std@@YAXPAU?$pair@V?$basic_string@DU?$char_traits@D@std@@V?$allocator@D@2@@std@@PAVDomElement@@@0@0ABU10@@Z 00420ae0 f i dependtree:DomElement.obj
 0001:0001fb10       ?find@?$_Tree@V?$_Tmap_traits@W4Property@Wt@@V?$basic_string@DU?$char_traits@D@std@@V?$allocator@D@2@@std@@U?$less@W4Property@Wt@@@4@V?$allocator@U?$pair@$$CBW4Property@Wt@@V?$basic_string@DU?$char_traits@D@std@@V?$allocator@D@2@@std@@@std@@@4@$0A@@std@@@std@@QBE?AVconst_iterator@12@ABW4Property@Wt@@@Z 00420b10 f i dependtree:DomElement.obj
 0001:0001fb80       ?find@?$_Tree@V?$_Tmap_traits@V?$basic_string@DU?$char_traits@D@std@@V?$allocator@D@2@@std@@U?$pair@V?$basic_string@DU?$char_traits@D@std@@V?$allocator@D@2@@std@@V12@@2@U?$less@V?$basic_string@DU?$char_traits@D@std@@V?$allocator@D@2@@std@@@2@V?$allocator@U?$pair@$$CBV?$basic_string@DU?$char_traits@D@std@@V?$allocator@D@2@@std@@U?$pair@V?$basic_string@DU?$char_traits@D@std@@V?$allocator@D@2@@std@@V12@@2@@std@@@2@$0A@@std@@@std@@QBE?AVconst_iterator@12@ABV?$basic_string@DU?$char_traits@D@std@@V?$allocator@D@2@@2@@Z 00420b80 f i dependtree:DomElement.obj
 0001:0001fbe0       ?_Insert@?$_Tree@V?$_Tmap_traits@V?$basic_string@DU?$char_traits@D@std@@V?$allocator@D@2@@std@@V12@U?$less@V?$basic_string@DU?$char_traits@D@std@@V?$allocator@D@2@@std@@@2@V?$allocator@U?$pair@$$CBV?$basic_string@DU?$char_traits@D@std@@V?$allocator@D@2@@std@@V12@@std@@@2@$0A@@std@@@std@@IAE?AViterator@12@_NPAU_Node@?$_Tree_nod@V?$_Tmap_traits@V?$basic_string@DU?$char_traits@D@std@@V?$allocator@D@2@@std@@V12@U?$less@V?$basic_string@DU?$char_traits@D@std@@V?$allocator@D@2@@std@@@2@V?$allocator@U?$pair@$$CBV?$basic_string@DU?$char_traits@D@std@@V?$allocator@D@2@@std@@V12@@std@@@2@$0A@@std@@@2@ABU?$pair@$$CBV?$basic_string@DU?$char_traits@D@std@@V?$allocator@D@2@@std@@V12@@2@@Z 00420be0 f i dependtree:DomElement.obj
 0001:0001fda0       ?_Insert@?$_Tree@V?$_Tmap_traits@W4Property@Wt@@V?$basic_string@DU?$char_traits@D@std@@V?$allocator@D@2@@std@@U?$less@W4Property@Wt@@@4@V?$allocator@U?$pair@$$CBW4Property@Wt@@V?$basic_string@DU?$char_traits@D@std@@V?$allocator@D@2@@std@@@std@@@4@$0A@@std@@@std@@IAE?AViterator@12@_NPAU_Node@?$_Tree_nod@V?$_Tmap_traits@W4Property@Wt@@V?$basic_string@DU?$char_traits@D@std@@V?$allocator@D@2@@std@@U?$less@W4Property@Wt@@@4@V?$allocator@U?$pair@$$CBW4Property@Wt@@V?$basic_string@DU?$char_traits@D@std@@V?$allocator@D@2@@std@@@std@@@4@$0A@@std@@@2@ABU?$pair@$$CBW4Property@Wt@@V?$basic_string@DU?$char_traits@D@std@@V?$allocator@D@2@@std@@@2@@Z 00420da0 f i dependtree:DomElement.obj
 0001:0001ff60       ?_Insert@?$_Tree@V?$_Tmap_traits@V?$basic_string@DU?$char_traits@D@std@@V?$allocator@D@2@@std@@U?$pair@V?$basic_string@DU?$char_traits@D@std@@V?$allocator@D@2@@std@@V12@@2@U?$less@V?$basic_string@DU?$char_traits@D@std@@V?$allocator@D@2@@std@@@2@V?$allocator@U?$pair@$$CBV?$basic_string@DU?$char_traits@D@std@@V?$allocator@D@2@@std@@U?$pair@V?$basic_string@DU?$char_traits@D@std@@V?$allocator@D@2@@std@@V12@@2@@std@@@2@$0A@@std@@@std@@IAE?AViterator@12@_NPAU_Node@?$_Tree_nod@V?$_Tmap_traits@V?$basic_string@DU?$char_traits@D@std@@V?$allocator@D@2@@std@@U?$pair@V?$basic_string@DU?$char_traits@D@std@@V?$allocator@D@2@@std@@V12@@2@U?$less@V?$basic_string@DU?$char_traits@D@std@@V?$allocator@D@2@@std@@@2@V?$allocator@U?$pair@$$CBV?$basic_string@DU?$char_traits@D@std@@V?$allocator@D@2@@std@@U?$pair@V?$basic_string@DU?$char_traits@D@std@@V?$allocator@D@2@@std@@V12@@2@@std@@@2@$0A@@std@@@2@ABU?$pair@$$CBV?$basic_string@DU?$char_traits@D@std@@V?$allocator@D@2@@std@@U?$pair@V?$basic_string@DU?$char_traits@D@std@@V?$allocator@D@2@@std@@V12@@2@@2@@Z 00420f60 f i dependtree:DomElement.obj
 0001:00020120       ??$_Uninit_fill_n@PAU?$pair@V?$basic_string@DU?$char_traits@D@std@@V?$allocator@D@2@@std@@PAVDomElement@@@std@@IU12@V?$allocator@U?$pair@V?$basic_string@DU?$char_traits@D@std@@V?$allocator@D@2@@std@@PAVDomElement@@@std@@@2@@std@@YAXPAU?$pair@V?$basic_string@DU?$char_traits@D@std@@V?$allocator@D@2@@std@@PAVDomElement@@@0@IABU10@AAV?$allocator@U?$pair@V?$basic_string@DU?$char_traits@D@std@@V?$allocator@D@2@@std@@PAVDomElement@@@std@@@0@U_Nonscalar_ptr_iterator_tag@0@@Z 00421120 f i dependtree:DomElement.obj
 0001:000201c0       ?asHTML@DomElement@@QBE?AV?$basic_string@DU?$char_traits@D@std@@V?$allocator@D@2@@std@@XZ 004211c0 f   dependtree:DomElement.obj
 0001:000215c0       ?insert@?$_Tree@V?$_Tmap_traits@V?$basic_string@DU?$char_traits@D@std@@V?$allocator@D@2@@std@@V12@U?$less@V?$basic_string@DU?$char_traits@D@std@@V?$allocator@D@2@@std@@@2@V?$allocator@U?$pair@$$CBV?$basic_string@DU?$char_traits@D@std@@V?$allocator@D@2@@std@@V12@@std@@@2@$0A@@std@@@std@@QAE?AU?$pair@Viterator@?$_Tree@V?$_Tmap_traits@V?$basic_string@DU?$char_traits@D@std@@V?$allocator@D@2@@std@@V12@U?$less@V?$basic_string@DU?$char_traits@D@std@@V?$allocator@D@2@@std@@@2@V?$allocator@U?$pair@$$CBV?$basic_string@DU?$char_traits@D@std@@V?$allocator@D@2@@std@@V12@@std@@@2@$0A@@std@@@std@@_N@2@ABU?$pair@$$CBV?$basic_string@DU?$char_traits@D@std@@V?$allocator@D@2@@std@@V12@@2@@Z 004225c0 f i dependtree:DomElement.obj
 0001:000216a0       ?insert@?$_Tree@V?$_Tmap_traits@W4Property@Wt@@V?$basic_string@DU?$char_traits@D@std@@V?$allocator@D@2@@std@@U?$less@W4Property@Wt@@@4@V?$allocator@U?$pair@$$CBW4Property@Wt@@V?$basic_string@DU?$char_traits@D@std@@V?$allocator@D@2@@std@@@std@@@4@$0A@@std@@@std@@QAE?AU?$pair@Viterator@?$_Tree@V?$_Tmap_traits@W4Property@Wt@@V?$basic_string@DU?$char_traits@D@std@@V?$allocator@D@2@@std@@U?$less@W4Property@Wt@@@4@V?$allocator@U?$pair@$$CBW4Property@Wt@@V?$basic_string@DU?$char_traits@D@std@@V?$allocator@D@2@@std@@@std@@@4@$0A@@std@@@std@@_N@2@ABU?$pair@$$CBW4Property@Wt@@V?$basic_string@DU?$char_traits@D@std@@V?$allocator@D@2@@std@@@2@@Z 004226a0 f i dependtree:DomElement.obj
 0001:00021760       ?insert@?$_Tree@V?$_Tmap_traits@V?$basic_string@DU?$char_traits@D@std@@V?$allocator@D@2@@std@@U?$pair@V?$basic_string@DU?$char_traits@D@std@@V?$allocator@D@2@@std@@V12@@2@U?$less@V?$basic_string@DU?$char_traits@D@std@@V?$allocator@D@2@@std@@@2@V?$allocator@U?$pair@$$CBV?$basic_string@DU?$char_traits@D@std@@V?$allocator@D@2@@std@@U?$pair@V?$basic_string@DU?$char_traits@D@std@@V?$allocator@D@2@@std@@V12@@2@@std@@@2@$0A@@std@@@std@@QAE?AU?$pair@Viterator@?$_Tree@V?$_Tmap_traits@V?$basic_string@DU?$char_traits@D@std@@V?$allocator@D@2@@std@@U?$pair@V?$basic_string@DU?$char_traits@D@std@@V?$allocator@D@2@@std@@V12@@2@U?$less@V?$basic_string@DU?$char_traits@D@std@@V?$allocator@D@2@@std@@@2@V?$allocator@U?$pair@$$CBV?$basic_string@DU?$char_traits@D@std@@V?$allocator@D@2@@std@@U?$pair@V?$basic_string@DU?$char_traits@D@std@@V?$allocator@D@2@@std@@V12@@2@@std@@@2@$0A@@std@@@std@@_N@2@ABU?$pair@$$CBV?$basic_string@DU?$char_traits@D@std@@V?$allocator@D@2@@std@@U?$pair@V?$basic_string@DU?$char_traits@D@std@@V?$allocator@D@2@@std@@V12@@2@@2@@Z 00422760 f i dependtree:DomElement.obj
 0001:00021840       ?insert@?$_Tree@V?$_Tmap_traits@V?$basic_string@DU?$char_traits@D@std@@V?$allocator@D@2@@std@@V12@U?$less@V?$basic_string@DU?$char_traits@D@std@@V?$allocator@D@2@@std@@@2@V?$allocator@U?$pair@$$CBV?$basic_string@DU?$char_traits@D@std@@V?$allocator@D@2@@std@@V12@@std@@@2@$0A@@std@@@std@@QAE?AViterator@12@V312@ABU?$pair@$$CBV?$basic_string@DU?$char_traits@D@std@@V?$allocator@D@2@@std@@V12@@2@@Z 00422840 f i dependtree:DomElement.obj
 0001:00021a00       ?insert@?$_Tree@V?$_Tmap_traits@W4Property@Wt@@V?$basic_string@DU?$char_traits@D@std@@V?$allocator@D@2@@std@@U?$less@W4Property@Wt@@@4@V?$allocator@U?$pair@$$CBW4Property@Wt@@V?$basic_string@DU?$char_traits@D@std@@V?$allocator@D@2@@std@@@std@@@4@$0A@@std@@@std@@QAE?AViterator@12@V312@ABU?$pair@$$CBW4Property@Wt@@V?$basic_string@DU?$char_traits@D@std@@V?$allocator@D@2@@std@@@2@@Z 00422a00 f i dependtree:DomElement.obj
 0001:00021b70       ?insert@?$_Tree@V?$_Tmap_traits@V?$basic_string@DU?$char_traits@D@std@@V?$allocator@D@2@@std@@U?$pair@V?$basic_string@DU?$char_traits@D@std@@V?$allocator@D@2@@std@@V12@@2@U?$less@V?$basic_string@DU?$char_traits@D@std@@V?$allocator@D@2@@std@@@2@V?$allocator@U?$pair@$$CBV?$basic_string@DU?$char_traits@D@std@@V?$allocator@D@2@@std@@U?$pair@V?$basic_string@DU?$char_traits@D@std@@V?$allocator@D@2@@std@@V12@@2@@std@@@2@$0A@@std@@@std@@QAE?AViterator@12@V312@ABU?$pair@$$CBV?$basic_string@DU?$char_traits@D@std@@V?$allocator@D@2@@std@@U?$pair@V?$basic_string@DU?$char_traits@D@std@@V?$allocator@D@2@@std@@V12@@2@@2@@Z 00422b70 f i dependtree:DomElement.obj
 0001:00021d30       ?_Ufill@?$vector@U?$pair@V?$basic_string@DU?$char_traits@D@std@@V?$allocator@D@2@@std@@PAVDomElement@@@std@@V?$allocator@U?$pair@V?$basic_string@DU?$char_traits@D@std@@V?$allocator@D@2@@std@@PAVDomElement@@@std@@@2@@std@@IAEPAU?$pair@V?$basic_string@DU?$char_traits@D@std@@V?$allocator@D@2@@std@@PAVDomElement@@@2@PAU32@IABU32@@Z 00422d30 f i dependtree:DomElement.obj
 0001:00021d60       ?_Insert_n@?$vector@U?$pair@V?$basic_string@DU?$char_traits@D@std@@V?$allocator@D@2@@std@@PAVDomElement@@@std@@V?$allocator@U?$pair@V?$basic_string@DU?$char_traits@D@std@@V?$allocator@D@2@@std@@PAVDomElement@@@std@@@2@@std@@IAEXViterator@12@IABU?$pair@V?$basic_string@DU?$char_traits@D@std@@V?$allocator@D@2@@std@@PAVDomElement@@@2@@Z 00422d60 f i dependtree:DomElement.obj
 0001:00022020       ??A?$map@V?$basic_string@DU?$char_traits@D@std@@V?$allocator@D@2@@std@@V12@U?$less@V?$basic_string@DU?$char_traits@D@std@@V?$allocator@D@2@@std@@@2@V?$allocator@U?$pair@$$CBV?$basic_string@DU?$char_traits@D@std@@V?$allocator@D@2@@std@@V12@@std@@@2@@std@@QAEAAV?$basic_string@DU?$char_traits@D@std@@V?$allocator@D@2@@1@ABV21@@Z 00423020 f i dependtree:DomElement.obj
 0001:000220d0       ??A?$map@W4Property@Wt@@V?$basic_string@DU?$char_traits@D@std@@V?$allocator@D@2@@std@@U?$less@W4Property@Wt@@@4@V?$allocator@U?$pair@$$CBW4Property@Wt@@V?$basic_string@DU?$char_traits@D@std@@V?$allocator@D@2@@std@@@std@@@4@@std@@QAEAAV?$basic_string@DU?$char_traits@D@std@@V?$allocator@D@2@@1@ABW4Property@Wt@@@Z 004230d0 f i dependtree:DomElement.obj
 0001:000221a0       ??A?$map@V?$basic_string@DU?$char_traits@D@std@@V?$allocator@D@2@@std@@U?$pair@V?$basic_string@DU?$char_traits@D@std@@V?$allocator@D@2@@std@@V12@@2@U?$less@V?$basic_string@DU?$char_traits@D@std@@V?$allocator@D@2@@std@@@2@V?$allocator@U?$pair@$$CBV?$basic_string@DU?$char_traits@D@std@@V?$allocator@D@2@@std@@U?$pair@V?$basic_string@DU?$char_traits@D@std@@V?$allocator@D@2@@std@@V12@@2@@std@@@2@@std@@QAEAAU?$pair@V?$basic_string@DU?$char_traits@D@std@@V?$allocator@D@2@@std@@V12@@1@ABV?$basic_string@DU?$char_traits@D@std@@V?$allocator@D@2@@1@@Z 004231a0 f i dependtree:DomElement.obj
 0001:00022280       ?setAttribute@DomElement@@QAEXV?$basic_string@DU?$char_traits@D@std@@V?$allocator@D@2@@std@@0@Z 00423280 f   dependtree:DomElement.obj
 0001:000222f0       ?removeEventSignal@DomElement@@QAEXV?$basic_string@DU?$char_traits@D@std@@V?$allocator@D@2@@std@@@Z 004232f0 f   dependtree:DomElement.obj
 0001:00022410       ?setEvent@DomElement@@QAEXV?$basic_string@DU?$char_traits@D@std@@V?$allocator@D@2@@std@@0@Z 00423410 f   dependtree:DomElement.obj
 0001:00022540       ?addEvent@DomElement@@QAEXV?$basic_string@DU?$char_traits@D@std@@V?$allocator@D@2@@std@@0@Z 00423540 f   dependtree:DomElement.obj
 0001:000225b0       ?addEventSignal@DomElement@@QAEXV?$basic_string@DU?$char_traits@D@std@@V?$allocator@D@2@@std@@ABVWSignalInstance_@@PBD2@Z 004235b0 f   dependtree:DomElement.obj
 0001:00022a60       ?setProperty@DomElement@@QAEXW4Property@Wt@@V?$basic_string@DU?$char_traits@D@std@@V?$allocator@D@2@@std@@@Z 00423a60 f   dependtree:DomElement.obj
 0001:00022ac0       ?setId@DomElement@@QAEXV?$basic_string@DU?$char_traits@D@std@@V?$allocator@D@2@@std@@_N@Z 00423ac0 f   dependtree:DomElement.obj
 0001:00022b60       ?setId@DomElement@@QAEXPBVWObject@@_N@Z 00423b60 f   dependtree:DomElement.obj
 0001:00022b90       ?push_back@?$vector@U?$pair@V?$basic_string@DU?$char_traits@D@std@@V?$allocator@D@2@@std@@PAVDomElement@@@std@@V?$allocator@U?$pair@V?$basic_string@DU?$char_traits@D@std@@V?$allocator@D@2@@std@@PAVDomElement@@@std@@@2@@std@@QAEXABU?$pair@V?$basic_string@DU?$char_traits@D@std@@V?$allocator@D@2@@std@@PAVDomElement@@@2@@Z 00423b90 f i dependtree:DomElement.obj
 0001:00022c00       ??1DomElement@@QAE@XZ      00423c00 f   dependtree:DomElement.obj
 0001:00022d90       ?addChild@DomElement@@QAEXPAV1@@Z 00423d90 f   dependtree:DomElement.obj
 0001:00022e40       ?setEventSignal@DomElement@@QAEXV?$basic_string@DU?$char_traits@D@std@@V?$allocator@D@2@@std@@ABVWSignalInstance_@@PBD2@Z 00423e40 f   dependtree:DomElement.obj
 0001:00022f90       ??0DomElement@@AAE@W4Mode@0@W4ElementType@0@@Z 00423f90 f   dependtree:DomElement.obj
 0001:00023080       ?createNew@DomElement@@SAPAV1@W4ElementType@1@@Z 00424080 f   dependtree:DomElement.obj
 0001:000230e0       ?getForUpdate@DomElement@@SAPAV1@V?$basic_string@DU?$char_traits@D@std@@V?$allocator@D@2@@std@@W4ElementType@1@@Z 004240e0 f   dependtree:DomElement.obj
 0001:00023170       ?getForUpdate@DomElement@@SAPAV1@PBVWObject@@W4ElementType@1@@Z 00424170 f   dependtree:DomElement.obj
 0001:000231a0       ?createJSStatements@DomElement@@QBE?AVJSVar@@AAVJavaScript@@@Z 004241a0 f   dependtree:DomElement.obj
 0001:00025470       ??0WMessage@@QAE@V?$basic_string@DU?$char_traits@D@std@@V?$allocator@D@2@@std@@@Z 00426470 f   dependtree:WMessage.obj
 0001:000254d0       ?value@WMessage@@QBE?BV?$basic_string@DU?$char_traits@D@std@@V?$allocator@D@2@@std@@XZ 004264d0 f   dependtree:WMessage.obj
 0001:00025500       ?dataChanged@WResource@@QAEXXZ 00426500 f   dependtree:WResource.obj
 0001:00025510       ?triggerSlot@WResource@@MAE_NPAVWObject@@PBVWSlot_@@PAPAX@Z 00426510 f   dependtree:WResource.obj
 0001:00025520       ?undoTriggerSlot@WApplication@@MAE_NPBVWSlot_@@PAPAX@Z 00426520 f   dependtree:WApplication.obj
 0001:00025520       ?undoTriggerSlot@WScrollBar@@MAE_NPBVWSlot_@@PAPAX@Z 00426520 f   dependtree:WScrollBar.obj
 0001:00025520       ?undoTriggerSlot@WResource@@MAE_NPBVWSlot_@@PAPAX@Z 00426520 f   dependtree:WResource.obj
 0001:00025530       ??0WResource@@QAE@XZ       00426530 f   dependtree:WResource.obj
 0001:00025550       ??1WResource@@UAE@XZ       00426550 f   dependtree:WResource.obj
 0001:000255c0       ?decodeResource@WResource@@KAPAV1@V?$basic_string@DU?$char_traits@D@std@@V?$allocator@D@2@@std@@@Z 004265c0 f   dependtree:WResource.obj
 0001:00025680       ??_EWResource@@UAEPAXI@Z   00426680 f i dependtree:WResource.obj
 0001:000256e0       ?generateUrl@WResource@@QBE?BV?$basic_string@DU?$char_traits@D@std@@V?$allocator@D@2@@std@@XZ 004266e0 f   dependtree:WResource.obj
 0001:000258b0       ?buildSlotMap@WResource@@MAEXAAV?$map@V?$basic_string@DU?$char_traits@D@std@@V?$allocator@D@2@@std@@PAVWSlotInstance_@@U?$less@V?$basic_string@DU?$char_traits@D@std@@V?$allocator@D@2@@std@@@2@V?$allocator@U?$pair@$$CBV?$basic_string@DU?$char_traits@D@std@@V?$allocator@D@2@@std@@PAVWSlotInstance_@@@std@@@2@@std@@@Z 004268b0 f   dependtree:WResource.obj
 0001:00025970       ?buildSignalMap@WResource@@MAEXAAV?$map@V?$basic_string@DU?$char_traits@D@std@@V?$allocator@D@2@@std@@PAVWSignalInstance_@@U?$less@V?$basic_string@DU?$char_traits@D@std@@V?$allocator@D@2@@std@@@2@V?$allocator@U?$pair@$$CBV?$basic_string@DU?$char_traits@D@std@@V?$allocator@D@2@@std@@PAVWSignalInstance_@@@std@@@2@@std@@@Z 00426970 f   dependtree:WResource.obj
 0001:00025a30       ??0WLabel@@QAE@PAVWContainerWidget@@@Z 00426a30 f   dependtree:WLabel.obj
 0001:00025a70       ??0WLabel@@QAE@V?$basic_string@DU?$char_traits@D@std@@V?$allocator@D@2@@std@@PAVWContainerWidget@@@Z 00426a70 f   dependtree:WLabel.obj
 0001:00025b40       ??0WLabel@@QAE@ABVWMessage@@PAVWContainerWidget@@@Z 00426b40 f   dependtree:WLabel.obj
 0001:00025be0       ??0WLabel@@QAE@PAVWImage@@PAVWContainerWidget@@@Z 00426be0 f   dependtree:WLabel.obj
 0001:00025c50       ?setBuddy@WLabel@@QAEXPAVWFormWidget@@@Z 00426c50 f   dependtree:WLabel.obj
 0001:00025c90       ?setText@WLabel@@QAEXV?$basic_string@DU?$char_traits@D@std@@V?$allocator@D@2@@std@@@Z 00426c90 f   dependtree:WLabel.obj
 0001:00025d60       ?text@WLabel@@QBE?BV?$basic_string@DU?$char_traits@D@std@@V?$allocator@D@2@@std@@XZ 00426d60 f   dependtree:WLabel.obj
 0001:00025da0       ?setImage@WLabel@@QAEXPAVWImage@@@Z 00426da0 f   dependtree:WLabel.obj
 0001:00025dd0       ?updateDom@WLabel@@MAEXAAVDomElement@@_N@Z 00426dd0 f   dependtree:WLabel.obj
 0001:00025e80       ?createDomElement@WLabel@@MAEPAVDomElement@@XZ 00426e80 f   dependtree:WLabel.obj
 0001:00025ef0       ??1WLabel@@UAE@XZ          00426ef0 f   dependtree:WLabel.obj
 0001:00025f70       ??_EWLabel@@UAEPAXI@Z      00426f70 f i dependtree:WLabel.obj
 0001:00025fd0       ?getDomChanges@WLabel@@MAEXAAV?$vector@PAVDomElement@@V?$allocator@PAVDomElement@@@std@@@std@@@Z 00426fd0 f   dependtree:WLabel.obj
 0001:00026040       ?buildSlotMap@WLabel@@MAEXAAV?$map@V?$basic_string@DU?$char_traits@D@std@@V?$allocator@D@2@@std@@PAVWSlotInstance_@@U?$less@V?$basic_string@DU?$char_traits@D@std@@V?$allocator@D@2@@std@@@2@V?$allocator@U?$pair@$$CBV?$basic_string@DU?$char_traits@D@std@@V?$allocator@D@2@@std@@PAVWSlotInstance_@@@std@@@2@@std@@@Z 00427040 f   dependtree:WLabel.obj
 0001:00026100       ?buildSignalMap@WLabel@@MAEXAAV?$map@V?$basic_string@DU?$char_traits@D@std@@V?$allocator@D@2@@std@@PAVWSignalInstance_@@U?$less@V?$basic_string@DU?$char_traits@D@std@@V?$allocator@D@2@@std@@@2@V?$allocator@U?$pair@$$CBV?$basic_string@DU?$char_traits@D@std@@V?$allocator@D@2@@std@@PAVWSignalInstance_@@@std@@@2@@std@@@Z 00427100 f   dependtree:WLabel.obj
 0001:000261c0       ?setValue@WScrollBar@@QAEXH@Z 004271c0 f   dependtree:WScrollBar.obj
 0001:000261e0       ?triggerSlot@WScrollBar@@MAE_NPAVWObject@@PBVWSlot_@@PAPAX@Z 004271e0 f   dependtree:WScrollBar.obj
 0001:00026220       ?updateDom@WScrollBar@@AAEXAAVDomElement@@_N@Z 00427220 f   dependtree:WScrollBar.obj
 0001:00026550       ?_Insert_n@?$vector@PAVWScrollBar@@V?$allocator@PAVWScrollBar@@@std@@@std@@IAEXViterator@12@IABQAVWScrollBar@@@Z 00427550 f i dependtree:WScrollBar.obj
 0001:00026740       ??0WScrollBar@@AAE@PAVWScrollArea@@W4Orientation@0@@Z 00427740 f   dependtree:WScrollBar.obj
 0001:000267a0       ?unTie@WScrollBar@@SAXPAV1@0@Z 004277a0 f   dependtree:WScrollBar.obj
 0001:00026830       ??1WScrollBar@@EAE@XZ      00427830 f   dependtree:WScrollBar.obj
 0001:000268d0       ??_EWScrollBar@@EAEPAXI@Z  004278d0 f i dependtree:WScrollBar.obj
 0001:00026930       ?tie@WScrollBar@@SAXPAV1@0@Z 00427930 f   dependtree:WScrollBar.obj
 0001:000269e0       ?buildSlotMap@WScrollBar@@MAEXAAV?$map@V?$basic_string@DU?$char_traits@D@std@@V?$allocator@D@2@@std@@PAVWSlotInstance_@@U?$less@V?$basic_string@DU?$char_traits@D@std@@V?$allocator@D@2@@std@@@2@V?$allocator@U?$pair@$$CBV?$basic_string@DU?$char_traits@D@std@@V?$allocator@D@2@@std@@PAVWSlotInstance_@@@std@@@2@@std@@@Z 004279e0 f   dependtree:WScrollBar.obj
 0001:00026aa0       ?buildSignalMap@WScrollBar@@MAEXAAV?$map@V?$basic_string@DU?$char_traits@D@std@@V?$allocator@D@2@@std@@PAVWSignalInstance_@@U?$less@V?$basic_string@DU?$char_traits@D@std@@V?$allocator@D@2@@std@@@2@V?$allocator@U?$pair@$$CBV?$basic_string@DU?$char_traits@D@std@@V?$allocator@D@2@@std@@PAVWSignalInstance_@@@std@@@2@@std@@@Z 00427aa0 f   dependtree:WScrollBar.obj
 0001:00026b60       ?name@WSignal_@@QBE?BV?$basic_string@DU?$char_traits@D@std@@V?$allocator@D@2@@std@@XZ 00427b60 f i dependformwt.obj
 0001:00026b60       ?name@JSVar@@QAE?BV?$basic_string@DU?$char_traits@D@std@@V?$allocator@D@2@@std@@XZ 00427b60 f i dependtree:DomElement.obj
 0001:00026b60       ?path@WMessageResources@@QBE?BV?$basic_string@DU?$char_traits@D@std@@V?$allocator@D@2@@std@@XZ 00427b60 f i dependtree:WMessageResourceBundle.obj
 0001:00026b60       ?key@WMessage@@QBE?BV?$basic_string@DU?$char_traits@D@std@@V?$allocator@D@2@@std@@XZ 00427b60 f i depend.obj
 0001:00026b60       ?name@WSlot_@@QBE?BV?$basic_string@DU?$char_traits@D@std@@V?$allocator@D@2@@std@@XZ 00427b60 f i dependformwt.obj
 0001:00026b80       ?getValue@WMessageResourceBundle@@QBE?AV?$basic_string@DU?$char_traits@D@std@@V?$allocator@D@2@@std@@ABVWMessage@@@Z 00427b80 f   dependtree:WMessageResourceBundle.obj
 0001:00026ca0       ?refresh@WMessageResourceBundle@@QAEXXZ 00427ca0 f   dependtree:WMessageResourceBundle.obj
 0001:00026cd0       ??0WMessageResourceBundle@@AAE@XZ 00427cd0 f   dependtree:WMessageResourceBundle.obj
 0001:00026ce0       ?use@WMessageResourceBundle@@QAEXV?$basic_string@DU?$char_traits@D@std@@V?$allocator@D@2@@std@@@Z 00427ce0 f   dependtree:WMessageResourceBundle.obj
 0001:00026e10       ??1WMessageResources@@QAE@XZ 00427e10 f i dependtree:WMessageResourceBundle.obj
 0001:00026ec0       ??0WMessageResources@@QAE@ABV0@@Z 00427ec0 f i dependtree:WMessageResourceBundle.obj
 0001:00026f30       ??0JSVar@@QAE@ABV0@@Z      00427f30 f   dependtree:JavaScript.obj
 0001:00026f30       ??0WMessage@@QAE@ABV0@@Z   00427f30 f   depend.obj
 0001:00026f50       ??0JavaScript@@QAE@XZ      00427f50 f   dependtree:JavaScript.obj
 0001:00026fa0       ?addStatement@JavaScript@@QAEXV?$basic_string@DU?$char_traits@D@std@@V?$allocator@D@2@@std@@@Z 00427fa0 f   dependtree:JavaScript.obj
 0001:00026ff0       ??0JSVar@@AAE@XZ           00427ff0 f   dependtree:JavaScript.obj
 0001:00027070       ?declareVar@JavaScript@@QAE?AVJSVar@@V?$basic_string@DU?$char_traits@D@std@@V?$allocator@D@2@@std@@@Z 00428070 f   dependtree:JavaScript.obj
 0001:00027220       ?getTempFunctionName@JavaScript@@QAE?BV?$basic_string@DU?$char_traits@D@std@@V?$allocator@D@2@@std@@XZ 00428220 f   dependtree:JavaScript.obj
 0001:000272b0       ??_EWLineEdit@@UAEPAXI@Z   004282b0 f i dependtree:WLineEdit.obj
 0001:00027310       ??0WLineEdit@@QAE@PAVWContainerWidget@@@Z 00428310 f   dependtree:WLineEdit.obj
 0001:000273a0       ??0WLineEdit@@QAE@V?$basic_string@DU?$char_traits@D@std@@V?$allocator@D@2@@std@@PAVWContainerWidget@@@Z 004283a0 f   dependtree:WLineEdit.obj
 0001:00027450       ?setText@WLineEdit@@QAEXV?$basic_string@DU?$char_traits@D@std@@V?$allocator@D@2@@std@@@Z 00428450 f   dependtree:WLineEdit.obj
 0001:000274c0       ?setTextSize@WLineEdit@@QAEXH@Z 004284c0 f   dependtree:WLineEdit.obj
 0001:000274e0       ?setEchoMode@WLineEdit@@QAEXW4EchoMode@1@@Z 004284e0 f   dependtree:WLineEdit.obj
 0001:00027500       ?createDomElement@WLineEdit@@MAEPAVDomElement@@XZ 00428500 f   dependtree:WLineEdit.obj
 0001:000275b0       ?setFormData@WLineEdit@@MAEXPBDH0@Z 004285b0 f   dependtree:WLineEdit.obj
 0001:000275d0       ?triggerSlot@WLineEdit@@MAE_NPAVWObject@@PBVWSlot_@@PAPAX@Z 004285d0 f   dependtree:WLineEdit.obj
 0001:00027620       ?updateDom@WLineEdit@@MAEXAAVDomElement@@_N@Z 00428620 f   dependtree:WLineEdit.obj
 0001:00027780       ?buildSlotMap@WLineEdit@@MAEXAAV?$map@V?$basic_string@DU?$char_traits@D@std@@V?$allocator@D@2@@std@@PAVWSlotInstance_@@U?$less@V?$basic_string@DU?$char_traits@D@std@@V?$allocator@D@2@@std@@@2@V?$allocator@U?$pair@$$CBV?$basic_string@DU?$char_traits@D@std@@V?$allocator@D@2@@std@@PAVWSlotInstance_@@@std@@@2@@std@@@Z 00428780 f   dependtree:WLineEdit.obj
 0001:00027840       ?buildSignalMap@WLineEdit@@MAEXAAV?$map@V?$basic_string@DU?$char_traits@D@std@@V?$allocator@D@2@@std@@PAVWSignalInstance_@@U?$less@V?$basic_string@DU?$char_traits@D@std@@V?$allocator@D@2@@std@@@2@V?$allocator@U?$pair@$$CBV?$basic_string@DU?$char_traits@D@std@@V?$allocator@D@2@@std@@PAVWSignalInstance_@@@std@@@2@@std@@@Z 00428840 f   dependtree:WLineEdit.obj
 0001:00027900       ??_EWAbstractToggleButton@@UAEPAXI@Z 00428900 f i dependtree:WAbstractToggleButton.obj
 0001:00027960       ?checked@WAbstractToggleButton@@QAEXXZ 00428960 f   dependtree:WAbstractToggleButton.obj
 0001:00027970       ?unChecked@WAbstractToggleButton@@QAEXXZ 00428970 f   dependtree:WAbstractToggleButton.obj
 0001:00027980       ??0WAbstractToggleButton@@QAE@PAVWContainerWidget@@@Z 00428980 f   dependtree:WAbstractToggleButton.obj
 0001:00027a10       ??0WAbstractToggleButton@@QAE@V?$basic_string@DU?$char_traits@D@std@@V?$allocator@D@2@@std@@PAVWContainerWidget@@@Z 00428a10 f   dependtree:WAbstractToggleButton.obj
 0001:00027ad0       ??0WAbstractToggleButton@@QAE@ABVWMessage@@PAVWContainerWidget@@@Z 00428ad0 f   dependtree:WAbstractToggleButton.obj
 0001:00027b60       ?setText@WAbstractToggleButton@@QAEXV?$basic_string@DU?$char_traits@D@std@@V?$allocator@D@2@@std@@@Z 00428b60 f   dependtree:WAbstractToggleButton.obj
 0001:00027bd0       ?setChecked@WAbstractToggleButton@@QAEX_N@Z 00428bd0 f   dependtree:WAbstractToggleButton.obj
 0001:00027c20       ?setChecked@WAbstractToggleButton@@QAEXXZ 00428c20 f   dependtree:WAbstractToggleButton.obj
 0001:00027c60       ?setUnChecked@WAbstractToggleButton@@QAEXXZ 00428c60 f   dependtree:WAbstractToggleButton.obj
 0001:00027ca0       ?undoSetUnChecked@WAbstractToggleButton@@AAEXXZ 00428ca0 f   dependtree:WAbstractToggleButton.obj
 0001:00027ca0       ?undoSetChecked@WAbstractToggleButton@@AAEXXZ 00428ca0 f   dependtree:WAbstractToggleButton.obj
 0001:00027ce0       ?setFormData@WAbstractToggleButton@@MAEXPBDH0@Z 00428ce0 f   dependtree:WAbstractToggleButton.obj
 0001:00027d70       ?setNoFormData@WAbstractToggleButton@@MAEXXZ 00428d70 f   dependtree:WAbstractToggleButton.obj
 0001:00027d90       ?triggerSlot@WAbstractToggleButton@@MAE_NPAVWObject@@PBVWSlot_@@PAPAX@Z 00428d90 f   dependtree:WAbstractToggleButton.obj
 0001:00027e60       ?undoTriggerSlot@WAbstractToggleButton@@MAE_NPBVWSlot_@@PAPAX@Z 00428e60 f   dependtree:WAbstractToggleButton.obj
 0001:00027ee0       ?updateDom@WAbstractToggleButton@@MAEXAAVDomElement@@_N@Z 00428ee0 f   dependtree:WAbstractToggleButton.obj
 0001:000281d0       ?buildSlotMap@WAbstractToggleButton@@MAEXAAV?$map@V?$basic_string@DU?$char_traits@D@std@@V?$allocator@D@2@@std@@PAVWSlotInstance_@@U?$less@V?$basic_string@DU?$char_traits@D@std@@V?$allocator@D@2@@std@@@2@V?$allocator@U?$pair@$$CBV?$basic_string@DU?$char_traits@D@std@@V?$allocator@D@2@@std@@PAVWSlotInstance_@@@std@@@2@@std@@@Z 004291d0 f   dependtree:WAbstractToggleButton.obj
 0001:00028290       ?buildSignalMap@WAbstractToggleButton@@MAEXAAV?$map@V?$basic_string@DU?$char_traits@D@std@@V?$allocator@D@2@@std@@PAVWSignalInstance_@@U?$less@V?$basic_string@DU?$char_traits@D@std@@V?$allocator@D@2@@std@@@2@V?$allocator@U?$pair@$$CBV?$basic_string@DU?$char_traits@D@std@@V?$allocator@D@2@@std@@PAVWSignalInstance_@@@std@@@2@@std@@@Z 00429290 f   dependtree:WAbstractToggleButton.obj
 0001:00028350       ??_EWCheckBox@@UAEPAXI@Z   00429350 f i dependtree:WCheckBox.obj
 0001:000283b0       ?triggerSlot@WCheckBox@@MAE_NPAVWObject@@PBVWSlot_@@PAPAX@Z 004293b0 f   dependtree:WCheckBox.obj
 0001:000283c0       ?undoTriggerSlot@WCheckBox@@MAE_NPBVWSlot_@@PAPAX@Z 004293c0 f   dependtree:WCheckBox.obj
 0001:000283d0       ??0WCheckBox@@QAE@PAVWContainerWidget@@@Z 004293d0 f   dependtree:WCheckBox.obj
 0001:00028430       ??0WCheckBox@@QAE@V?$basic_string@DU?$char_traits@D@std@@V?$allocator@D@2@@std@@PAVWContainerWidget@@@Z 00429430 f   dependtree:WCheckBox.obj
 0001:000284f0       ?setParent@WCheckBox@@MAEXPAVWWidget@@@Z 004294f0 f   dependtree:WCheckBox.obj
 0001:00028530       ?SetCheck@WCheckBox@@QAEX_N@Z 00429530 f   dependtree:WCheckBox.obj
 0001:00028550       ?SetId@WCheckBox@@QAEXPAD@Z 00429550 f   dependtree:WCheckBox.obj
 0001:00028560       ?updateDom@WCheckBox@@MAEXAAVDomElement@@_N@Z 00429560 f   dependtree:WCheckBox.obj
 0001:00028590       ?createDomElement@WCheckBox@@MAEPAVDomElement@@XZ 00429590 f   dependtree:WCheckBox.obj
 0001:00028680       ?getDomChanges@WCheckBox@@UAEXAAV?$vector@PAVDomElement@@V?$allocator@PAVDomElement@@@std@@@std@@@Z 00429680 f   dependtree:WCheckBox.obj
 0001:00028680       ?getDomChanges@WPushButton@@MAEXAAV?$vector@PAVDomElement@@V?$allocator@PAVDomElement@@@std@@@std@@@Z 00429680 f   dependtree:WPushButton.obj
 0001:00028680       ?getDomChanges@WLineEdit@@MAEXAAV?$vector@PAVDomElement@@V?$allocator@PAVDomElement@@@std@@@std@@@Z 00429680 f   dependtree:WLineEdit.obj
 0001:000286c0       ?buildSlotMap@WCheckBox@@MAEXAAV?$map@V?$basic_string@DU?$char_traits@D@std@@V?$allocator@D@2@@std@@PAVWSlotInstance_@@U?$less@V?$basic_string@DU?$char_traits@D@std@@V?$allocator@D@2@@std@@@2@V?$allocator@U?$pair@$$CBV?$basic_string@DU?$char_traits@D@std@@V?$allocator@D@2@@std@@PAVWSlotInstance_@@@std@@@2@@std@@@Z 004296c0 f   dependtree:WCheckBox.obj
 0001:00028780       ?buildSignalMap@WCheckBox@@MAEXAAV?$map@V?$basic_string@DU?$char_traits@D@std@@V?$allocator@D@2@@std@@PAVWSignalInstance_@@U?$less@V?$basic_string@DU?$char_traits@D@std@@V?$allocator@D@2@@std@@@2@V?$allocator@U?$pair@$$CBV?$basic_string@DU?$char_traits@D@std@@V?$allocator@D@2@@std@@PAVWSignalInstance_@@@std@@@2@@std@@@Z 00429780 f   dependtree:WCheckBox.obj
 0001:00028840       ?activated@WComboBox@@QAEXH@Z 00429840 f   dependtree:WComboBox.obj
 0001:00028860       ?activated@WComboBox@@QAEXV?$basic_string@DU?$char_traits@D@std@@V?$allocator@D@2@@std@@@Z 00429860 f   dependtree:WComboBox.obj
 0001:000288c0       ?undoTriggerSlot@WComboBox@@MAE_NPBVWSlot_@@PAPAX@Z 004298c0 f   dependtree:WComboBox.obj
 0001:000288c0       ?undoTriggerSlot@WPushButton@@MAE_NPBVWSlot_@@PAPAX@Z 004298c0 f   dependtree:WPushButton.obj
 0001:000288c0       ?undoTriggerSlot@WLineEdit@@MAE_NPBVWSlot_@@PAPAX@Z 004298c0 f   dependtree:WLineEdit.obj
 0001:000288d0       ?currentIndex@WComboBox@@QBEHXZ 004298d0 f   dependtree:WComboBox.obj
 0001:000288e0       ?createDomElement@WComboBox@@MAEPAVDomElement@@XZ 004298e0 f   dependtree:WComboBox.obj
 0001:00028910       ??5?$lexical_stream@V?$basic_string@DU?$char_traits@D@std@@V?$allocator@D@2@@std@@I@detail@boost@@QAE_NAAV?$basic_string@DU?$char_traits@D@std@@V?$allocator@D@2@@std@@@Z 00429910 f i dependtree:WComboBox.obj
 0001:00028970       ?count@WComboBox@@QBEHXZ   00429970 f   dependtree:WComboBox.obj
 0001:000289a0       ?setCurrentIndex@WComboBox@@QAEXH@Z 004299a0 f   dependtree:WComboBox.obj
 0001:00028a10       ??$lexical_cast@V?$basic_string@DU?$char_traits@D@std@@V?$allocator@D@2@@std@@I@boost@@YA?AV?$basic_string@DU?$char_traits@D@std@@V?$allocator@D@2@@std@@ABI@Z 00429a10 f i dependtree:WComboBox.obj
 0001:00028b70       ??$lexical_cast@HV?$basic_string@DU?$char_traits@D@std@@V?$allocator@D@2@@std@@@boost@@YAHABV?$basic_string@DU?$char_traits@D@std@@V?$allocator@D@2@@std@@@Z 00429b70 f i dependtree:WComboBox.obj
 0001:00028ca0       ?currentText@WComboBox@@QBE?BV?$basic_string@DU?$char_traits@D@std@@V?$allocator@D@2@@std@@XZ 00429ca0 f   dependtree:WComboBox.obj
 0001:00028cf0       ?itemText@WComboBox@@QBE?BV?$basic_string@DU?$char_traits@D@std@@V?$allocator@D@2@@std@@H@Z 00429cf0 f   dependtree:WComboBox.obj
 0001:00028d20       ?setCurrentIndexByStr@WComboBox@@QAEXV?$basic_string@DU?$char_traits@D@std@@V?$allocator@D@2@@std@@@Z 00429d20 f   dependtree:WComboBox.obj
 0001:00028e40       ?setItemText@WComboBox@@QAEXHV?$basic_string@DU?$char_traits@D@std@@V?$allocator@D@2@@std@@@Z 00429e40 f   dependtree:WComboBox.obj
 0001:00028eb0       ?propagateChange@WComboBox@@AAEXXZ 00429eb0 f   dependtree:WComboBox.obj
 0001:00028f10       ?updateDom@WComboBox@@MAEXAAVDomElement@@_N@Z 00429f10 f   dependtree:WComboBox.obj
 0001:00029100       ?setFormData@WComboBox@@MAEXPBDH0@Z 0042a100 f   dependtree:WComboBox.obj
 0001:000291a0       ?getDomChanges@WComboBox@@MAEXAAV?$vector@PAVDomElement@@V?$allocator@PAVDomElement@@@std@@@std@@@Z 0042a1a0 f   dependtree:WComboBox.obj
 0001:000291e0       ?erase@?$vector@V?$basic_string@DU?$char_traits@D@std@@V?$allocator@D@2@@std@@V?$allocator@V?$basic_string@DU?$char_traits@D@std@@V?$allocator@D@2@@std@@@2@@std@@QAE?AViterator@12@V312@@Z 0042a1e0 f i dependtree:WComboBox.obj
 0001:00029230       ??_EWComboBox@@UAEPAXI@Z   0042a230 f i dependtree:WComboBox.obj
 0001:00029290       ?buildSlotMap@WComboBox@@MAEXAAV?$map@V?$basic_string@DU?$char_traits@D@std@@V?$allocator@D@2@@std@@PAVWSlotInstance_@@U?$less@V?$basic_string@DU?$char_traits@D@std@@V?$allocator@D@2@@std@@@2@V?$allocator@U?$pair@$$CBV?$basic_string@DU?$char_traits@D@std@@V?$allocator@D@2@@std@@PAVWSlotInstance_@@@std@@@2@@std@@@Z 0042a290 f   dependtree:WComboBox.obj
 0001:00029350       ?buildSignalMap@WComboBox@@MAEXAAV?$map@V?$basic_string@DU?$char_traits@D@std@@V?$allocator@D@2@@std@@PAVWSignalInstance_@@U?$less@V?$basic_string@DU?$char_traits@D@std@@V?$allocator@D@2@@std@@@2@V?$allocator@U?$pair@$$CBV?$basic_string@DU?$char_traits@D@std@@V?$allocator@D@2@@std@@PAVWSignalInstance_@@@std@@@2@@std@@@Z 0042a350 f   dependtree:WComboBox.obj
 0001:00029410       ??0WComboBox@@QAE@PAVWContainerWidget@@@Z 0042a410 f   dependtree:WComboBox.obj
 0001:000294a0       ?removeItem@WComboBox@@QAEXH@Z 0042a4a0 f   dependtree:WComboBox.obj
 0001:00029520       ?clear@WComboBox@@QAEXXZ   0042a520 f   dependtree:WComboBox.obj
 0001:00029540       ?triggerSlot@WComboBox@@MAE_NPAVWObject@@PBVWSlot_@@PAPAX@Z 0042a540 f   dependtree:WComboBox.obj
 0001:000295b0       ?insertItem@WComboBox@@QAEXHV?$basic_string@DU?$char_traits@D@std@@V?$allocator@D@2@@std@@@Z 0042a5b0 f   dependtree:WComboBox.obj
 0001:00029630       ?addItem@WComboBox@@QAEXV?$basic_string@DU?$char_traits@D@std@@V?$allocator@D@2@@std@@@Z 0042a630 f   dependtree:WComboBox.obj
 0001:000296c0       ??_EWBreak@@UAEPAXI@Z      0042a6c0 f i dependtree:WBreak.obj
 0001:00029720       ?triggerSlot@WBreak@@MAE_NPAVWObject@@PBVWSlot_@@PAPAX@Z 0042a720 f   dependtree:WBreak.obj
 0001:00029720       ?triggerSlot@WScrollArea@@MAE_NPAVWObject@@PBVWSlot_@@PAPAX@Z 0042a720 f   dependtree:WScrollArea.obj
 0001:00029730       ?undoTriggerSlot@WBreak@@MAE_NPBVWSlot_@@PAPAX@Z 0042a730 f   dependtree:WBreak.obj
 0001:00029730       ?undoTriggerSlot@WInteractWidget@@MAE_NPBVWSlot_@@PAPAX@Z 0042a730 f   dependtree:WInteractWidget.obj
 0001:00029730       ?undoTriggerSlot@WScrollArea@@MAE_NPBVWSlot_@@PAPAX@Z 0042a730 f   dependtree:WScrollArea.obj
 0001:00029740       ??0WBreak@@QAE@PAVWContainerWidget@@@Z 0042a740 f   dependtree:WBreak.obj
 0001:00029760       ?updateDom@WBreak@@MAEXAAVDomElement@@_N@Z 0042a760 f   dependtree:WBreak.obj
 0001:00029780       ?createDomElement@WBreak@@MAEPAVDomElement@@XZ 0042a780 f   dependtree:WBreak.obj
 0001:000297b0       ?getDomChanges@WBreak@@MAEXAAV?$vector@PAVDomElement@@V?$allocator@PAVDomElement@@@std@@@std@@@Z 0042a7b0 f   dependtree:WBreak.obj
 0001:000297f0       ?buildSlotMap@WBreak@@MAEXAAV?$map@V?$basic_string@DU?$char_traits@D@std@@V?$allocator@D@2@@std@@PAVWSlotInstance_@@U?$less@V?$basic_string@DU?$char_traits@D@std@@V?$allocator@D@2@@std@@@2@V?$allocator@U?$pair@$$CBV?$basic_string@DU?$char_traits@D@std@@V?$allocator@D@2@@std@@PAVWSlotInstance_@@@std@@@2@@std@@@Z 0042a7f0 f   dependtree:WBreak.obj
 0001:000298b0       ?buildSignalMap@WBreak@@MAEXAAV?$map@V?$basic_string@DU?$char_traits@D@std@@V?$allocator@D@2@@std@@PAVWSignalInstance_@@U?$less@V?$basic_string@DU?$char_traits@D@std@@V?$allocator@D@2@@std@@@2@V?$allocator@U?$pair@$$CBV?$basic_string@DU?$char_traits@D@std@@V?$allocator@D@2@@std@@PAVWSignalInstance_@@@std@@@2@@std@@@Z 0042a8b0 f   dependtree:WBreak.obj
 0001:00029970       ??_EWSVLinkText@@UAEPAXI@Z 0042a970 f i dependtree:WSVLinkText.obj
 0001:000299d0       ?triggerSlot@WContainerWidget@@MAE_NPAVWObject@@PBVWSlot_@@PAPAX@Z 0042a9d0 f   dependtree:WContainerWidget.obj
 0001:000299d0       ?triggerSlot@WText@@MAE_NPAVWObject@@PBVWSlot_@@PAPAX@Z 0042a9d0 f   dependtree:WText.obj
 0001:000299d0       ?triggerSlot@WSVLinkText@@MAE_NPAVWObject@@PBVWSlot_@@PAPAX@Z 0042a9d0 f   dependtree:WSVLinkText.obj
 0001:000299d0       ?triggerSlot@WLabel@@MAE_NPAVWObject@@PBVWSlot_@@PAPAX@Z 0042a9d0 f   dependtree:WLabel.obj
 0001:000299d0       ?triggerSlot@WTable@@MAE_NPAVWObject@@PBVWSlot_@@PAPAX@Z 0042a9d0 f   dependtree:WTable.obj
 0001:000299e0       ?undoTriggerSlot@WTable@@MAE_NPBVWSlot_@@PAPAX@Z 0042a9e0 f   dependtree:WTable.obj
 0001:000299e0       ?undoTriggerSlot@WContainerWidget@@MAE_NPBVWSlot_@@PAPAX@Z 0042a9e0 f   dependtree:WContainerWidget.obj
 0001:000299e0       ?undoTriggerSlot@WSVLinkText@@MAE_NPBVWSlot_@@PAPAX@Z 0042a9e0 f   dependtree:WSVLinkText.obj
 0001:000299e0       ?undoTriggerSlot@WText@@MAE_NPBVWSlot_@@PAPAX@Z 0042a9e0 f   dependtree:WText.obj
 0001:000299e0       ?undoTriggerSlot@WLabel@@MAE_NPBVWSlot_@@PAPAX@Z 0042a9e0 f   dependtree:WLabel.obj
 0001:000299e0       ?undoTriggerSlot@WImage@@MAE_NPBVWSlot_@@PAPAX@Z 0042a9e0 f   dependtree:WImage.obj
 0001:000299f0       ?initStyle@WSVLinkText@@QAEXV?$basic_string@DU?$char_traits@D@std@@V?$allocator@D@2@@std@@0@Z 0042a9f0 f   dependtree:WSVLinkText.obj
 0001:00029aa0       ?updateDom@WSVLinkText@@MAEXAAVDomElement@@_N@Z 0042aaa0 f   dependtree:WSVLinkText.obj
 0001:00029ab0       ?refresh@WSVLinkText@@UAEXXZ 0042aab0 f   dependtree:WSVLinkText.obj
 0001:00029b90       ?setSelfJs@WSVLinkText@@QAEXV?$basic_string@DU?$char_traits@D@std@@V?$allocator@D@2@@std@@@Z 0042ab90 f   dependtree:WSVLinkText.obj
 0001:00029be0       ??0WSVLinkText@@QAE@PAVWContainerWidget@@@Z 0042abe0 f   dependtree:WSVLinkText.obj
 0001:00029c70       ??0WSVLinkText@@QAE@V?$basic_string@DU?$char_traits@D@std@@V?$allocator@D@2@@std@@PAVWContainerWidget@@@Z 0042ac70 f   dependtree:WSVLinkText.obj
 0001:00029d40       ??0WSVLinkText@@QAE@ABVWMessage@@PAVWContainerWidget@@@Z 0042ad40 f   dependtree:WSVLinkText.obj
 0001:00029dd0       ?getDomChanges@WSVLinkText@@MAEXAAV?$vector@PAVDomElement@@V?$allocator@PAVDomElement@@@std@@@std@@@Z 0042add0 f   dependtree:WSVLinkText.obj
 0001:00029dd0       ?getDomChanges@WText@@MAEXAAV?$vector@PAVDomElement@@V?$allocator@PAVDomElement@@@std@@@std@@@Z 0042add0 f   dependtree:WText.obj
 0001:00029e10       ?buildSlotMap@WSVLinkText@@MAEXAAV?$map@V?$basic_string@DU?$char_traits@D@std@@V?$allocator@D@2@@std@@PAVWSlotInstance_@@U?$less@V?$basic_string@DU?$char_traits@D@std@@V?$allocator@D@2@@std@@@2@V?$allocator@U?$pair@$$CBV?$basic_string@DU?$char_traits@D@std@@V?$allocator@D@2@@std@@PAVWSlotInstance_@@@std@@@2@@std@@@Z 0042ae10 f   dependtree:WSVLinkText.obj
 0001:00029ed0       ?buildSignalMap@WSVLinkText@@MAEXAAV?$map@V?$basic_string@DU?$char_traits@D@std@@V?$allocator@D@2@@std@@PAVWSignalInstance_@@U?$less@V?$basic_string@DU?$char_traits@D@std@@V?$allocator@D@2@@std@@@2@V?$allocator@U?$pair@$$CBV?$basic_string@DU?$char_traits@D@std@@V?$allocator@D@2@@std@@PAVWSignalInstance_@@@std@@@2@@std@@@Z 0042aed0 f   dependtree:WSVLinkText.obj
 0001:00029f90       ?collapse@WTreeNode@@QAEXXZ 0042af90 f   dependtree:WTreeNode.obj
 0001:00029fc0       ?expand@WTreeNode@@QAEXXZ  0042afc0 f   dependtree:WTreeNode.obj
 0001:0002a0e0       ?SelItem@WTreeNode@@QAEXXZ 0042b0e0 f   dependtree:WTreeNode.obj
 0001:0002a110       ?UnSelItem@WTreeNode@@QAEXXZ 0042b110 f   dependtree:WTreeNode.obj
 0001:0002a140       ?OnRightClick@WTreeNode@@AAEXXZ 0042b140 f   dependtree:WTreeNode.obj
 0001:0002a160       ?select@WTreeNode@@QAEXXZ  0042b160 f   dependtree:WTreeNode.obj
 0001:0002a180       ?undoCollapse@WTreeNode@@AAEXXZ 0042b180 f   dependtree:WTreeNode.obj
 0001:0002a1e0       ?undoExpand@WTreeNode@@AAEXXZ 0042b1e0 f   dependtree:WTreeNode.obj
 0001:0002a220       ?undoSelect@WTreeNode@@AAEXXZ 0042b220 f   dependtree:WTreeNode.obj
 0001:0002a230       ?adjustExpandIcon@WTreeNode@@AAEXXZ 0042b230 f   dependtree:WTreeNode.obj
 0001:0002a2b0       ?_Buynode@?$_Tree@V?$_Tmap_traits@V?$basic_string@DU?$char_traits@D@std@@V?$allocator@D@2@@std@@PAVWCheckBox@@U?$less@V?$basic_string@DU?$char_traits@D@std@@V?$allocator@D@2@@std@@@2@V?$allocator@U?$pair@$$CBV?$basic_string@DU?$char_traits@D@std@@V?$allocator@D@2@@std@@PAVWCheckBox@@@std@@@2@$0A@@std@@@std@@IAEPAU_Node@?$_Tree_nod@V?$_Tmap_traits@V?$basic_string@DU?$char_traits@D@std@@V?$allocator@D@2@@std@@PAVWCheckBox@@U?$less@V?$basic_string@DU?$char_traits@D@std@@V?$allocator@D@2@@std@@@2@V?$allocator@U?$pair@$$CBV?$basic_string@DU?$char_traits@D@std@@V?$allocator@D@2@@std@@PAVWCheckBox@@@std@@@2@$0A@@std@@@2@XZ 0042b2b0 f i dependtree:CheckBoxTreeView.obj
 0001:0002a2b0       ?_Buynode@?$_Tree@V?$_Tmap_traits@V?$basic_string@DU?$char_traits@D@std@@V?$allocator@D@2@@std@@PAVWSignalInstance_@@U?$less@V?$basic_string@DU?$char_traits@D@std@@V?$allocator@D@2@@std@@@2@V?$allocator@U?$pair@$$CBV?$basic_string@DU?$char_traits@D@std@@V?$allocator@D@2@@std@@PAVWSignalInstance_@@@std@@@2@$0A@@std@@@std@@IAEPAU_Node@?$_Tree_nod@V?$_Tmap_traits@V?$basic_string@DU?$char_traits@D@std@@V?$allocator@D@2@@std@@PAVWSignalInstance_@@U?$less@V?$basic_string@DU?$char_traits@D@std@@V?$allocator@D@2@@std@@@2@V?$allocator@U?$pair@$$CBV?$basic_string@DU?$char_traits@D@std@@V?$allocator@D@2@@std@@PAVWSignalInstance_@@@std@@@2@$0A@@std@@@2@XZ 0042b2b0 f i dependtree:WObject.obj
 0001:0002a2b0       ?_Buynode@?$_Tree@V?$_Tmap_traits@V?$basic_string@DU?$char_traits@D@std@@V?$allocator@D@2@@std@@_NU?$less@V?$basic_string@DU?$char_traits@D@std@@V?$allocator@D@2@@std@@@2@V?$allocator@U?$pair@$$CBV?$basic_string@DU?$char_traits@D@std@@V?$allocator@D@2@@std@@_N@std@@@2@$0A@@std@@@std@@IAEPAU_Node@?$_Tree_nod@V?$_Tmap_traits@V?$basic_string@DU?$char_traits@D@std@@V?$allocator@D@2@@std@@_NU?$less@V?$basic_string@DU?$char_traits@D@std@@V?$allocator@D@2@@std@@@2@V?$allocator@U?$pair@$$CBV?$basic_string@DU?$char_traits@D@std@@V?$allocator@D@2@@std@@_N@std@@@2@$0A@@std@@@2@XZ 0042b2b0 f i dependtree:WTreeNode.obj
 0001:0002a2b0       ?_Buynode@?$_Tree@V?$_Tmap_traits@V?$basic_string@DU?$char_traits@D@std@@V?$allocator@D@2@@std@@PAVWSlotInstance_@@U?$less@V?$basic_string@DU?$char_traits@D@std@@V?$allocator@D@2@@std@@@2@V?$allocator@U?$pair@$$CBV?$basic_string@DU?$char_traits@D@std@@V?$allocator@D@2@@std@@PAVWSlotInstance_@@@std@@@2@$0A@@std@@@std@@IAEPAU_Node@?$_Tree_nod@V?$_Tmap_traits@V?$basic_string@DU?$char_traits@D@std@@V?$allocator@D@2@@std@@PAVWSlotInstance_@@U?$less@V?$basic_string@DU?$char_traits@D@std@@V?$allocator@D@2@@std@@@2@V?$allocator@U?$pair@$$CBV?$basic_string@DU?$char_traits@D@std@@V?$allocator@D@2@@std@@PAVWSlotInstance_@@@std@@@2@$0A@@std@@@2@XZ 0042b2b0 f i dependtree:WObject.obj
 0001:0002a2b0       ?_Buynode@?$_Tree@V?$_Tmap_traits@W4Property@Wt@@V?$basic_string@DU?$char_traits@D@std@@V?$allocator@D@2@@std@@U?$less@W4Property@Wt@@@4@V?$allocator@U?$pair@$$CBW4Property@Wt@@V?$basic_string@DU?$char_traits@D@std@@V?$allocator@D@2@@std@@@std@@@4@$0A@@std@@@std@@IAEPAU_Node@?$_Tree_nod@V?$_Tmap_traits@W4Property@Wt@@V?$basic_string@DU?$char_traits@D@std@@V?$allocator@D@2@@std@@U?$less@W4Property@Wt@@@4@V?$allocator@U?$pair@$$CBW4Property@Wt@@V?$basic_string@DU?$char_traits@D@std@@V?$allocator@D@2@@std@@@std@@@4@$0A@@std@@@2@XZ 0042b2b0 f i dependtree:WWebWidget.obj
 0001:0002a2b0       ?_Buynode@?$_Tree@V?$_Tmap_traits@V?$basic_string@DU?$char_traits@D@std@@V?$allocator@D@2@@std@@PAVWCssRule@@U?$less@V?$basic_string@DU?$char_traits@D@std@@V?$allocator@D@2@@std@@@2@V?$allocator@U?$pair@$$CBV?$basic_string@DU?$char_traits@D@std@@V?$allocator@D@2@@std@@PAVWCssRule@@@std@@@2@$0A@@std@@@std@@IAEPAU_Node@?$_Tree_nod@V?$_Tmap_traits@V?$basic_string@DU?$char_traits@D@std@@V?$allocator@D@2@@std@@PAVWCssRule@@U?$less@V?$basic_string@DU?$char_traits@D@std@@V?$allocator@D@2@@std@@@2@V?$allocator@U?$pair@$$CBV?$basic_string@DU?$char_traits@D@std@@V?$allocator@D@2@@std@@PAVWCssRule@@@std@@@2@$0A@@std@@@2@XZ 0042b2b0 f i dependtree:WCssStyleSheet.obj
 0001:0002a2f0       ?SetTreeCheck@WTreeNode@@QAEX_N@Z 0042b2f0 f   dependtree:WTreeNode.obj
 0001:0002a350       ?OnTreeNodeCheck@WTreeNode@@AAEXXZ 0042b350 f   dependtree:WTreeNode.obj
 0001:0002a370       ?erase@?$_Tree@V?$_Tmap_traits@V?$basic_string@DU?$char_traits@D@std@@V?$allocator@D@2@@std@@_NU?$less@V?$basic_string@DU?$char_traits@D@std@@V?$allocator@D@2@@std@@@2@V?$allocator@U?$pair@$$CBV?$basic_string@DU?$char_traits@D@std@@V?$allocator@D@2@@std@@_N@std@@@2@$0A@@std@@@std@@QAE?AViterator@12@V312@@Z 0042b370 f i dependtree:WTreeNode.obj
 0001:0002a650       ?_Erase@?$_Tree@V?$_Tmap_traits@V?$basic_string@DU?$char_traits@D@std@@V?$allocator@D@2@@std@@_NU?$less@V?$basic_string@DU?$char_traits@D@std@@V?$allocator@D@2@@std@@@2@V?$allocator@U?$pair@$$CBV?$basic_string@DU?$char_traits@D@std@@V?$allocator@D@2@@std@@_N@std@@@2@$0A@@std@@@std@@IAEXPAU_Node@?$_Tree_nod@V?$_Tmap_traits@V?$basic_string@DU?$char_traits@D@std@@V?$allocator@D@2@@std@@_NU?$less@V?$basic_string@DU?$char_traits@D@std@@V?$allocator@D@2@@std@@@2@V?$allocator@U?$pair@$$CBV?$basic_string@DU?$char_traits@D@std@@V?$allocator@D@2@@std@@_N@std@@@2@$0A@@std@@@2@@Z 0042b650 f i dependtree:WTreeNode.obj
 0001:0002a690       ?addChildNode@WTreeNode@@QAEXPAV1@@Z 0042b690 f   dependtree:WTreeNode.obj
 0001:0002a700       ?erase@?$_Tree@V?$_Tmap_traits@V?$basic_string@DU?$char_traits@D@std@@V?$allocator@D@2@@std@@_NU?$less@V?$basic_string@DU?$char_traits@D@std@@V?$allocator@D@2@@std@@@2@V?$allocator@U?$pair@$$CBV?$basic_string@DU?$char_traits@D@std@@V?$allocator@D@2@@std@@_N@std@@@2@$0A@@std@@@std@@QAE?AViterator@12@V312@0@Z 0042b700 f i dependtree:WTreeNode.obj
 0001:0002a7c0       ??1?$map@V?$basic_string@DU?$char_traits@D@std@@V?$allocator@D@2@@std@@_NU?$less@V?$basic_string@DU?$char_traits@D@std@@V?$allocator@D@2@@std@@@2@V?$allocator@U?$pair@$$CBV?$basic_string@DU?$char_traits@D@std@@V?$allocator@D@2@@std@@_N@std@@@2@@std@@QAE@XZ 0042b7c0 f i dependtree:WTreeNode.obj
 0001:0002a7f0       ??0WTreeNode@@QAE@V?$basic_string@DU?$char_traits@D@std@@V?$allocator@D@2@@std@@0_N1HW4Formatting@WText@@PAVWStateIcon@@PAVWWidget@@PAVWContainerWidget@@@Z 0042b7f0 f   dependtree:WTreeNode.obj
 0001:0002ae00       ??_EWTreeNode@@UAEPAXI@Z   0042be00 f i dependtree:WTreeNode.obj
 0001:0002ae00       ??_GWTreeNode@@UAEPAXI@Z   0042be00 f i dependtree:WTreeNode.obj
 0001:0002ae20       ??1WTreeNode@@UAE@XZ       0042be20 f i dependtree:WTreeNode.obj
 0001:0002aec0       ?setIcon@WStateIcon@@QAEXH@Z 0042bec0 f   dependtree:WStateIcon.obj
 0001:0002af10       ?showIcon1@WStateIcon@@QAEXXZ 0042bf10 f   dependtree:WStateIcon.obj
 0001:0002af50       ?showIcon2@WStateIcon@@QAEXXZ 0042bf50 f   dependtree:WStateIcon.obj
 0001:0002af90       ?undoShowIcon1@WStateIcon@@AAEXXZ 0042bf90 f   dependtree:WStateIcon.obj
 0001:0002af90       ?undoShowIcon2@WStateIcon@@AAEXXZ 0042bf90 f   dependtree:WStateIcon.obj
 0001:0002afd0       ??0WStateIcon@@QAE@V?$basic_string@DU?$char_traits@D@std@@V?$allocator@D@2@@std@@0_NPAVWContainerWidget@@@Z 0042bfd0 f   dependtree:WStateIcon.obj
 0001:0002b170       ??_GWStateIcon@@UAEPAXI@Z  0042c170 f i dependtree:WStateIcon.obj
 0001:0002b170       ??_EWStateIcon@@UAEPAXI@Z  0042c170 f i dependtree:WStateIcon.obj
 0001:0002b190       ??1WContainerWidget@@UAE@XZ 0042c190 f i depend.obj
 0001:0002b190       ??1WStateIcon@@UAE@XZ      0042c190 f i dependtree:WStateIcon.obj
 0001:0002b190       ??1WTableCell@@UAE@XZ      0042c190 f i depend.obj
 0001:0002b1d0       ?buildSlotMap@CCheckBoxTreeView@@MAEXAAV?$map@V?$basic_string@DU?$char_traits@D@std@@V?$allocator@D@2@@std@@PAVWSlotInstance_@@U?$less@V?$basic_string@DU?$char_traits@D@std@@V?$allocator@D@2@@std@@@2@V?$allocator@U?$pair@$$CBV?$basic_string@DU?$char_traits@D@std@@V?$allocator@D@2@@std@@PAVWSlotInstance_@@@std@@@2@@std@@@Z 0042c1d0 f   dependtree:CheckBoxTreeViewWt.obj
 0001:0002b2c0       ?triggerSlot@CCheckBoxTreeView@@MAE_NPAVWObject@@PBVWSlot_@@PAPAX@Z 0042c2c0 f   dependtree:CheckBoxTreeViewWt.obj
 0001:0002b330       ?buildSignalMap@CCheckBoxTreeView@@MAEXAAV?$map@V?$basic_string@DU?$char_traits@D@std@@V?$allocator@D@2@@std@@PAVWSignalInstance_@@U?$less@V?$basic_string@DU?$char_traits@D@std@@V?$allocator@D@2@@std@@@2@V?$allocator@U?$pair@$$CBV?$basic_string@DU?$char_traits@D@std@@V?$allocator@D@2@@std@@PAVWSignalInstance_@@@std@@@2@@std@@@Z 0042c330 f   dependtree:CheckBoxTreeViewWt.obj
 0001:0002b3f0       ??0WColor@@QAE@XZ          0042c3f0 f   dependtree:WColor.obj
 0001:0002b410       ??0WColor@@QAE@HHH@Z       0042c410 f   dependtree:WColor.obj
 0001:0002b440       ??0WColor@@QAE@V?$basic_string@DU?$char_traits@D@std@@V?$allocator@D@2@@std@@@Z 0042c440 f   dependtree:WColor.obj
 0001:0002b4a0       ?cssText@WColor@@QBE?BV?$basic_string@DU?$char_traits@D@std@@V?$allocator@D@2@@std@@XZ 0042c4a0 f   dependtree:WColor.obj
 0001:0002b6b0       ??0WConnection_@@QAE@PAVWSignalInstance_@@PAVWSlotInstance_@@W4ConnectionType@WObject@@@Z 0042c6b0 f   dependtree:WConnection_.obj
 0001:0002b6f0       ??1WConnection_@@QAE@XZ    0042c6f0 f   dependtree:WConnection_.obj
 0001:0002b710       ?trigger@WConnection_@@QAE_NPAPAX@Z 0042c710 f   dependtree:WConnection_.obj
 0001:0002b730       ?getStaticCode@WConnection_@@QBE?AV?$basic_string@DU?$char_traits@D@std@@V?$allocator@D@2@@std@@XZ 0042c730 f   dependtree:WConnection_.obj
 0001:0002b750       ??0WFont@@QAE@XZ           0042c750 f   dependtree:WFont.obj
 0001:0002b7d0       ??0WFont@@AAE@PAVWWebWidget@@@Z 0042c7d0 f   dependtree:WFont.obj
 0001:0002b850       ?setFamily@WFont@@QAEXW4GenericFamily@1@V?$basic_string@DU?$char_traits@D@std@@V?$allocator@D@2@@std@@@Z 0042c850 f   dependtree:WFont.obj
 0001:0002b8c0       ?setStyle@WFont@@QAEXW4Style@1@@Z 0042c8c0 f   dependtree:WFont.obj
 0001:0002b8e0       ?setVariant@WFont@@QAEXW4Variant@1@@Z 0042c8e0 f   dependtree:WFont.obj
 0001:0002b900       ?setWeight@WFont@@QAEXW4Weight@1@H@Z 0042c900 f   dependtree:WFont.obj
 0001:0002b920       ?setSize@WFont@@QAEXW4Size@1@VWLength@@@Z 0042c920 f   dependtree:WFont.obj
 0001:0002b960       ?updateDomElement@WFont@@AAEXAAVDomElement@@_N1@Z 0042c960 f   dependtree:WFont.obj
 0001:0002bdc0       ??0WBorder@@QAE@XZ         0042cdc0 f   dependtree:WBorder.obj
 0001:0002bdf0       ??0WBorder@@QAE@W4Style@0@W4Width@0@VWColor@@@Z 0042cdf0 f   dependtree:WBorder.obj
 0001:0002be80       ?setWidth@WBorder@@QAEXW4Width@1@VWLength@@@Z 0042ce80 f   dependtree:WBorder.obj
 0001:0002beb0       ?setColor@WBorder@@QAEXVWColor@@@Z 0042ceb0 f   dependtree:WBorder.obj
 0001:0002bf20       ?setStyle@WBorder@@QAEXW4Style@1@@Z 0042cf20 f   dependtree:WBorder.obj
 0001:0002bf30       ?cssText@WBorder@@QBE?AV?$basic_string@DU?$char_traits@D@std@@V?$allocator@D@2@@std@@XZ 0042cf30 f   dependtree:WBorder.obj
 0001:0002c1e0       ?readResourceFile@WMessageResources@@AAEXV?$basic_string@DU?$char_traits@D@std@@V?$allocator@D@2@@std@@AAV?$map@V?$basic_string@DU?$char_traits@D@std@@V?$allocator@D@2@@std@@V12@U?$less@V?$basic_string@DU?$char_traits@D@std@@V?$allocator@D@2@@std@@@2@V?$allocator@U?$pair@$$CBV?$basic_string@DU?$char_traits@D@std@@V?$allocator@D@2@@std@@V12@@std@@@2@@3@@Z 0042d1e0 f   dependtree:WMessageResources.obj
 0001:0002c1f0       ?refresh@WMessageResources@@QAEXXZ 0042d1f0 f   dependtree:WMessageResources.obj
 0001:0002c230       ?find@?$_Tree@V?$_Tmap_traits@V?$basic_string@DU?$char_traits@D@std@@V?$allocator@D@2@@std@@V12@U?$less@V?$basic_string@DU?$char_traits@D@std@@V?$allocator@D@2@@std@@@2@V?$allocator@U?$pair@$$CBV?$basic_string@DU?$char_traits@D@std@@V?$allocator@D@2@@std@@V12@@std@@@2@$0A@@std@@@std@@QBE?AVconst_iterator@12@ABV?$basic_string@DU?$char_traits@D@std@@V?$allocator@D@2@@2@@Z 0042d230 f i dependtree:WMessageResources.obj
 0001:0002c290       ?getValue@WMessageResources@@QBE_NABVWMessage@@AAV?$basic_string@DU?$char_traits@D@std@@V?$allocator@D@2@@std@@@Z 0042d290 f   dependtree:WMessageResources.obj
 0001:0002c3a0       ??0WMessageResources@@QAE@V?$basic_string@DU?$char_traits@D@std@@V?$allocator@D@2@@std@@@Z 0042d3a0 f   dependtree:WMessageResources.obj
 0001:0002c490       ?undoTriggerSlot@WCompositeWidget@@MAE_NPBVWSlot_@@PAPAX@Z 0042d490 f   dependtree:WCompositeWidget.obj
 0001:0002c490       ?undoTriggerSlot@WWebWidget@@MAE_NPBVWSlot_@@PAPAX@Z 0042d490 f   dependtree:WWebWidget.obj
 0001:0002c4a0       ??0WCompositeWidget@@QAE@XZ 0042d4a0 f   dependtree:WCompositeWidget.obj
 0001:0002c4c0       ??1WCompositeWidget@@UAE@XZ 0042d4c0 f   dependtree:WCompositeWidget.obj
 0001:0002c520       ?parent@WCompositeWidget@@UBEPAVWWidget@@XZ 0042d520 f   dependtree:WCompositeWidget.obj
 0001:0002c530       ?setPositionScheme@WCompositeWidget@@UAEXW4PositionScheme@WWidget@@@Z 0042d530 f   dependtree:WCompositeWidget.obj
 0001:0002c540       ?positionScheme@WCompositeWidget@@UBE?AW4PositionScheme@WWidget@@XZ 0042d540 f   dependtree:WCompositeWidget.obj
 0001:0002c550       ?setOffset@WCompositeWidget@@UAEXW4Side@WWidget@@VWLength@@@Z 0042d550 f   dependtree:WCompositeWidget.obj
 0001:0002c590       ?offset@WCompositeWidget@@UBE?AVWLength@@W4Side@WWidget@@@Z 0042d590 f   dependtree:WCompositeWidget.obj
 0001:0002c5b0       ?resize@WCompositeWidget@@UAEXVWLength@@0@Z 0042d5b0 f   dependtree:WCompositeWidget.obj
 0001:0002c600       ?width@WCompositeWidget@@UBE?AVWLength@@XZ 0042d600 f   dependtree:WCompositeWidget.obj
 0001:0002c620       ?height@WCompositeWidget@@UBE?AVWLength@@XZ 0042d620 f   dependtree:WCompositeWidget.obj
 0001:0002c640       ?setMinimumSize@WCompositeWidget@@UAEXVWLength@@0@Z 0042d640 f   dependtree:WCompositeWidget.obj
 0001:0002c690       ?setMaximumSize@WCompositeWidget@@UAEXVWLength@@0@Z 0042d690 f   dependtree:WCompositeWidget.obj
 0001:0002c6e0       ?setFloatSide@WCompositeWidget@@UAEXW4Side@WWidget@@@Z 0042d6e0 f   dependtree:WCompositeWidget.obj
 0001:0002c6f0       ?floatSide@WCompositeWidget@@UBE?AW4Side@WWidget@@XZ 0042d6f0 f   dependtree:WCompositeWidget.obj
 0001:0002c700       ?setClearSides@WCompositeWidget@@UAEXH@Z 0042d700 f   dependtree:WCompositeWidget.obj
 0001:0002c710       ?clearSides@WCompositeWidget@@UBEHXZ 0042d710 f   dependtree:WCompositeWidget.obj
 0001:0002c720       ?setMargin@WCompositeWidget@@UAEXVWLength@@H@Z 0042d720 f   dependtree:WCompositeWidget.obj
 0001:0002c760       ?margin@WCompositeWidget@@UBE?AVWLength@@W4Side@WWidget@@@Z 0042d760 f   dependtree:WCompositeWidget.obj
 0001:0002c780       ?setHidden@WCompositeWidget@@UAEX_N@Z 0042d780 f   dependtree:WCompositeWidget.obj
 0001:0002c790       ?isHidden@WCompositeWidget@@UBE_NXZ 0042d790 f   dependtree:WCompositeWidget.obj
 0001:0002c7a0       ?setPopup@WCompositeWidget@@UAEX_N@Z 0042d7a0 f   dependtree:WCompositeWidget.obj
 0001:0002c7b0       ?isPopup@WCompositeWidget@@UBE_NXZ 0042d7b0 f   dependtree:WCompositeWidget.obj
 0001:0002c7c0       ?setInline@WCompositeWidget@@UAEX_N@Z 0042d7c0 f   dependtree:WCompositeWidget.obj
 0001:0002c7d0       ?isInline@WCompositeWidget@@UBE_NXZ 0042d7d0 f   dependtree:WCompositeWidget.obj
 0001:0002c7e0       ?decorationStyle@WCompositeWidget@@UAEAAVWCssDecorationStyle@@XZ 0042d7e0 f   dependtree:WCompositeWidget.obj
 0001:0002c7f0       ?setStyleClass@WCompositeWidget@@UAEXV?$basic_string@DU?$char_traits@D@std@@V?$allocator@D@2@@std@@@Z 0042d7f0 f   dependtree:WCompositeWidget.obj
 0001:0002c860       ?styleClass@WCompositeWidget@@UBE?BV?$basic_string@DU?$char_traits@D@std@@V?$allocator@D@2@@std@@XZ 0042d860 f   dependtree:WCompositeWidget.obj
 0001:0002c890       ?setVerticalAlignment@WCompositeWidget@@UAEXW4VerticalAlignment@WWidget@@VWLength@@@Z 0042d890 f   dependtree:WCompositeWidget.obj
 0001:0002c8d0       ?verticalAlignment@WCompositeWidget@@UBE?AW4VerticalAlignment@WWidget@@XZ 0042d8d0 f   dependtree:WCompositeWidget.obj
 0001:0002c8e0       ?verticalAlignmentLength@WCompositeWidget@@UBE?AVWLength@@XZ 0042d8e0 f   dependtree:WCompositeWidget.obj
 0001:0002c900       ?webWidget@WCompositeWidget@@UAEPAVWWebWidget@@XZ 0042d900 f   dependtree:WCompositeWidget.obj
 0001:0002c910       ?setToolTip@WCompositeWidget@@UAEXV?$basic_string@DU?$char_traits@D@std@@V?$allocator@D@2@@std@@@Z 0042d910 f   dependtree:WCompositeWidget.obj
 0001:0002c980       ?setToolTipMessage@WCompositeWidget@@UAEXABVWMessage@@@Z 0042d980 f   dependtree:WCompositeWidget.obj
 0001:0002c990       ?toolTip@WCompositeWidget@@UBE?AV?$basic_string@DU?$char_traits@D@std@@V?$allocator@D@2@@std@@XZ 0042d990 f   dependtree:WCompositeWidget.obj
 0001:0002c9c0       ?toolTipMessage@WCompositeWidget@@UBEABVWMessage@@XZ 0042d9c0 f   dependtree:WCompositeWidget.obj
 0001:0002c9d0       ?refresh@WCompositeWidget@@UAEXXZ 0042d9d0 f   dependtree:WCompositeWidget.obj
 0001:0002c9e0       ?hide@WCompositeWidget@@UAEXXZ 0042d9e0 f   dependtree:WCompositeWidget.obj
 0001:0002c9f0       ?show@WCompositeWidget@@UAEXXZ 0042d9f0 f   dependtree:WCompositeWidget.obj
 0001:0002ca00       ?undoHide@WCompositeWidget@@EAEXXZ 0042da00 f   dependtree:WCompositeWidget.obj
 0001:0002ca10       ?undoShow@WCompositeWidget@@EAEXXZ 0042da10 f   dependtree:WCompositeWidget.obj
 0001:0002ca20       ?addChild@WCompositeWidget@@MAEXPAVWWidget@@@Z 0042da20 f   dependtree:WCompositeWidget.obj
 0001:0002ca30       ?removeChild@WCompositeWidget@@MAEXPAVWWidget@@@Z 0042da30 f   dependtree:WCompositeWidget.obj
 0001:0002ca40       ?setParent@WCompositeWidget@@MAEXPAVWWidget@@@Z 0042da40 f   dependtree:WCompositeWidget.obj
 0001:0002ca50       ?children@WCompositeWidget@@MBEABV?$vector@PAVWWidget@@V?$allocator@PAVWWidget@@@std@@@std@@XZ 0042da50 f   dependtree:WCompositeWidget.obj
 0001:0002ca60       ?setImplementation@WCompositeWidget@@IAEXPAVWWidget@@@Z 0042da60 f   dependtree:WCompositeWidget.obj
 0001:0002ca70       ??_EWCompositeWidget@@UAEPAXI@Z 0042da70 f i dependtree:WCompositeWidget.obj
 0001:0002cad0       ?buildSlotMap@WCompositeWidget@@MAEXAAV?$map@V?$basic_string@DU?$char_traits@D@std@@V?$allocator@D@2@@std@@PAVWSlotInstance_@@U?$less@V?$basic_string@DU?$char_traits@D@std@@V?$allocator@D@2@@std@@@2@V?$allocator@U?$pair@$$CBV?$basic_string@DU?$char_traits@D@std@@V?$allocator@D@2@@std@@PAVWSlotInstance_@@@std@@@2@@std@@@Z 0042dad0 f   dependtree:WCompositeWidget.obj
 0001:0002cb90       ?buildSignalMap@WCompositeWidget@@MAEXAAV?$map@V?$basic_string@DU?$char_traits@D@std@@V?$allocator@D@2@@std@@PAVWSignalInstance_@@U?$less@V?$basic_string@DU?$char_traits@D@std@@V?$allocator@D@2@@std@@@2@V?$allocator@U?$pair@$$CBV?$basic_string@DU?$char_traits@D@std@@V?$allocator@D@2@@std@@PAVWSignalInstance_@@@std@@@2@@std@@@Z 0042db90 f   dependtree:WCompositeWidget.obj
 0001:0002cc50       ?buildSlotMap@WTreeNode@@MAEXAAV?$map@V?$basic_string@DU?$char_traits@D@std@@V?$allocator@D@2@@std@@PAVWSlotInstance_@@U?$less@V?$basic_string@DU?$char_traits@D@std@@V?$allocator@D@2@@std@@@2@V?$allocator@U?$pair@$$CBV?$basic_string@DU?$char_traits@D@std@@V?$allocator@D@2@@std@@PAVWSlotInstance_@@@std@@@2@@std@@@Z 0042dc50 f   dependtree:WTreeNodeWt.obj
 0001:0002cd40       ?triggerSlot@WTreeNode@@MAE_NPAVWObject@@PBVWSlot_@@PAPAX@Z 0042dd40 f   dependtree:WTreeNodeWt.obj
 0001:0002cdd0       ?undoTriggerSlot@WTreeNode@@MAE_NPBVWSlot_@@PAPAX@Z 0042ddd0 f   dependtree:WTreeNodeWt.obj
 0001:0002ce10       ?buildSignalMap@WTreeNode@@MAEXAAV?$map@V?$basic_string@DU?$char_traits@D@std@@V?$allocator@D@2@@std@@PAVWSignalInstance_@@U?$less@V?$basic_string@DU?$char_traits@D@std@@V?$allocator@D@2@@std@@@2@V?$allocator@U?$pair@$$CBV?$basic_string@DU?$char_traits@D@std@@V?$allocator@D@2@@std@@PAVWSignalInstance_@@@std@@@2@@std@@@Z 0042de10 f   dependtree:WTreeNodeWt.obj
 0001:0002ced0       ?triggerSlot@WStateIcon@@MAE_NPAVWObject@@PBVWSlot_@@PAPAX@Z 0042ded0 f   dependtree:WStateIconWt.obj
 0001:0002cf10       ?undoTriggerSlot@WStateIcon@@MAE_NPBVWSlot_@@PAPAX@Z 0042df10 f   dependtree:WStateIconWt.obj
 0001:0002cf40       ?buildSlotMap@WStateIcon@@MAEXAAV?$map@V?$basic_string@DU?$char_traits@D@std@@V?$allocator@D@2@@std@@PAVWSlotInstance_@@U?$less@V?$basic_string@DU?$char_traits@D@std@@V?$allocator@D@2@@std@@@2@V?$allocator@U?$pair@$$CBV?$basic_string@DU?$char_traits@D@std@@V?$allocator@D@2@@std@@PAVWSlotInstance_@@@std@@@2@@std@@@Z 0042df40 f   dependtree:WStateIconWt.obj
 0001:0002d000       ?buildSignalMap@WStateIcon@@MAEXAAV?$map@V?$basic_string@DU?$char_traits@D@std@@V?$allocator@D@2@@std@@PAVWSignalInstance_@@U?$less@V?$basic_string@DU?$char_traits@D@std@@V?$allocator@D@2@@std@@@2@V?$allocator@U?$pair@$$CBV?$basic_string@DU?$char_traits@D@std@@V?$allocator@D@2@@std@@PAVWSignalInstance_@@@std@@@2@@std@@@Z 0042e000 f   dependtree:WStateIconWt.obj
 0001:0002d0bb       ??2@YAPAXI@Z               0042e0bb f   msvcprt:newop_s.obj
 0001:0002d0e0       ??_U@YAPAXI@Z              0042e0e0 f   msvcprt:newaop_s.obj
 0001:0002d0e6       ___CxxFrameHandler         0042e0e6 f   MSVCRT:MSVCR71.dll
 0001:0002d0f0       ??3@YAXPAX@Z               0042e0f0 f   MSVCRT:MSVCR71.dll
 0001:0002d0f6       __purecall                 0042e0f6 f   MSVCRT:MSVCR71.dll
 0001:0002d0fc       ??_V@YAXPAX@Z              0042e0fc f   MSVCRT:MSVCR71.dll
 0001:0002d102       ?__ArrayUnwind@@YGXPAXIHP6EX0@Z@Z 0042e102 f   MSVCRT:ehvecdtr.obj
 0001:0002d160       ??_M@YGXPAXIHP6EX0@Z@Z     0042e160 f   MSVCRT:ehvecdtr.obj
 0001:0002d1c0       ??0exception@@QAE@ABV0@@Z  0042e1c0 f   MSVCRT:MSVCR71.dll
 0001:0002d1c6       ??_Etype_info@@UAEPAXI@Z   0042e1c6 f i MSVCRT:ti_inst.obj
 0001:0002d212       __CxxThrowException@8      0042e212 f   MSVCRT:MSVCR71.dll
 0001:0002d218       ??0bad_cast@@QAE@ABV0@@Z   0042e218 f   MSVCRT:MSVCR71.dll
 0001:0002d24f       @__security_check_cookie@4 0042e24f f   MSVCRT:secchk.obj
 0001:0002d260       __chkstk                   0042e260 f   MSVCRT:chkstk.obj
 0001:0002d260       __alloca_probe             0042e260     MSVCRT:chkstk.obj
 0001:0002d29d       __onexit                   0042e29d f   MSVCRT:atonexit.obj
 0001:0002d2c3       _atexit                    0042e2c3 f   MSVCRT:atonexit.obj
 0001:0002d2d5       _mainCRTStartup            0042e2d5 f   MSVCRT:crtexe.obj
 0001:0002d46e       _malloc                    0042e46e f   MSVCRT:MSVCR71.dll
 0001:0002d474       ___RTDynamicCast           0042e474 f   MSVCRT:MSVCR71.dll
 0001:0002d47a       __callnewh                 0042e47a f   MSVCRT:MSVCR71.dll
 0001:0002d480       ?terminate@@YAXXZ          0042e480 f   MSVCRT:MSVCR71.dll
 0001:0002d488       __SEH_prolog               0042e488 f   MSVCRT:sehprolg.obj
 0001:0002d4c3       __SEH_epilog               0042e4c3 f   MSVCRT:sehprolg.obj
 0001:0002d4d4       __except_handler3          0042e4d4 f   MSVCRT:MSVCR71.dll
 0001:0002d4da       ??1type_info@@UAE@XZ       0042e4da f   MSVCRT:MSVCR71.dll
 0001:0002d4e0       ___security_init_cookie    0042e4e0 f   MSVCRT:seccinit.obj
 0001:0002d546       ___security_error_handler  0042e546 f   MSVCRT:MSVCR71.dll
 0001:0002d54c       ___dllonexit               0042e54c f   MSVCRT:MSVCR71.dll
 0001:0002d552       __XcptFilter               0042e552 f   MSVCRT:MSVCR71.dll
 0001:0002d558       __amsg_exit                0042e558 f   MSVCRT:MSVCR71.dll
 0001:0002d55e       __RTC_Initialize           0042e55e f   MSVCRT:initsect.obj
 0001:0002d5a2       __RTC_Terminate            0042e5a2 f   MSVCRT:initsect.obj
 0001:0002d5e6       __initterm                 0042e5e6 f   MSVCRT:MSVCR71.dll
 0001:0002d5ec       __setdefaultprecision      0042e5ec f   MSVCRT:fp8.obj
 0001:0002d5fe       __setargv                  0042e5fe f   MSVCRT:dllargv.obj
 0001:0002d5fe       __matherr                  0042e5fe f   MSVCRT:merr.obj
 0001:0002d602       __controlfp                0042e602 f   MSVCRT:MSVCR71.dll
 0002:00000000       __imp__GetCurrentProcessId@0 00437000     kernel32:KERNEL32.dll
 0002:00000004       __imp__GetSystemTimeAsFileTime@4 00437004     kernel32:KERNEL32.dll
 0002:00000008       __imp__GetCurrentThreadId@0 00437008     kernel32:KERNEL32.dll
 0002:0000000c       __imp__GetTickCount@0      0043700c     kernel32:KERNEL32.dll
 0002:00000010       __imp__QueryPerformanceCounter@4 00437010     kernel32:KERNEL32.dll
 0002:00000014       __imp__GetModuleHandleA@4  00437014     kernel32:KERNEL32.dll
 0002:00000018       __imp__ExitProcess@4       00437018     kernel32:KERNEL32.dll
 0002:0000001c       __imp__WideCharToMultiByte@32 0043701c     kernel32:KERNEL32.dll
 0002:00000020       __imp__WaitForSingleObject@8 00437020     kernel32:KERNEL32.dll
 0002:00000024       __imp__ResetEvent@4        00437024     kernel32:KERNEL32.dll
 0002:00000028       __imp__SetEnvironmentVariableA@8 00437028     kernel32:KERNEL32.dll
 0002:0000002c       __imp__GetEnvironmentVariableA@12 0043702c     kernel32:KERNEL32.dll
 0002:00000030       __imp__OutputDebugStringA@4 00437030     kernel32:KERNEL32.dll
 0002:00000034       __imp__CreateEventA@16     00437034     kernel32:KERNEL32.dll
 0002:00000038       \177KERNEL32_NULL_THUNK_DATA 00437038     kernel32:KERNEL32.dll
 0002:0000003c       __imp_?insert@?$basic_string@DU?$char_traits@D@std@@V?$allocator@D@2@@std@@QAEAAV12@IID@Z 0043703c     msvcprt:MSVCP71.dll
 0002:00000040       __imp_??$?8DU?$char_traits@D@std@@V?$allocator@D@1@@std@@YA_NABV?$basic_string@DU?$char_traits@D@std@@V?$allocator@D@2@@0@PBD@Z 00437040     msvcprt:MSVCP71.dll
 0002:00000044       __imp_?replace@?$basic_string@DU?$char_traits@D@std@@V?$allocator@D@2@@std@@QAEAAV12@IIABV12@@Z 00437044     msvcprt:MSVCP71.dll
 0002:00000048       __imp_?find@?$basic_string@DU?$char_traits@D@std@@V?$allocator@D@2@@std@@QBEIPBDII@Z 00437048     msvcprt:MSVCP71.dll
 0002:0000004c       __imp_?substr@?$basic_string@DU?$char_traits@D@std@@V?$allocator@D@2@@std@@QBE?AV12@II@Z 0043704c     msvcprt:MSVCP71.dll
 0002:00000050       __imp_??6?$basic_ostream@DU?$char_traits@D@std@@@std@@QAEAAV01@PBX@Z 00437050     msvcprt:MSVCP71.dll
 0002:00000054       __imp_??$?9DU?$char_traits@D@std@@V?$allocator@D@1@@std@@YA_NABV?$basic_string@DU?$char_traits@D@std@@V?$allocator@D@2@@0@0@Z 00437054     msvcprt:MSVCP71.dll
 0002:00000058       __imp_?str@?$basic_stringstream@DU?$char_traits@D@std@@V?$allocator@D@2@@std@@QBE?AV?$basic_string@DU?$char_traits@D@std@@V?$allocator@D@2@@2@XZ 00437058     msvcprt:MSVCP71.dll
 0002:0000005c       __imp_??$?8DU?$char_traits@D@std@@V?$allocator@D@1@@std@@YA_NABV?$basic_string@DU?$char_traits@D@std@@V?$allocator@D@2@@0@0@Z 0043705c     msvcprt:MSVCP71.dll
 0002:00000060       __imp_??_D?$basic_stringstream@DU?$char_traits@D@std@@V?$allocator@D@2@@std@@QAEXXZ 00437060     msvcprt:MSVCP71.dll
 0002:00000064       __imp_??0?$basic_stringstream@DU?$char_traits@D@std@@V?$allocator@D@2@@std@@QAE@H@Z 00437064     msvcprt:MSVCP71.dll
 0002:00000068       __imp_?endl@std@@YAAAV?$basic_ostream@DU?$char_traits@D@std@@@1@AAV21@@Z 00437068     msvcprt:MSVCP71.dll
 0002:0000006c       __imp_?cerr@std@@3V?$basic_ostream@DU?$char_traits@D@std@@@1@A 0043706c     msvcprt:MSVCP71.dll
 0002:00000070       __imp_??$?6U?$char_traits@D@std@@@std@@YAAAV?$basic_ostream@DU?$char_traits@D@std@@@0@AAV10@PBD@Z 00437070     msvcprt:MSVCP71.dll
 0002:00000074       __imp_??6?$basic_ostream@DU?$char_traits@D@std@@@std@@QAEAAV01@P6AAAV01@AAV01@@Z@Z 00437074     msvcprt:MSVCP71.dll
 0002:00000078       __imp_??$?MDU?$char_traits@D@std@@V?$allocator@D@1@@std@@YA_NABV?$basic_string@DU?$char_traits@D@std@@V?$allocator@D@2@@0@0@Z 00437078     msvcprt:MSVCP71.dll
 0002:0000007c       __imp_??4?$basic_string@DU?$char_traits@D@std@@V?$allocator@D@2@@std@@QAEAAV01@PBD@Z 0043707c     msvcprt:MSVCP71.dll
 0002:00000080       __imp_??0?$basic_string@DU?$char_traits@D@std@@V?$allocator@D@2@@std@@QAE@XZ 00437080     msvcprt:MSVCP71.dll
 0002:00000084       __imp_?compare@?$basic_string@DU?$char_traits@D@std@@V?$allocator@D@2@@std@@QBEHIIPBDI@Z 00437084     msvcprt:MSVCP71.dll
 0002:00000088       __imp_??6?$basic_ostream@DU?$char_traits@D@std@@@std@@QAEAAV01@N@Z 00437088     msvcprt:MSVCP71.dll
 0002:0000008c       __imp_??$?9DU?$char_traits@D@std@@V?$allocator@D@1@@std@@YA_NABV?$basic_string@DU?$char_traits@D@std@@V?$allocator@D@2@@0@PBD@Z 0043708c     msvcprt:MSVCP71.dll
 0002:00000090       __imp_??6?$basic_ostream@DU?$char_traits@D@std@@@std@@QAEAAV01@I@Z 00437090     msvcprt:MSVCP71.dll
 0002:00000094       __imp_?get@?$basic_istream@DU?$char_traits@D@std@@@std@@QAEHXZ 00437094     msvcprt:MSVCP71.dll
 0002:00000098       __imp_??5?$basic_istream@DU?$char_traits@D@std@@@std@@QAEAAV01@AAH@Z 00437098     msvcprt:MSVCP71.dll
 0002:0000009c       __imp_?_Nomemory@std@@YAXXZ 0043709c     msvcprt:MSVCP71.dll
 0002:000000a0       __imp_??6?$basic_ostream@DU?$char_traits@D@std@@@std@@QAEAAV01@H@Z 004370a0     msvcprt:MSVCP71.dll
 0002:000000a4       __imp_??0?$basic_string@DU?$char_traits@D@std@@V?$allocator@D@2@@std@@QAE@ABV01@@Z 004370a4     msvcprt:MSVCP71.dll
 0002:000000a8       __imp_??1?$basic_string@DU?$char_traits@D@std@@V?$allocator@D@2@@std@@QAE@XZ 004370a8     msvcprt:MSVCP71.dll
 0002:000000ac       __imp_??4?$basic_string@DU?$char_traits@D@std@@V?$allocator@D@2@@std@@QAEAAV01@ABV01@@Z 004370ac     msvcprt:MSVCP71.dll
 0002:000000b0       __imp_?_Unlock@_Mutex@std@@QAEXXZ 004370b0     msvcprt:MSVCP71.dll
 0002:000000b4       __imp_?_Lock@_Mutex@std@@QAEXXZ 004370b4     msvcprt:MSVCP71.dll
 0002:000000b8       __imp_??0?$basic_string@DU?$char_traits@D@std@@V?$allocator@D@2@@std@@QAE@PBD@Z 004370b8     msvcprt:MSVCP71.dll
 0002:000000bc       __imp_??Y?$basic_string@DU?$char_traits@D@std@@V?$allocator@D@2@@std@@QAEAAV01@ABV01@@Z 004370bc     msvcprt:MSVCP71.dll
 0002:000000c0       __imp_??0?$basic_string@DU?$char_traits@D@std@@V?$allocator@D@2@@std@@QAE@ID@Z 004370c0     msvcprt:MSVCP71.dll
 0002:000000c4       __imp_??Y?$basic_string@DU?$char_traits@D@std@@V?$allocator@D@2@@std@@QAEAAV01@PBD@Z 004370c4     msvcprt:MSVCP71.dll
 0002:000000c8       __imp_??Y?$basic_string@DU?$char_traits@D@std@@V?$allocator@D@2@@std@@QAEAAV01@D@Z 004370c8     msvcprt:MSVCP71.dll
 0002:000000cc       __imp_?uncaught_exception@std@@YA_NXZ 004370cc     msvcprt:MSVCP71.dll
 0002:000000d0       __imp_?flush@?$basic_ostream@DU?$char_traits@D@std@@@std@@QAEAAV12@XZ 004370d0     msvcprt:MSVCP71.dll
 0002:000000d4       __imp_?_Osfx@?$basic_ostream@DU?$char_traits@D@std@@@std@@QAEXXZ 004370d4     msvcprt:MSVCP71.dll
 0002:000000d8       __imp_?clear@ios_base@std@@QAEXH_N@Z 004370d8     msvcprt:MSVCP71.dll
 0002:000000dc       __imp_?npos@?$basic_string@DU?$char_traits@D@std@@V?$allocator@D@2@@std@@2IB 004370dc     msvcprt:MSVCP71.dll
 0002:000000e0       __imp_?sputc@?$basic_streambuf@DU?$char_traits@D@std@@@std@@QAEHD@Z 004370e0     msvcprt:MSVCP71.dll
 0002:000000e4       \177MSVCP71_NULL_THUNK_DATA 004370e4     msvcprt:MSVCP71.dll
 0002:000000e8       __imp__strdup              004370e8     MSVCRT:MSVCR71.dll
 0002:000000e8       __imp___strdup             004370e8     MSVCRT:MSVCR71.dll
 0002:000000ec       __imp__printf              004370ec     MSVCRT:MSVCR71.dll
 0002:000000f0       __imp__strerror            004370f0     MSVCRT:MSVCR71.dll
 0002:000000f4       __imp___errno              004370f4     MSVCRT:MSVCR71.dll
 0002:000000f8       __imp__isalnum             004370f8     MSVCRT:MSVCR71.dll
 0002:000000fc       __imp__atoi                004370fc     MSVCRT:MSVCR71.dll
 0002:00000100       __imp__realloc             00437100     MSVCRT:MSVCR71.dll
 0002:00000104       __imp__strrchr             00437104     MSVCRT:MSVCR71.dll
 0002:00000108       __imp____RTDynamicCast     00437108     MSVCRT:MSVCR71.dll
 0002:0000010c       __imp___callnewh           0043710c     MSVCRT:MSVCR71.dll
 0002:00000110       __imp_?terminate@@YAXXZ    00437110     MSVCRT:MSVCR71.dll
 0002:00000114       __imp___except_handler3    00437114     MSVCRT:MSVCR71.dll
 0002:00000118       __imp_??1type_info@@UAE@XZ 00437118     MSVCRT:MSVCR71.dll
 0002:0000011c       __imp____security_error_handler 0043711c     MSVCRT:MSVCR71.dll
 0002:00000120       __imp____dllonexit         00437120     MSVCRT:MSVCR71.dll
 0002:00000124       __imp___onexit             00437124     MSVCRT:MSVCR71.dll
 0002:00000128       __imp___c_exit             00437128     MSVCRT:MSVCR71.dll
 0002:0000012c       __imp___exit               0043712c     MSVCRT:MSVCR71.dll
 0002:00000130       __imp___XcptFilter         00437130     MSVCRT:MSVCR71.dll
 0002:00000134       __imp___cexit              00437134     MSVCRT:MSVCR71.dll
 0002:00000138       __imp____p___initenv       00437138     MSVCRT:MSVCR71.dll
 0002:0000013c       __imp___amsg_exit          0043713c     MSVCRT:MSVCR71.dll
 0002:00000140       __imp____getmainargs       00437140     MSVCRT:MSVCR71.dll
 0002:00000144       __imp___initterm           00437144     MSVCRT:MSVCR71.dll
 0002:00000148       __imp____setusermatherr    00437148     MSVCRT:MSVCR71.dll
 0002:0000014c       __imp___adjust_fdiv        0043714c     MSVCRT:MSVCR71.dll
 0002:00000150       __imp____p__commode        00437150     MSVCRT:MSVCR71.dll
 0002:00000154       __imp____p__fmode          00437154     MSVCRT:MSVCR71.dll
 0002:00000158       __imp____set_app_type      00437158     MSVCRT:MSVCR71.dll
 0002:0000015c       __imp___controlfp          0043715c     MSVCRT:MSVCR71.dll
 0002:00000160       __imp___itoa               00437160     MSVCRT:MSVCR71.dll
 0002:00000160       __imp__itoa                00437160     MSVCRT:MSVCR71.dll
 0002:00000164       __imp___iob                00437164     MSVCRT:MSVCR71.dll
 0002:00000168       __imp_??1exception@@UAE@XZ 00437168     MSVCRT:MSVCR71.dll
 0002:0000016c       __imp_??0exception@@QAE@XZ 0043716c     MSVCRT:MSVCR71.dll
 0002:00000170       __imp____CxxFrameHandler   00437170     MSVCRT:MSVCR71.dll
 0002:00000174       __imp_??3@YAXPAX@Z         00437174     MSVCRT:MSVCR71.dll
 0002:00000178       __imp___purecall           00437178     MSVCRT:MSVCR71.dll
 0002:0000017c       __imp_??_V@YAXPAX@Z        0043717c     MSVCRT:MSVCR71.dll
 0002:00000180       __imp_??0exception@@QAE@ABV0@@Z 00437180     MSVCRT:MSVCR71.dll
 0002:00000184       __imp___CxxThrowException@8 00437184     MSVCRT:MSVCR71.dll
 0002:00000188       __imp_??0bad_cast@@QAE@ABV0@@Z 00437188     MSVCRT:MSVCR71.dll
 0002:0000018c       __imp_??1bad_cast@@UAE@XZ  0043718c     MSVCRT:MSVCR71.dll
 0002:00000190       __imp_??0bad_cast@@QAE@PBD@Z 00437190     MSVCRT:MSVCR71.dll
 0002:00000194       __imp__memmove             00437194     MSVCRT:MSVCR71.dll
 0002:00000198       __imp__rand                00437198     MSVCRT:MSVCR71.dll
 0002:0000019c       __imp__sscanf              0043719c     MSVCRT:MSVCR71.dll
 0002:000001a0       __imp__strstr              004371a0     MSVCRT:MSVCR71.dll
 0002:000001a4       __imp__exit                004371a4     MSVCRT:MSVCR71.dll
 0002:000001a8       __imp__free                004371a8     MSVCRT:MSVCR71.dll
 0002:000001ac       __imp__strtok              004371ac     MSVCRT:MSVCR71.dll
 0002:000001b0       __imp__sprintf             004371b0     MSVCRT:MSVCR71.dll
 0002:000001b4       __imp__fclose              004371b4     MSVCRT:MSVCR71.dll
 0002:000001b8       __imp__fputs               004371b8     MSVCRT:MSVCR71.dll
 0002:000001bc       __imp__fopen               004371bc     MSVCRT:MSVCR71.dll
 0002:000001c0       __imp__strchr              004371c0     MSVCRT:MSVCR71.dll
 0002:000001c4       __imp__strncpy             004371c4     MSVCRT:MSVCR71.dll
 0002:000001c8       __imp__fgets               004371c8     MSVCRT:MSVCR71.dll
 0002:000001cc       __imp__malloc              004371cc     MSVCRT:MSVCR71.dll
 0002:000001d0       \177MSVCR71_NULL_THUNK_DATA 004371d0     MSVCRT:MSVCR71.dll
 0002:000001d4       __imp__FCGI_Accept         004371d4     libfcgi:libfcgi.dll
 0002:000001d8       __imp___fcgi_sF            004371d8     libfcgi:libfcgi.dll
 0002:000001dc       __imp__FCGI_printf         004371dc     libfcgi:libfcgi.dll
 0002:000001e0       __imp__FCGI_Finish         004371e0     libfcgi:libfcgi.dll
 0002:000001e4       __imp__FCGI_fprintf        004371e4     libfcgi:libfcgi.dll
 0002:000001e8       __imp__FCGI_GetEnv         004371e8     libfcgi:libfcgi.dll
 0002:000001ec       \177libfcgi_NULL_THUNK_DATA 004371ec     libfcgi:libfcgi.dll
 0002:000001f0       __imp_?GetSubEntitysIDByGroup@@YA_NPAXAAV?$list@V?$basic_string@DU?$char_traits@D@std@@V?$allocator@D@2@@std@@V?$allocator@V?$basic_string@DU?$char_traits@D@std@@V?$allocator@D@2@@std@@@2@@std@@@Z 004371f0     svapi:svapi.dll
 0002:000001f4       __imp_?GetSubMonitorsIDByEntity@@YA_NPAXAAV?$list@V?$basic_string@DU?$char_traits@D@std@@V?$allocator@D@2@@std@@V?$allocator@V?$basic_string@DU?$char_traits@D@std@@V?$allocator@D@2@@std@@@2@@std@@@Z 004371f4     svapi:svapi.dll
 0002:000001f8       __imp_?GetMonitor@@YAPAXV?$basic_string@DU?$char_traits@D@std@@V?$allocator@D@2@@std@@00@Z 004371f8     svapi:svapi.dll
 0002:000001fc       __imp_?GetMonitorMainAttribNode@@YAPAXPAX@Z 004371fc     svapi:svapi.dll
 0002:00000200       __imp_?CloseMonitor@@YAXAAPAX@Z 00437200     svapi:svapi.dll
 0002:00000204       __imp_?FindParentID@@YA?AV?$basic_string@DU?$char_traits@D@std@@V?$allocator@D@2@@std@@V12@@Z 00437204     svapi:svapi.dll
 0002:00000208       __imp_?IsSVSEID@@YA_NV?$basic_string@DU?$char_traits@D@std@@V?$allocator@D@2@@std@@@Z 00437208     svapi:svapi.dll
 0002:0000020c       __imp_?GetIniFileKeys@@YA_NV?$basic_string@DU?$char_traits@D@std@@V?$allocator@D@2@@std@@AAV?$list@V?$basic_string@DU?$char_traits@D@std@@V?$allocator@D@2@@std@@V?$allocator@V?$basic_string@DU?$char_traits@D@std@@V?$allocator@D@2@@std@@@2@@2@00@Z 0043720c     svapi:svapi.dll
 0002:00000210       __imp_?GetIniFileString@@YA?AV?$basic_string@DU?$char_traits@D@std@@V?$allocator@D@2@@std@@V12@0000@Z 00437210     svapi:svapi.dll
 0002:00000214       __imp_?GetGroup@@YAPAXV?$basic_string@DU?$char_traits@D@std@@V?$allocator@D@2@@std@@00@Z 00437214     svapi:svapi.dll
 0002:00000218       __imp_?GetEntity@@YAPAXV?$basic_string@DU?$char_traits@D@std@@V?$allocator@D@2@@std@@00@Z 00437218     svapi:svapi.dll
 0002:0000021c       __imp_?GetSubGroupsIDByGroup@@YA_NPAXAAV?$list@V?$basic_string@DU?$char_traits@D@std@@V?$allocator@D@2@@std@@V?$allocator@V?$basic_string@DU?$char_traits@D@std@@V?$allocator@D@2@@std@@@2@@std@@@Z 0043721c     svapi:svapi.dll
 0002:00000220       __imp_?GetGroupMainAttribNode@@YAPAXPAX@Z 00437220     svapi:svapi.dll
 0002:00000224       __imp_?GetEntityMainAttribNode@@YAPAXPAX@Z 00437224     svapi:svapi.dll
 0002:00000228       __imp_?CloseGroup@@YA_NAAPAX@Z 00437228     svapi:svapi.dll
 0002:0000022c       __imp_?CloseEntity@@YA_NAAPAX@Z 0043722c     svapi:svapi.dll
 0002:00000230       __imp_?GetIniFileInt@@YAHV?$basic_string@DU?$char_traits@D@std@@V?$allocator@D@2@@std@@0H00@Z 00437230     svapi:svapi.dll
 0002:00000234       __imp_?LoadResource@@YAPAXV?$basic_string@DU?$char_traits@D@std@@V?$allocator@D@2@@std@@0@Z 00437234     svapi:svapi.dll
 0002:00000238       __imp_?GetResourceNode@@YAPAXPAX@Z 00437238     svapi:svapi.dll
 0002:0000023c       __imp_?FindNodeValue@@YA_NPAXV?$basic_string@DU?$char_traits@D@std@@V?$allocator@D@2@@std@@AAV12@@Z 0043723c     svapi:svapi.dll
 0002:00000240       __imp_?CloseResource@@YA_NAAPAX@Z 00437240     svapi:svapi.dll
 0002:00000244       __imp_?CloseSVSE@@YA_NAAPAX@Z 00437244     svapi:svapi.dll
 0002:00000248       __imp_?GetSubEntitysIDBySE@@YA_NPAXAAV?$list@V?$basic_string@DU?$char_traits@D@std@@V?$allocator@D@2@@std@@V?$allocator@V?$basic_string@DU?$char_traits@D@std@@V?$allocator@D@2@@std@@@2@@std@@@Z 00437248     svapi:svapi.dll
 0002:0000024c       __imp_?GetSubGroupsIDBySE@@YA_NPAXAAV?$list@V?$basic_string@DU?$char_traits@D@std@@V?$allocator@D@2@@std@@V?$allocator@V?$basic_string@DU?$char_traits@D@std@@V?$allocator@D@2@@std@@@2@@std@@@Z 0043724c     svapi:svapi.dll
 0002:00000250       __imp_?GetSVSELabel@@YA?AV?$basic_string@DU?$char_traits@D@std@@V?$allocator@D@2@@std@@PAX@Z 00437250     svapi:svapi.dll
 0002:00000254       __imp_?GetSVSE@@YAPAXV?$basic_string@DU?$char_traits@D@std@@V?$allocator@D@2@@std@@00@Z 00437254     svapi:svapi.dll
 0002:00000258       \177svapi_NULL_THUNK_DATA  00437258     svapi:svapi.dll
 0002:00000260       ??_7logic_error@std@@6B@   00437260     depend.obj
 0002:00000268       ??_7length_error@std@@6B@  00437268     depend.obj
 0002:00000270       ??_7out_of_range@std@@6B@  00437270     depend.obj
 0002:00000278       ??_7WCssRule@@6B@          00437278     depend.obj
 0002:00000280       ??_C@_01EEMJAFIK@?6?$AA@   00437280     depend.obj
 0002:00000284       ??_C@_0O@CHLBHAKK@Depend?5Tree?3?5?$AA@ 00437284     depend.obj
 0002:00000294       ??_C@_0BD@OLBABOEK@vector?$DMT?$DO?5too?5long?$AA@ 00437294     depend.obj
 0002:000002a8       ??_C@_08EPJLHIJG@bad?5cast?$AA@ 004372a8     depend.obj
 0002:000002b4       ??_C@_0BM@PAPJHAGI@invalid?5map?1set?$DMT?$DO?5iterator?$AA@ 004372b4     depend.obj
 0002:000002d0       ??_C@_0O@KFNNGJMO@IDS_Depend_On?$AA@ 004372d0     depend.obj
 0002:000002e0       ??_C@_07DLHCIBDH@default?$AA@ 004372e0     depend.obj
 0002:000002e8       ??_C@_09IPAEKDAI@localhost?$AA@ 004372e8     depend.obj
 0002:000002f4       ??_C@_05KOLFGEDA@DEBUG?$AA@ 004372f4     depend.obj
 0002:000002fa       ??_C@_00CNPNBAHC@?$AA@     004372fa     depend.obj
 0002:000002fc       ??_C@_0BA@BBAAJPPH@IDS_Refresh_Tip?$AA@ 004372fc     dependform.obj
 0002:0000030c       ??_C@_0M@NEOAJFPG@IDS_Refresh?$AA@ 0043730c     dependform.obj
 0002:00000318       ??_C@_0BC@PHJNJOEE@IDS_Translate_Tip?$AA@ 00437318     dependform.obj
 0002:0000032c       ??_C@_0O@KMMCKEHN@IDS_Translate?$AA@ 0043732c     dependform.obj
 0002:0000033c       ??_C@_0BG@KFBGLEBJ@IDS_Save_Close_Window?$AA@ 0043733c     dependform.obj
 0002:00000354       ??_C@_06KDFPKOIN@IDS_OK?$AA@ 00437354     dependform.obj
 0002:0000035c       ??_C@_0BB@PFBECMB@IDS_Close_Window?$AA@ 0043735c     dependform.obj
 0002:00000370       ??_C@_0L@FHHLFNMA@IDS_Cancel?$AA@ 00437370     dependform.obj
 0002:0000037c       ??_C@_0BG@IKDLGHNM@IDS_Depends_Condition?$AA@ 0043737c     dependform.obj
 0002:00000394       ??_C@_0P@FEMEMOMM@not?5found?5seid?$AA@ 00437394     dependform.obj
 0002:000003a4       ??_C@_0M@OINCDFDM@seid?$DN?$CF?$FL0?99?$FN?$AA@ 004373a4     dependform.obj
 0002:000003b0       ??_C@_05PBEBEKMF@seid?$DN?$AA@ 004373b0     dependform.obj
 0002:000003b8       ??_C@_0M@JHNNHCMN@?8?$DL?$DM?1SCRIPT?$DO?$AA@ 004373b8     dependform.obj
 0002:000003c4       ??_C@_02PGMIOCEL@?$DN?8?$AA@ 004373c4     dependform.obj
 0002:000003c8       ??_C@_0CF@NNDILOJE@?$DMSCRIPT?5language?$DN?8JavaScript?8?5?$DO?5@ 004373c8     dependform.obj
 0002:000003f0       ??_C@_0M@CFKDIDPB@?8?$CC?01250?$CJ?$DL?5?5?$AA@ 004373f0     dependform.obj
 0002:000003fc       ??_C@_0DH@GEACPMMJ@setTimeout?$CI?$CClocation?4href?5?$DN?8?1fcg@ 004373fc     dependform.obj
 0002:00000434       ??_C@_02HJPKOJGD@?8?$CJ?$AA@ 00437434     dependform.obj
 0002:00000438       ??_C@_09NCBFFOMK@dependRes?$AA@ 00437438     dependform.obj
 0002:00000444       ??_C@_0BA@HHEEMAB@showTranslate?$CI?8?$AA@ 00437444     dependform.obj
 0002:00000454       ??_C@_09GIFFFGOG@ycancel?$CI?$CJ?$AA@ 00437454     dependform.obj
 0002:00000460       ??_C@_0BA@LFPMGOEO@button_bg_m?4png?$AA@ 00437460     dependform.obj
 0002:00000470       ??_C@_0N@HDBJMBGE@?$CGnbsp?$DL?$CGnbsp?$DL?$AA@ 00437470     dependform.obj
 0002:00000480       ??_C@_0L@NAFJDCMN@xclicked?$CI?$CJ?$AA@ 00437480     dependform.obj
 0002:0000048c       ??_C@_0M@LGHKDEPC@ycloseWnd?$CI?$CJ?$AA@ 0043748c     dependform.obj
 0002:00000498       ??_C@_0BG@ENENEJGB@button_bg_m_black?4png?$AA@ 00437498     dependform.obj
 0002:000004b0       ??_C@_09BJCPFAGO@widthauto?$AA@ 004374b0     dependform.obj
 0002:000004bc       ??_C@_0CO@MEBIDGHI@window?4returnValue?$DN?8IDCANCEL?8?$DLwi@ 004374bc     dependform.obj
 0002:000004ec       ??_C@_0M@NBJEHLFM@yExChange?$CI?$CJ?$AA@ 004374ec     dependform.obj
 0002:000004f8       ??_C@_0N@CBIONFLI@yTranslate?$CI?$CJ?$AA@ 004374f8     dependform.obj
 0002:00000508       ??_C@_09ODNGOEIO@translate?$AA@ 00437508     dependform.obj
 0002:00000514       ??_C@_0M@FCJCHHPA@general?4ini?$AA@ 00437514     dependform.obj
 0002:00000520       ??_C@_0DK@MADBIIKI@?$DMSCRIPT?5language?$DN?8JavaScript?8?5sr@ 00437520     dependform.obj
 0002:0000055c       ??_C@_09HPHOINJB@fullstyle?$AA@ 0043755c     dependform.obj
 0002:00000568       ??_C@_07KONHMNIE@uistyle?$AA@ 00437568     dependform.obj
 0002:00000570       ??_C@_0P@GKAMHGHN@viewpanandlist?$AA@ 00437570     dependform.obj
 0002:00000580       ??_C@_08LDPCJBHJ@bGeneral?$AA@ 00437580     dependform.obj
 0002:0000058c       ??_C@_04LOAJBDKD@true?$AA@ 0043758c     dependform.obj
 0002:00000594       ??_C@_07FLAHOCJG@listpan?$AA@ 00437594     dependform.obj
 0002:0000059c       ??_C@_09HFIHBBMG@listpan1?0?$AA@ 0043759c     dependform.obj
 0002:000005a8       ??_C@_09KEBNOGEF@listtitle?$AA@ 004375a8     dependform.obj
 0002:000005b4       ??_C@_05DDPKAJEN@form?0?$AA@ 004375b4     dependform.obj
 0002:000005bc       ??_C@_0L@NNFEGFKL@listheight?$AA@ 004375bc     dependform.obj
 0002:000005c8       ??_C@_04PENJFJL@200?0?$AA@ 004375c8     dependform.obj
 0002:000005d0       ??_C@_06MAIPDONP@?$DM?1div?$DO?$AA@ 004375d0     dependform.obj
 0002:000005d8       ??_C@_0CH@MJJPHNBA@?$DMdiv?5id?$DN?8listpan1?8?5class?$DN?8panel_@ 004375d8     dependform.obj
 0002:00000600       ??_C@_0CJ@BNIBPOKN@?$DMdiv?5id?$DN?8view_panel?8?5class?$DN?8pane@ 00437600     dependform.obj
 0002:0000062c       ??_C@_0DI@BINAMOMF@?$DMSCRIPT?5language?$DN?8JavaScript?8?5sr@ 0043762c     dependform.obj
 0002:00000664       ??_C@_0N@CMJHMENF@QUERY_STRING?$AA@ 00437664     dependform.obj
 0002:00000674       ??_C@_0M@JKEPJNHI@In?5Refresh?6?$AA@ 00437674     dependform.obj
 0002:00000680       ??_C@_0BC@MGPIGPNN@?8?$DLwindow?4close?$CI?$CJ?$DL?$AA@ 00437680     dependform.obj
 0002:00000694       ??_C@_0BF@BFEOMKLF@window?4returnValue?$DN?8?$AA@ 00437694     dependform.obj
 0002:000006b0       ??_7SVDepend@@6B@          004376b0     dependform.obj
 0002:0000079c       ??_C@_0BE@JONHPENG@map?1set?$DMT?$DO?5too?5long?$AA@ 0043779c     dependformwt.obj
 0002:000007b0       ??_C@_0L@HICFLHLK@ExChange?$CI?$CJ?$AA@ 004377b0     dependformwt.obj
 0002:000007bc       ??_C@_0M@GIEOCDDJ@Translate?$CI?$CJ?$AA@ 004377bc     dependformwt.obj
 0002:000007c8       ??_C@_08GHIKIEGM@cancel?$CI?$CJ?$AA@ 004377c8     dependformwt.obj
 0002:000007d4       ??_C@_0L@BPMLPIBE@closeWnd?$CI?$CJ?$AA@ 004377d4     dependformwt.obj
 0002:000007e0       ??_C@_08BEHKFNNO@disabled?$AA@ 004377e0     WSPopButton.obj
 0002:000007f0       ??_7WSPopButton@@6B@       004377f0     WSPopButton.obj
 0002:000008d4       ??_C@_09PKJBNAHG@pop_but_r?$AA@ 004378d4     WSPopButton.obj
 0002:000008e0       ??_C@_06KMFGCGJP@nowrap?$AA@ 004378e0     WSPopButton.obj
 0002:000008e8       ??_C@_09DHMLNOOI@pop_but_m?$AA@ 004378e8     WSPopButton.obj
 0002:000008f4       ??_C@_09CONAOPKJ@pop_but_l?$AA@ 004378f4     WSPopButton.obj
 0002:00000900       __real@4034000000000000    00437900     WSPopButton.obj
 0002:00000908       ??_C@_0BC@MHMFAPAM@?1Images?1space?4gif?$AA@ 00437908     WSPopButton.obj
 0002:0000091c       ??_C@_08DIOEMMDH@?1Images?1?$AA@ 0043791c     WSPopButton.obj
 0002:00000928       ??_C@_0BA@HFEBLEBL@button_img_font?$AA@ 00437928     WSPopButton.obj
 0002:00000938       ??_C@_09LGPPBFPI@padding_3?$AA@ 00437938     WSPopButton.obj
 0002:00000944       ??_C@_0BM@IBBKNKIL@?1Images?1pop_table_top_r?4png?$AA@ 00437944     WSPopTable.obj
 0002:00000960       ??_C@_0O@CCFFKHIB@pop_table_top?$AA@ 00437960     WSPopTable.obj
 0002:00000970       ??_C@_0BM@LIMGLJGA@?1Images?1pop_table_top_l?4png?$AA@ 00437970     WSPopTable.obj
 0002:0000098c       ??_C@_0BM@EMBEAPNO@?1Images?1pop_table_bom_r?4png?$AA@ 0043798c     WSPopTable.obj
 0002:000009a8       ??_C@_0O@KIELMDNO@pop_table_bom?$AA@ 004379a8     WSPopTable.obj
 0002:000009b8       ??_C@_0BM@HFMIGMDF@?1Images?1pop_table_bom_l?4png?$AA@ 004379b8     WSPopTable.obj
 0002:000009d4       ??_C@_0M@NLMPKMMO@padding_top?$AA@ 004379d4     WSPopTable.obj
 0002:000009e0       ??_C@_08OAPDBDIN@tr_align?$AA@ 004379e0     WSPopTable.obj
 0002:000009f0       __real@4059000000000000    004379f0     WSPopTable.obj
 0002:000009f8       ??_C@_06HMAKFADA@pop_bg?$AA@ 004379f8     WSPopTable.obj
 0002:00000a00       ??_7WSPopTable@@6B@        00437a00     WSPopTable.obj
 0002:00000ae4       ??_C@_0BA@GECBKJNG@pop_table_mid_r?$AA@ 00437ae4     WSPopTable.obj
 0002:00000af4       ??_C@_0BH@BFKFFDPD@table_data_input_space?$AA@ 00437af4     WSPopTable.obj
 0002:00000b0c       ??_C@_07PMHCLHIB@bgcolor?$AA@ 00437b0c     WSPopTable.obj
 0002:00000b14       ??_C@_0BA@LAGAJGAJ@pop_table_mid_l?$AA@ 00437b14     WSPopTable.obj
 0002:00000b24       ??_C@_09KPOECELJ@padding_2?$AA@ 00437b24     WSPopTable.obj
 0002:00000b30       ??_C@_04FANNOMIB@hand?$AA@ 00437b30     WSPopTable.obj
 0002:00000b38       ??_C@_0BB@NNIOIJMI@?1Images?1help?4png?$AA@ 00437b38     WSPopTable.obj
 0002:00000b4c       ??_C@_08KDGNFJFD@textbold?$AA@ 00437b4c     WSPopTable.obj
 0002:00000b58       ??_C@_09OAKFLCHO@padding_5?$AA@ 00437b58     WSPopTable.obj
 0002:00000b64       ??_C@_09MLMCBFPL@BtnProc?$CI?$CJ?$AA@ 00437b64     WSPopTableWt.obj
 0002:00000b70       ??_C@_03NIEPJMFE@?5?$HN?6?$AA@ 00437b70     dependtree:WCssStyleSheet.obj
 0002:00000b74       ??_C@_03LDKJCMMO@?5?$HL?5?$AA@ 00437b74     dependtree:WCssStyleSheet.obj
 0002:00000b78       ??_7bad_lexical_cast@boost@@6B@ 00437b78     dependtree:WWebWidget.obj
 0002:00000b80       ??_C@_0EH@FFMEKAOB@bad?5lexical?5cast?3?5source?5type?5va@ 00437b80     dependtree:WWebWidget.obj
 0002:00000bc8       ??_C@_0CP@MNJJKLPL@WWebWidget?3?3offset?$CI?$CJ?5with?5weird?5@ 00437bc8     dependtree:WWebWidget.obj
 0002:00000bf8       ??_C@_0DD@KMFFPBCL@Error?3?5WWebWidget?3?3margin?$CISide?$CJ?5@ 00437bf8     dependtree:WWebWidget.obj
 0002:00000c30       __real@0000000000000000    00437c30     dependtree:WWebWidget.obj
 0002:00000c38       ??_7WWebWidget@@6B@        00437c38     dependtree:WWebWidget.obj
 0002:00000d1c       ??_C@_05ENKANFLO@class?$AA@ 00437d1c     dependtree:WWebWidget.obj
 0002:00000d24       ??_C@_05PHLGJONK@title?$AA@ 00437d24     dependtree:WWebWidget.obj
 0002:00000d2c       ??_C@_0M@DGBLJBCD@text?9bottom?$AA@ 00437d2c     dependtree:WWebWidget.obj
 0002:00000d38       ??_C@_06PMMPCIPB@bottom?$AA@ 00437d38     dependtree:WWebWidget.obj
 0002:00000d40       ??_C@_06CGLIEPEJ@middle?$AA@ 00437d40     dependtree:WWebWidget.obj
 0002:00000d48       ??_C@_08NCDOCPFJ@text?9top?$AA@ 00437d48     dependtree:WWebWidget.obj
 0002:00000d54       ??_C@_03FGFCOCMD@top?$AA@  00437d54     dependtree:WWebWidget.obj
 0002:00000d58       ??_C@_05MKJDPMKP@super?$AA@ 00437d58     dependtree:WWebWidget.obj
 0002:00000d60       ??_C@_03KCMAIMAP@sub?$AA@  00437d60     dependtree:WWebWidget.obj
 0002:00000d74       ??_C@_04EHLGOKLJ@both?$AA@ 00437d74     dependtree:WWebWidget.obj
 0002:00000d7c       ??_C@_04GOOOJOPP@left?$AA@ 00437d7c     dependtree:WWebWidget.obj
 0002:00000d84       ??_C@_05DHJDAOHK@right?$AA@ 00437d84     dependtree:WWebWidget.obj
 0002:00000d8c       ??_C@_08NCJMCBDF@relative?$AA@ 00437d8c     dependtree:WWebWidget.obj
 0002:00000d98       ??_C@_08KPFDDLMF@absolute?$AA@ 00437d98     dependtree:WWebWidget.obj
 0002:00000da4       ??_C@_05OFLEIIDM@fixed?$AA@ 00437da4     dependtree:WWebWidget.obj
 0002:00000dac       ??_C@_04CGFJFPFD@none?$AA@ 00437dac     dependtree:WWebWidget.obj
 0002:00000db4       ??_C@_06OGMBMJA@inline?$AA@ 00437db4     dependtree:WWebWidget.obj
 0002:00000dbc       ??_C@_05PIBOEKAB@block?$AA@ 00437dbc     dependtree:WWebWidget.obj
 0002:00000dc4       ??_C@_0N@NLFBEFHA@inline?9block?$AA@ 00437dc4     dependtree:WWebWidget.obj
 0002:00000dd4       ??_C@_0N@JBPLNCCJ@inline?9table?$AA@ 00437dd4     dependtree:WWebWidget.obj
 0002:00000de4       ??_C@_0BO@CHBEEIEI@child?5disappeared?5in?5widget?5?$DP?$AA@ 00437de4     dependtree:WWebWidget.obj
 0002:00000e04       ??_C@_0CL@DINGDLAE@WWebWidget?3?3addChild?5of?5child?5wi@ 00437e04     dependtree:WWebWidget.obj
 0002:00000e30       ??_7WInteractWidget@@6B@   00437e30     dependtree:WInteractWidget.obj
 0002:00000f14       ??_C@_0P@FJFCECKD@xcontextmenu?$CI?$CJ?$AA@ 00437f14     dependtree:WInteractWidget.obj
 0002:00000f24       ??_C@_0M@NAMPODJM@contextmenu?$AA@ 00437f24     dependtree:WInteractWidget.obj
 0002:00000f30       ??_C@_0P@DDGMIFJD@xmouseWentUp?$CI?$CJ?$AA@ 00437f30     dependtree:WInteractWidget.obj
 0002:00000f40       ??_C@_07DIKNHLOB@mouseup?$AA@ 00437f40     dependtree:WInteractWidget.obj
 0002:00000f48       ??_C@_0BB@BMDOCBGP@xmouseWentOver?$CI?$CJ?$AA@ 00437f48     dependtree:WInteractWidget.obj
 0002:00000f5c       ??_C@_09NMJMJAPE@mouseover?$AA@ 00437f5c     dependtree:WInteractWidget.obj
 0002:00000f68       ??_C@_0BA@MHMHEFDA@xmouseWentOut?$CI?$CJ?$AA@ 00437f68     dependtree:WInteractWidget.obj
 0002:00000f78       ??_C@_08KFAJLGHH@mouseout?$AA@ 00437f78     dependtree:WInteractWidget.obj
 0002:00000f84       ??_C@_0O@OFAHHDOF@xmouseMoved?$CI?$CJ?$AA@ 00437f84     dependtree:WInteractWidget.obj
 0002:00000f94       ??_C@_09JAKOECDO@mousemove?$AA@ 00437f94     dependtree:WInteractWidget.obj
 0002:00000fa0       ??_C@_0BB@DKAPAKAD@xmouseWentDown?$CI?$CJ?$AA@ 00437fa0     dependtree:WInteractWidget.obj
 0002:00000fb4       ??_C@_09HPIIJDLD@mousedown?$AA@ 00437fb4     dependtree:WInteractWidget.obj
 0002:00000fc0       ??_C@_0BB@MFHKNKH@xdoubleClicked?$CI?$CJ?$AA@ 00437fc0     dependtree:WInteractWidget.obj
 0002:00000fd4       ??_C@_08JOLFCCIK@dblclick?$AA@ 00437fd4     dependtree:WInteractWidget.obj
 0002:00000fe0       ??_C@_0L@EIEFNJMP@xchanged?$CI?$CJ?$AA@ 00437fe0     dependtree:WInteractWidget.obj
 0002:00000fec       ??_C@_06BGNDGHEE@change?$AA@ 00437fec     dependtree:WInteractWidget.obj
 0002:00000ff4       ??_C@_0M@EEKEIINB@xredicted?$CI?$CJ?$AA@ 00437ff4     dependtree:WInteractWidget.obj
 0002:00001000       ??_C@_06GKADNPOF@redict?$AA@ 00438000     dependtree:WInteractWidget.obj
 0002:00001008       ??_C@_05BGCJMGHI@click?$AA@ 00438008     dependtree:WInteractWidget.obj
 0002:00001010       ??_C@_0M@ENNHIEEL@ygotClick?$CI?$CJ?$AA@ 00438010     dependtree:WInteractWidget.obj
 0002:0000101c       ??_C@_0BB@COAEDCAO@xclicked?$CIvoid?5?$CK?$CJ?$AA@ 0043801c     dependtree:WInteractWidget.obj
 0002:00001030       ??_C@_0BA@FPNBKDJD@xkeyWentUp?$CIint?$CJ?$AA@ 00438030     dependtree:WInteractWidget.obj
 0002:00001040       ??_C@_05BGOOGFKD@keyup?$AA@ 00438040     dependtree:WInteractWidget.obj
 0002:00001048       ??_C@_0BB@ICOOMGAK@xkeyPressed?$CIint?$CJ?$AA@ 00438048     dependtree:WInteractWidget.obj
 0002:0000105c       ??_C@_08PAFGIKGM@keypress?$AA@ 0043805c     dependtree:WInteractWidget.obj
 0002:00001068       ??_C@_0BC@LHALEJGJ@xkeyWentDown?$CIint?$CJ?$AA@ 00438068     dependtree:WInteractWidget.obj
 0002:0000107c       ??_C@_07EHMIKNBE@keydown?$AA@ 0043807c     dependtree:WInteractWidget.obj
 0002:00001084       ??_C@_0BD@BKCJCFEJ@event?4keyCode?5?$CB?$DN?50?$AA@ 00438084     dependtree:WInteractWidget.obj
 0002:00001098       ??_C@_07MJLNJKOC@keyCode?$AA@ 00438098     dependtree:WInteractWidget.obj
 0002:000010a0       ??_C@_0L@OEGGEIKN@gotClick?$CI?$CJ?$AA@ 004380a0     dependtree:WInteractWidget.obj
 0002:000010ac       ??_C@_0O@JGOPCOKI@contextmenu?$CI?$CJ?$AA@ 004380ac     dependtree:WInteractWidget.obj
 0002:000010bc       ??_C@_09IEKJLDOD@changed?$CI?$CJ?$AA@ 004380bc     dependtree:WInteractWidget.obj
 0002:000010c8       ??_C@_0L@HGLAAIFI@redicted?$CI?$CJ?$AA@ 004380c8     dependtree:WInteractWidget.obj
 0002:000010d4       ??_C@_0BA@IJPEAJAL@clicked?$CIvoid?5?$CK?$CJ?$AA@ 004380d4     dependtree:WInteractWidget.obj
 0002:000010e4       ??_C@_0N@OCPOOBND@mouseMoved?$CI?$CJ?$AA@ 004380e4     dependtree:WInteractWidget.obj
 0002:000010f4       ??_C@_0BA@LLMOBKGK@mouseWentOver?$CI?$CJ?$AA@ 004380f4     dependtree:WInteractWidget.obj
 0002:00001104       ??_C@_0P@FANKCBNE@mouseWentOut?$CI?$CJ?$AA@ 00438104     dependtree:WInteractWidget.obj
 0002:00001114       ??_C@_0O@PMNBOJJI@mouseWentUp?$CI?$CJ?$AA@ 00438114     dependtree:WInteractWidget.obj
 0002:00001124       ??_C@_0BA@JNPPDBAG@mouseWentDown?$CI?$CJ?$AA@ 00438124     dependtree:WInteractWidget.obj
 0002:00001134       ??_C@_0BA@KLKHJGKC@doubleClicked?$CI?$CJ?$AA@ 00438134     dependtree:WInteractWidget.obj
 0002:00001144       ??_C@_09BMLFFIOB@clicked?$CI?$CJ?$AA@ 00438144     dependtree:WInteractWidget.obj
 0002:00001150       ??_C@_0P@MIMMMHHH@keyWentUp?$CIint?$CJ?$AA@ 00438150     dependtree:WInteractWidget.obj
 0002:00001160       ??_C@_0BA@CFBOPNAP@keyPressed?$CIint?$CJ?$AA@ 00438160     dependtree:WInteractWidget.obj
 0002:00001170       ??_C@_0BB@MHMGENNN@keyWentDown?$CIint?$CJ?$AA@ 00438170     dependtree:WInteractWidget.obj
 0002:00001184       ??_C@_0DK@NGFADHGM@Error?3?5WContainerWidget?3?3padding@ 00438184     dependtree:WContainerWidget.obj
 0002:000011c0       ??_7WContainerWidget@@6B@  004381c0     dependtree:WContainerWidget.obj
 0002:000012ac       ??_C@_01CLKCMJKC@?5?$AA@   004382ac     dependtree:WContainerWidget.obj
 0002:000012b0       ??_C@_07BAMLJHKN@justify?$AA@ 004382b0     dependtree:WContainerWidget.obj
 0002:000012b8       ??_C@_06BBLOAEEI@center?$AA@ 004382b8     dependtree:WContainerWidget.obj
 0002:000012c0       ??_C@_0DF@CEDMHPLP@Warning?3?5WContainerWidget?3?5ignor@ 004382c0     dependtree:WContainerWidget.obj
 0002:000012f8       ??_7WTable@@6B@            004382f8     dependtree:WTable.obj
 0002:000013dc       ??_C@_01ODHLEDKK@?$CI?$AA@ 004383dc     dependtree:WTable.obj
 0002:000013e0       ??_C@_01IHBHIGKO@?0?$AA@   004383e0     dependtree:WTable.obj
 0002:000013e4       ??_C@_03LPPJIELD@?$CJ?3?5?$AA@ 004383e4     dependtree:WTable.obj
 0002:000013e8       ??_C@_07MPAOONDD@Table?3?5?$AA@ 004383e8     dependtree:WTable.obj
 0002:000013f0       ??_C@_01FJMABOPO@x?$AA@    004383f0     dependtree:WTable.obj
 0002:000013f4       ??_C@_01NEMOKFLO@?$DN?$AA@ 004383f4     dependtree:WTable.obj
 0002:000013f8       ??_C@_0M@IPMJHNPD@cellSpacing?$AA@ 004383f8     dependtree:WTable.obj
 0002:00001404       ??_C@_0M@CCACKAMJ@cellPadding?$AA@ 00438404     dependtree:WTable.obj
 0002:00001410       ??_C@_02DPKJAMEF@?$CFd?$AA@ 00438410     dependtree:WTable.obj
 0002:00001418       ??_7WTableRow@@6B@         00438418     dependtree:WTable.obj
 0002:00001508       ??_7WText@@6B@             00438508     dependtree:WText.obj
 0002:000015f0       __real@41f0000000000000    004385f0     dependtree:WText.obj
 0002:000015f8       ??_C@_06DDLNFFBN@?$CGquot?$DL?$AA@ 004385f8     dependtree:WText.obj
 0002:00001600       ??_C@_04LOOHDCEI@?$CGgt?$DL?$AA@ 00438600     dependtree:WText.obj
 0002:00001608       ??_C@_04GJOGLFEJ@?$CGlt?$DL?$AA@ 00438608     dependtree:WText.obj
 0002:00001610       ??_C@_05JKJFEODM@?$CGamp?$DL?$AA@ 00438610     dependtree:WText.obj
 0002:00001618       ??_C@_05OMDPILML@?$CG?$CD39?$DL?$AA@ 00438618     dependtree:WText.obj
 0002:00001620       ??_C@_05IPNHIEEO@?$CG?$CD92?$DL?$AA@ 00438620     dependtree:WText.obj
 0002:00001628       ??_7WImage@@6B@            00438628     dependtree:WImage.obj
 0002:0000170c       ??_C@_0P@MGHKDNBD@xdataChanged?$CI?$CJ?$AA@ 0043870c     dependtree:WImage.obj
 0002:0000171c       ??_C@_0BD@DFDPHIHI@yresourceChanged?$CI?$CJ?$AA@ 0043871c     dependtree:WImage.obj
 0002:00001730       ??_C@_0BC@COKBECLB@resourceChanged?$CI?$CJ?$AA@ 00438730     dependtree:WImage.obj
 0002:00001748       ??_7WFormWidget@@6B@       00438748     dependtree:WFormWidget.obj
 0002:0000182c       ??_C@_05LAPONLG@false?$AA@ 0043882c     dependtree:WFormWidget.obj
 0002:00001834       ??_C@_0M@HIAHEKIK@xfocussed?$CI?$CJ?$AA@ 00438834     dependtree:WFormWidget.obj
 0002:00001840       ??_C@_05PEEJIKOE@focus?$AA@ 00438840     dependtree:WFormWidget.obj
 0002:00001848       ??_C@_0L@PBPPLJLO@xblurred?$CI?$CJ?$AA@ 00438848     dependtree:WFormWidget.obj
 0002:00001854       ??_C@_04OEOMNFLL@blur?$AA@ 00438854     dependtree:WFormWidget.obj
 0002:0000185c       ??_C@_0M@GJFNOAEG@xselected?$CI?$CJ?$AA@ 0043885c     dependtree:WFormWidget.obj
 0002:00001868       ??_C@_06LGNCCACI@select?$AA@ 00438868     dependtree:WFormWidget.obj
 0002:00001870       ??_C@_0BB@JAKMJJP@setEnabled?$CIbool?$CJ?$AA@ 00438870     dependtree:WFormWidget.obj
 0002:00001884       ??_C@_09FMLJGOMB@disable?$CI?$CJ?$AA@ 00438884     dependtree:WFormWidget.obj
 0002:00001890       ??_C@_08IALMGBPN@enable?$CI?$CJ?$AA@ 00438890     dependtree:WFormWidget.obj
 0002:0000189c       ??_C@_0L@EKBDMKAD@focussed?$CI?$CJ?$AA@ 0043889c     dependtree:WFormWidget.obj
 0002:000018a8       ??_C@_09DNBDNDJC@blurred?$CI?$CJ?$AA@ 004388a8     dependtree:WFormWidget.obj
 0002:000018b4       ??_C@_0L@FLEJGAMP@selected?$CI?$CJ?$AA@ 004388b4     dependtree:WFormWidget.obj
 0002:000018c0       ??_7WPushButton@@6B@       004388c0     dependtree:WPushButton.obj
 0002:000019a4       ??_C@_04GPMDFGEJ@type?$AA@ 004389a4     dependtree:WPushButton.obj
 0002:000019ac       ??_C@_06HFKPFKMP@button?$AA@ 004389ac     dependtree:WPushButton.obj
 0002:000019b8       ??_7WScrollArea@@6B@       004389b8     dependtree:WScrollArea.obj
 0002:00001a9c       ??_C@_04HAPDLBFF@auto?$AA@ 00438a9c     dependtree:WScrollArea.obj
 0002:00001aa4       ??_C@_06JIKFICKK@hidden?$AA@ 00438aa4     dependtree:WScrollArea.obj
 0002:00001aac       ??_C@_06FJKBNFNG@scroll?$AA@ 00438aac     dependtree:WScrollArea.obj
 0002:00001ab4       ??_C@_0BG@BHGMMKBF@Exposing?5a?5resource?4?5?$AA@ 00438ab4     dependtree:WApplication.obj
 0002:00001acc       ??_7WApplication@@6B@      00438acc     dependtree:WApplication.obj
 0002:00001af8       ??_C@_0EH@EFFJCPDD@Error?3?5WApplication?3?3removeExpos@ 00438af8     dependtree:WApplication.obj
 0002:00001b40       ??_C@_0EJ@PKKCALNA@Error?3?5WApplication?3?3removeExpos@ 00438b40     dependtree:WApplication.obj
 0002:00001b8c       ??_C@_0BM@HOLKLDFC@Removing?5exposed?5resource?4?5?$AA@ 00438b8c     dependtree:WApplication.obj
 0002:00001ba8       ??_C@_0BO@ILDEDML@http?3?1?1witty?4sourceforge?4net?1?$AA@ 00438ba8     dependtree:WApplication.obj
 0002:00001bc8       ??_C@_0BG@PFONAMBD@scheduleUploadFiles?$CI?$CJ?$AA@ 00438bc8     dependtree:WApplication.obj
 0002:00001be0       ??_C@_06HBAEMNCI@quit?$CI?$CJ?$AA@ 00438be0     dependtree:WApplication.obj
 0002:00001be8       ??_C@_0O@OHPGGCNA@Not?5That?5Many?$AA@ 00438be8     dependtree:WebSession.obj
 0002:00001bf8       ??_C@_0BB@NMGLGCBG@Cookie?5Not?5Found?$AA@ 00438bf8     dependtree:WebSession.obj
 0002:00001c0c       ??_C@_0L@HDNHDIAC@No?5Cookies?$AA@ 00438c0c     dependtree:WebSession.obj
 0002:00001c18       ??_C@_0BL@MKGJAEAP@Content?5Length?5Discrepancy?$AA@ 00438c18     dependtree:WebSession.obj
 0002:00001c34       ??_C@_0BD@MOLPLHJN@Bad?5Content?5Length?$AA@ 00438c34     dependtree:WebSession.obj
 0002:00001c48       ??_C@_0BC@HPDAABKL@NULL?5Query?5String?$AA@ 00438c48     dependtree:WebSession.obj
 0002:00001c5c       ??_C@_0BH@DLJALBOE@Incorrect?5Content?5Type?$AA@ 00438c5c     dependtree:WebSession.obj
 0002:00001c74       ??_C@_0P@ECMBGKAN@Unknown?5method?$AA@ 00438c74     dependtree:WebSession.obj
 0002:00001c84       ??_C@_0O@GECCKPJF@Not?5a?5boolean?$AA@ 00438c84     dependtree:WebSession.obj
 0002:00001c94       ??_C@_0N@CBOPCKOH@Not?5a?5double?$AA@ 00438c94     dependtree:WebSession.obj
 0002:00001ca4       ??_C@_0P@ELLMHAHK@Not?5an?5integer?$AA@ 00438ca4     dependtree:WebSession.obj
 0002:00001cb8       ??_C@_02DPNLHKJD@a?$CL?$AA@ 00438cb8     dependtree:WebSession.obj
 0002:00001cbc       ??_C@_0N@OOAKLEHK@c?3?2start?4log?$AA@ 00438cbc     dependtree:WebSession.obj
 0002:00001ccc       ??_C@_0M@JEIGMJPN@c?3?2free?4log?$AA@ 00438ccc     dependtree:WebSession.obj
 0002:00001cd8       ??_C@_09FINIMMFD@userid?$DN?$CFd?$AA@ 00438cd8     dependtree:WebSession.obj
 0002:00001ce4       ??_C@_07BLNOMLFJ@userid?$DN?$AA@ 00438ce4     dependtree:WebSession.obj
 0002:00001cec       ??_C@_0M@NLJHBKOA@HTTP_COOKIE?$AA@ 00438cec     dependtree:WebSession.obj
 0002:00001cf8       ??_C@_0BF@LJOEKIFL@Content?9Type?3?5?$CFs?$AN?6?$AN?6?$AA@ 00438cf8     dependtree:WebSession.obj
 0002:00001d10       ??_C@_03INNDMBFN@?$CF4x?$AA@ 00438d10     dependtree:WebSession.obj
 0002:00001d14       ??_C@_01KDCPPGHE@r?$AA@    00438d14     dependtree:WebSession.obj
 0002:00001d18       ??_C@_0BE@FMKABEGP@Can?8t?5open?5?$CFs?5?9?5?$CFs?6?$AA@ 00438d18     dependtree:WebSession.obj
 0002:00001d2c       ??_C@_03OFAPEBGM@?$CFs?6?$AA@ 00438d2c     dependtree:WebSession.obj
 0002:00001d30       ??_C@_0BA@DOOELCMK@?$DMh1?$DOError?$DM?1h1?$DO?6?$AA@ 00438d30     dependtree:WebSession.obj
 0002:00001d40       ??_C@_05IKAEGFCC@svsid?$AA@ 00438d40     dependtree:WebSession.obj
 0002:00001d48       ??_C@_06IHAGGOEE@userid?$AA@ 00438d48     dependtree:WebSession.obj
 0002:00001d50       ??_C@_01ICJEACDI@?$DL?$AA@ 00438d50     dependtree:WebSession.obj
 0002:00001d54       ??_C@_0BD@IOKCJKGG@?5?$CF?$CF?$CFi?$FL?$FO?$DN?$FN?$DN?$CF?$CF?$CFi?$FL?$FO?$DL?$FN?$AA@ 00438d54     dependtree:WebSession.obj
 0002:00001d68       ??_C@_03DLDNIBIK@?$CFlf?$AA@ 00438d68     dependtree:WebSession.obj
 0002:00001d6c       ??_C@_09KABDMIOB@text?1html?$AA@ 00438d6c     dependtree:WebSession.obj
 0002:00001d78       ??_C@_03HAPOJHBM@GET?$AA@  00438d78     dependtree:WebSession.obj
 0002:00001d7c       ??_C@_0P@GJMOGDPG@Content?9Type?3?5?$AA@ 00438d7c     dependtree:WebSession.obj
 0002:00001d8c       ??_C@_0BJ@JDCJMJCJ@application?1octet?9stream?$AA@ 00438d8c     dependtree:WebSession.obj
 0002:00001da8       ??_C@_0L@NNMNIONE@filename?$DN?$CC?$AA@ 00438da8     dependtree:WebSession.obj
 0002:00001db4       ??_C@_06JMOJEPOI@name?$DN?$CC?$AA@ 00438db4     dependtree:WebSession.obj
 0002:00001dbc       ??_C@_0BG@HDDGLJCG@Content?9Disposition?3?5?$AA@ 00438dbc     dependtree:WebSession.obj
 0002:00001dd4       ??_C@_09LCENMFDK@boundary?$DN?$AA@ 00438dd4     dependtree:WebSession.obj
 0002:00001de0       ??_C@_0BE@PILCJFLE@multipart?1form?9data?$AA@ 00438de0     dependtree:WebSession.obj
 0002:00001df4       ??_C@_0P@HGGOGAMC@CONTENT_LENGTH?$AA@ 00438df4     dependtree:WebSession.obj
 0002:00001e04       ??_C@_0CC@FLKANKNI@application?1x?9www?9form?9urlencode@ 00438e04     dependtree:WebSession.obj
 0002:00001e28       ??_C@_0N@JOIOCFIA@CONTENT_TYPE?$AA@ 00438e28     dependtree:WebSession.obj
 0002:00001e38       ??_C@_04HCJEIHPL@POST?$AA@ 00438e38     dependtree:WebSession.obj
 0002:00001e40       ??_C@_0P@OLMAFMHK@REQUEST_METHOD?$AA@ 00438e40     dependtree:WebSession.obj
 0002:00001e50       ??_C@_07ENHGAJCI@request?$AA@ 00438e50     dependtree:WebSession.obj
 0002:00001e58       ??_C@_03CAOIPBNL@arg?$AA@  00438e58     dependtree:WebSession.obj
 0002:00001e5c       ??_C@_0BA@LOHLDOHC@signal?5is?5null?6?$AA@ 00438e5c     dependtree:WebSession.obj
 0002:00001e6c       ??_C@_0M@CNGGLBPB@REMOTE_ADDR?$AA@ 00438e6c     dependtree:WebSession.obj
 0002:00001e78       ??_C@_04EONOHKEP@load?$AA@ 00438e78     dependtree:WebSession.obj
 0002:00001e80       ??_C@_09BCBIKKAE@signal?3?5?8?$AA@ 00438e80     dependtree:WebSession.obj
 0002:00001e8c       ??_C@_01GEODFPGF@?8?$AA@   00438e8c     dependtree:WebSession.obj
 0002:00001e90       ??_C@_06OAFOBKHE@signal?$AA@ 00438e90     dependtree:WebSession.obj
 0002:00001e98       ??_C@_08NJJFDENH@resource?$AA@ 00438e98     dependtree:WebSession.obj
 0002:00001ea4       ??_C@_0BB@LFOEGFGH@ModFcgi?9Event?9?$CFd?$AA@ 00438ea4     dependtree:WebSession.obj
 0002:00001eb8       ??_C@_0BG@JFAFJBDJ@SiteView?9Cgi?9Event?9?$CFd?$AA@ 00438eb8     dependtree:WebSession.obj
 0002:00001ed0       ??_C@_0P@MIGDDGFP@?$DM?1body?$DO?$DM?1html?$DO?$AA@ 00438ed0     dependtree:WebSession.obj
 0002:00001ee0       ??_C@_09JCILIIII@?$CFs?$DM?1form?$DO?$AA@ 00438ee0     dependtree:WebSession.obj
 0002:00001eec       ??_C@_0BB@BHBIMILC@?$DM?1head?$DO?6?$DM?1html?$DO?6?$AA@ 00438eec     dependtree:WebSession.obj
 0002:00001f00       ??_C@_0NC@EOJAAJPB@?$DMhtml?5lang?$DN?$CCen?$CC?5dir?$DN?$CCltr?$CC?$DO?6?$DMhead@ 00438f00     dependtree:WebSession.obj
 0002:00001fd4       ??_C@_02CHHAKFFB@w?$CL?$AA@ 00438fd4     dependtree:WebSession.obj
 0002:00001fd8       ??_C@_0EG@KBLKLHFD@?$DMinput?5name?$DN?8signal?8?5id?$DN?8signal?8@ 00438fd8     dependtree:WebSession.obj
 0002:00002020       ??_C@_0FA@EIBJGPHO@?$DMbody?$DO?6?$DMform?5method?$DN?8post?8?5actio@ 00439020     dependtree:WebSession.obj
 0002:00002070       ??_C@_0DP@MJFEBFDN@?$DMtitle?$DO?$CFs?$DM?1title?$DO?6?$DMstyle?5type?$DN?$CCt@ 00439070     dependtree:WebSession.obj
 0002:000020b0       ??_C@_0JH@LAOBJKKC@?$DMscript?5language?$DN?$CCJavaScript?$CC?$DO?6f@ 004390b0     dependtree:WebSession.obj
 0002:00002148       ??_C@_0PP@PNPEPNHP@Content?9type?3?5text?1html?$AN?6Expires@ 00439148     dependtree:WebSession.obj
 0002:00002248       ??_C@_04CLOGDNII@aaaa?$AA@ 00439248     dependtree:WebSession.obj
 0002:00002250       ??_C@_0BAF@MPCEHKGJ@?$DMbody?5onload?$DN?$CCdoOnLoad?$CI?$CJ?$DL?5?$CC?5?$CFs?5?$DO@ 00439250     dependtree:WebSession.obj
 0002:00002358       ??_C@_02DKCKIIND@?$CFs?$AA@ 00439358     dependtree:WebSession.obj
 0002:00002360       ??_C@_0CIM@HKODIHPB@Content?9type?3?5text?1html?$AN?6Content@ 00439360     dependtree:WebSession.obj
 0002:000025ec       ??_C@_04EFNHPJLJ@?8?$CJ?$DL?6?$AA@ 004395ec     dependtree:WebSession.obj
 0002:000025f4       ??_C@_0L@BLLNIFBE@?5?5update?$CI?8?$AA@ 004395f4     dependtree:WebSession.obj
 0002:00002600       ??_C@_0CO@PKMFBNJI@?5?5keepAliveTimer?5?$DN?5setTimeout?$CI?8k@ 00439600     dependtree:WebSession.obj
 0002:00002630       ??_C@_0BH@OAEFMFOH@function?5doOnLoad?$CI?$CJ?5?$HL?6?$AA@ 00439630     dependtree:WebSession.obj
 0002:00002648       ??_C@_02KGHIDFGE@?$HN?6?$AA@ 00439648     dependtree:WebSession.obj
 0002:0000264c       ??_C@_0BD@PBGLOMJH@?5?5update?$CI?8none?8?$CJ?$DL?6?$AA@ 0043964c     dependtree:WebSession.obj
 0002:00002660       ??_C@_0BD@OCIJGHFN@?5?5update?$CI?8load?8?$CJ?$DL?6?$AA@ 00439660     dependtree:WebSession.obj
 0002:00002674       ??_C@_0BI@CBJMJNEA@function?5keepAlive?$CI?$CJ?5?$HL?6?$AA@ 00439674     dependtree:WebSession.obj
 0002:0000268c       ??_C@_0BE@HMKHAFPP@var?5keepAliveTimer?$DL?$AA@ 0043968c     dependtree:WebSession.obj
 0002:000026a0       ??_C@_0FAK@NIPMGEIA@?$CJ?$CJ?$DL?6?5?5?5?5?5?5?5?5requests?$FLi?$FN?5?$DN?5null?$DL?6@ 004396a0     dependtree:WebSession.obj
 0002:00002bb0       ??_C@_0EN@OJNGNAII@?$CJ?$DL?6?5?5?5?5?5?5?5?5var?5message_num?5?$DN?5par@ 00439bb0     dependtree:WebSession.obj
 0002:00002c00       ??_C@_0CFI@JANILONK@?8?$DL?6function?5getElement?$CIname?$CJ?5?$HL?6?5@ 00439c00     dependtree:WebSession.obj
 0002:00002e58       ??_C@_0BC@EBFPCKI@?8?$DL?6var?5appUrl?5?$DN?5?8?$AA@ 00439e58     dependtree:WebSession.obj
 0002:00002e6c       ??_C@_0M@GPDDOJFA@var?5url?5?$DN?5?8?$AA@ 00439e6c     dependtree:WebSession.obj
 0002:00002e78       ??_C@_0CB@JGNNPNFC@?$CJ?$DL?6return?50?$DL?$HNelse?$HL?6return?51?$DL?$HN?6?$HN?6@ 00439e78     dependtree:WebSession.obj
 0002:00002ea0       ??_C@_0MP@KMHLKHJG@?5?5xmlHttpReq?4open?$CI?8GET?8?0?5url?5?$CL?5q@ 00439ea0     dependtree:WebSession.obj
 0002:00002f70       ??_C@_0BGE@CCMDEBKK@?5?5xmlHttpReq?4open?$CI?8GET?8?0?5url?0?5tr@ 00439f70     dependtree:WebSession.obj
 0002:000030d4       ??_C@_0M@BPGNFEI@SCRIPT_NAME?$AA@ 0043a0d4     dependtree:WebSession.obj
 0002:000030e0       ??_C@_06LNKFDEGN@noname?$AA@ 0043a0e0     dependtree:WebSession.obj
 0002:000030e8       ??_C@_03NBFACCKM@?$CJ?$DL?6?$AA@ 0043a0e8     dependtree:WebSession.obj
 0002:000030ec       ??_C@_0BN@BAOGKJEL@var?5formObjects?5?$DN?5new?5Array?$CI?$AA@ 0043a0ec     dependtree:WebSession.obj
 0002:00003110       ??_C@_0KP@GDEGKGKH@Content?9Type?3?5text?1plain?$DLcharset@ 0043a110     dependtree:WebSession.obj
 0002:000031c0       ??_C@_0N@JCBHBJNP@Responding?3?5?$AA@ 0043a1c0     dependtree:WebSession.obj
 0002:000031d0       ??_C@_07KNGDIDJJ@?$DO?$DO?$DO?$DO?$DO?$DO?$DO?$AA@ 0043a1d0     dependtree:WebSession.obj
 0002:000031d8       ??_C@_07NEGKBJMB@?$DM?$DM?$DM?$DM?$DM?$DM?$DM?$AA@ 0043a1d8     dependtree:WebSession.obj
 0002:000031e0       ??_C@_03GLPMCEFE@msg?$AA@  0043a1e0     dependtree:WebSession.obj
 0002:000031e4       ??_C@_0BN@PCPHJKEC@getElement?$CI?8form?8?$CJ?4submit?$CI?$CJ?$DL?$AA@ 0043a1e4     dependtree:WebSession.obj
 0002:00003204       ??_C@_0BO@KAGIEEII@clearTimeout?$CIkeepAliveTimer?$CJ?$DL?$AA@ 0043a204     dependtree:WebSession.obj
 0002:00003224       ??_C@_02LJALELK@?$CJ?$DL?$AA@ 0043a224     dependtree:WebSession.obj
 0002:00003228       ??_C@_0BJ@NADNEMG@formObjects?5?$DN?5new?5Array?$CI?$AA@ 0043a228     dependtree:WebSession.obj
 0002:00003244       ??_C@_04MLMMMEIO@form?$AA@ 0043a244     dependtree:WebSession.obj
 0002:00003250       ??_C@_0KC@MHAFBMPD@Content?9Type?3?5text?1plain?$AN?6Pragma@ 0043a250     dependtree:WebSession.obj
 0002:000032f4       ??_C@_0P@CGDAMDO@Waiting?5?4?4?4?4?4?4?$AA@ 0043a2f4     dependtree:WebSession.obj
 0002:00003304       ??_C@_09CCIJNBCO@Good?5bye?4?$AA@ 0043a304     dependtree:WebSession.obj
 0002:00003310       ??_C@_0M@PLPOOMBO@?$DPsessionid?$DN?$AA@ 0043a310     dependtree:WebSession.obj
 0002:0000331c       ??_C@_0N@JBACMKAO@standalone_?6?$AA@ 0043a31c     dependtree:WebSession.obj
 0002:0000332c       ??_7WObject@@6B@           0043a32c     dependtree:WObject.obj
 0002:00003350       ??_C@_03GEJOLAED@o?$CFx?$AA@ 0043a350     dependtree:WObject.obj
 0002:00003354       ??_C@_0DD@HCCNKBMN@Internal?5error?3?5WObject?3?3setForm@ 0043a354     dependtree:WObject.obj
 0002:00003388       ??_C@_0DF@FOHNBDAA@Internal?5error?3?5WObject?3?3setNoFo@ 0043a388     dependtree:WObject.obj
 0002:000033c0       ??_C@_0DA@GPFPLMPH@WObject?5internal?5error?3?5slot?5not@ 0043a3c0     dependtree:WObject.obj
 0002:000033f0       ??_C@_0CA@EAGDNIEN@Warning?5could?5not?5find?5signal?3?5?$AA@ 0043a3f0     dependtree:WObject.obj
 0002:00003410       ??_C@_0CG@HKFMJOLG@Object?3?3connect?5could?5not?5find?5s@ 0043a410     dependtree:WObject.obj
 0002:00003438       ??_C@_0CI@PNMNPCOI@Object?3?3connect?5could?5not?5find?5s@ 0043a438     dependtree:WObject.obj
 0002:00003460       ??_C@_01BJJEKLCA@?$CC?$AA@ 0043a460     dependtree:WObject.obj
 0002:00003464       ??_C@_0BF@PKGBLNPE@destroyed?$CIWObject?5?$CK?$CJ?$AA@ 0043a464     dependtree:WObject.obj
 0002:0000347c       ??_C@_07DHHPHHAN@sv_name?$AA@ 0043a47c     dependtree:CheckBoxTreeView.obj
 0002:00003484       ??_C@_01HIHLOKLC@1?$AA@    0043a484     dependtree:CheckBoxTreeView.obj
 0002:00003488       ??_C@_0O@KLDNKPLI@xaddmonitor?$CI?$CJ?$AA@ 0043a488     dependtree:CheckBoxTreeView.obj
 0002:00003498       ??_C@_0BH@KNDICHMC@yListMonitorInDevice?$CI?$CJ?$AA@ 0043a498     dependtree:CheckBoxTreeView.obj
 0002:000034b0       ??_C@_0BI@GAMCHHPI@?1Images?1cbb?94server?4gif?$AA@ 0043a4b0     dependtree:CheckBoxTreeView.obj
 0002:000034c8       ??_C@_0BH@KEDFLKM@?1Images?1cbb?93group?4gif?$AA@ 0043a4c8     dependtree:CheckBoxTreeView.obj
 0002:000034e0       ??_C@_0M@GMPFIBID@yDoAppDec?$CI?$CJ?$AA@ 0043a4e0     dependtree:CheckBoxTreeView.obj
 0002:000034ec       ??_C@_09LGJPFNHD@yDoApp1?$CI?$CJ?$AA@ 0043a4ec     dependtree:CheckBoxTreeView.obj
 0002:000034f8       ??_C@_0O@NGILLKLP@?S?$KG?S?C?$LA?$PM?$MA?$KI?O?B?$LM?$LG?5?$AA@ 0043a4f8     dependtree:CheckBoxTreeView.obj
 0002:00003508       ??_C@_04PAJAEEFG@?S?$KG?S?C?$AA@ 0043a508     dependtree:CheckBoxTreeView.obj
 0002:00003510       ??_C@_07LAMOHCEE@monitor?$AA@ 0043a510     dependtree:CheckBoxTreeView.obj
 0002:00003518       ??_C@_06CHPEJBOD@device?$AA@ 0043a518     dependtree:CheckBoxTreeView.obj
 0002:00003520       ??_C@_0BC@GFKLEJHH@yDoSetAppEnable?$CI?$CJ?$AA@ 0043a520     dependtree:CheckBoxTreeView.obj
 0002:00003534       ??_C@_04PIMMHFGE@sort?$AA@ 0043a534     dependtree:CheckBoxTreeView.obj
 0002:0000353c       ??_C@_07JCMHMALF@t3title?$AA@ 0043a53c     dependtree:CheckBoxTreeView.obj
 0002:00003544       ??_C@_05MFEJDJP@value?$AA@ 0043a544     dependtree:CheckBoxTreeView.obj
 0002:0000354c       ??_C@_05MGJOOGAJ@group?$AA@ 0043a54c     dependtree:CheckBoxTreeView.obj
 0002:00003554       ??_C@_0O@GPBICCPF@userright?4ini?$AA@ 0043a554     dependtree:CheckBoxTreeView.obj
 0002:00003568       ??_7CCheckBoxTreeView@@6B@ 0043a568     dependtree:CheckBoxTreeView.obj
 0002:0000364c       ??_C@_0BN@EPFLDJCE@?1Images?1cbb?96application?4gif?$AA@ 0043a64c     dependtree:CheckBoxTreeView.obj
 0002:0000366c       ??_C@_08HLDNBINH@sv_index?$AA@ 0043a66c     dependtree:CheckBoxTreeView.obj
 0002:00003678       ??_C@_0BG@IGLPFKEN@AddMonitorInDevice?$CI?$CJ?6?$AA@ 0043a678     dependtree:CheckBoxTreeView.obj
 0002:00003690       ??_C@_06POKCHAGN@?N?$NO?R?$MA?$LP?$LP?$AA@ 0043a690     dependtree:CheckBoxTreeView.obj
 0002:00003698       ??_C@_02NNFLKHCP@?92?$AA@  0043a698     dependtree:CheckBoxTreeView.obj
 0002:0000369c       ??_C@_0BG@IJAEAIDB@?1Images?1cbb?92main?4gif?$AA@ 0043a69c     dependtree:CheckBoxTreeView.obj
 0002:000036b4       ??_C@_0L@ONIHMJIB@groupright?$AA@ 0043a6b4     dependtree:CheckBoxTreeView.obj
 0002:000036c0       ??_C@_06GEJIIGCF@nAdmin?$AA@ 0043a6c0     dependtree:CheckBoxTreeView.obj
 0002:000036c8       ??_C@_08NANACLBI@user?4ini?$AA@ 0043a6c8     dependtree:CheckBoxTreeView.obj
 0002:000036d4       ??_C@_0L@CLBMEFLF@margin_top?$AA@ 0043a6d4     dependtree:CheckBoxTreeView.obj
 0002:000036e0       __real@407c200000000000    0043a6e0     dependtree:CheckBoxTreeView.obj
 0002:000036e8       ??_C@_0CL@BJKPBBGC@SetViewPanelHeight?$CI?$CJ?$DLSetItemPane@ 0043a6e8     dependtree:CheckBoxTreeView.obj
 0002:00003714       ??_C@_0BH@KKAALPDO@ListMonitorInDevice?$CI?$CJ?6?$AA@ 0043a714     dependtree:CheckBoxTreeView.obj
 0002:00003730       ??_7WWidget@@6B@           0043a730     dependtree:WWidget.obj
 0002:00003808       ??_C@_0BIP@IILBEMLG@?6?$DM?1style?$DO?6?$DMscript?$DO?6function?5getE@ 0043a808     dependtree:WWidget.obj
 0002:00003998       ??_C@_0MG@CCCGPFFH@?$DM?$CBDOCTYPE?5HTML?5PUBLIC?5?$CC?9?1?1W3C?1?1D@ 0043a998     dependtree:WWidget.obj
 0002:00003a60       ??_C@_06MECGJHAK@show?$CI?$CJ?$AA@ 0043aa60     dependtree:WWidget.obj
 0002:00003a68       ??_C@_06OHGDCCJO@hide?$CI?$CJ?$AA@ 0043aa68     dependtree:WWidget.obj
 0002:00003a70       ??_C@_0DN@ELIKIDBM@Inconsitency?5in?5slot?5rConnection@ 0043aa70     dependtree:WSlotInstance_.obj
 0002:00003ab0       ??_C@_05PHBPDODA@s?$CF08x?$AA@ 0043aab0     dependtree:WSignalInstance_.obj
 0002:00003ab8       ??_C@_0DG@JCCGIFAC@Error?3?5decodeSignal?5did?5not?5yiel@ 0043aab8     dependtree:WSignalInstance_.obj
 0002:00003af0       ??_C@_03HOFBFIGE@s?$CFx?$AA@ 0043aaf0     dependtree:WSignalInstance_.obj
 0002:00003af4       ??_C@_0DF@EANCENCJ@WSignalInstance_?5trigger?5error?$CIC@ 0043aaf4     dependtree:WSignalInstance_.obj
 0002:00003b2c       ??_C@_0DO@MHJDBNCK@Inconsitency?5in?5signal?5connectio@ 0043ab2c     dependtree:WSignalInstance_.obj
 0002:00003b70       __real@bff0000000000000    0043ab70     dependtree:WLength.obj
 0002:00003b78       ??_C@_01FGNFDNOH@?$CF?$AA@ 0043ab78     dependtree:WLength.obj
 0002:00003b7c       ??_C@_02BKJPHGNJ@pc?$AA@   0043ab7c     dependtree:WLength.obj
 0002:00003b80       ??_C@_02BPBMPCEP@pt?$AA@   0043ab80     dependtree:WLength.obj
 0002:00003b84       ??_C@_02JAOCGLHE@mm?$AA@   0043ab84     dependtree:WLength.obj
 0002:00003b88       ??_C@_02JKHMEGHO@cm?$AA@   0043ab88     dependtree:WLength.obj
 0002:00003b8c       ??_C@_02LMMGJAGL@in?$AA@   0043ab8c     dependtree:WLength.obj
 0002:00003b90       ??_C@_02LDKJLNED@px?$AA@   0043ab90     dependtree:WLength.obj
 0002:00003b94       ??_C@_02KJEENMNI@ex?$AA@   0043ab94     dependtree:WLength.obj
 0002:00003b98       ??_C@_02JOPBDKMM@em?$AA@   0043ab98     dependtree:WLength.obj
 0002:00003b9c       ??_C@_07KBFHKJFO@colspan?$AA@ 0043ab9c     dependtree:WTableCell.obj
 0002:00003ba4       ??_C@_07HIFHGKLD@rowspan?$AA@ 0043aba4     dependtree:WTableCell.obj
 0002:00003bb0       ??_7WTableCell@@6B@        0043abb0     dependtree:WTableCell.obj
 0002:00003c9c       ??_C@_01PKGAHCOL@?$CJ?$AA@ 0043ac9c     dependtree:WCssDecorationStyle.obj
 0002:00003ca0       ??_C@_04NFEJJDKE@url?$CI?$AA@ 0043aca0     dependtree:WCssDecorationStyle.obj
 0002:00003ca8       ??_C@_04PCJFHION@help?$AA@ 0043aca8     dependtree:WCssDecorationStyle.obj
 0002:00003cb0       ??_C@_04CIMGMMMG@text?$AA@ 0043acb0     dependtree:WCssDecorationStyle.obj
 0002:00003cb8       ??_C@_04PNOAOIAG@wait?$AA@ 0043acb8     dependtree:WCssDecorationStyle.obj
 0002:00003cc0       ??_C@_04HDMMNHEL@move?$AA@ 0043acc0     dependtree:WCssDecorationStyle.obj
 0002:00003cc8       ??_C@_07PFMCDPMA@pointer?$AA@ 0043acc8     dependtree:WCssDecorationStyle.obj
 0002:00003cd0       ??_C@_09NBNKIDFG@crosshair?$AA@ 0043acd0     dependtree:WCssDecorationStyle.obj
 0002:00003cdc       ??_C@_0BD@KFHHFOBI@background?9color?3?5?$AA@ 0043acdc     dependtree:WCssDecorationStyle.obj
 0002:00003cf0       ??_C@_07KAFNLIIM@color?3?5?$AA@ 0043acf0     dependtree:WCssDecorationStyle.obj
 0002:00003cf8       ??_C@_08KGKGKIOE@border?3?5?$AA@ 0043acf8     dependtree:WCssDecorationStyle.obj
 0002:00003d04       ??_C@_0O@FPFNLAJK@cursor?3?5help?$DL?$AA@ 0043ad04     dependtree:WCssDecorationStyle.obj
 0002:00003d14       ??_C@_0O@PDDLBKGO@cursor?3?5text?$DL?$AA@ 0043ad14     dependtree:WCssDecorationStyle.obj
 0002:00003d24       ??_C@_0O@GIIKPOPK@cursor?3?5wait?$DL?$AA@ 0043ad24     dependtree:WCssDecorationStyle.obj
 0002:00003d34       ??_C@_0O@GAGJOPOI@cursor?3?5move?$DL?$AA@ 0043ad34     dependtree:WCssDecorationStyle.obj
 0002:00003d44       ??_C@_0BB@FBDLJFMK@cursor?3?5pointer?$DL?$AA@ 0043ad44     dependtree:WCssDecorationStyle.obj
 0002:00003d58       ??_C@_0BD@JECKKIPL@cursor?3?5crosshair?$DL?$AA@ 0043ad58     dependtree:WCssDecorationStyle.obj
 0002:00003d6c       ??_C@_0BB@HCCMECML@cursor?3?5default?$DL?$AA@ 0043ad6c     dependtree:WCssDecorationStyle.obj
 0002:00003d80       ??_C@_01KICIPPFI@?2?$AA@   0043ad80     dependtree:DomElement.obj
 0002:00003d84       ??_C@_0N@LLFCKHIP@getElement?$CI?8?$AA@ 0043ad84     dependtree:DomElement.obj
 0002:00003d94       ??_C@_0BJ@DEOAEKPD@document?4createElement?$CI?8?$AA@ 0043ad94     dependtree:DomElement.obj
 0002:00003db0       ??_C@_09ODEEPDNN@?$DM?1button?$DO?$AA@ 0043adb0     dependtree:DomElement.obj
 0002:00003dbc       ??_C@_0CM@GKNGGEHM@?$DMbutton?5type?$DN?8submit?8?5name?$DN?8sign@ 0043adbc     dependtree:DomElement.obj
 0002:00003de8       ??_C@_0HM@MFBICANB@?5style?$DN?8border?30px?$DLbackground?9co@ 0043ade8     dependtree:DomElement.obj
 0002:00003e64       ??_C@_03MFNJFHN@?5?1?$DO?$AA@ 0043ae64     dependtree:DomElement.obj
 0002:00003e68       ??_C@_02DPNDACHE@?$DM?1?$AA@ 0043ae68     dependtree:DomElement.obj
 0002:00003e6c       ??_C@_01PPODPGHN@?$DO?$AA@ 0043ae6c     dependtree:DomElement.obj
 0002:00003e70       ??_C@_08CLJOAOGL@?5style?$DN?8?$AA@ 0043ae70     dependtree:DomElement.obj
 0002:00003e7c       ??_C@_01JLIPDDHJ@?3?$AA@   0043ae7c     dependtree:DomElement.obj
 0002:00003e80       ??_C@_0BM@IOPAFEEE@cursor?3pointer?$DLcursor?3hand?$DL?$AA@ 0043ae80     dependtree:DomElement.obj
 0002:00003e9c       ??_C@_07GCCODDFC@display?$AA@ 0043ae9c     dependtree:DomElement.obj
 0002:00003ea4       ??_C@_0P@LEPGJDNP@border?9spacing?$AA@ 0043aea4     dependtree:DomElement.obj
 0002:00003eb4       ??_C@_0N@IPIFHOKP@table?9layout?$AA@ 0043aeb4     dependtree:DomElement.obj
 0002:00003ec4       ??_C@_0BC@JMIAACLG@background?9repeat?$AA@ 0043aec4     dependtree:DomElement.obj
 0002:00003ed8       ??_C@_0BB@IEADCOI@background?9image?$AA@ 0043aed8     dependtree:DomElement.obj
 0002:00003eec       ??_C@_0BB@CKOBEPBN@background?9color?$AA@ 0043aeec     dependtree:DomElement.obj
 0002:00003f00       ??_C@_09JMJCKNGA@font?9size?$AA@ 0043af00     dependtree:DomElement.obj
 0002:00003f0c       ??_C@_0M@MOMJMPLL@font?9weight?$AA@ 0043af0c     dependtree:DomElement.obj
 0002:00003f18       ??_C@_0N@JFFDBOKB@font?9variant?$AA@ 0043af18     dependtree:DomElement.obj
 0002:00003f28       ??_C@_0L@NALAKLEF@font?9style?$AA@ 0043af28     dependtree:DomElement.obj
 0002:00003f34       ??_C@_0M@DDAJBNLF@font?9family?$AA@ 0043af34     dependtree:DomElement.obj
 0002:00003f40       ??_C@_08CLAAFLMB@overflow?$AA@ 0043af40     dependtree:DomElement.obj
 0002:00003f4c       ??_C@_05PEENBMOG@color?$AA@ 0043af4c     dependtree:DomElement.obj
 0002:00003f54       ??_C@_06ODFLABIG@border?$AA@ 0043af54     dependtree:DomElement.obj
 0002:00003f5c       ??_C@_06CHDIMBDP@cursor?$AA@ 0043af5c     dependtree:DomElement.obj
 0002:00003f64       ??_C@_0M@JBBPKIJL@margin?9left?$AA@ 0043af64     dependtree:DomElement.obj
 0002:00003f70       ??_C@_0O@DCOEOMDK@margin?9bottom?$AA@ 0043af70     dependtree:DomElement.obj
 0002:00003f80       ??_C@_0N@HNLDFKAN@margin?9right?$AA@ 0043af80     dependtree:DomElement.obj
 0002:00003f90       ??_C@_0L@KIAOPGBK@margin?9top?$AA@ 0043af90     dependtree:DomElement.obj
 0002:00003f9c       ??_C@_07MKEAMJFF@padding?$AA@ 0043af9c     dependtree:DomElement.obj
 0002:00003fa4       ??_C@_0L@EPOEGDBL@text?9align?$AA@ 0043afa4     dependtree:DomElement.obj
 0002:00003fb0       ??_C@_0P@OFMNGKHB@vertical?9align?$AA@ 0043afb0     dependtree:DomElement.obj
 0002:00003fc0       ??_C@_0L@MHDBIMKP@max?9height?$AA@ 0043afc0     dependtree:DomElement.obj
 0002:00003fcc       ??_C@_09GKDGDGOF@max?9width?$AA@ 0043afcc     dependtree:DomElement.obj
 0002:00003fd8       ??_C@_0L@LDMPHKA@min?9height?$AA@ 0043afd8     dependtree:DomElement.obj
 0002:00003fe4       ??_C@_09GLDKKMFB@min?9width?$AA@ 0043afe4     dependtree:DomElement.obj
 0002:00003ff0       ??_C@_06LNLHEAAG@height?$AA@ 0043aff0     dependtree:DomElement.obj
 0002:00003ff8       ??_C@_05IGKADHGO@width?$AA@ 0043aff8     dependtree:DomElement.obj
 0002:00004000       ??_C@_05MEHLAELG@clear?$AA@ 0043b000     dependtree:DomElement.obj
 0002:00004008       ??_C@_05KNFBNCOH@float?$AA@ 0043b008     dependtree:DomElement.obj
 0002:00004010       ??_C@_07BNGAPIEN@z?9index?$AA@ 0043b010     dependtree:DomElement.obj
 0002:00004018       ??_C@_08OAGMDKAF@position?$AA@ 0043b018     dependtree:DomElement.obj
 0002:00004024       ??_C@_06HMGPEJJG@?5src?$DN?8?$AA@ 0043b024     dependtree:DomElement.obj
 0002:0000402c       ??_C@_0BF@FBAKKPBN@?5selected?$DN?8selected?8?$AA@ 0043b02c     dependtree:DomElement.obj
 0002:00004044       ??_C@_0BD@HIINCOEM@?5checked?$DN?8checked?8?$AA@ 0043b044     dependtree:DomElement.obj
 0002:00004058       ??_C@_0BF@NHEIMONN@?5disabled?$DN?8disabled?8?$AA@ 0043b058     dependtree:DomElement.obj
 0002:00004070       ??_C@_03MGHMEFOJ@?5on?$AA@ 0043b070     dependtree:DomElement.obj
 0002:00004074       ??_C@_0L@KGJFMADL@?5onClick?$DN?8?$AA@ 0043b074     dependtree:DomElement.obj
 0002:00004080       ??_C@_05JPIBOKKE@?5id?$DN?8?$AA@ 0043b080     dependtree:DomElement.obj
 0002:00004088       ??_C@_01MNNFJEPP@?$DM?$AA@ 0043b088     dependtree:DomElement.obj
 0002:0000408c       ??_C@_0DD@HEICNDHG@ERROR?3?5DomElement?3?3asHTML?$CI?$CJ?5call@ 0043b08c     dependtree:DomElement.obj
 0002:000040c0       ??_C@_01CELHOKLL@?$HN?$AA@ 0043b0c0     dependtree:DomElement.obj
 0002:000040c4       ??_C@_03PHAHCGIK@?$CJ?5?$HL?$AA@ 0043b0c4     dependtree:DomElement.obj
 0002:000040c8       ??_C@_04NGKCFNEL@if?5?$CI?$AA@ 0043b0c8     dependtree:DomElement.obj
 0002:000040d0       ??_C@_05FFEDCMJC@?$CJ?$DN?$DN0?$CJ?$AA@ 0043b0d0     dependtree:DomElement.obj
 0002:000040d8       ??_C@_0L@JCMCHOOG@if?$CIupdate?$CI?$AA@ 0043b0d8     dependtree:DomElement.obj
 0002:000040e4       ??_C@_07FCCOOMFC@update?$CI?$AA@ 0043b0e4     dependtree:DomElement.obj
 0002:000040ec       ??_C@_0BA@JBCBHPKD@?$CGarg?$DN?8?5?$CL?5event?4?$AA@ 0043b0ec     dependtree:DomElement.obj
 0002:000040fc       ??_C@_04MEMAJGDJ@name?$AA@ 0043b0fc     dependtree:DomElement.obj
 0002:00004104       ??_C@_01LFCBOECM@?4?$AA@   0043b104     dependtree:DomElement.obj
 0002:00004108       ??_C@_06OPIJGPAC@style?4?$AA@ 0043b108     dependtree:DomElement.obj
 0002:00004110       ??_C@_0N@GKIHHGFC@borderSpacin?$AA@ 0043b110     dependtree:DomElement.obj
 0002:00004120       ??_C@_0M@LJPHCJB@tableLayout?$AA@ 0043b120     dependtree:DomElement.obj
 0002:0000412c       ??_C@_0BB@CFOEMJJH@backgroundRepeat?$AA@ 0043b12c     dependtree:DomElement.obj
 0002:00004140       ??_C@_0BA@KFPBKJO@backgroundImage?$AA@ 0043b140     dependtree:DomElement.obj
 0002:00004150       ??_C@_0BA@CIPOGHGL@backgroundColor?$AA@ 0043b150     dependtree:DomElement.obj
 0002:00004160       ??_C@_08MAPKGPB@fontSize?$AA@ 0043b160     dependtree:DomElement.obj
 0002:0000416c       ??_C@_0L@DBEBDNPF@fontWeight?$AA@ 0043b16c     dependtree:DomElement.obj
 0002:00004178       ??_C@_0M@EMIPKME@fontVariant?$AA@ 0043b178     dependtree:DomElement.obj
 0002:00004184       ??_C@_09FHCIJFJM@fontStyle?$AA@ 0043b184     dependtree:DomElement.obj
 0002:00004190       ??_C@_0L@MMIBOPPL@fontFamily?$AA@ 0043b190     dependtree:DomElement.obj
 0002:0000419c       ??_C@_0L@IPEEGGJG@marginLeft?$AA@ 0043b19c     dependtree:DomElement.obj
 0002:000041a8       ??_C@_0N@PLJGGDJL@marginBottom?$AA@ 0043b1a8     dependtree:DomElement.obj
 0002:000041b8       ??_C@_0M@DBMHNHO@marginRight?$AA@ 0043b1b8     dependtree:DomElement.obj
 0002:000041c4       ??_C@_09PCDCJDII@marginTop?$AA@ 0043b1c4     dependtree:DomElement.obj
 0002:000041d0       ??_C@_09PKLPGIBN@textAlign?$AA@ 0043b1d0     dependtree:DomElement.obj
 0002:000041dc       ??_C@_0O@NJPKFNHD@verticalAlign?$AA@ 0043b1dc     dependtree:DomElement.obj
 0002:000041ec       ??_C@_09BMFIFOJA@maxHeight?$AA@ 0043b1ec     dependtree:DomElement.obj
 0002:000041f8       ??_C@_08LICNNPMP@maxWidth?$AA@ 0043b1f8     dependtree:DomElement.obj
 0002:00004204       ??_C@_09BNFEMECE@minHeight?$AA@ 0043b204     dependtree:DomElement.obj
 0002:00004210       ??_C@_08GPMGGNIO@minWidth?$AA@ 0043b210     dependtree:DomElement.obj
 0002:0000421c       ??_C@_06DJGAKHAN@zIndex?$AA@ 0043b21c     dependtree:DomElement.obj
 0002:00004224       ??_C@_03LOJEKLML@src?$AA@  0043b224     dependtree:DomElement.obj
 0002:00004228       ??_C@_0O@MEMLIBHC@selectedIndex?$AA@ 0043b228     dependtree:DomElement.obj
 0002:00004238       ??_C@_08CJLOJPNI@selected?$AA@ 0043b238     dependtree:DomElement.obj
 0002:00004244       ??_C@_07FJOBMBFC@checked?$AA@ 0043b244     dependtree:DomElement.obj
 0002:0000424c       ??_C@_02JOGGLHBA@?2n?$AA@  0043b24c     dependtree:DomElement.obj
 0002:00004250       ??_C@_09PHEBAKOD@innerHTML?$AA@ 0043b250     dependtree:DomElement.obj
 0002:0000425c       ??_C@_0O@LAGNDCPN@?4appendChild?$CI?$AA@ 0043b25c     dependtree:DomElement.obj
 0002:0000426c       ??_C@_0P@BDCOLHAJ@?4insertBefore?$CI?$AA@ 0043b26c     dependtree:DomElement.obj
 0002:0000427c       ??_C@_02HMFFLFL@?$CC?$DL?$AA@ 0043b27c     dependtree:DomElement.obj
 0002:00004280       ??_C@_0N@CDLOEJDL@?4innerHTML?$DN?$CC?$AA@ 0043b280     dependtree:DomElement.obj
 0002:00004290       ??_C@_03CGKDDCNK@?4on?$AA@ 0043b290     dependtree:DomElement.obj
 0002:00004294       ??_C@_04OBNAGKEO@?$CI?$CJ?5?$HL?$AA@ 0043b294     dependtree:DomElement.obj
 0002:0000429c       ??_C@_09LFJOPOOD@function?5?$AA@ 0043b29c     dependtree:DomElement.obj
 0002:000042a8       ??_C@_0BN@LANLCCEN@?4setAttribute?$CI?8className?8?0?5?8?$AA@ 0043b2a8     dependtree:DomElement.obj
 0002:000042c8       ??_C@_03NPKONFAB@?$CC?$CJ?$DL?$AA@ 0043b2c8     dependtree:DomElement.obj
 0002:000042cc       ??_C@_04PHMHGEMA@?$CC?0?5?$CC?$AA@ 0043b2cc     dependtree:DomElement.obj
 0002:000042d4       ??_C@_0BA@JMAFAAMI@?4setAttribute?$CI?$CC?$AA@ 0043b2d4     dependtree:DomElement.obj
 0002:000042e4       ??_C@_02HDBGODGB@?2?2?$AA@ 0043b2e4     dependtree:DomElement.obj
 0002:000042e8       ??_C@_02EGCJHIOB@id?$AA@   0043b2e8     dependtree:DomElement.obj
 0002:000042ec       ??_C@_0O@PGDBEOFL@?4firstChild?$CJ?$DL?$AA@ 0043b2ec     dependtree:DomElement.obj
 0002:000042fc       ??_C@_0O@IEOJJLPH@?4removeChild?$CI?$AA@ 0043b2fc     dependtree:DomElement.obj
 0002:0000430c       ??_C@_0P@CAPHFFJO@?4firstChild?$CJ?5?$HL?$AA@ 0043b30c     dependtree:DomElement.obj
 0002:0000431c       ??_C@_07JOMAJBDI@while?5?$CI?$AA@ 0043b31c     dependtree:DomElement.obj
 0002:00004324       ??_C@_0BK@NMGGLNCE@?4parentNode?4insertBefore?$CI?$AA@ 0043b324     dependtree:DomElement.obj
 0002:00004340       ??_C@_0BK@EBFOEFIC@?4parentNode?4replaceChild?$CI?$AA@ 0043b340     dependtree:DomElement.obj
 0002:0000435c       ??_C@_0BJ@HGHGCPMB@?4parentNode?4removeChild?$CI?$AA@ 0043b35c     dependtree:DomElement.obj
 0002:00004378       ??_C@_07GDIJMEOM@block?$CI?8?$AA@ 0043b378     dependtree:DomElement.obj
 0002:00004380       ??_C@_08IJNLHNAE@inline?$CI?8?$AA@ 0043b380     dependtree:DomElement.obj
 0002:0000438c       ??_C@_03OIHACFDD@?8?$CJ?$DL?$AA@ 0043b38c     dependtree:DomElement.obj
 0002:00004390       ??_C@_06HJOAAPBA@hide?$CI?8?$AA@ 0043b390     dependtree:DomElement.obj
 0002:00004398       ??_C@_01JBBJJEPG@p?$AA@    0043b398     dependtree:DomElement.obj
 0002:0000439c       ??_C@_02EOEPPNBF@tr?$AA@   0043b39c     dependtree:DomElement.obj
 0002:000043a0       ??_C@_08DEBIGDAL@textarea?$AA@ 0043b3a0     dependtree:DomElement.obj
 0002:000043ac       ??_C@_02FCNHEIMC@td?$AA@   0043b3ac     dependtree:DomElement.obj
 0002:000043b0       ??_C@_05OPBKHDLA@tbody?$AA@ 0043b3b0     dependtree:DomElement.obj
 0002:000043b8       ??_C@_05LCLENNFI@table?$AA@ 0043b3b8     dependtree:DomElement.obj
 0002:000043c0       ??_C@_04FOPLNFFP@span?$AA@ 0043b3c0     dependtree:DomElement.obj
 0002:000043c8       ??_C@_02JLMMKIPN@ul?$AA@   0043b3c8     dependtree:DomElement.obj
 0002:000043cc       ??_C@_06OGMGCFPO@option?$AA@ 0043b3cc     dependtree:DomElement.obj
 0002:000043d4       ??_C@_02IKHNIOFL@ol?$AA@   0043b3d4     dependtree:DomElement.obj
 0002:000043d8       ??_C@_02PFEMMEEH@li?$AA@   0043b3d8     dependtree:DomElement.obj
 0002:000043dc       ??_C@_06BCIOHMBM@legend?$AA@ 0043b3dc     dependtree:DomElement.obj
 0002:000043e4       ??_C@_05IDCCNNGI@label?$AA@ 0043b3e4     dependtree:DomElement.obj
 0002:000043ec       ??_C@_05DFJCHPDH@input?$AA@ 0043b3ec     dependtree:DomElement.obj
 0002:000043f4       ??_C@_03PCCGDNHJ@img?$AA@  0043b3f4     dependtree:DomElement.obj
 0002:000043f8       ??_C@_06PKBNCBKI@iframe?$AA@ 0043b3f8     dependtree:DomElement.obj
 0002:00004400       ??_C@_02MPGGCNAA@h6?$AA@   0043b400     dependtree:DomElement.obj
 0002:00004404       ??_C@_02OEELHOMD@h5?$AA@   0043b404     dependtree:DomElement.obj
 0002:00004408       ??_C@_02PNFAEPIC@h4?$AA@   0043b408     dependtree:DomElement.obj
 0002:0000440c       ??_C@_02LCBBNJEF@h3?$AA@   0043b40c     dependtree:DomElement.obj
 0002:00004410       ??_C@_02KLAKOIAE@h2?$AA@   0043b410     dependtree:DomElement.obj
 0002:00004414       ??_C@_02IACHLLMH@h1?$AA@   0043b414     dependtree:DomElement.obj
 0002:00004418       ??_C@_08EPOEGPEK@fieldset?$AA@ 0043b418     dependtree:DomElement.obj
 0002:00004424       ??_C@_03FEJMGOGI@div?$AA@  0043b424     dependtree:DomElement.obj
 0002:00004428       ??_C@_03HNOLNALI@col?$AA@  0043b428     dependtree:DomElement.obj
 0002:0000442c       ??_C@_02FGOECCNH@br?$AA@   0043b42c     dependtree:DomElement.obj
 0002:00004430       ??_C@_01MCMALHOG@a?$AA@    0043b430     dependtree:DomElement.obj
 0002:00004434       ??_7WResource@@6B@         0043b434     dependtree:WResource.obj
 0002:00004460       ??_C@_0DJ@LBMPNAAI@Error?3?5decodeResource?5did?5not?5yi@ 0043b460     dependtree:WResource.obj
 0002:0000449c       ??_C@_06NCIJHFGC@?$CGrand?$DN?$AA@ 0043b49c     dependtree:WResource.obj
 0002:000044a4       ??_C@_0L@JEKCAGPD@?$CGresource?$DN?$AA@ 0043b4a4     dependtree:WResource.obj
 0002:000044b0       ??_C@_05IDALPMNA@o?$CF08x?$AA@ 0043b4b0     dependtree:WResource.obj
 0002:000044b8       ??_C@_0O@JMHFBBI@dataChanged?$CI?$CJ?$AA@ 0043b4b8     dependtree:WResource.obj
 0002:000044c8       ??_7WLabel@@6B@            0043b4c8     dependtree:WLabel.obj
 0002:000045ac       ??_C@_03JOHEBPFF@for?$AA@  0043b5ac     dependtree:WLabel.obj
 0002:000045b0       ??_C@_07ENBDKFKF@?4scroll?$AA@ 0043b5b0     dependtree:WScrollBar.obj
 0002:000045b8       ??_C@_03PGGAENPN@Top?$AA@  0043b5b8     dependtree:WScrollBar.obj
 0002:000045bc       ??_C@_04KPCPLBPL@Left?$AA@ 0043b5bc     dependtree:WScrollBar.obj
 0002:000045c4       ??_7WScrollBar@@6B@        0043b5c4     dependtree:WScrollBar.obj
 0002:000045e8       ??_C@_0O@BGAHHIHP@setValue?$CIint?$CJ?$AA@ 0043b5e8     dependtree:WScrollBar.obj
 0002:000045f8       ??_C@_02HHFHKOHM@?$DP?$DP?$AA@ 0043b5f8     dependtree:WMessageResourceBundle.obj
 0002:000045fc       ??_C@_01CBDEGOCN@j?$AA@    0043b5fc     dependtree:JavaScript.obj
 0002:00004600       ??_C@_04OCEBFHH@var?5?$AA@ 0043b600     dependtree:JavaScript.obj
 0002:00004608       ??_C@_01INIBCBCB@f?$AA@    0043b608     dependtree:JavaScript.obj
 0002:00004610       ??_7WLineEdit@@6B@         0043b610     dependtree:WLineEdit.obj
 0002:000046f4       ??_C@_08NLHBPEGP@password?$AA@ 0043b6f4     dependtree:WLineEdit.obj
 0002:00004700       ??_C@_04IAGNFIBA@size?$AA@ 0043b700     dependtree:WLineEdit.obj
 0002:00004708       ??_C@_0BL@BJCEPIHI@setText?$CIconst?5std?3?3string?$CJ?$AA@ 0043b708     dependtree:WLineEdit.obj
 0002:00004728       ??_7WAbstractToggleButton@@6B@ 0043b728     dependtree:WAbstractToggleButton.obj
 0002:0000480c       ??_C@_01GBGANLPD@0?$AA@    0043b80c     dependtree:WAbstractToggleButton.obj
 0002:00004810       ??_C@_0BC@IKAFKGAD@?4checked?5?$DN?$DN?5false?$AA@ 0043b810     dependtree:WAbstractToggleButton.obj
 0002:00004824       ??_C@_0BB@KFEGLHH@?4checked?5?$DN?$DN?5true?$AA@ 0043b824     dependtree:WAbstractToggleButton.obj
 0002:00004838       ??_C@_0N@OLOJNFLF@xunChecked?$CI?$CJ?$AA@ 0043b838     dependtree:WAbstractToggleButton.obj
 0002:00004848       ??_C@_0L@NKBKHGIO@xchecked?$CI?$CJ?$AA@ 0043b848     dependtree:WAbstractToggleButton.obj
 0002:00004854       ??_C@_0P@KOJKKDEC@setUnChecked?$CI?$CJ?$AA@ 0043b854     dependtree:WAbstractToggleButton.obj
 0002:00004864       ??_C@_0N@EMGBBLKF@setChecked?$CI?$CJ?$AA@ 0043b864     dependtree:WAbstractToggleButton.obj
 0002:00004874       ??_C@_0BB@HBHJKCDC@setChecked?$CIbool?$CJ?$AA@ 0043b874     dependtree:WAbstractToggleButton.obj
 0002:00004888       ??_C@_0M@HPLPPKLB@unChecked?$CI?$CJ?$AA@ 0043b888     dependtree:WAbstractToggleButton.obj
 0002:00004894       ??_C@_09BGPGBMKC@checked?$CI?$CJ?$AA@ 0043b894     dependtree:WAbstractToggleButton.obj
 0002:000048a0       ??_7WCheckBox@@6B@         0043b8a0     dependtree:WCheckBox.obj
 0002:00004984       ??_C@_08PDFIPFLP@checkbox?$AA@ 0043b984     dependtree:WCheckBox.obj
 0002:00004990       ??_C@_0BE@JNJEEPD@ypropagateChanged?$CI?$CJ?$AA@ 0043b990     dependtree:WComboBox.obj
 0002:000049a4       ??_C@_0BO@PGNJGEDM@xactivated?$CIconst?5std?3?3string?$CJ?$AA@ 0043b9a4     dependtree:WComboBox.obj
 0002:000049c4       ??_C@_0BA@KKGLACLA@xactivated?$CIint?$CJ?$AA@ 0043b9c4     dependtree:WComboBox.obj
 0002:000049d8       ??_7WComboBox@@6B@         0043b9d8     dependtree:WComboBox.obj
 0002:00004abc       ??_C@_0BC@FGLPDPEM@propagateChange?$CI?$CJ?$AA@ 0043babc     dependtree:WComboBox.obj
 0002:00004ad0       ??_C@_07MHOKIBOP@clear?$CI?$CJ?$AA@ 0043bad0     dependtree:WComboBox.obj
 0002:00004ad8       ??_C@_0BN@EMAKDDOB@activated?$CIconst?5std?3?3string?$CJ?$AA@ 0043bad8     dependtree:WComboBox.obj
 0002:00004af8       ??_C@_0P@DNHGGGFE@activated?$CIint?$CJ?$AA@ 0043baf8     dependtree:WComboBox.obj
 0002:00004b08       ??_7WBreak@@6B@            0043bb08     dependtree:WBreak.obj
 0002:00004bf0       ??_C@_0EF@IMDHDOOJ@?5onmouseover?$DN?$CCthis?4className?$DN?8?$CFs@ 0043bbf0     dependtree:WSVLinkText.obj
 0002:00004c38       ??_C@_08KKNCKPIE@fontlink?$AA@ 0043bc38     dependtree:WSVLinkText.obj
 0002:00004c48       ??_7WSVLinkText@@6B@       0043bc48     dependtree:WSVLinkText.obj
 0002:00004d2c       ??_C@_0M@EPLPOLBH@fontlinover?$AA@ 0043bd2c     dependtree:WSVLinkText.obj
 0002:00004d38       ??_C@_0O@DDJDHCDM@update?$CI?$CC?$CFs?$CC?$CJ?$DL?$AA@ 0043bd38     dependtree:WTreeNode.obj
 0002:00004d48       ??_C@_08ELKHPGPC@assssss?6?$AA@ 0043bd48     dependtree:WTreeNode.obj
 0002:00004d54       ??_C@_0P@MDBHMENH@treelinkactive?$AA@ 0043bd54     dependtree:WTreeNode.obj
 0002:00004d64       ??_C@_08FNHGEEN@treelink?$AA@ 0043bd64     dependtree:WTreeNode.obj
 0002:00004d70       ??_C@_0M@PHBLFHI@ycollapse?$CI?$CJ?$AA@ 0043bd70     dependtree:WTreeNode.obj
 0002:00004d7c       ??_C@_09LAPGFKAK@yexpand?$CI?$CJ?$AA@ 0043bd7c     dependtree:WTreeNode.obj
 0002:00004d88       ??_C@_09JAMEOKKD@tree_text?$AA@ 0043bd88     dependtree:WTreeNode.obj
 0002:00004d94       ??_C@_0BD@IHAANMIE@yOnTreeNodeCheck?$CI?$CJ?$AA@ 0043bd94     dependtree:WTreeNode.obj
 0002:00004da8       ??_C@_0O@DJNJHEAO@smallcheckbox?$AA@ 0043bda8     dependtree:WTreeNode.obj
 0002:00004db8       ??_C@_0BA@GHHAMFMJ@padding_right_2?$AA@ 0043bdb8     dependtree:WTreeNode.obj
 0002:00004dc8       ??_C@_06ODLOODK@?$CGnbsp?$DL?$AA@ 0043bdc8     dependtree:WTreeNode.obj
 0002:00004dd0       ??_C@_0BF@FAKLPMLH@?4?4?1Images?19bland?4gif?$AA@ 0043bdd0     dependtree:WTreeNode.obj
 0002:00004de8       ??_C@_0BA@IGIDKCEA@yOnRightClick?$CI?$CJ?$AA@ 0043bde8     dependtree:WTreeNode.obj
 0002:00004df8       ??_7WTreeNode@@6B@         0043bdf8     dependtree:WTreeNode.obj
 0002:00004ecc       ??_C@_0BF@BBJFLFPD@?1Images?1cb1?9fold?4gif?$AA@ 0043becc     dependtree:WTreeNode.obj
 0002:00004ee4       ??_C@_0BH@ECFDCBBN@?1Images?1cb1?9unwrap?4gif?$AA@ 0043bee4     dependtree:WTreeNode.obj
 0002:00004efc       ??_C@_07IPHHBNKG@yshow?$CI?$CJ?$AA@ 0043befc     dependtree:WStateIcon.obj
 0002:00004f04       ??_C@_07KMDCKIDC@yhide?$CI?$CJ?$AA@ 0043bf04     dependtree:WStateIcon.obj
 0002:00004f10       ??_7WStateIcon@@6B@        0043bf10     dependtree:WStateIcon.obj
 0002:00004ffc       ??_C@_0BB@PKDEPLCC@DoSetAppEnable?$CI?$CJ?$AA@ 0043bffc     dependtree:CheckBoxTreeViewWt.obj
 0002:00005010       ??_C@_0L@MFEEENGF@DoAppDec?$CI?$CJ?$AA@ 0043c010     dependtree:CheckBoxTreeViewWt.obj
 0002:0000501c       ??_C@_08LJEAIPPJ@DoApp1?$CI?$CJ?$AA@ 0043c01c     dependtree:CheckBoxTreeViewWt.obj
 0002:00005028       ??_C@_0BG@OKCGIIHA@ListMonitorInDevice?$CI?$CJ?$AA@ 0043c028     dependtree:CheckBoxTreeViewWt.obj
 0002:00005040       ??_C@_04KDAMFBD@rgb?$CI?$AA@ 0043c040     dependtree:WColor.obj
 0002:00005048       ??_C@_05PMAELIEO@white?$AA@ 0043c048     dependtree:WColor.obj
 0002:00005050       ??_C@_05BIMBDNDC@black?$AA@ 0043c050     dependtree:WColor.obj
 0002:00005058       ??_C@_03FAAAOPJM@red?$AA@  0043c058     dependtree:WColor.obj
 0002:0000505c       ??_C@_06BDPIEPJF@maroon?$AA@ 0043c05c     dependtree:WColor.obj
 0002:00005064       ??_C@_04HLLEONLG@lime?$AA@ 0043c064     dependtree:WColor.obj
 0002:0000506c       ??_C@_05GBEEJKMC@green?$AA@ 0043c06c     dependtree:WColor.obj
 0002:00005074       ??_C@_04OBGPFBCN@blue?$AA@ 0043c074     dependtree:WColor.obj
 0002:0000507c       ??_C@_04DCMEIHPF@navy?$AA@ 0043c07c     dependtree:WColor.obj
 0002:00005084       ??_C@_04GANAGBLL@aqua?$AA@ 0043c084     dependtree:WColor.obj
 0002:0000508c       ??_C@_04LJCKMMGA@teal?$AA@ 0043c08c     dependtree:WColor.obj
 0002:00005094       ??_C@_07FHEBJCGF@fuchsia?$AA@ 0043c094     dependtree:WColor.obj
 0002:0000509c       ??_C@_06GEHONCEN@purple?$AA@ 0043c09c     dependtree:WColor.obj
 0002:000050a4       ??_C@_06ENJNJKEL@yellow?$AA@ 0043c0a4     dependtree:WColor.obj
 0002:000050ac       ??_C@_05OFIFEKBG@olive?$AA@ 0043c0ac     dependtree:WColor.obj
 0002:000050b4       ??_C@_04GEBBKIAA@gray?$AA@ 0043c0b4     dependtree:WColor.obj
 0002:000050bc       ??_C@_06NBGLMDBG@silver?$AA@ 0043c0bc     dependtree:WColor.obj
 0002:000050c4       ??_C@_0M@CEEDCJLA@transparent?$AA@ 0043c0c4     dependtree:WColor.obj
 0002:000050d0       ??_C@_06JLNLLEEF@larger?$AA@ 0043c0d0     dependtree:WFont.obj
 0002:000050d8       ??_C@_07OPOMIHHH@smaller?$AA@ 0043c0d8     dependtree:WFont.obj
 0002:000050e0       ??_C@_08MMBCODGJ@xx?9large?$AA@ 0043c0e0     dependtree:WFont.obj
 0002:000050ec       ??_C@_07EECEJGD@x?9large?$AA@ 0043c0ec     dependtree:WFont.obj
 0002:000050f4       ??_C@_05BHNOFNA@large?$AA@ 0043c0f4     dependtree:WFont.obj
 0002:000050fc       ??_C@_05KJDGBEEG@small?$AA@ 0043c0fc     dependtree:WFont.obj
 0002:00005104       ??_C@_07KMAJLIPF@x?9small?$AA@ 0043c104     dependtree:WFont.obj
 0002:0000510c       ??_C@_08GEFJBCPP@xx?9small?$AA@ 0043c10c     dependtree:WFont.obj
 0002:00005118       ??_C@_06HIDOEFBI@medium?$AA@ 0043c118     dependtree:WFont.obj
 0002:00005120       ??_C@_07IEMLKEO@lighter?$AA@ 0043c120     dependtree:WFont.obj
 0002:00005128       ??_C@_06DMILCIGF@bolder?$AA@ 0043c128     dependtree:WFont.obj
 0002:00005130       ??_C@_04PJDGFHHN@bold?$AA@ 0043c130     dependtree:WFont.obj
 0002:00005138       ??_C@_0L@OBDCDKNF@small?9caps?$AA@ 0043c138     dependtree:WFont.obj
 0002:00005144       ??_C@_06IKLLLDHL@normal?$AA@ 0043c144     dependtree:WFont.obj
 0002:0000514c       ??_C@_06DAHKLION@italic?$AA@ 0043c14c     dependtree:WFont.obj
 0002:00005154       ??_C@_07PNBIOHPA@oblique?$AA@ 0043c154     dependtree:WFont.obj
 0002:0000515c       ??_C@_09KGMMDNOE@monospace?$AA@ 0043c15c     dependtree:WFont.obj
 0002:00005168       ??_C@_08LMEPJBC@fantasay?$AA@ 0043c168     dependtree:WFont.obj
 0002:00005174       ??_C@_07IMKJHNBO@cursive?$AA@ 0043c174     dependtree:WFont.obj
 0002:0000517c       ??_C@_0L@LMHKFCHN@sans?9serif?$AA@ 0043c17c     dependtree:WFont.obj
 0002:00005188       ??_C@_05CHMOINJH@serif?$AA@ 0043c188     dependtree:WFont.obj
 0002:00005190       ??_C@_07PGOGPNPO@inherit?$AA@ 0043c190     dependtree:WFont.obj
 0002:00005198       ??_C@_05PNHKFCJL@thick?$AA@ 0043c198     dependtree:WBorder.obj
 0002:000051a0       ??_C@_04HHGFCHIH@thin?$AA@ 0043c1a0     dependtree:WBorder.obj
 0002:000051a8       ??_C@_06DEBFHMLL@outset?$AA@ 0043c1a8     dependtree:WBorder.obj
 0002:000051b0       ??_C@_05DLABHDKJ@inset?$AA@ 0043c1b0     dependtree:WBorder.obj
 0002:000051b8       ??_C@_05HNKDMFLJ@ridge?$AA@ 0043c1b8     dependtree:WBorder.obj
 0002:000051c0       ??_C@_06FKLJHCOJ@groove?$AA@ 0043c1c0     dependtree:WBorder.obj
 0002:000051c8       ??_C@_06BNJCAIGJ@double?$AA@ 0043c1c8     dependtree:WBorder.obj
 0002:000051d0       ??_C@_05OPIONHBI@solid?$AA@ 0043c1d0     dependtree:WBorder.obj
 0002:000051d8       ??_C@_06NBKPHGBD@dashed?$AA@ 0043c1d8     dependtree:WBorder.obj
 0002:000051e0       ??_C@_06EDEKCDFE@dotted?$AA@ 0043c1e0     dependtree:WBorder.obj
 0002:000051e8       ??_7WCompositeWidget@@6B@  0043c1e8     dependtree:WCompositeWidget.obj
 0002:000052bc       ??_C@_0P@LPPGFHDF@OnRightClick?$CI?$CJ?$AA@ 0043c2bc     dependtree:WTreeNodeWt.obj
 0002:000052cc       ??_C@_0BC@JMJOOGEN@OnTreeNodeCheck?$CI?$CJ?$AA@ 0043c2cc     dependtree:WTreeNodeWt.obj
 0002:000052e0       ??_C@_08BECLLAAD@select?$CI?$CJ?$AA@ 0043c2e0     dependtree:WTreeNodeWt.obj
 0002:000052ec       ??_C@_08LPCJIIIA@expand?$CI?$CJ?$AA@ 0043c2ec     dependtree:WTreeNodeWt.obj
 0002:000052f8       ??_C@_0L@KGMAHJJO@collapse?$CI?$CJ?$AA@ 0043c2f8     dependtree:WTreeNodeWt.obj
 0002:00005304       ??_C@_0N@KMMEDNIO@addmonitor?$CI?$CJ?$AA@ 0043c304     dependtree:WTreeNodeWt.obj
 0002:00005314       ??_C@_0M@PCNBKPIM@showIcon2?$CI?$CJ?$AA@ 0043c314     dependtree:WStateIconWt.obj
 0002:00005320       ??_C@_0M@OAGEAAGC@showIcon1?$CI?$CJ?$AA@ 0043c320     dependtree:WStateIconWt.obj
 0002:00005350       ??_7type_info@@6B@         0043c350     MSVCRT:ti_inst.obj
 0002:00005398       __load_config_used         0043c398     MSVCRT:loadcfg.obj
 0002:000053e0       ??_R1A@?0A@A@type_info@@8  0043c3e0     MSVCRT:ti_inst.obj
 0002:000053f8       ??_R2type_info@@8          0043c3f8     MSVCRT:ti_inst.obj
 0002:00005400       ??_R3type_info@@8          0043c400     MSVCRT:ti_inst.obj
 0002:00005410       ??_R4type_info@@6B@        0043c410     MSVCRT:ti_inst.obj
 0002:00005430       ___safe_se_handler_table   0043c430     <linker-defined>
 0002:0000592c       ___rtc_iaa                 0043c92c     MSVCRT:initsect.obj
 0002:00005930       ___rtc_izz                 0043c930     MSVCRT:initsect.obj
 0002:00005934       ___rtc_taa                 0043c934     MSVCRT:initsect.obj
 0002:00005938       ___rtc_tzz                 0043c938     MSVCRT:initsect.obj
 0002:00005a20       __CT??_R0?AVexception@@@8??0exception@@QAE@ABV0@@Z12 0043ca20     depend.obj
 0002:00005a3c       __CT??_R0?AVlogic_error@std@@@8??0logic_error@std@@QAE@ABV01@@Z40 0043ca3c     depend.obj
 0002:00005a58       __CT??_R0?AVlength_error@std@@@8??0length_error@std@@QAE@ABV01@@Z40 0043ca58     depend.obj
 0002:00005a74       __CTA3?AVlength_error@std@@ 0043ca74     depend.obj
 0002:00005a84       __TI3?AVlength_error@std@@ 0043ca84     depend.obj
 0002:00005ab8       __CT??_R0?AVbad_cast@@@8??0bad_cast@@QAE@ABV0@@Z12 0043cab8     depend.obj
 0002:00005d5c       __CT??_R0?AVout_of_range@std@@@8??0out_of_range@std@@QAE@ABV01@@Z40 0043cd5c     depend.obj
 0002:00005d78       __CTA3?AVout_of_range@std@@ 0043cd78     depend.obj
 0002:00005d88       __TI3?AVout_of_range@std@@ 0043cd88     depend.obj
 0002:0000686c       __CT??_R0?AVbad_lexical_cast@boost@@@8??0bad_lexical_cast@boost@@QAE@ABV01@@Z20 0043d86c     dependtree:WWebWidget.obj
 0002:00006888       __CTA3?AVbad_lexical_cast@boost@@ 0043d888     dependtree:WWebWidget.obj
 0002:00006898       __TI3?AVbad_lexical_cast@boost@@ 0043d898     dependtree:WWebWidget.obj
 0002:0000b06c       __IMPORT_DESCRIPTOR_libfcgi 0044206c     libfcgi:libfcgi.dll
 0002:0000b080       __IMPORT_DESCRIPTOR_svapi  00442080     svapi:svapi.dll
 0002:0000b094       __IMPORT_DESCRIPTOR_KERNEL32 00442094     kernel32:KERNEL32.dll
 0002:0000b0a8       __IMPORT_DESCRIPTOR_MSVCP71 004420a8     msvcprt:MSVCP71.dll
 0002:0000b0bc       __IMPORT_DESCRIPTOR_MSVCR71 004420bc     MSVCRT:MSVCR71.dll
 0002:0000b0d0       __NULL_IMPORT_DESCRIPTOR   004420d0     libfcgi:libfcgi.dll
 0003:00000000       ___xc_a                    00454000     MSVCRT:cinitexe.obj
 0003:00000144       ___xc_z                    00454144     MSVCRT:cinitexe.obj
 0003:00000148       ___xi_a                    00454148     MSVCRT:cinitexe.obj
 0003:0000014c       ___xi_z                    0045414c     MSVCRT:cinitexe.obj
 0003:00000150       ??_R0?AVexception@@@8      00454150     depend.obj
 0003:00000168       ??_R0?AVlogic_error@std@@@8 00454168     depend.obj
 0003:00000188       ??_R0?AVlength_error@std@@@8 00454188     depend.obj
 0003:000001a8       ??_R0?AVbad_cast@@@8       004541a8     depend.obj
 0003:000001c0       ??_R0?AVout_of_range@std@@@8 004541c0     depend.obj
 0003:000001e0       ??_R0?AVbad_lexical_cast@boost@@@8 004541e0     dependtree:WWebWidget.obj
 0003:00000208       ??_R0?AV?$basic_string@DU?$char_traits@D@std@@V?$allocator@D@2@@std@@@8 00454208     dependtree:WWebWidget.obj
 0003:00000254       ??_R0H@8                   00454254     dependtree:WWebWidget.obj
 0003:00000260       ?cgi_error_strings@@3PAPADA 00454260     dependtree:WebSession.obj
 0003:00000298       ??_R0N@8                   00454298     dependtree:WLength.obj
 0003:000002e8       ??_R0?AVWObject@@@8        004542e8     dependtree:WResource.obj
 0003:00000300       ??_R0?AVWResource@@@8      00454300     dependtree:WResource.obj
 0003:00000318       ??_R0I@8                   00454318     dependtree:WComboBox.obj
 0003:00000330       ??_R0?AVtype_info@@@8      00454330     MSVCRT:ti_inst.obj
 0003:00000348       ___security_cookie         00454348     MSVCRT:seccook.obj
 0003:00000350       ___defaultmatherr          00454350     MSVCRT:merr.obj
 0003:00000358       ?signals_@SVDepend@@1PAVWSignal_@@A 00454358     dependformwt.obj
 0003:00000378       ?slots_@SVDepend@@1PAVWSlot_@@A 00454378     dependformwt.obj
 0003:00000418       ?signals_@WSPopTable@@1PAVWSignal_@@A 00454418     WSPopTableWt.obj
 0003:00000438       ?slots_@WSPopTable@@1PAVWSlot_@@A 00454438     WSPopTableWt.obj
 0003:00000478       ?signals_@WWebWidget@@1PAVWSignal_@@A 00454478     dependtree:WWebWidget.obj
 0003:00000498       ?slots_@WWebWidget@@1PAVWSlot_@@A 00454498     dependtree:WWebWidget.obj
 0003:000004b8       ?slots_@WInteractWidget@@1PAVWSlot_@@A 004544b8     dependtree:WInteractWidget.obj
 0003:000004f8       ?signals_@WInteractWidget@@1PAVWSignal_@@A 004544f8     dependtree:WInteractWidget.obj
 0003:000006d8       ?signals_@WContainerWidget@@1PAVWSignal_@@A 004546d8     dependtree:WContainerWidget.obj
 0003:000006f8       ?slots_@WContainerWidget@@1PAVWSlot_@@A 004546f8     dependtree:WContainerWidget.obj
 0003:00000718       ?signals_@WTable@@1PAVWSignal_@@A 00454718     dependtree:WTable.obj
 0003:00000738       ?signals_@WTableRow@@1PAVWSignal_@@A 00454738     dependtree:WTable.obj
 0003:00000758       ?slots_@WTableRow@@1PAVWSlot_@@A 00454758     dependtree:WTable.obj
 0003:00000778       ?slots_@WTable@@1PAVWSlot_@@A 00454778     dependtree:WTable.obj
 0003:00000798       ?slots_@WText@@1PAVWSlot_@@A 00454798     dependtree:WText.obj
 0003:000007b8       ?signals_@WText@@1PAVWSignal_@@A 004547b8     dependtree:WText.obj
 0003:000007d8       ?slots_@WImage@@1PAVWSlot_@@A 004547d8     dependtree:WImage.obj
 0003:00000818       ?signals_@WImage@@1PAVWSignal_@@A 00454818     dependtree:WImage.obj
 0003:00000838       ?slots_@WFormWidget@@1PAVWSlot_@@A 00454838     dependtree:WFormWidget.obj
 0003:000008b8       ?signals_@WFormWidget@@1PAVWSignal_@@A 004548b8     dependtree:WFormWidget.obj
 0003:00000938       ?slots_@WPushButton@@1PAVWSlot_@@A 00454938     dependtree:WPushButton.obj
 0003:00000958       ?signals_@WPushButton@@1PAVWSignal_@@A 00454958     dependtree:WPushButton.obj
 0003:00000978       ?signals_@WScrollArea@@1PAVWSignal_@@A 00454978     dependtree:WScrollArea.obj
 0003:00000998       ?slots_@WScrollArea@@1PAVWSlot_@@A 00454998     dependtree:WScrollArea.obj
 0003:000009b8       ?instance_@WApplication@@0PAV1@A 004549b8     dependtree:WApplication.obj
 0003:000009bc       ?wApp@@3PAVWApplication@@A 004549bc     dependtree:WApplication.obj
 0003:000009c0       ?slots_@WApplication@@1PAVWSlot_@@A 004549c0     dependtree:WApplication.obj
 0003:00000a20       ?signals_@WApplication@@1PAVWSignal_@@A 00454a20     dependtree:WApplication.obj
 0003:00000a40       ?instance_@WebSession@@0PAV1@A 00454a40     dependtree:WebSession.obj
 0003:00000a44       ?js_af_up@WebSession@@2V?$basic_string@DU?$char_traits@D@std@@V?$allocator@D@2@@std@@A 00454a44     dependtree:WebSession.obj
 0003:00000af8       ?nextObjId_@WObject@@0HA   00454af8     dependtree:WObject.obj
 0003:00000b00       ?signals_@WObject@@1PAVWSignal_@@A 00454b00     dependtree:WObject.obj
 0003:00000b40       ?slots_@WObject@@1PAVWSlot_@@A 00454b40     dependtree:WObject.obj
 0003:00000bb0       ?signals_@WWidget@@1PAVWSignal_@@A 00454bb0     dependtree:WWidget.obj
 0003:00000bd0       ?slots_@WWidget@@1PAVWSlot_@@A 00454bd0     dependtree:WWidget.obj
 0003:00000c30       ?m_nCount@WSlotInstance_@@2HA 00454c30     dependtree:WSlotInstance_.obj
 0003:00000c34       ?m_nCount@WSignalInstance_@@2HA 00454c34     dependtree:WSignalInstance_.obj
 0003:00000c38       ?signals_@WTableCell@@1PAVWSignal_@@A 00454c38     dependtree:WTableCell.obj
 0003:00000c58       ?slots_@WTableCell@@1PAVWSlot_@@A 00454c58     dependtree:WTableCell.obj
 0003:00000c78       ?m_nObjCount@DomElement@@2HA 00454c78     dependtree:DomElement.obj
 0003:000017d0       ?signals_@WResource@@1PAVWSignal_@@A 004557d0     dependtree:WResource.obj
 0003:00001810       ?slots_@WResource@@1PAVWSlot_@@A 00455810     dependtree:WResource.obj
 0003:00001830       ?slots_@WLabel@@1PAVWSlot_@@A 00455830     dependtree:WLabel.obj
 0003:00001850       ?signals_@WLabel@@1PAVWSignal_@@A 00455850     dependtree:WLabel.obj
 0003:00001870       ?signals_@WScrollBar@@1PAVWSignal_@@A 00455870     dependtree:WScrollBar.obj
 0003:00001890       ?slots_@WScrollBar@@1PAVWSlot_@@A 00455890     dependtree:WScrollBar.obj
 0003:000018d0       ?varId_@JSVar@@0HA         004558d0     dependtree:JavaScript.obj
 0003:000018d4       ?currentFunctionId_@JavaScript@@0HA 004558d4     dependtree:JavaScript.obj
 0003:000018d8       ?slots_@WLineEdit@@1PAVWSlot_@@A 004558d8     dependtree:WLineEdit.obj
 0003:00001918       ?signals_@WLineEdit@@1PAVWSignal_@@A 00455918     dependtree:WLineEdit.obj
 0003:00001938       ?signals_@WAbstractToggleButton@@1PAVWSignal_@@A 00455938     dependtree:WAbstractToggleButton.obj
 0003:00001998       ?slots_@WAbstractToggleButton@@1PAVWSlot_@@A 00455998     dependtree:WAbstractToggleButton.obj
 0003:00001a18       ?signals_@WCheckBox@@1PAVWSignal_@@A 00455a18     dependtree:WCheckBox.obj
 0003:00001a38       ?slots_@WCheckBox@@1PAVWSlot_@@A 00455a38     dependtree:WCheckBox.obj
 0003:00001a58       ?slots_@WComboBox@@1PAVWSlot_@@A 00455a58     dependtree:WComboBox.obj
 0003:00001ab8       ?signals_@WComboBox@@1PAVWSignal_@@A 00455ab8     dependtree:WComboBox.obj
 0003:00001b18       ?slots_@WBreak@@1PAVWSlot_@@A 00455b18     dependtree:WBreak.obj
 0003:00001b38       ?signals_@WBreak@@1PAVWSignal_@@A 00455b38     dependtree:WBreak.obj
 0003:00001b58       ?signals_@WSVLinkText@@1PAVWSignal_@@A 00455b58     dependtree:WSVLinkText.obj
 0003:00001b78       ?slots_@WSVLinkText@@1PAVWSlot_@@A 00455b78     dependtree:WSVLinkText.obj
 0003:00001b98       ?imageFold_@WTreeNode@@0PAV?$basic_string@DU?$char_traits@D@std@@V?$allocator@D@2@@std@@A 00455b98     dependtree:WTreeNode.obj
 0003:00001bd0       ?signals_@CCheckBoxTreeView@@1PAVWSignal_@@A 00455bd0     dependtree:CheckBoxTreeViewWt.obj
 0003:00001bf0       ?slots_@CCheckBoxTreeView@@1PAVWSlot_@@A 00455bf0     dependtree:CheckBoxTreeViewWt.obj
 0003:00001c90       ?lightGray@Wt@@3VWColor@@B 00455c90     dependtree:WColor.obj
 0003:00001cbc       ?darkGreen@Wt@@3VWColor@@B 00455cbc     dependtree:WColor.obj
 0003:00001ce8       ?black@Wt@@3VWColor@@B     00455ce8     dependtree:WColor.obj
 0003:00001d14       ?darkCyan@Wt@@3VWColor@@B  00455d14     dependtree:WColor.obj
 0003:00001d40       ?darkBlue@Wt@@3VWColor@@B  00455d40     dependtree:WColor.obj
 0003:00001d6c       ?yellow@Wt@@3VWColor@@B    00455d6c     dependtree:WColor.obj
 0003:00001d98       ?white@Wt@@3VWColor@@B     00455d98     dependtree:WColor.obj
 0003:00001dc4       ?green@Wt@@3VWColor@@B     00455dc4     dependtree:WColor.obj
 0003:00001df0       ?magenta@Wt@@3VWColor@@B   00455df0     dependtree:WColor.obj
 0003:00001e1c       ?red@Wt@@3VWColor@@B       00455e1c     dependtree:WColor.obj
 0003:00001e48       ?darkRed@Wt@@3VWColor@@B   00455e48     dependtree:WColor.obj
 0003:00001e74       ?transparent@Wt@@3VWColor@@B 00455e74     dependtree:WColor.obj
 0003:00001ea0       ?cyan@Wt@@3VWColor@@B      00455ea0     dependtree:WColor.obj
 0003:00001ecc       ?blue@Wt@@3VWColor@@B      00455ecc     dependtree:WColor.obj
 0003:00001ef8       ?gray@Wt@@3VWColor@@B      00455ef8     dependtree:WColor.obj
 0003:00001f24       ?darkYellow@Wt@@3VWColor@@B 00455f24     dependtree:WColor.obj
 0003:00001f50       ?darkMagenta@Wt@@3VWColor@@B 00455f50     dependtree:WColor.obj
 0003:00001f7c       ?darkGray@Wt@@3VWColor@@B  00455f7c     dependtree:WColor.obj
 0003:00001fa8       ?m_nCount@WConnection_@@2HA 00455fa8     dependtree:WConnection_.obj
 0003:00001fac       ?slots_@WCompositeWidget@@1PAVWSlot_@@A 00455fac     dependtree:WCompositeWidget.obj
 0003:00001fcc       ?signals_@WCompositeWidget@@1PAVWSignal_@@A 00455fcc     dependtree:WCompositeWidget.obj
 0003:00001ff0       ?signals_@WTreeNode@@1PAVWSignal_@@A 00455ff0     dependtree:WTreeNodeWt.obj
 0003:00002030       ?slots_@WTreeNode@@1PAVWSlot_@@A 00456030     dependtree:WTreeNodeWt.obj
 0003:000020f0       ?signals_@WStateIcon@@1PAVWSignal_@@A 004560f0     dependtree:WStateIconWt.obj
 0003:00002110       ?slots_@WStateIcon@@1PAVWSlot_@@A 00456110     dependtree:WStateIconWt.obj
 0003:00002170       __dowildcard               00456170     MSVCRT:wildcard.obj
 0003:00002174       __newmode                  00456174     MSVCRT:_newmode.obj
 0003:00002178       __commode                  00456178     MSVCRT:xncommod.obj
 0003:0000217c       __fmode                    0045617c     MSVCRT:xtxtmode.obj
 0003:00002180       __adjust_fdiv              00456180     <common>
 0003:00002184       ___onexitend               00456184     <common>
 0003:00002188       ___onexitbegin             00456188     <common>

 entry point at        0001:0002d2d5

 Static symbols

 0001:00001811       $L83969                    00402811 f i depend.obj
 0001:00001a47       $L85183                    00402a47 f i depend.obj
 0001:00001be8       $L85704                    00402be8 f i depend.obj
 0001:00001c98       $L85775                    00402c98 f i depend.obj
 0001:00003586       $L88394                    00404586 f i depend.obj
 0001:00003586       $L88518                    00404586 f i depend.obj
 0001:000037b8       $L89386                    004047b8 f i depend.obj
 0001:00005767       $L31994                    00406767 f i dependformwt.obj
 0001:00005cd6       $L35512                    00406cd6 f i dependformwt.obj
 0001:00008fce       $L55162                    00409fce f i dependtree:WWebWidget.obj
 0001:00009077       $L55197                    0040a077 f i dependtree:WWebWidget.obj
 0001:00009117       $L55239                    0040a117 f i dependtree:WWebWidget.obj
 0001:000097ae       $L57742                    0040a7ae f i dependtree:WWebWidget.obj
 0001:0000982d       $L57820                    0040a82d f i dependtree:WWebWidget.obj
 0001:0000982d       $L57914                    0040a82d f i dependtree:WWebWidget.obj
 0001:0000ad88       $L64979                    0040bd88 f i dependtree:WWebWidget.obj
 0001:0000ae38       $L65050                    0040be38 f i dependtree:WWebWidget.obj
 0001:0000b938       $L68254                    0040c938 f i dependtree:WWebWidget.obj
 0001:0000bb41       $L68545                    0040cb41 f i dependtree:WWebWidget.obj
 0001:0000bbd1       $L68825                    0040cbd1 f i dependtree:WWebWidget.obj
 0001:0000bc94       $L69106                    0040cc94 f i dependtree:WWebWidget.obj
 0001:0000beb1       $L70252                    0040ceb1 f i dependtree:WWebWidget.obj
 0001:0000e22e       $L57768                    0040f22e f i dependtree:WTable.obj
 0001:0000e23a       $L57770                    0040f23a f i dependtree:WTable.obj
 0001:0000f1a0       ?replace@@YAXAAV?$basic_string@DU?$char_traits@D@std@@V?$allocator@D@2@@std@@DV12@@Z 004101a0 f   dependtree:WText.obj
 0001:00012620       ?getValue@@YAPADPBD0@Z     00413620 f   dependtree:WebSession.obj
 0001:00016d80       ?findIndexByRealID@@YAPBDAAV?$basic_string@DU?$char_traits@D@std@@V?$allocator@D@2@@std@@@Z 00417d80 f   dependtree:CheckBoxTreeView.obj
 0001:00017467       $L111157                   00418467 f i dependtree:CheckBoxTreeView.obj
 0001:00017546       $L111335                   00418546 f i dependtree:CheckBoxTreeView.obj
 0001:000175b7       $L111699                   004185b7 f i dependtree:CheckBoxTreeView.obj
 0001:00017c27       $L113557                   00418c27 f i dependtree:CheckBoxTreeView.obj
 0001:00018ca1       $L121445                   00419ca1 f i dependtree:CheckBoxTreeView.obj
 0001:00018d5d       $L121447                   00419d5d f i dependtree:CheckBoxTreeView.obj
 0001:0001dd3f       $L80793                    0041ed3f f   dependtree:WSignalInstance_.obj
 0001:0001f4f0       ?replace@@YA?AV?$basic_string@DU?$char_traits@D@std@@V?$allocator@D@2@@std@@V12@D0@Z 004204f0 f   dependtree:DomElement.obj
 0001:0001f760       ?escape@@YA?AV?$basic_string@DU?$char_traits@D@std@@V?$allocator@D@2@@std@@V12@D@Z 00420760 f   dependtree:DomElement.obj
 0001:00020180       $L85092                    00421180 f i dependtree:DomElement.obj
 0001:00021ef0       $L91428                    00422ef0 f i dependtree:DomElement.obj
 0001:00021f87       $L91430                    00422f87 f i dependtree:DomElement.obj
 0001:0002d21e       _report_failure            0042e21e f   MSVCRT:secchk.obj
 0001:0002d610       $L81320                    0042e610 f   depend.obj
 0001:0002d610       $L81360                    0042e610 f   depend.obj
 0001:0002d61b       $L81361                    0042e61b f   depend.obj
 0001:0002d61b       $L81321                    0042e61b f   depend.obj
 0001:0002d626       $L81362                    0042e626 f   depend.obj
 0001:0002d626       $L81322                    0042e626 f   depend.obj
 0001:0002d631       $L81363                    0042e631 f   depend.obj
 0001:0002d631       $L81323                    0042e631 f   depend.obj
 0001:0002d640       __ehhandler$??0WCssDecorationStyle@@QAE@ABV0@@Z 0042e640 f   depend.obj
 0001:0002d640       __ehhandler$??1WCssDecorationStyle@@QAE@XZ 0042e640 f   depend.obj
 0001:0002d650       $L81437                    0042e650 f   depend.obj
 0001:0002d659       __ehhandler$?setBeforBodyStr@WApplication@@QAEXV?$basic_string@DU?$char_traits@D@std@@V?$allocator@D@2@@std@@@Z 0042e659 f   depend.obj
 0001:0002d670       $L81562                    0042e670 f   depend.obj
 0001:0002d678       $L81563                    0042e678 f   depend.obj
 0001:0002d686       __ehhandler$??1WText@@UAE@XZ 0042e686 f   depend.obj
 0001:0002d690       $L81591                    0042e690 f   depend.obj
 0001:0002d698       $L81592                    0042e698 f   depend.obj
 0001:0002d6a7       __ehhandler$??1WImage@@UAE@XZ 0042e6a7 f   depend.obj
 0001:0002d6c0       $L81621                    0042e6c0 f   depend.obj
 0001:0002d6c8       $L81622                    0042e6c8 f   depend.obj
 0001:0002d6d7       __ehhandler$??1WPushButton@@UAE@XZ 0042e6d7 f   depend.obj
 0001:0002d6f0       $L81131                    0042e6f0 f   depend.obj
 0001:0002d6f0       $L82005                    0042e6f0 f   depend.obj
 0001:0002d6f9       __ehhandler$??1logic_error@std@@UAE@XZ 0042e6f9 f   depend.obj
 0001:0002d6f9       __ehhandler$??0logic_error@std@@QAE@ABV01@@Z 0042e6f9 f   depend.obj
 0001:0002d710       $L82183                    0042e710 f   depend.obj
 0001:0002d710       $L82196                    0042e710 f   depend.obj
 0001:0002d710       $L82144                    0042e710 f   depend.obj
 0001:0002d710       $L82170                    0042e710 f   depend.obj
 0001:0002d710       $L82157                    0042e710 f   depend.obj
 0001:0002d719       $L82158                    0042e719 f   depend.obj
 0001:0002d719       $L82184                    0042e719 f   depend.obj
 0001:0002d719       $L82197                    0042e719 f   depend.obj
 0001:0002d719       $L82145                    0042e719 f   depend.obj
 0001:0002d719       $L82171                    0042e719 f   depend.obj
 0001:0002d733       __ehhandler$??$?HDU?$char_traits@D@std@@V?$allocator@D@1@@std@@YA?AV?$basic_string@DU?$char_traits@D@std@@V?$allocator@D@2@@0@DABV10@@Z 0042e733 f   depend.obj
 0001:0002d733       __ehhandler$??$?HDU?$char_traits@D@std@@V?$allocator@D@1@@std@@YA?AV?$basic_string@DU?$char_traits@D@std@@V?$allocator@D@2@@0@ABV10@D@Z 0042e733 f   depend.obj
 0001:0002d733       __ehhandler$??$?HDU?$char_traits@D@std@@V?$allocator@D@1@@std@@YA?AV?$basic_string@DU?$char_traits@D@std@@V?$allocator@D@2@@0@ABV10@0@Z 0042e733 f   depend.obj
 0001:0002d733       __ehhandler$??$?HDU?$char_traits@D@std@@V?$allocator@D@1@@std@@YA?AV?$basic_string@DU?$char_traits@D@std@@V?$allocator@D@2@@0@ABV10@PBD@Z 0042e733 f   depend.obj
 0001:0002d733       __ehhandler$??$?HDU?$char_traits@D@std@@V?$allocator@D@1@@std@@YA?AV?$basic_string@DU?$char_traits@D@std@@V?$allocator@D@2@@0@PBDABV10@@Z 0042e733 f   depend.obj
 0001:0002d740       $L82646                    0042e740 f   depend.obj
 0001:0002d740       $L82702                    0042e740 f   depend.obj
 0001:0002d748       __ehhandler$??0sentry@?$basic_ostream@DU?$char_traits@D@std@@@std@@QAE@AAV12@@Z 0042e748 f   depend.obj
 0001:0002d748       __ehhandler$??1sentry@?$basic_ostream@DU?$char_traits@D@std@@@std@@QAE@XZ 0042e748 f   depend.obj
 0001:0002d760       $L83970                    0042e760 f   depend.obj
 0001:0002d768       $L84098                    0042e768 f   depend.obj
 0001:0002d770       __ehhandler$??$?6DU?$char_traits@D@std@@V?$allocator@D@1@@std@@YAAAV?$basic_ostream@DU?$char_traits@D@std@@@0@AAV10@ABV?$basic_string@DU?$char_traits@D@std@@V?$allocator@D@2@@0@@Z 0042e770 f   depend.obj
 0001:0002d780       $L85184                    0042e780 f   depend.obj
 0001:0002d791       __ehhandler$?_Buynode@?$_Tree@V?$_Tmap_traits@V?$basic_string@DU?$char_traits@D@std@@V?$allocator@D@2@@std@@PAVWCssRule@@U?$less@V?$basic_string@DU?$char_traits@D@std@@V?$allocator@D@2@@std@@@2@V?$allocator@U?$pair@$$CBV?$basic_string@DU?$char_traits@D@std@@V?$allocator@D@2@@std@@PAVWCssRule@@@std@@@2@$0A@@std@@@std@@IAEPAU_Node@?$_Tree_nod@V?$_Tmap_traits@V?$basic_string@DU?$char_traits@D@std@@V?$allocator@D@2@@std@@PAVWCssRule@@U?$less@V?$basic_string@DU?$char_traits@D@std@@V?$allocator@D@2@@std@@@2@V?$allocator@U?$pair@$$CBV?$basic_string@DU?$char_traits@D@std@@V?$allocator@D@2@@std@@PAVWCssRule@@@std@@@2@$0A@@std@@@2@PAU342@00ABU?$pair@$$CBV?$basic_string@DU?$char_traits@D@std@@V?$allocator@D@2@@std@@PAVWCssRule@@@2@D@Z 0042e791 f   depend.obj
 0001:0002d7a0       __ehhandler$?_Copy@?$_Tree@V?$_Tset_traits@PBVWSignalInstance_@@U?$less@PBVWSignalInstance_@@@std@@V?$allocator@PBVWSignalInstance_@@@3@$0A@@std@@@std@@IAEPAU_Node@?$_Tree_nod@V?$_Tset_traits@PBVWSignalInstance_@@U?$less@PBVWSignalInstance_@@@std@@V?$allocator@PBVWSignalInstance_@@@3@$0A@@std@@@2@PAU342@0@Z 0042e7a0 f   depend.obj
 0001:0002d7b0       __ehhandler$?_Copy@?$_Tree@V?$_Tset_traits@PBVWResource@@U?$less@PBVWResource@@@std@@V?$allocator@PBVWResource@@@3@$0A@@std@@@std@@IAEPAU_Node@?$_Tree_nod@V?$_Tset_traits@PBVWResource@@U?$less@PBVWResource@@@std@@V?$allocator@PBVWResource@@@3@$0A@@std@@@2@PAU342@0@Z 0042e7b0 f   depend.obj
 0001:0002d7c0       $L85995                    0042e7c0 f   depend.obj
 0001:0002d7c8       $L85996                    0042e7c8 f   depend.obj
 0001:0002d7d7       $L85997                    0042e7d7 f   depend.obj
 0001:0002d7e6       $L85998                    0042e7e6 f   depend.obj
 0001:0002d7f5       $L85999                    0042e7f5 f   depend.obj
 0001:0002d804       $L86000                    0042e804 f   depend.obj
 0001:0002d813       $L86001                    0042e813 f   depend.obj
 0001:0002d822       $L86002                    0042e822 f   depend.obj
 0001:0002d831       $L86003                    0042e831 f   depend.obj
 0001:0002d840       $L86004                    0042e840 f   depend.obj
 0001:0002d84f       $L86005                    0042e84f f   depend.obj
 0001:0002d85e       $L86006                    0042e85e f   depend.obj
 0001:0002d86d       $L86007                    0042e86d f   depend.obj
 0001:0002d87c       __ehhandler$??1SVDepend@@UAE@XZ 0042e87c f   depend.obj
 0001:0002d890       $L81909                    0042e890 f   depend.obj
 0001:0002d890       $L81863                    0042e890 f   depend.obj
 0001:0002d890       $L81832                    0042e890 f   depend.obj
 0001:0002d890       $L87322                    0042e890 f   depend.obj
 0001:0002d890       $L81886                    0042e890 f   depend.obj
 0001:0002d890       $L81805                    0042e890 f   depend.obj
 0001:0002d890       $L86880                    0042e890 f   depend.obj
 0001:0002d890       $L81932                    0042e890 f   depend.obj
 0001:0002d890       $L87720                    0042e890 f   depend.obj
 0001:0002d899       $L81890                    0042e899 f   depend.obj
 0001:0002d899       $L87730                    0042e899 f   depend.obj
 0001:0002d899       $L81867                    0042e899 f   depend.obj
 0001:0002d899       $L87332                    0042e899 f   depend.obj
 0001:0002d899       $L81836                    0042e899 f   depend.obj
 0001:0002d899       $L81936                    0042e899 f   depend.obj
 0001:0002d899       $L81913                    0042e899 f   depend.obj
 0001:0002d899       $L81809                    0042e899 f   depend.obj
 0001:0002d899       $L86890                    0042e899 f   depend.obj
 0001:0002d8a2       __ehhandler$?erase@?$_Tree@V?$_Tset_traits@PBVWResource@@U?$less@PBVWResource@@@std@@V?$allocator@PBVWResource@@@3@$0A@@std@@@std@@QAE?AViterator@12@V312@@Z 0042e8a2 f   depend.obj
 0001:0002d8a2       __ehhandler$?_Xlen@?$vector@UTableData@WTableRow@@V?$allocator@UTableData@WTableRow@@@std@@@std@@IBEXXZ 0042e8a2 f   depend.obj
 0001:0002d8a2       __ehhandler$?_Xlen@?$vector@PAVWObject@@V?$allocator@PAVWObject@@@std@@@std@@IBEXXZ 0042e8a2 f   depend.obj
 0001:0002d8a2       __ehhandler$?_Xlen@?$vector@PAVDomElement@@V?$allocator@PAVDomElement@@@std@@@std@@IBEXXZ 0042e8a2 f   depend.obj
 0001:0002d8a2       __ehhandler$?_Xlen@?$vector@PAVWMessageResources@@V?$allocator@PAVWMessageResources@@@std@@@std@@IBEXXZ 0042e8a2 f   depend.obj
 0001:0002d8a2       __ehhandler$?erase@?$_Tree@V?$_Tmap_traits@V?$basic_string@DU?$char_traits@D@std@@V?$allocator@D@2@@std@@PAVWCssRule@@U?$less@V?$basic_string@DU?$char_traits@D@std@@V?$allocator@D@2@@std@@@2@V?$allocator@U?$pair@$$CBV?$basic_string@DU?$char_traits@D@std@@V?$allocator@D@2@@std@@PAVWCssRule@@@std@@@2@$0A@@std@@@std@@QAE?AViterator@12@V312@@Z 0042e8a2 f   depend.obj
 0001:0002d8a2       __ehhandler$?_Xlen@?$vector@PAVWWidget@@V?$allocator@PAVWWidget@@@std@@@std@@IBEXXZ 0042e8a2 f   depend.obj
 0001:0002d8a2       __ehhandler$?_Xlen@?$vector@PAVWTableRow@@V?$allocator@PAVWTableRow@@@std@@@std@@IBEXXZ 0042e8a2 f   depend.obj
 0001:0002d8a2       __ehhandler$?erase@?$_Tree@V?$_Tset_traits@PBVWSignalInstance_@@U?$less@PBVWSignalInstance_@@@std@@V?$allocator@PBVWSignalInstance_@@@3@$0A@@std@@@std@@QAE?AViterator@12@V312@@Z 0042e8a2 f   depend.obj
 0001:0002d8b0       $L88326                    0042e8b0 f   depend.obj
 0001:0002d8bc       $L88327                    0042e8bc f   depend.obj
 0001:0002d8c8       $L88330                    0042e8c8 f   depend.obj
 0001:0002d8d3       $L88332                    0042e8d3 f   depend.obj
 0001:0002d8de       __ehhandler$?testdevice@@YAXHQAPAD@Z 0042e8de f   depend.obj
 0001:0002d8f0       $L88371                    0042e8f0 f   depend.obj
 0001:0002d8fc       $L88372                    0042e8fc f   depend.obj
 0001:0002d908       $L88374                    0042e908 f   depend.obj
 0001:0002d913       $L88375                    0042e913 f   depend.obj
 0001:0002d91f       $L88376                    0042e91f f   depend.obj
 0001:0002d92b       $L88378                    0042e92b f   depend.obj
 0001:0002d936       __ehhandler$_main          0042e936 f   depend.obj
 0001:0002d940       __ehhandler$??0?$vector@PAVWObject@@V?$allocator@PAVWObject@@@std@@@std@@QAE@ABV01@@Z 0042e940 f   depend.obj
 0001:0002d940       __ehhandler$??0?$vector@PAVWMessageResources@@V?$allocator@PAVWMessageResources@@@std@@@std@@QAE@ABV01@@Z 0042e940 f   depend.obj
 0001:0002d950       __ehhandler$?_Copy@?$_Tree@V?$_Tmap_traits@V?$basic_string@DU?$char_traits@D@std@@V?$allocator@D@2@@std@@PAVWCssRule@@U?$less@V?$basic_string@DU?$char_traits@D@std@@V?$allocator@D@2@@std@@@2@V?$allocator@U?$pair@$$CBV?$basic_string@DU?$char_traits@D@std@@V?$allocator@D@2@@std@@PAVWCssRule@@@std@@@2@$0A@@std@@@std@@IAEPAU_Node@?$_Tree_nod@V?$_Tmap_traits@V?$basic_string@DU?$char_traits@D@std@@V?$allocator@D@2@@std@@PAVWCssRule@@U?$less@V?$basic_string@DU?$char_traits@D@std@@V?$allocator@D@2@@std@@@2@V?$allocator@U?$pair@$$CBV?$basic_string@DU?$char_traits@D@std@@V?$allocator@D@2@@std@@PAVWCssRule@@@std@@@2@$0A@@std@@@2@PAU342@0@Z 0042e950 f   depend.obj
 0001:0002d960       $L85865                    0042e960 f   depend.obj
 0001:0002d960       $L89421                    0042e960 f   depend.obj
 0001:0002d96c       $L85866                    0042e96c f   depend.obj
 0001:0002d96c       $L89422                    0042e96c f   depend.obj
 0001:0002d978       $L89423                    0042e978 f   depend.obj
 0001:0002d978       $L85867                    0042e978 f   depend.obj
 0001:0002d984       $L89424                    0042e984 f   depend.obj
 0001:0002d984       $L85868                    0042e984 f   depend.obj
 0001:0002d990       $L85869                    0042e990 f   depend.obj
 0001:0002d990       $L89425                    0042e990 f   depend.obj
 0001:0002d99f       $L89426                    0042e99f f   depend.obj
 0001:0002d99f       $L85870                    0042e99f f   depend.obj
 0001:0002d9ae       $L89427                    0042e9ae f   depend.obj
 0001:0002d9ae       $L85871                    0042e9ae f   depend.obj
 0001:0002d9bd       $L89428                    0042e9bd f   depend.obj
 0001:0002d9bd       $L85872                    0042e9bd f   depend.obj
 0001:0002d9cb       __ehhandler$??0WebSession@@QAE@ABV0@@Z 0042e9cb f   depend.obj
 0001:0002d9cb       __ehhandler$??1WebSession@@QAE@XZ 0042e9cb f   depend.obj
 0001:0002d9e0       $L89441                    0042e9e0 f   depend.obj
 0001:0002d9e8       __ehhandler$??1WTableRow@@UAE@XZ 0042e9e8 f   depend.obj
 0001:0002da00       $L82276                    0042ea00 f   dependform.obj
 0001:0002da09       __ehhandler$?loadString@SVDepend@@AAEXXZ 0042ea09 f   dependform.obj
 0001:0002da20       $L82298                    0042ea20 f   dependform.obj
 0001:0002da29       $L82299                    0042ea29 f   dependform.obj
 0001:0002da43       __ehhandler$?getSEID@SVDepend@@AAE?AV?$basic_string@DU?$char_traits@D@std@@V?$allocator@D@2@@std@@PBD@Z 0042ea43 f   dependform.obj
 0001:0002da50       $L82321                    0042ea50 f   dependform.obj
 0001:0002da59       $L82322                    0042ea59 f   dependform.obj
 0001:0002da62       $L82323                    0042ea62 f   dependform.obj
 0001:0002da6b       $L82324                    0042ea6b f   dependform.obj
 0001:0002da76       __ehhandler$?AddJsParam@SVDepend@@AAEXV?$basic_string@DU?$char_traits@D@std@@V?$allocator@D@2@@std@@0@Z 0042ea76 f   dependform.obj
 0001:0002da80       $L82336                    0042ea80 f   dependform.obj
 0001:0002da89       __ehhandler$?ExChange@SVDepend@@AAEXXZ 0042ea89 f   dependform.obj
 0001:0002daa0       $L82372                    0042eaa0 f   dependform.obj
 0001:0002daab       $L82374                    0042eaab f   dependform.obj
 0001:0002dab6       $L82375                    0042eab6 f   dependform.obj
 0001:0002dabf       $L82376                    0042eabf f   dependform.obj
 0001:0002dac8       $L82377                    0042eac8 f   dependform.obj
 0001:0002dad1       $L82378                    0042ead1 f   dependform.obj
 0001:0002dadc       $L82380                    0042eadc f   dependform.obj
 0001:0002dae7       $L82381                    0042eae7 f   dependform.obj
 0001:0002daf0       $L82382                    0042eaf0 f   dependform.obj
 0001:0002daf9       $L82383                    0042eaf9 f   dependform.obj
 0001:0002db02       __ehhandler$?createOperate@SVDepend@@AAEXXZ 0042eb02 f   dependform.obj
 0001:0002db10       $L82410                    0042eb10 f   dependform.obj
 0001:0002db19       $L82411                    0042eb19 f   dependform.obj
 0001:0002db22       $L82412                    0042eb22 f   dependform.obj
 0001:0002db2b       $L82414                    0042eb2b f   dependform.obj
 0001:0002db36       $L82417                    0042eb36 f   dependform.obj
 0001:0002db41       __ehhandler$?showTranslate@SVDepend@@AAEXXZ 0042eb41 f   dependform.obj
 0001:0002db50       $L83282                    0042eb50 f   dependform.obj
 0001:0002db5c       $L83283                    0042eb5c f   dependform.obj
 0001:0002db68       $L83284                    0042eb68 f   dependform.obj
 0001:0002db76       $L83286                    0042eb76 f   dependform.obj
 0001:0002db84       $L83288                    0042eb84 f   dependform.obj
 0001:0002db92       $L83290                    0042eb92 f   dependform.obj
 0001:0002dba0       $L83292                    0042eba0 f   dependform.obj
 0001:0002dbae       $L83293                    0042ebae f   dependform.obj
 0001:0002dbbc       $L83295                    0042ebbc f   dependform.obj
 0001:0002dbc8       $L83296                    0042ebc8 f   dependform.obj
 0001:0002dbd4       $L83298                    0042ebd4 f   dependform.obj
 0001:0002dbe2       $L83300                    0042ebe2 f   dependform.obj
 0001:0002dbee       $L83302                    0042ebee f   dependform.obj
 0001:0002dbfa       $L83304                    0042ebfa f   dependform.obj
 0001:0002dc06       $L83306                    0042ec06 f   dependform.obj
 0001:0002dc12       $L83308                    0042ec12 f   dependform.obj
 0001:0002dc1e       $L83310                    0042ec1e f   dependform.obj
 0001:0002dc2a       $L83312                    0042ec2a f   dependform.obj
 0001:0002dc36       $L83314                    0042ec36 f   dependform.obj
 0001:0002dc44       __ehhandler$?initForm@SVDepend@@AAEXXZ 0042ec44 f   dependform.obj
 0001:0002dc50       $L83355                    0042ec50 f   dependform.obj
 0001:0002dc5c       $L83356                    0042ec5c f   dependform.obj
 0001:0002dc68       $L83357                    0042ec68 f   dependform.obj
 0001:0002dc76       $L83359                    0042ec76 f   dependform.obj
 0001:0002dc84       $L83360                    0042ec84 f   dependform.obj
 0001:0002dc92       $L83362                    0042ec92 f   dependform.obj
 0001:0002dc9e       $L83363                    0042ec9e f   dependform.obj
 0001:0002dcaa       __ehhandler$?refresh@SVDepend@@UAEXXZ 0042ecaa f   dependform.obj
 0001:0002dcc0       $L83379                    0042ecc0 f   dependform.obj
 0001:0002dcc9       $L83380                    0042ecc9 f   dependform.obj
 0001:0002dcd2       $L83381                    0042ecd2 f   dependform.obj
 0001:0002dcdb       $L83382                    0042ecdb f   dependform.obj
 0001:0002dce4       __ehhandler$?closeWnd@SVDepend@@AAEXXZ 0042ece4 f   dependform.obj
 0001:0002dcf0       $L86921                    0042ecf0 f   dependform.obj
 0001:0002dcf8       $L86922                    0042ecf8 f   dependform.obj
 0001:0002dd07       $L86923                    0042ed07 f   dependform.obj
 0001:0002dd16       $L86924                    0042ed16 f   dependform.obj
 0001:0002dd25       $L86925                    0042ed25 f   dependform.obj
 0001:0002dd34       $L86926                    0042ed34 f   dependform.obj
 0001:0002dd43       $L86927                    0042ed43 f   dependform.obj
 0001:0002dd52       $L86928                    0042ed52 f   dependform.obj
 0001:0002dd61       $L86929                    0042ed61 f   dependform.obj
 0001:0002dd70       $L86930                    0042ed70 f   dependform.obj
 0001:0002dd7f       $L86931                    0042ed7f f   dependform.obj
 0001:0002dd8e       $L86932                    0042ed8e f   dependform.obj
 0001:0002dd9d       $L86933                    0042ed9d f   dependform.obj
 0001:0002ddac       $L86934                    0042edac f   dependform.obj
 0001:0002ddbb       __ehhandler$??0SVDepend@@QAE@PAVWContainerWidget@@@Z 0042edbb f   dependform.obj
 0001:0002ddd0       $L27811                    0042edd0 f   dependformwt.obj
 0001:0002dddb       $L27812                    0042eddb f   dependformwt.obj
 0001:0002dde4       __ehhandler$?buildSlotMap@SVDepend@@MAEXAAV?$map@V?$basic_string@DU?$char_traits@D@std@@V?$allocator@D@2@@std@@PAVWSlotInstance_@@U?$less@V?$basic_string@DU?$char_traits@D@std@@V?$allocator@D@2@@std@@@2@V?$allocator@U?$pair@$$CBV?$basic_string@DU?$char_traits@D@std@@V?$allocator@D@2@@std@@PAVWSlotInstance_@@@std@@@2@@std@@@Z 0042ede4 f   dependformwt.obj
 0001:0002ddf0       $L31995                    0042edf0 f   dependformwt.obj
 0001:0002de01       __ehhandler$?_Buynode@?$_Tree@V?$_Tmap_traits@V?$basic_string@DU?$char_traits@D@std@@V?$allocator@D@2@@std@@PAVWSignalInstance_@@U?$less@V?$basic_string@DU?$char_traits@D@std@@V?$allocator@D@2@@std@@@2@V?$allocator@U?$pair@$$CBV?$basic_string@DU?$char_traits@D@std@@V?$allocator@D@2@@std@@PAVWSignalInstance_@@@std@@@2@$0A@@std@@@std@@IAEPAU_Node@?$_Tree_nod@V?$_Tmap_traits@V?$basic_string@DU?$char_traits@D@std@@V?$allocator@D@2@@std@@PAVWSignalInstance_@@U?$less@V?$basic_string@DU?$char_traits@D@std@@V?$allocator@D@2@@std@@@2@V?$allocator@U?$pair@$$CBV?$basic_string@DU?$char_traits@D@std@@V?$allocator@D@2@@std@@PAVWSignalInstance_@@@std@@@2@$0A@@std@@@2@PAU342@00ABU?$pair@$$CBV?$basic_string@DU?$char_traits@D@std@@V?$allocator@D@2@@std@@PAVWSignalInstance_@@@2@D@Z 0042ee01 f   dependformwt.obj
 0001:0002de10       $L28138                    0042ee10 f   dependformwt.obj
 0001:0002de10       $L32537                    0042ee10 f   dependformwt.obj
 0001:0002de19       $L32557                    0042ee19 f   dependformwt.obj
 0001:0002de19       $L28142                    0042ee19 f   dependformwt.obj
 0001:0002de22       __ehhandler$?_Insert@?$_Tree@V?$_Tmap_traits@V?$basic_string@DU?$char_traits@D@std@@V?$allocator@D@2@@std@@PAVWSignalInstance_@@U?$less@V?$basic_string@DU?$char_traits@D@std@@V?$allocator@D@2@@std@@@2@V?$allocator@U?$pair@$$CBV?$basic_string@DU?$char_traits@D@std@@V?$allocator@D@2@@std@@PAVWSignalInstance_@@@std@@@2@$0A@@std@@@std@@IAE?AViterator@12@_NPAU_Node@?$_Tree_nod@V?$_Tmap_traits@V?$basic_string@DU?$char_traits@D@std@@V?$allocator@D@2@@std@@PAVWSignalInstance_@@U?$less@V?$basic_string@DU?$char_traits@D@std@@V?$allocator@D@2@@std@@@2@V?$allocator@U?$pair@$$CBV?$basic_string@DU?$char_traits@D@std@@V?$allocator@D@2@@std@@PAVWSignalInstance_@@@std@@@2@$0A@@std@@@2@ABU?$pair@$$CBV?$basic_string@DU?$char_traits@D@std@@V?$allocator@D@2@@std@@PAVWSignalInstance_@@@2@@Z 0042ee22 f   dependformwt.obj
 0001:0002de22       __ehhandler$?_Xlen@?$vector@PAVWConnection_@@V?$allocator@PAVWConnection_@@@std@@@std@@IBEXXZ 0042ee22 f   dependformwt.obj
 0001:0002de30       __ehhandler$??0?$vector@PAVWConnection_@@V?$allocator@PAVWConnection_@@@std@@@std@@QAE@ABV01@@Z 0042ee30 f   dependformwt.obj
 0001:0002de40       $L37022                    0042ee40 f   dependformwt.obj
 0001:0002de4b       __ehhandler$??0WSignalInstance_@@QAE@ABV0@@Z 0042ee4b f   dependformwt.obj
 0001:0002de60       $L37032                    0042ee60 f   dependformwt.obj
 0001:0002de6b       __ehhandler$??0WSlotInstance_@@QAE@ABV0@@Z 0042ee6b f   dependformwt.obj
 0001:0002de80       $L37261                    0042ee80 f   dependformwt.obj
 0001:0002de88       __ehhandler$??A?$map@V?$basic_string@DU?$char_traits@D@std@@V?$allocator@D@2@@std@@PAVWSignalInstance_@@U?$less@V?$basic_string@DU?$char_traits@D@std@@V?$allocator@D@2@@std@@@2@V?$allocator@U?$pair@$$CBV?$basic_string@DU?$char_traits@D@std@@V?$allocator@D@2@@std@@PAVWSignalInstance_@@@std@@@2@@std@@QAEAAPAVWSignalInstance_@@ABV?$basic_string@DU?$char_traits@D@std@@V?$allocator@D@2@@1@@Z 0042ee88 f   dependformwt.obj
 0001:0002dea0       $L37977                    0042eea0 f   dependformwt.obj
 0001:0002deab       $L37978                    0042eeab f   dependformwt.obj
 0001:0002deb4       __ehhandler$?buildSignalMap@SVDepend@@MAEXAAV?$map@V?$basic_string@DU?$char_traits@D@std@@V?$allocator@D@2@@std@@PAVWSignalInstance_@@U?$less@V?$basic_string@DU?$char_traits@D@std@@V?$allocator@D@2@@std@@@2@V?$allocator@U?$pair@$$CBV?$basic_string@DU?$char_traits@D@std@@V?$allocator@D@2@@std@@PAVWSignalInstance_@@@std@@@2@@std@@@Z 0042eeb4 f   dependformwt.obj
 0001:0002dec0       $L38563                    0042eec0 f   dependformwt.obj
 0001:0002dec8       $L38564                    0042eec8 f   dependformwt.obj
 0001:0002ded2       $L38566                    0042eed2 f   dependformwt.obj
 0001:0002deda       $L38567                    0042eeda f   dependformwt.obj
 0001:0002dee4       $L38569                    0042eee4 f   dependformwt.obj
 0001:0002deec       $L38570                    0042eeec f   dependformwt.obj
 0001:0002def6       $L38572                    0042eef6 f   dependformwt.obj
 0001:0002defe       $L38573                    0042eefe f   dependformwt.obj
 0001:0002df08       __ehhandler$_$E7           0042ef08 f   dependformwt.obj
 0001:0002df20       $L20927                    0042ef20 f   WSPopButton.obj
 0001:0002df29       $L20928                    0042ef29 f   WSPopButton.obj
 0001:0002df32       $L20929                    0042ef32 f   WSPopButton.obj
 0001:0002df3b       $L20930                    0042ef3b f   WSPopButton.obj
 0001:0002df43       $L20933                    0042ef43 f   WSPopButton.obj
 0001:0002df4c       $L20934                    0042ef4c f   WSPopButton.obj
 0001:0002df55       $L20935                    0042ef55 f   WSPopButton.obj
 0001:0002df60       $L20936                    0042ef60 f   WSPopButton.obj
 0001:0002df69       $L20938                    0042ef69 f   WSPopButton.obj
 0001:0002df72       $L20939                    0042ef72 f   WSPopButton.obj
 0001:0002df7d       $L20941                    0042ef7d f   WSPopButton.obj
 0001:0002df86       $L20943                    0042ef86 f   WSPopButton.obj
 0001:0002df91       $L20944                    0042ef91 f   WSPopButton.obj
 0001:0002df9a       $L20946                    0042ef9a f   WSPopButton.obj
 0001:0002dfa3       $L20947                    0042efa3 f   WSPopButton.obj
 0001:0002dfae       $L20948                    0042efae f   WSPopButton.obj
 0001:0002dfb7       $L20950                    0042efb7 f   WSPopButton.obj
 0001:0002dfc0       $L20951                    0042efc0 f   WSPopButton.obj
 0001:0002dfcb       $L20953                    0042efcb f   WSPopButton.obj
 0001:0002dfd4       $L20955                    0042efd4 f   WSPopButton.obj
 0001:0002dfdf       $L20956                    0042efdf f   WSPopButton.obj
 0001:0002dfe8       $L20958                    0042efe8 f   WSPopButton.obj
 0001:0002dff1       __ehhandler$??0WSPopButton@@QAE@PAVWContainerWidget@@V?$basic_string@DU?$char_traits@D@std@@V?$allocator@D@2@@std@@11_N@Z 0042eff1 f   WSPopButton.obj
 0001:0002e000       $L75826                    0042f000 f   WSPopTable.obj
 0001:0002e000       $L75854                    0042f000 f   WSPopTable.obj
 0001:0002e00b       $L75855                    0042f00b f   WSPopTable.obj
 0001:0002e00b       $L75827                    0042f00b f   WSPopTable.obj
 0001:0002e014       $L75829                    0042f014 f   WSPopTable.obj
 0001:0002e014       $L75857                    0042f014 f   WSPopTable.obj
 0001:0002e01d       $L75830                    0042f01d f   WSPopTable.obj
 0001:0002e01d       $L75858                    0042f01d f   WSPopTable.obj
 0001:0002e028       $L75831                    0042f028 f   WSPopTable.obj
 0001:0002e028       $L75859                    0042f028 f   WSPopTable.obj
 0001:0002e031       __ehhandler$?ShowBottom@WSPopTable@@AAEXPAVWTable@@@Z 0042f031 f   WSPopTable.obj
 0001:0002e031       __ehhandler$?ShowTop@WSPopTable@@AAEXPAVWTable@@@Z 0042f031 f   WSPopTable.obj
 0001:0002e040       $L76107                    0042f040 f   WSPopTable.obj
 0001:0002e049       $L76111                    0042f049 f   WSPopTable.obj
 0001:0002e052       __ehhandler$?_Xlen@?$vector@PAVWTable@@V?$allocator@PAVWTable@@@std@@@std@@IBEXXZ 0042f052 f   WSPopTable.obj
 0001:0002e060       $L79466                    0042f060 f   WSPopTable.obj
 0001:0002e068       $L79467                    0042f068 f   WSPopTable.obj
 0001:0002e076       $L79468                    0042f076 f   WSPopTable.obj
 0001:0002e084       $L79470                    0042f084 f   WSPopTable.obj
 0001:0002e08d       $L79471                    0042f08d f   WSPopTable.obj
 0001:0002e098       __ehhandler$??0WSPopTable@@QAE@PAVWContainerWidget@@_N@Z 0042f098 f   WSPopTable.obj
 0001:0002e0b0       $L80043                    0042f0b0 f   WSPopTable.obj
 0001:0002e0b9       $L80044                    0042f0b9 f   WSPopTable.obj
 0001:0002e0c4       $L80046                    0042f0c4 f   WSPopTable.obj
 0001:0002e0cd       $L80047                    0042f0cd f   WSPopTable.obj
 0001:0002e0d8       $L80049                    0042f0d8 f   WSPopTable.obj
 0001:0002e0e3       $L80050                    0042f0e3 f   WSPopTable.obj
 0001:0002e0ec       $L80053                    0042f0ec f   WSPopTable.obj
 0001:0002e0f5       $L80054                    0042f0f5 f   WSPopTable.obj
 0001:0002e100       $L80055                    0042f100 f   WSPopTable.obj
 0001:0002e109       $L80056                    0042f109 f   WSPopTable.obj
 0001:0002e114       $L80058                    0042f114 f   WSPopTable.obj
 0001:0002e11d       $L80059                    0042f11d f   WSPopTable.obj
 0001:0002e128       $L80060                    0042f128 f   WSPopTable.obj
 0001:0002e131       $L80061                    0042f131 f   WSPopTable.obj
 0001:0002e13c       $L80062                    0042f13c f   WSPopTable.obj
 0001:0002e145       $L80063                    0042f145 f   WSPopTable.obj
 0001:0002e150       $L80064                    0042f150 f   WSPopTable.obj
 0001:0002e159       $L80066                    0042f159 f   WSPopTable.obj
 0001:0002e162       $L80067                    0042f162 f   WSPopTable.obj
 0001:0002e16d       $L80068                    0042f16d f   WSPopTable.obj
 0001:0002e176       __ehhandler$?AppendRows@WSPopTable@@QAEXV?$basic_string@DU?$char_traits@D@std@@V?$allocator@D@2@@std@@@Z 0042f176 f   WSPopTable.obj
 0001:0002e180       $L22555                    0042f180 f   WSPopTableWt.obj
 0001:0002e18b       $L22556                    0042f18b f   WSPopTableWt.obj
 0001:0002e194       __ehhandler$?buildSlotMap@WSPopTable@@MAEXAAV?$map@V?$basic_string@DU?$char_traits@D@std@@V?$allocator@D@2@@std@@PAVWSlotInstance_@@U?$less@V?$basic_string@DU?$char_traits@D@std@@V?$allocator@D@2@@std@@@2@V?$allocator@U?$pair@$$CBV?$basic_string@DU?$char_traits@D@std@@V?$allocator@D@2@@std@@PAVWSlotInstance_@@@std@@@2@@std@@@Z 0042f194 f   WSPopTableWt.obj
 0001:0002e1a0       $L27748                    0042f1a0 f   WSPopTableWt.obj
 0001:0002e1ab       $L27749                    0042f1ab f   WSPopTableWt.obj
 0001:0002e1b4       __ehhandler$?buildSignalMap@WSPopTable@@MAEXAAV?$map@V?$basic_string@DU?$char_traits@D@std@@V?$allocator@D@2@@std@@PAVWSignalInstance_@@U?$less@V?$basic_string@DU?$char_traits@D@std@@V?$allocator@D@2@@std@@@2@V?$allocator@U?$pair@$$CBV?$basic_string@DU?$char_traits@D@std@@V?$allocator@D@2@@std@@PAVWSignalInstance_@@@std@@@2@@std@@@Z 0042f1b4 f   WSPopTableWt.obj
 0001:0002e1c0       $L27773                    0042f1c0 f   WSPopTableWt.obj
 0001:0002e1c8       $L27774                    0042f1c8 f   WSPopTableWt.obj
 0001:0002e1d2       __ehhandler$_$E7           0042f1d2 f   WSPopTableWt.obj
 0001:0002e1e0       $L17430                    0042f1e0 f   dependtree:WCssStyleSheet.obj
 0001:0002e1e9       __ehhandler$??0WCssRule@@QAE@V?$basic_string@DU?$char_traits@D@std@@V?$allocator@D@2@@std@@@Z 0042f1e9 f   dependtree:WCssStyleSheet.obj
 0001:0002e200       $L19911                    0042f200 f   dependtree:WCssStyleSheet.obj
 0001:0002e209       $L19912                    0042f209 f   dependtree:WCssStyleSheet.obj
 0001:0002e212       $L19913                    0042f212 f   dependtree:WCssStyleSheet.obj
 0001:0002e21b       $L19914                    0042f21b f   dependtree:WCssStyleSheet.obj
 0001:0002e224       $L19915                    0042f224 f   dependtree:WCssStyleSheet.obj
 0001:0002e230       $L19916                    0042f230 f   dependtree:WCssStyleSheet.obj
 0001:0002e250       __ehhandler$?cssText@WCssStyleSheet@@QBE?AV?$basic_string@DU?$char_traits@D@std@@V?$allocator@D@2@@std@@XZ 0042f250 f   dependtree:WCssStyleSheet.obj
 0001:0002e260       $L22481                    0042f260 f   dependtree:WCssStyleSheet.obj
 0001:0002e268       __ehhandler$??1WCssStyleSheet@@QAE@XZ 0042f268 f   dependtree:WCssStyleSheet.obj
 0001:0002e280       $L49987                    0042f280 f   dependtree:WWebWidget.obj
 0001:0002e280       $L49997                    0042f280 f   dependtree:WWebWidget.obj
 0001:0002e280       $L48245                    0042f280 f   dependtree:WWebWidget.obj
 0001:0002e280       $L52497                    0042f280 f   dependtree:WWebWidget.obj
 0001:0002e280       $L48255                    0042f280 f   dependtree:WWebWidget.obj
 0001:0002e280       $L49965                    0042f280 f   dependtree:WWebWidget.obj
 0001:0002e280       $L49955                    0042f280 f   dependtree:WWebWidget.obj
 0001:0002e280       $L52487                    0042f280 f   dependtree:WWebWidget.obj
 0001:0002e289       __ehhandler$??1?$pair@V?$basic_string@DU?$char_traits@D@std@@V?$allocator@D@2@@std@@V12@@std@@QAE@XZ 0042f289 f   dependtree:WWebWidget.obj
 0001:0002e289       __ehhandler$??1?$pair@$$CBV?$basic_string@DU?$char_traits@D@std@@V?$allocator@D@2@@std@@V12@@std@@QAE@XZ 0042f289 f   dependtree:WWebWidget.obj
 0001:0002e289       __ehhandler$??0?$pair@$$CBV?$basic_string@DU?$char_traits@D@std@@V?$allocator@D@2@@std@@U?$pair@V?$basic_string@DU?$char_traits@D@std@@V?$allocator@D@2@@std@@V12@@2@@std@@QAE@ABU01@@Z 0042f289 f   dependtree:WWebWidget.obj
 0001:0002e289       __ehhandler$??0?$pair@V?$basic_string@DU?$char_traits@D@std@@V?$allocator@D@2@@std@@V12@@std@@QAE@ABU01@@Z 0042f289 f   dependtree:WWebWidget.obj
 0001:0002e289       __ehhandler$??0JavaScript@@QAE@ABV0@@Z 0042f289 f   dependtree:WWebWidget.obj
 0001:0002e289       __ehhandler$??1JavaScript@@QAE@XZ 0042f289 f   dependtree:WWebWidget.obj
 0001:0002e289       __ehhandler$??1?$pair@$$CBV?$basic_string@DU?$char_traits@D@std@@V?$allocator@D@2@@std@@U?$pair@V?$basic_string@DU?$char_traits@D@std@@V?$allocator@D@2@@std@@V12@@2@@std@@QAE@XZ 0042f289 f   dependtree:WWebWidget.obj
 0001:0002e289       __ehhandler$??0?$pair@$$CBV?$basic_string@DU?$char_traits@D@std@@V?$allocator@D@2@@std@@V12@@std@@QAE@ABU01@@Z 0042f289 f   dependtree:WWebWidget.obj
 0001:0002e2a0       $L48409                    0042f2a0 f   dependtree:WWebWidget.obj
 0001:0002e2a9       __ehhandler$?setStyleClass@WWebWidget@@UAEXV?$basic_string@DU?$char_traits@D@std@@V?$allocator@D@2@@std@@@Z 0042f2a9 f   dependtree:WWebWidget.obj
 0001:0002e2c0       $L48422                    0042f2c0 f   dependtree:WWebWidget.obj
 0001:0002e2c9       $L48423                    0042f2c9 f   dependtree:WWebWidget.obj
 0001:0002e2d1       __ehhandler$?setToolTip@WWebWidget@@UAEXV?$basic_string@DU?$char_traits@D@std@@V?$allocator@D@2@@std@@@Z 0042f2d1 f   dependtree:WWebWidget.obj
 0001:0002e2e0       $L48499                    0042f2e0 f   dependtree:WWebWidget.obj
 0001:0002e2e0       $L50699                    0042f2e0 f   dependtree:WWebWidget.obj
 0001:0002e2e9       __ehhandler$?updateSignalConnection@WWebWidget@@IAEXAAVDomElement@@PBDV?$basic_string@DU?$char_traits@D@std@@V?$allocator@D@2@@std@@_N1@Z 0042f2e9 f   dependtree:WWebWidget.obj
 0001:0002e2e9       __ehhandler$?updateSignalConnection@WWebWidget@@IAEXAAVDomElement@@PBDV?$basic_string@DU?$char_traits@D@std@@V?$allocator@D@2@@std@@1_N1@Z 0042f2e9 f   dependtree:WWebWidget.obj
 0001:0002e300       $L50528                    0042f300 f   dependtree:WWebWidget.obj
 0001:0002e309       __ehhandler$??5?$lexical_stream@V?$basic_string@DU?$char_traits@D@std@@V?$allocator@D@2@@std@@H@detail@boost@@QAE_NAAV?$basic_string@DU?$char_traits@D@std@@V?$allocator@D@2@@std@@@Z 0042f309 f   dependtree:WWebWidget.obj
 0001:0002e320       $L55163                    0042f320 f   dependtree:WWebWidget.obj
 0001:0002e331       __ehhandler$?_Buynode@?$_Tree@V?$_Tmap_traits@V?$basic_string@DU?$char_traits@D@std@@V?$allocator@D@2@@std@@V12@U?$less@V?$basic_string@DU?$char_traits@D@std@@V?$allocator@D@2@@std@@@2@V?$allocator@U?$pair@$$CBV?$basic_string@DU?$char_traits@D@std@@V?$allocator@D@2@@std@@V12@@std@@@2@$0A@@std@@@std@@IAEPAU_Node@?$_Tree_nod@V?$_Tmap_traits@V?$basic_string@DU?$char_traits@D@std@@V?$allocator@D@2@@std@@V12@U?$less@V?$basic_string@DU?$char_traits@D@std@@V?$allocator@D@2@@std@@@2@V?$allocator@U?$pair@$$CBV?$basic_string@DU?$char_traits@D@std@@V?$allocator@D@2@@std@@V12@@std@@@2@$0A@@std@@@2@PAU342@00ABU?$pair@$$CBV?$basic_string@DU?$char_traits@D@std@@V?$allocator@D@2@@std@@V12@@2@D@Z 0042f331 f   dependtree:WWebWidget.obj
 0001:0002e340       $L55198                    0042f340 f   dependtree:WWebWidget.obj
 0001:0002e351       __ehhandler$?_Buynode@?$_Tree@V?$_Tmap_traits@W4Property@Wt@@V?$basic_string@DU?$char_traits@D@std@@V?$allocator@D@2@@std@@U?$less@W4Property@Wt@@@4@V?$allocator@U?$pair@$$CBW4Property@Wt@@V?$basic_string@DU?$char_traits@D@std@@V?$allocator@D@2@@std@@@std@@@4@$0A@@std@@@std@@IAEPAU_Node@?$_Tree_nod@V?$_Tmap_traits@W4Property@Wt@@V?$basic_string@DU?$char_traits@D@std@@V?$allocator@D@2@@std@@U?$less@W4Property@Wt@@@4@V?$allocator@U?$pair@$$CBW4Property@Wt@@V?$basic_string@DU?$char_traits@D@std@@V?$allocator@D@2@@std@@@std@@@4@$0A@@std@@@2@PAU342@00ABU?$pair@$$CBW4Property@Wt@@V?$basic_string@DU?$char_traits@D@std@@V?$allocator@D@2@@std@@@2@D@Z 0042f351 f   dependtree:WWebWidget.obj
 0001:0002e360       $L55240                    0042f360 f   dependtree:WWebWidget.obj
 0001:0002e371       __ehhandler$?_Buynode@?$_Tree@V?$_Tmap_traits@V?$basic_string@DU?$char_traits@D@std@@V?$allocator@D@2@@std@@PAVWSlotInstance_@@U?$less@V?$basic_string@DU?$char_traits@D@std@@V?$allocator@D@2@@std@@@2@V?$allocator@U?$pair@$$CBV?$basic_string@DU?$char_traits@D@std@@V?$allocator@D@2@@std@@PAVWSlotInstance_@@@std@@@2@$0A@@std@@@std@@IAEPAU_Node@?$_Tree_nod@V?$_Tmap_traits@V?$basic_string@DU?$char_traits@D@std@@V?$allocator@D@2@@std@@PAVWSlotInstance_@@U?$less@V?$basic_string@DU?$char_traits@D@std@@V?$allocator@D@2@@std@@@2@V?$allocator@U?$pair@$$CBV?$basic_string@DU?$char_traits@D@std@@V?$allocator@D@2@@std@@PAVWSlotInstance_@@@std@@@2@$0A@@std@@@2@PAU342@00ABU?$pair@$$CBV?$basic_string@DU?$char_traits@D@std@@V?$allocator@D@2@@std@@PAVWSlotInstance_@@@2@D@Z 0042f371 f   dependtree:WWebWidget.obj
 0001:0002e380       $L55358                    0042f380 f   dependtree:WWebWidget.obj
 0001:0002e38b       $L55359                    0042f38b f   dependtree:WWebWidget.obj
 0001:0002e394       $L55361                    0042f394 f   dependtree:WWebWidget.obj
 0001:0002e3b4       $L55360                    0042f3b4 f   dependtree:WWebWidget.obj
 0001:0002e3bf       __ehhandler$??$lexical_cast@V?$basic_string@DU?$char_traits@D@std@@V?$allocator@D@2@@std@@H@boost@@YA?AV?$basic_string@DU?$char_traits@D@std@@V?$allocator@D@2@@std@@ABH@Z 0042f3bf f   dependtree:WWebWidget.obj
 0001:0002e3d0       $L55749                    0042f3d0 f   dependtree:WWebWidget.obj
 0001:0002e3d9       $L55750                    0042f3d9 f   dependtree:WWebWidget.obj
 0001:0002e3e1       __ehhandler$?refresh@WWebWidget@@UAEXXZ 0042f3e1 f   dependtree:WWebWidget.obj
 0001:0002e3f0       $L57743                    0042f3f0 f   dependtree:WWebWidget.obj
 0001:0002e401       __ehhandler$?_Buynode@?$_Tree@V?$_Tmap_traits@V?$basic_string@DU?$char_traits@D@std@@V?$allocator@D@2@@std@@U?$pair@V?$basic_string@DU?$char_traits@D@std@@V?$allocator@D@2@@std@@V12@@2@U?$less@V?$basic_string@DU?$char_traits@D@std@@V?$allocator@D@2@@std@@@2@V?$allocator@U?$pair@$$CBV?$basic_string@DU?$char_traits@D@std@@V?$allocator@D@2@@std@@U?$pair@V?$basic_string@DU?$char_traits@D@std@@V?$allocator@D@2@@std@@V12@@2@@std@@@2@$0A@@std@@@std@@IAEPAU_Node@?$_Tree_nod@V?$_Tmap_traits@V?$basic_string@DU?$char_traits@D@std@@V?$allocator@D@2@@std@@U?$pair@V?$basic_string@DU?$char_traits@D@std@@V?$allocator@D@2@@std@@V12@@2@U?$less@V?$basic_string@DU?$char_traits@D@std@@V?$allocator@D@2@@std@@@2@V?$allocator@U?$pair@$$CBV?$basic_string@DU?$char_traits@D@std@@V?$allocator@D@2@@std@@U?$pair@V?$basic_string@DU?$char_traits@D@std@@V?$allocator@D@2@@std@@V12@@2@@std@@@2@$0A@@std@@@2@PAU342@00ABU?$pair@$$CBV?$basic_string@DU?$char_traits@D@std@@V?$allocator@D@2@@std@@U?$pair@V?$basic_string@DU?$char_traits@D@std@@V?$allocator@D@2@@std@@V12@@2@@2@D@Z 0042f401 f   dependtree:WWebWidget.obj
 0001:0002e410       $L57841                    0042f410 f   dependtree:WWebWidget.obj
 0001:0002e410       $L57921                    0042f410 f   dependtree:WWebWidget.obj
 0001:0002e421       __ehhandler$??$_Uninit_copy@Vconst_iterator@?$vector@U?$pair@V?$basic_string@DU?$char_traits@D@std@@V?$allocator@D@2@@std@@PAVDomElement@@@std@@V?$allocator@U?$pair@V?$basic_string@DU?$char_traits@D@std@@V?$allocator@D@2@@std@@PAVDomElement@@@std@@@2@@std@@PAU?$pair@V?$basic_string@DU?$char_traits@D@std@@V?$allocator@D@2@@std@@PAVDomElement@@@3@V?$allocator@U?$pair@V?$basic_string@DU?$char_traits@D@std@@V?$allocator@D@2@@std@@PAVDomElement@@@std@@@3@@std@@YAPAU?$pair@V?$basic_string@DU?$char_traits@D@std@@V?$allocator@D@2@@std@@PAVDomElement@@@0@Vconst_iterator@?$vector@U?$pair@V?$basic_string@DU?$char_traits@D@std@@V?$allocator@D@2@@std@@PAVDomElement@@@std@@V?$allocator@U?$pair@V?$basic_string@DU?$char_traits@D@std@@V?$allocator@D@2@@std@@PAVDomElement@@@std@@@2@@0@0PAU10@AAV?$allocator@U?$pair@V?$basic_string@DU?$char_traits@D@std@@V?$allocator@D@2@@std@@PAVDomElement@@@std@@@0@U_Nonscalar_ptr_iterator_tag@0@@Z 0042f421 f   dependtree:WWebWidget.obj
 0001:0002e421       __ehhandler$??$_Uninit_copy@PAU?$pair@V?$basic_string@DU?$char_traits@D@std@@V?$allocator@D@2@@std@@PAVDomElement@@@std@@PAU12@V?$allocator@U?$pair@V?$basic_string@DU?$char_traits@D@std@@V?$allocator@D@2@@std@@PAVDomElement@@@std@@@2@@std@@YAPAU?$pair@V?$basic_string@DU?$char_traits@D@std@@V?$allocator@D@2@@std@@PAVDomElement@@@0@PAU10@00AAV?$allocator@U?$pair@V?$basic_string@DU?$char_traits@D@std@@V?$allocator@D@2@@std@@PAVDomElement@@@std@@@0@U_Nonscalar_ptr_iterator_tag@0@@Z 0042f421 f   dependtree:WWebWidget.obj
 0001:0002e430       $L58015                    0042f430 f   dependtree:WWebWidget.obj
 0001:0002e438       $L58016                    0042f438 f   dependtree:WWebWidget.obj
 0001:0002e446       $L58017                    0042f446 f   dependtree:WWebWidget.obj
 0001:0002e455       $L58018                    0042f455 f   dependtree:WWebWidget.obj
 0001:0002e464       $L58019                    0042f464 f   dependtree:WWebWidget.obj
 0001:0002e472       $L58020                    0042f472 f   dependtree:WWebWidget.obj
 0001:0002e480       $L58021                    0042f480 f   dependtree:WWebWidget.obj
 0001:0002e48e       __ehhandler$??0WWebWidget@@QAE@PAVWContainerWidget@@@Z 0042f48e f   dependtree:WWebWidget.obj
 0001:0002e4a0       $L58232                    0042f4a0 f   dependtree:WWebWidget.obj
 0001:0002e4a8       $L58233                    0042f4a8 f   dependtree:WWebWidget.obj
 0001:0002e4b6       $L58234                    0042f4b6 f   dependtree:WWebWidget.obj
 0001:0002e4c5       $L58235                    0042f4c5 f   dependtree:WWebWidget.obj
 0001:0002e4d4       $L58236                    0042f4d4 f   dependtree:WWebWidget.obj
 0001:0002e4e2       $L58237                    0042f4e2 f   dependtree:WWebWidget.obj
 0001:0002e4f0       $L58238                    0042f4f0 f   dependtree:WWebWidget.obj
 0001:0002e4fe       __ehhandler$??1WWebWidget@@UAE@XZ 0042f4fe f   dependtree:WWebWidget.obj
 0001:0002e510       $L58510                    0042f510 f   dependtree:WWebWidget.obj
 0001:0002e519       $L58512                    0042f519 f   dependtree:WWebWidget.obj
 0001:0002e522       __ehhandler$?updateDom@WWebWidget@@MAEXAAVDomElement@@_N@Z 0042f522 f   dependtree:WWebWidget.obj
 0001:0002e530       $L60843                    0042f530 f   dependtree:WWebWidget.obj
 0001:0002e539       $L60853                    0042f539 f   dependtree:WWebWidget.obj
 0001:0002e542       $L61224                    0042f542 f   dependtree:WWebWidget.obj
 0001:0002e54b       __ehhandler$?erase@?$_Tree@V?$_Tmap_traits@V?$basic_string@DU?$char_traits@D@std@@V?$allocator@D@2@@std@@V12@U?$less@V?$basic_string@DU?$char_traits@D@std@@V?$allocator@D@2@@std@@@2@V?$allocator@U?$pair@$$CBV?$basic_string@DU?$char_traits@D@std@@V?$allocator@D@2@@std@@V12@@std@@@2@$0A@@std@@@std@@QAE?AViterator@12@V312@@Z 0042f54b f   dependtree:WWebWidget.obj
 0001:0002e560       $L61283                    0042f560 f   dependtree:WWebWidget.obj
 0001:0002e560       $L49011                    0042f560 f   dependtree:WWebWidget.obj
 0001:0002e560       $L56930                    0042f560 f   dependtree:WWebWidget.obj
 0001:0002e569       $L61293                    0042f569 f   dependtree:WWebWidget.obj
 0001:0002e569       $L49015                    0042f569 f   dependtree:WWebWidget.obj
 0001:0002e569       $L56950                    0042f569 f   dependtree:WWebWidget.obj
 0001:0002e572       __ehhandler$?_Xlen@?$vector@U?$pair@V?$basic_string@DU?$char_traits@D@std@@V?$allocator@D@2@@std@@PAVDomElement@@@std@@V?$allocator@U?$pair@V?$basic_string@DU?$char_traits@D@std@@V?$allocator@D@2@@std@@PAVDomElement@@@std@@@2@@std@@IBEXXZ 0042f572 f   dependtree:WWebWidget.obj
 0001:0002e572       __ehhandler$?erase@?$_Tree@V?$_Tmap_traits@W4Property@Wt@@V?$basic_string@DU?$char_traits@D@std@@V?$allocator@D@2@@std@@U?$less@W4Property@Wt@@@4@V?$allocator@U?$pair@$$CBW4Property@Wt@@V?$basic_string@DU?$char_traits@D@std@@V?$allocator@D@2@@std@@@std@@@4@$0A@@std@@@std@@QAE?AViterator@12@V312@@Z 0042f572 f   dependtree:WWebWidget.obj
 0001:0002e572       __ehhandler$?_Insert@?$_Tree@V?$_Tmap_traits@V?$basic_string@DU?$char_traits@D@std@@V?$allocator@D@2@@std@@PAVWSlotInstance_@@U?$less@V?$basic_string@DU?$char_traits@D@std@@V?$allocator@D@2@@std@@@2@V?$allocator@U?$pair@$$CBV?$basic_string@DU?$char_traits@D@std@@V?$allocator@D@2@@std@@PAVWSlotInstance_@@@std@@@2@$0A@@std@@@std@@IAE?AViterator@12@_NPAU_Node@?$_Tree_nod@V?$_Tmap_traits@V?$basic_string@DU?$char_traits@D@std@@V?$allocator@D@2@@std@@PAVWSlotInstance_@@U?$less@V?$basic_string@DU?$char_traits@D@std@@V?$allocator@D@2@@std@@@2@V?$allocator@U?$pair@$$CBV?$basic_string@DU?$char_traits@D@std@@V?$allocator@D@2@@std@@PAVWSlotInstance_@@@std@@@2@$0A@@std@@@2@ABU?$pair@$$CBV?$basic_string@DU?$char_traits@D@std@@V?$allocator@D@2@@std@@PAVWSlotInstance_@@@2@@Z 0042f572 f   dependtree:WWebWidget.obj
 0001:0002e580       __ehhandler$?_Copy@?$_Tree@V?$_Tmap_traits@V?$basic_string@DU?$char_traits@D@std@@V?$allocator@D@2@@std@@V12@U?$less@V?$basic_string@DU?$char_traits@D@std@@V?$allocator@D@2@@std@@@2@V?$allocator@U?$pair@$$CBV?$basic_string@DU?$char_traits@D@std@@V?$allocator@D@2@@std@@V12@@std@@@2@$0A@@std@@@std@@IAEPAU_Node@?$_Tree_nod@V?$_Tmap_traits@V?$basic_string@DU?$char_traits@D@std@@V?$allocator@D@2@@std@@V12@U?$less@V?$basic_string@DU?$char_traits@D@std@@V?$allocator@D@2@@std@@@2@V?$allocator@U?$pair@$$CBV?$basic_string@DU?$char_traits@D@std@@V?$allocator@D@2@@std@@V12@@std@@@2@$0A@@std@@@2@PAU342@0@Z 0042f580 f   dependtree:WWebWidget.obj
 0001:0002e590       __ehhandler$?_Copy@?$_Tree@V?$_Tmap_traits@W4Property@Wt@@V?$basic_string@DU?$char_traits@D@std@@V?$allocator@D@2@@std@@U?$less@W4Property@Wt@@@4@V?$allocator@U?$pair@$$CBW4Property@Wt@@V?$basic_string@DU?$char_traits@D@std@@V?$allocator@D@2@@std@@@std@@@4@$0A@@std@@@std@@IAEPAU_Node@?$_Tree_nod@V?$_Tmap_traits@W4Property@Wt@@V?$basic_string@DU?$char_traits@D@std@@V?$allocator@D@2@@std@@U?$less@W4Property@Wt@@@4@V?$allocator@U?$pair@$$CBW4Property@Wt@@V?$basic_string@DU?$char_traits@D@std@@V?$allocator@D@2@@std@@@std@@@4@$0A@@std@@@2@PAU342@0@Z 0042f590 f   dependtree:WWebWidget.obj
 0001:0002e5a0       $L65091                    0042f5a0 f   dependtree:WWebWidget.obj
 0001:0002e5a9       $L65101                    0042f5a9 f   dependtree:WWebWidget.obj
 0001:0002e5b2       $L65472                    0042f5b2 f   dependtree:WWebWidget.obj
 0001:0002e5bb       $L65475                    0042f5bb f   dependtree:WWebWidget.obj
 0001:0002e5c4       __ehhandler$?erase@?$_Tree@V?$_Tmap_traits@V?$basic_string@DU?$char_traits@D@std@@V?$allocator@D@2@@std@@U?$pair@V?$basic_string@DU?$char_traits@D@std@@V?$allocator@D@2@@std@@V12@@2@U?$less@V?$basic_string@DU?$char_traits@D@std@@V?$allocator@D@2@@std@@@2@V?$allocator@U?$pair@$$CBV?$basic_string@DU?$char_traits@D@std@@V?$allocator@D@2@@std@@U?$pair@V?$basic_string@DU?$char_traits@D@std@@V?$allocator@D@2@@std@@V12@@2@@std@@@2@$0A@@std@@@std@@QAE?AViterator@12@V312@@Z 0042f5c4 f   dependtree:WWebWidget.obj
 0001:0002e5d0       $L66337                    0042f5d0 f   dependtree:WWebWidget.obj
 0001:0002e5d8       __ehhandler$??A?$map@V?$basic_string@DU?$char_traits@D@std@@V?$allocator@D@2@@std@@PAVWSlotInstance_@@U?$less@V?$basic_string@DU?$char_traits@D@std@@V?$allocator@D@2@@std@@@2@V?$allocator@U?$pair@$$CBV?$basic_string@DU?$char_traits@D@std@@V?$allocator@D@2@@std@@PAVWSlotInstance_@@@std@@@2@@std@@QAEAAPAVWSlotInstance_@@ABV?$basic_string@DU?$char_traits@D@std@@V?$allocator@D@2@@1@@Z 0042f5d8 f   dependtree:WWebWidget.obj
 0001:0002e5f0       __ehhandler$?_Copy@?$_Tree@V?$_Tmap_traits@V?$basic_string@DU?$char_traits@D@std@@V?$allocator@D@2@@std@@U?$pair@V?$basic_string@DU?$char_traits@D@std@@V?$allocator@D@2@@std@@V12@@2@U?$less@V?$basic_string@DU?$char_traits@D@std@@V?$allocator@D@2@@std@@@2@V?$allocator@U?$pair@$$CBV?$basic_string@DU?$char_traits@D@std@@V?$allocator@D@2@@std@@U?$pair@V?$basic_string@DU?$char_traits@D@std@@V?$allocator@D@2@@std@@V12@@2@@std@@@2@$0A@@std@@@std@@IAEPAU_Node@?$_Tree_nod@V?$_Tmap_traits@V?$basic_string@DU?$char_traits@D@std@@V?$allocator@D@2@@std@@U?$pair@V?$basic_string@DU?$char_traits@D@std@@V?$allocator@D@2@@std@@V12@@2@U?$less@V?$basic_string@DU?$char_traits@D@std@@V?$allocator@D@2@@std@@@2@V?$allocator@U?$pair@$$CBV?$basic_string@DU?$char_traits@D@std@@V?$allocator@D@2@@std@@U?$pair@V?$basic_string@DU?$char_traits@D@std@@V?$allocator@D@2@@std@@V12@@2@@std@@@2@$0A@@std@@@2@PAU342@0@Z 0042f5f0 f   dependtree:WWebWidget.obj
 0001:0002e600       $L68442                    0042f600 f   dependtree:WWebWidget.obj
 0001:0002e600       $L68469                    0042f600 f   dependtree:WWebWidget.obj
 0001:0002e60b       $L68443                    0042f60b f   dependtree:WWebWidget.obj
 0001:0002e60b       $L68470                    0042f60b f   dependtree:WWebWidget.obj
 0001:0002e614       __ehhandler$?buildSlotMap@WWebWidget@@MAEXAAV?$map@V?$basic_string@DU?$char_traits@D@std@@V?$allocator@D@2@@std@@PAVWSlotInstance_@@U?$less@V?$basic_string@DU?$char_traits@D@std@@V?$allocator@D@2@@std@@@2@V?$allocator@U?$pair@$$CBV?$basic_string@DU?$char_traits@D@std@@V?$allocator@D@2@@std@@PAVWSlotInstance_@@@std@@@2@@std@@@Z 0042f614 f   dependtree:WWebWidget.obj
 0001:0002e614       __ehhandler$?buildSignalMap@WWebWidget@@MAEXAAV?$map@V?$basic_string@DU?$char_traits@D@std@@V?$allocator@D@2@@std@@PAVWSignalInstance_@@U?$less@V?$basic_string@DU?$char_traits@D@std@@V?$allocator@D@2@@std@@@2@V?$allocator@U?$pair@$$CBV?$basic_string@DU?$char_traits@D@std@@V?$allocator@D@2@@std@@PAVWSignalInstance_@@@std@@@2@@std@@@Z 0042f614 f   dependtree:WWebWidget.obj
 0001:0002e620       __ehhandler$??0?$_Tree@V?$_Tmap_traits@V?$basic_string@DU?$char_traits@D@std@@V?$allocator@D@2@@std@@V12@U?$less@V?$basic_string@DU?$char_traits@D@std@@V?$allocator@D@2@@std@@@2@V?$allocator@U?$pair@$$CBV?$basic_string@DU?$char_traits@D@std@@V?$allocator@D@2@@std@@V12@@std@@@2@$0A@@std@@@std@@QAE@ABV01@@Z 0042f620 f   dependtree:WWebWidget.obj
 0001:0002e630       __ehhandler$??0?$_Tree@V?$_Tmap_traits@W4Property@Wt@@V?$basic_string@DU?$char_traits@D@std@@V?$allocator@D@2@@std@@U?$less@W4Property@Wt@@@4@V?$allocator@U?$pair@$$CBW4Property@Wt@@V?$basic_string@DU?$char_traits@D@std@@V?$allocator@D@2@@std@@@std@@@4@$0A@@std@@@std@@QAE@ABV01@@Z 0042f630 f   dependtree:WWebWidget.obj
 0001:0002e640       __ehhandler$??0?$vector@U?$pair@V?$basic_string@DU?$char_traits@D@std@@V?$allocator@D@2@@std@@PAVDomElement@@@std@@V?$allocator@U?$pair@V?$basic_string@DU?$char_traits@D@std@@V?$allocator@D@2@@std@@PAVDomElement@@@std@@@2@@std@@QAE@ABV01@@Z 0042f640 f   dependtree:WWebWidget.obj
 0001:0002e650       __ehhandler$??0?$_Tree@V?$_Tmap_traits@V?$basic_string@DU?$char_traits@D@std@@V?$allocator@D@2@@std@@U?$pair@V?$basic_string@DU?$char_traits@D@std@@V?$allocator@D@2@@std@@V12@@2@U?$less@V?$basic_string@DU?$char_traits@D@std@@V?$allocator@D@2@@std@@@2@V?$allocator@U?$pair@$$CBV?$basic_string@DU?$char_traits@D@std@@V?$allocator@D@2@@std@@U?$pair@V?$basic_string@DU?$char_traits@D@std@@V?$allocator@D@2@@std@@V12@@2@@std@@@2@$0A@@std@@@std@@QAE@ABV01@@Z 0042f650 f   dependtree:WWebWidget.obj
 0001:0002e660       $L71289                    0042f660 f   dependtree:WWebWidget.obj
 0001:0002e66c       $L71290                    0042f66c f   dependtree:WWebWidget.obj
 0001:0002e677       $L71291                    0042f677 f   dependtree:WWebWidget.obj
 0001:0002e682       $L71292                    0042f682 f   dependtree:WWebWidget.obj
 0001:0002e68d       __ehhandler$??0DomElement@@QAE@ABV0@@Z 0042f68d f   dependtree:WWebWidget.obj
 0001:0002e6a0       $L37279                    0042f6a0 f   dependtree:WInteractWidget.obj
 0001:0002e6a0       $L37306                    0042f6a0 f   dependtree:WInteractWidget.obj
 0001:0002e6ab       $L37307                    0042f6ab f   dependtree:WInteractWidget.obj
 0001:0002e6ab       $L37280                    0042f6ab f   dependtree:WInteractWidget.obj
 0001:0002e6b4       __ehhandler$?buildSignalMap@WInteractWidget@@MAEXAAV?$map@V?$basic_string@DU?$char_traits@D@std@@V?$allocator@D@2@@std@@PAVWSignalInstance_@@U?$less@V?$basic_string@DU?$char_traits@D@std@@V?$allocator@D@2@@std@@@2@V?$allocator@U?$pair@$$CBV?$basic_string@DU?$char_traits@D@std@@V?$allocator@D@2@@std@@PAVWSignalInstance_@@@std@@@2@@std@@@Z 0042f6b4 f   dependtree:WInteractWidget.obj
 0001:0002e6b4       __ehhandler$?buildSlotMap@WInteractWidget@@MAEXAAV?$map@V?$basic_string@DU?$char_traits@D@std@@V?$allocator@D@2@@std@@PAVWSlotInstance_@@U?$less@V?$basic_string@DU?$char_traits@D@std@@V?$allocator@D@2@@std@@@2@V?$allocator@U?$pair@$$CBV?$basic_string@DU?$char_traits@D@std@@V?$allocator@D@2@@std@@PAVWSlotInstance_@@@std@@@2@@std@@@Z 0042f6b4 f   dependtree:WInteractWidget.obj
 0001:0002e6c0       $L39898                    0042f6c0 f   dependtree:WInteractWidget.obj
 0001:0002e6c8       $L39899                    0042f6c8 f   dependtree:WInteractWidget.obj
 0001:0002e6d2       __ehhandler$_$E4           0042f6d2 f   dependtree:WInteractWidget.obj
 0001:0002e6e0       $L39947                    0042f6e0 f   dependtree:WInteractWidget.obj
 0001:0002e6e8       $L39948                    0042f6e8 f   dependtree:WInteractWidget.obj
 0001:0002e6f2       $L39950                    0042f6f2 f   dependtree:WInteractWidget.obj
 0001:0002e6fa       $L39951                    0042f6fa f   dependtree:WInteractWidget.obj
 0001:0002e704       $L39953                    0042f704 f   dependtree:WInteractWidget.obj
 0001:0002e70c       $L39954                    0042f70c f   dependtree:WInteractWidget.obj
 0001:0002e716       $L39956                    0042f716 f   dependtree:WInteractWidget.obj
 0001:0002e71e       $L39957                    0042f71e f   dependtree:WInteractWidget.obj
 0001:0002e728       $L39959                    0042f728 f   dependtree:WInteractWidget.obj
 0001:0002e730       $L39960                    0042f730 f   dependtree:WInteractWidget.obj
 0001:0002e73a       $L39962                    0042f73a f   dependtree:WInteractWidget.obj
 0001:0002e742       $L39963                    0042f742 f   dependtree:WInteractWidget.obj
 0001:0002e74c       $L39965                    0042f74c f   dependtree:WInteractWidget.obj
 0001:0002e754       $L39966                    0042f754 f   dependtree:WInteractWidget.obj
 0001:0002e75e       $L39968                    0042f75e f   dependtree:WInteractWidget.obj
 0001:0002e766       $L39969                    0042f766 f   dependtree:WInteractWidget.obj
 0001:0002e770       $L39971                    0042f770 f   dependtree:WInteractWidget.obj
 0001:0002e778       $L39972                    0042f778 f   dependtree:WInteractWidget.obj
 0001:0002e782       $L39974                    0042f782 f   dependtree:WInteractWidget.obj
 0001:0002e78a       $L39975                    0042f78a f   dependtree:WInteractWidget.obj
 0001:0002e794       $L39977                    0042f794 f   dependtree:WInteractWidget.obj
 0001:0002e79c       $L39978                    0042f79c f   dependtree:WInteractWidget.obj
 0001:0002e7a6       $L39980                    0042f7a6 f   dependtree:WInteractWidget.obj
 0001:0002e7ae       $L39981                    0042f7ae f   dependtree:WInteractWidget.obj
 0001:0002e7b8       $L39983                    0042f7b8 f   dependtree:WInteractWidget.obj
 0001:0002e7c0       $L39984                    0042f7c0 f   dependtree:WInteractWidget.obj
 0001:0002e7ca       $L39986                    0042f7ca f   dependtree:WInteractWidget.obj
 0001:0002e7d2       $L39987                    0042f7d2 f   dependtree:WInteractWidget.obj
 0001:0002e7dc       __ehhandler$_$E7           0042f7dc f   dependtree:WInteractWidget.obj
 0001:0002e7f0       $L34747                    0042f7f0 f   dependtree:WContainerWidget.obj
 0001:0002e7f8       $L34748                    0042f7f8 f   dependtree:WContainerWidget.obj
 0001:0002e806       __ehhandler$??0WContainerWidget@@QAE@PAV0@@Z 0042f806 f   dependtree:WContainerWidget.obj
 0001:0002e810       $L35017                    0042f810 f   dependtree:WContainerWidget.obj
 0001:0002e81c       $L35018                    0042f81c f   dependtree:WContainerWidget.obj
 0001:0002e828       $L35019                    0042f828 f   dependtree:WContainerWidget.obj
 0001:0002e834       $L35020                    0042f834 f   dependtree:WContainerWidget.obj
 0001:0002e840       $L35021                    0042f840 f   dependtree:WContainerWidget.obj
 0001:0002e84c       $L35022                    0042f84c f   dependtree:WContainerWidget.obj
 0001:0002e858       $L35023                    0042f858 f   dependtree:WContainerWidget.obj
 0001:0002e864       $L35024                    0042f864 f   dependtree:WContainerWidget.obj
 0001:0002e870       $L35025                    0042f870 f   dependtree:WContainerWidget.obj
 0001:0002e87c       __ehhandler$?updateDom@WContainerWidget@@MAEXAAVDomElement@@_N@Z 0042f87c f   dependtree:WContainerWidget.obj
 0001:0002e890       $L40985                    0042f890 f   dependtree:WContainerWidget.obj
 0001:0002e890       $L40958                    0042f890 f   dependtree:WContainerWidget.obj
 0001:0002e89b       $L40986                    0042f89b f   dependtree:WContainerWidget.obj
 0001:0002e89b       $L40959                    0042f89b f   dependtree:WContainerWidget.obj
 0001:0002e8a4       __ehhandler$?buildSlotMap@WContainerWidget@@MAEXAAV?$map@V?$basic_string@DU?$char_traits@D@std@@V?$allocator@D@2@@std@@PAVWSlotInstance_@@U?$less@V?$basic_string@DU?$char_traits@D@std@@V?$allocator@D@2@@std@@@2@V?$allocator@U?$pair@$$CBV?$basic_string@DU?$char_traits@D@std@@V?$allocator@D@2@@std@@PAVWSlotInstance_@@@std@@@2@@std@@@Z 0042f8a4 f   dependtree:WContainerWidget.obj
 0001:0002e8a4       __ehhandler$?buildSignalMap@WContainerWidget@@MAEXAAV?$map@V?$basic_string@DU?$char_traits@D@std@@V?$allocator@D@2@@std@@PAVWSignalInstance_@@U?$less@V?$basic_string@DU?$char_traits@D@std@@V?$allocator@D@2@@std@@@2@V?$allocator@U?$pair@$$CBV?$basic_string@DU?$char_traits@D@std@@V?$allocator@D@2@@std@@PAVWSignalInstance_@@@std@@@2@@std@@@Z 0042f8a4 f   dependtree:WContainerWidget.obj
 0001:0002e8b0       $L51419                    0042f8b0 f   dependtree:WTable.obj
 0001:0002e8b9       $L51420                    0042f8b9 f   dependtree:WTable.obj
 0001:0002e8c2       __ehhandler$?adjustRowStyle@WTable@@QAEXV?$basic_string@DU?$char_traits@D@std@@V?$allocator@D@2@@std@@0@Z 0042f8c2 f   dependtree:WTable.obj
 0001:0002e8d0       $L53315                    0042f8d0 f   dependtree:WTable.obj
 0001:0002e8d0       $L53414                    0042f8d0 f   dependtree:WTable.obj
 0001:0002e8d8       $L53316                    0042f8d8 f   dependtree:WTable.obj
 0001:0002e8d8       $L53415                    0042f8d8 f   dependtree:WTable.obj
 0001:0002e8e6       __ehhandler$??0WTable@@QAE@PAVWContainerWidget@@@Z 0042f8e6 f   dependtree:WTable.obj
 0001:0002e8e6       __ehhandler$??1WTable@@UAE@XZ 0042f8e6 f   dependtree:WTable.obj
 0001:0002e8f0       $L53514                    0042f8f0 f   dependtree:WTable.obj
 0001:0002e8f9       __ehhandler$?printDebug@WTable@@QAEXXZ 0042f8f9 f   dependtree:WTable.obj
 0001:0002e910       $L62362                    0042f910 f   dependtree:WTable.obj
 0001:0002e910       $L53887                    0042f910 f   dependtree:WTable.obj
 0001:0002e91b       __ehhandler$?removeCell@WTable@@QAEXHH@Z 0042f91b f   dependtree:WTable.obj
 0001:0002e91b       __ehhandler$?insertColumn@WTableRow@@QAEXH@Z 0042f91b f   dependtree:WTable.obj
 0001:0002e930       $L54471                    0042f930 f   dependtree:WTable.obj
 0001:0002e939       $L54473                    0042f939 f   dependtree:WTable.obj
 0001:0002e942       $L54475                    0042f942 f   dependtree:WTable.obj
 0001:0002e94b       $L54476                    0042f94b f   dependtree:WTable.obj
 0001:0002e954       $L54477                    0042f954 f   dependtree:WTable.obj
 0001:0002e95d       $L54478                    0042f95d f   dependtree:WTable.obj
 0001:0002e966       __ehhandler$?createDomElement@WTable@@MAEPAVDomElement@@XZ 0042f966 f   dependtree:WTable.obj
 0001:0002e970       __ehhandler$?_Insert_n@?$vector@UTableData@WTableRow@@V?$allocator@UTableData@WTableRow@@@std@@@std@@IAEXViterator@12@IABUTableData@WTableRow@@@Z 0042f970 f   dependtree:WTable.obj
 0001:0002e980       $L62305                    0042f980 f   dependtree:WTable.obj
 0001:0002e980       $L62251                    0042f980 f   dependtree:WTable.obj
 0001:0002e980       $L62278                    0042f980 f   dependtree:WTable.obj
 0001:0002e980       $L62332                    0042f980 f   dependtree:WTable.obj
 0001:0002e98b       $L62306                    0042f98b f   dependtree:WTable.obj
 0001:0002e98b       $L62333                    0042f98b f   dependtree:WTable.obj
 0001:0002e98b       $L62252                    0042f98b f   dependtree:WTable.obj
 0001:0002e98b       $L62279                    0042f98b f   dependtree:WTable.obj
 0001:0002e994       __ehhandler$?buildSlotMap@WTable@@MAEXAAV?$map@V?$basic_string@DU?$char_traits@D@std@@V?$allocator@D@2@@std@@PAVWSlotInstance_@@U?$less@V?$basic_string@DU?$char_traits@D@std@@V?$allocator@D@2@@std@@@2@V?$allocator@U?$pair@$$CBV?$basic_string@DU?$char_traits@D@std@@V?$allocator@D@2@@std@@PAVWSlotInstance_@@@std@@@2@@std@@@Z 0042f994 f   dependtree:WTable.obj
 0001:0002e994       __ehhandler$?buildSignalMap@WTableRow@@MAEXAAV?$map@V?$basic_string@DU?$char_traits@D@std@@V?$allocator@D@2@@std@@PAVWSignalInstance_@@U?$less@V?$basic_string@DU?$char_traits@D@std@@V?$allocator@D@2@@std@@@2@V?$allocator@U?$pair@$$CBV?$basic_string@DU?$char_traits@D@std@@V?$allocator@D@2@@std@@PAVWSignalInstance_@@@std@@@2@@std@@@Z 0042f994 f   dependtree:WTable.obj
 0001:0002e994       __ehhandler$?buildSlotMap@WTableRow@@MAEXAAV?$map@V?$basic_string@DU?$char_traits@D@std@@V?$allocator@D@2@@std@@PAVWSlotInstance_@@U?$less@V?$basic_string@DU?$char_traits@D@std@@V?$allocator@D@2@@std@@@2@V?$allocator@U?$pair@$$CBV?$basic_string@DU?$char_traits@D@std@@V?$allocator@D@2@@std@@PAVWSlotInstance_@@@std@@@2@@std@@@Z 0042f994 f   dependtree:WTable.obj
 0001:0002e994       __ehhandler$?buildSignalMap@WTable@@MAEXAAV?$map@V?$basic_string@DU?$char_traits@D@std@@V?$allocator@D@2@@std@@PAVWSignalInstance_@@U?$less@V?$basic_string@DU?$char_traits@D@std@@V?$allocator@D@2@@std@@@2@V?$allocator@U?$pair@$$CBV?$basic_string@DU?$char_traits@D@std@@V?$allocator@D@2@@std@@PAVWSignalInstance_@@@std@@@2@@std@@@Z 0042f994 f   dependtree:WTable.obj
 0001:0002e9a0       $L64476                    0042f9a0 f   dependtree:WTable.obj
 0001:0002e9ab       __ehhandler$?expand@WTableRow@@AAEXH@Z 0042f9ab f   dependtree:WTable.obj
 0001:0002e9c0       $L65386                    0042f9c0 f   dependtree:WTable.obj
 0001:0002e9c8       $L65387                    0042f9c8 f   dependtree:WTable.obj
 0001:0002e9d7       $L65388                    0042f9d7 f   dependtree:WTable.obj
 0001:0002e9e5       __ehhandler$??0WTableRow@@QAE@PAVWTable@@H@Z 0042f9e5 f   dependtree:WTable.obj
 0001:0002e9f0       $L65488                    0042f9f0 f   dependtree:WTable.obj
 0001:0002e9fb       __ehhandler$?expand@WTable@@AAEXHHHH@Z 0042f9fb f   dependtree:WTable.obj
 0001:0002ea10       $L65956                    0042fa10 f   dependtree:WTable.obj
 0001:0002ea1b       __ehhandler$?insertRow@WTable@@QAEXH@Z 0042fa1b f   dependtree:WTable.obj
 0001:0002ea30       $L66181                    0042fa30 f   dependtree:WTable.obj
 0001:0002ea39       $L66182                    0042fa39 f   dependtree:WTable.obj
 0001:0002ea44       __ehhandler$?insertRow@WTable@@QAEXHV?$basic_string@DU?$char_traits@D@std@@V?$allocator@D@2@@std@@@Z 0042fa44 f   dependtree:WTable.obj
 0001:0002ea50       $L26181                    0042fa50 f   dependtree:WText.obj
 0001:0002ea58       $L26182                    0042fa58 f   dependtree:WText.obj
 0001:0002ea66       $L26183                    0042fa66 f   dependtree:WText.obj
 0001:0002ea75       __ehhandler$??0WText@@QAE@PAVWContainerWidget@@@Z 0042fa75 f   dependtree:WText.obj
 0001:0002ea80       $L26192                    0042fa80 f   dependtree:WText.obj
 0001:0002ea89       $L26193                    0042fa89 f   dependtree:WText.obj
 0001:0002ea91       $L26194                    0042fa91 f   dependtree:WText.obj
 0001:0002ea9f       $L26195                    0042fa9f f   dependtree:WText.obj
 0001:0002eaae       __ehhandler$??0WText@@QAE@V?$basic_string@DU?$char_traits@D@std@@V?$allocator@D@2@@std@@PAVWContainerWidget@@@Z 0042faae f   dependtree:WText.obj
 0001:0002eac0       $L26205                    0042fac0 f   dependtree:WText.obj
 0001:0002eac8       $L26206                    0042fac8 f   dependtree:WText.obj
 0001:0002ead6       $L26207                    0042fad6 f   dependtree:WText.obj
 0001:0002eae5       $L26208                    0042fae5 f   dependtree:WText.obj
 0001:0002eaee       __ehhandler$??0WText@@QAE@ABVWMessage@@PAVWContainerWidget@@@Z 0042faee f   dependtree:WText.obj
 0001:0002eb00       $L26232                    0042fb00 f   dependtree:WText.obj
 0001:0002eb09       $L26233                    0042fb09 f   dependtree:WText.obj
 0001:0002eb11       __ehhandler$?setText@WText@@QAEXV?$basic_string@DU?$char_traits@D@std@@V?$allocator@D@2@@std@@@Z 0042fb11 f   dependtree:WText.obj
 0001:0002eb20       $L26259                    0042fb20 f   dependtree:WText.obj
 0001:0002eb29       __ehhandler$?replace@@YAXAAV?$basic_string@DU?$char_traits@D@std@@V?$allocator@D@2@@std@@DV12@@Z 0042fb29 f   dependtree:WText.obj
 0001:0002eb40       $L26308                    0042fb40 f   dependtree:WText.obj
 0001:0002eb49       $L26309                    0042fb49 f   dependtree:WText.obj
 0001:0002eb63       $L26312                    0042fb63 f   dependtree:WText.obj
 0001:0002eb6c       __ehhandler$?formattedText@WText@@QBE?AV?$basic_string@DU?$char_traits@D@std@@V?$allocator@D@2@@std@@XZ 0042fb6c f   dependtree:WText.obj
 0001:0002eb80       $L26339                    0042fb80 f   dependtree:WText.obj
 0001:0002eb9a       $L26342                    0042fb9a f   dependtree:WText.obj
 0001:0002eba2       __ehhandler$?refresh@WText@@UAEXXZ 0042fba2 f   dependtree:WText.obj
 0001:0002ebb0       $L38362                    0042fbb0 f   dependtree:WText.obj
 0001:0002ebb0       $L38335                    0042fbb0 f   dependtree:WText.obj
 0001:0002ebbb       $L38363                    0042fbbb f   dependtree:WText.obj
 0001:0002ebbb       $L38336                    0042fbbb f   dependtree:WText.obj
 0001:0002ebc4       __ehhandler$?buildSignalMap@WText@@MAEXAAV?$map@V?$basic_string@DU?$char_traits@D@std@@V?$allocator@D@2@@std@@PAVWSignalInstance_@@U?$less@V?$basic_string@DU?$char_traits@D@std@@V?$allocator@D@2@@std@@@2@V?$allocator@U?$pair@$$CBV?$basic_string@DU?$char_traits@D@std@@V?$allocator@D@2@@std@@PAVWSignalInstance_@@@std@@@2@@std@@@Z 0042fbc4 f   dependtree:WText.obj
 0001:0002ebc4       __ehhandler$?buildSlotMap@WText@@MAEXAAV?$map@V?$basic_string@DU?$char_traits@D@std@@V?$allocator@D@2@@std@@PAVWSlotInstance_@@U?$less@V?$basic_string@DU?$char_traits@D@std@@V?$allocator@D@2@@std@@@2@V?$allocator@U?$pair@$$CBV?$basic_string@DU?$char_traits@D@std@@V?$allocator@D@2@@std@@PAVWSlotInstance_@@@std@@@2@@std@@@Z 0042fbc4 f   dependtree:WText.obj
 0001:0002ebd0       $L26091                    0042fbd0 f   dependtree:WImage.obj
 0001:0002ebd8       $L26092                    0042fbd8 f   dependtree:WImage.obj
 0001:0002ebe7       __ehhandler$??0WImage@@QAE@PAVWContainerWidget@@@Z 0042fbe7 f   dependtree:WImage.obj
 0001:0002ec00       $L26102                    0042fc00 f   dependtree:WImage.obj
 0001:0002ec09       $L26103                    0042fc09 f   dependtree:WImage.obj
 0001:0002ec11       $L26104                    0042fc11 f   dependtree:WImage.obj
 0001:0002ec20       __ehhandler$??0WImage@@QAE@V?$basic_string@DU?$char_traits@D@std@@V?$allocator@D@2@@std@@PAVWContainerWidget@@@Z 0042fc20 f   dependtree:WImage.obj
 0001:0002ec30       $L26114                    0042fc30 f   dependtree:WImage.obj
 0001:0002ec39       $L26115                    0042fc39 f   dependtree:WImage.obj
 0001:0002ec42       $L26116                    0042fc42 f   dependtree:WImage.obj
 0001:0002ec4a       $L26117                    0042fc4a f   dependtree:WImage.obj
 0001:0002ec59       __ehhandler$??0WImage@@QAE@V?$basic_string@DU?$char_traits@D@std@@V?$allocator@D@2@@std@@0PAVWContainerWidget@@@Z 0042fc59 f   dependtree:WImage.obj
 0001:0002ec70       $L26128                    0042fc70 f   dependtree:WImage.obj
 0001:0002ec79       $L26129                    0042fc79 f   dependtree:WImage.obj
 0001:0002ec81       $L26130                    0042fc81 f   dependtree:WImage.obj
 0001:0002ec90       $L26131                    0042fc90 f   dependtree:WImage.obj
 0001:0002ec9f       $L26132                    0042fc9f f   dependtree:WImage.obj
 0001:0002eca8       __ehhandler$??0WImage@@QAE@PAVWResource@@V?$basic_string@DU?$char_traits@D@std@@V?$allocator@D@2@@std@@PAVWContainerWidget@@@Z 0042fca8 f   dependtree:WImage.obj
 0001:0002ecc0       $L26150                    0042fcc0 f   dependtree:WImage.obj
 0001:0002ecc0       $L26141                    0042fcc0 f   dependtree:WImage.obj
 0001:0002ecc9       __ehhandler$?setImageRef@WImage@@QAEXV?$basic_string@DU?$char_traits@D@std@@V?$allocator@D@2@@std@@@Z 0042fcc9 f   dependtree:WImage.obj
 0001:0002ecc9       __ehhandler$?setAlternateText@WImage@@QAEXV?$basic_string@DU?$char_traits@D@std@@V?$allocator@D@2@@std@@@Z 0042fcc9 f   dependtree:WImage.obj
 0001:0002ece0       $L38121                    0042fce0 f   dependtree:WImage.obj
 0001:0002ece0       $L38148                    0042fce0 f   dependtree:WImage.obj
 0001:0002eceb       $L38149                    0042fceb f   dependtree:WImage.obj
 0001:0002eceb       $L38122                    0042fceb f   dependtree:WImage.obj
 0001:0002ecf4       __ehhandler$?buildSignalMap@WImage@@MAEXAAV?$map@V?$basic_string@DU?$char_traits@D@std@@V?$allocator@D@2@@std@@PAVWSignalInstance_@@U?$less@V?$basic_string@DU?$char_traits@D@std@@V?$allocator@D@2@@std@@@2@V?$allocator@U?$pair@$$CBV?$basic_string@DU?$char_traits@D@std@@V?$allocator@D@2@@std@@PAVWSignalInstance_@@@std@@@2@@std@@@Z 0042fcf4 f   dependtree:WImage.obj
 0001:0002ecf4       __ehhandler$?buildSlotMap@WImage@@MAEXAAV?$map@V?$basic_string@DU?$char_traits@D@std@@V?$allocator@D@2@@std@@PAVWSlotInstance_@@U?$less@V?$basic_string@DU?$char_traits@D@std@@V?$allocator@D@2@@std@@@2@V?$allocator@U?$pair@$$CBV?$basic_string@DU?$char_traits@D@std@@V?$allocator@D@2@@std@@PAVWSlotInstance_@@@std@@@2@@std@@@Z 0042fcf4 f   dependtree:WImage.obj
 0001:0002ed00       $L40740                    0042fd00 f   dependtree:WImage.obj
 0001:0002ed08       $L40741                    0042fd08 f   dependtree:WImage.obj
 0001:0002ed12       __ehhandler$_$E4           0042fd12 f   dependtree:WImage.obj
 0001:0002ed20       $L25893                    0042fd20 f   dependtree:WFormWidget.obj
 0001:0002ed28       __ehhandler$??1WFormWidget@@UAE@XZ 0042fd28 f   dependtree:WFormWidget.obj
 0001:0002ed40       $L37391                    0042fd40 f   dependtree:WFormWidget.obj
 0001:0002ed40       $L37418                    0042fd40 f   dependtree:WFormWidget.obj
 0001:0002ed4b       $L37419                    0042fd4b f   dependtree:WFormWidget.obj
 0001:0002ed4b       $L37392                    0042fd4b f   dependtree:WFormWidget.obj
 0001:0002ed54       __ehhandler$?buildSlotMap@WFormWidget@@MAEXAAV?$map@V?$basic_string@DU?$char_traits@D@std@@V?$allocator@D@2@@std@@PAVWSlotInstance_@@U?$less@V?$basic_string@DU?$char_traits@D@std@@V?$allocator@D@2@@std@@@2@V?$allocator@U?$pair@$$CBV?$basic_string@DU?$char_traits@D@std@@V?$allocator@D@2@@std@@PAVWSlotInstance_@@@std@@@2@@std@@@Z 0042fd54 f   dependtree:WFormWidget.obj
 0001:0002ed54       __ehhandler$?buildSignalMap@WFormWidget@@MAEXAAV?$map@V?$basic_string@DU?$char_traits@D@std@@V?$allocator@D@2@@std@@PAVWSignalInstance_@@U?$less@V?$basic_string@DU?$char_traits@D@std@@V?$allocator@D@2@@std@@@2@V?$allocator@U?$pair@$$CBV?$basic_string@DU?$char_traits@D@std@@V?$allocator@D@2@@std@@PAVWSignalInstance_@@@std@@@2@@std@@@Z 0042fd54 f   dependtree:WFormWidget.obj
 0001:0002ed60       $L40014                    0042fd60 f   dependtree:WFormWidget.obj
 0001:0002ed68       $L40015                    0042fd68 f   dependtree:WFormWidget.obj
 0001:0002ed72       $L40017                    0042fd72 f   dependtree:WFormWidget.obj
 0001:0002ed7a       $L40018                    0042fd7a f   dependtree:WFormWidget.obj
 0001:0002ed84       $L40020                    0042fd84 f   dependtree:WFormWidget.obj
 0001:0002ed8c       $L40021                    0042fd8c f   dependtree:WFormWidget.obj
 0001:0002ed96       __ehhandler$_$E4           0042fd96 f   dependtree:WFormWidget.obj
 0001:0002eda0       $L40065                    0042fda0 f   dependtree:WFormWidget.obj
 0001:0002eda8       $L40066                    0042fda8 f   dependtree:WFormWidget.obj
 0001:0002edb2       $L40068                    0042fdb2 f   dependtree:WFormWidget.obj
 0001:0002edba       $L40069                    0042fdba f   dependtree:WFormWidget.obj
 0001:0002edc4       $L40071                    0042fdc4 f   dependtree:WFormWidget.obj
 0001:0002edcc       $L40072                    0042fdcc f   dependtree:WFormWidget.obj
 0001:0002edd6       __ehhandler$_$E7           0042fdd6 f   dependtree:WFormWidget.obj
 0001:0002ede0       $L26158                    0042fde0 f   dependtree:WPushButton.obj
 0001:0002ede8       $L26159                    0042fde8 f   dependtree:WPushButton.obj
 0001:0002edf7       __ehhandler$??0WPushButton@@QAE@PAVWContainerWidget@@@Z 0042fdf7 f   dependtree:WPushButton.obj
 0001:0002ee10       $L26169                    0042fe10 f   dependtree:WPushButton.obj
 0001:0002ee19       $L26170                    0042fe19 f   dependtree:WPushButton.obj
 0001:0002ee21       $L26171                    0042fe21 f   dependtree:WPushButton.obj
 0001:0002ee30       __ehhandler$??0WPushButton@@QAE@V?$basic_string@DU?$char_traits@D@std@@V?$allocator@D@2@@std@@PAVWContainerWidget@@@Z 0042fe30 f   dependtree:WPushButton.obj
 0001:0002ee40       $L26182                    0042fe40 f   dependtree:WPushButton.obj
 0001:0002ee48       $L26183                    0042fe48 f   dependtree:WPushButton.obj
 0001:0002ee57       $L26184                    0042fe57 f   dependtree:WPushButton.obj
 0001:0002ee65       $L26185                    0042fe65 f   dependtree:WPushButton.obj
 0001:0002ee6e       __ehhandler$??0WPushButton@@QAE@ABVWMessage@@PAVWContainerWidget@@@Z 0042fe6e f   dependtree:WPushButton.obj
 0001:0002ee80       $L26200                    0042fe80 f   dependtree:WPushButton.obj
 0001:0002ee89       $L26201                    0042fe89 f   dependtree:WPushButton.obj
 0001:0002ee91       __ehhandler$?setText@WPushButton@@QAEXV?$basic_string@DU?$char_traits@D@std@@V?$allocator@D@2@@std@@@Z 0042fe91 f   dependtree:WPushButton.obj
 0001:0002eea0       $L26233                    0042fea0 f   dependtree:WPushButton.obj
 0001:0002eea9       __ehhandler$?createDomElement@WPushButton@@MAEPAVDomElement@@XZ 0042fea9 f   dependtree:WPushButton.obj
 0001:0002eec0       $L26249                    0042fec0 f   dependtree:WPushButton.obj
 0001:0002eeda       $L26252                    0042feda f   dependtree:WPushButton.obj
 0001:0002eee2       __ehhandler$?refresh@WPushButton@@UAEXXZ 0042fee2 f   dependtree:WPushButton.obj
 0001:0002eef0       $L38246                    0042fef0 f   dependtree:WPushButton.obj
 0001:0002eef0       $L38273                    0042fef0 f   dependtree:WPushButton.obj
 0001:0002eefb       $L38274                    0042fefb f   dependtree:WPushButton.obj
 0001:0002eefb       $L38247                    0042fefb f   dependtree:WPushButton.obj
 0001:0002ef04       __ehhandler$?buildSignalMap@WPushButton@@MAEXAAV?$map@V?$basic_string@DU?$char_traits@D@std@@V?$allocator@D@2@@std@@PAVWSignalInstance_@@U?$less@V?$basic_string@DU?$char_traits@D@std@@V?$allocator@D@2@@std@@@2@V?$allocator@U?$pair@$$CBV?$basic_string@DU?$char_traits@D@std@@V?$allocator@D@2@@std@@PAVWSignalInstance_@@@std@@@2@@std@@@Z 0042ff04 f   dependtree:WPushButton.obj
 0001:0002ef04       __ehhandler$?buildSlotMap@WPushButton@@MAEXAAV?$map@V?$basic_string@DU?$char_traits@D@std@@V?$allocator@D@2@@std@@PAVWSlotInstance_@@U?$less@V?$basic_string@DU?$char_traits@D@std@@V?$allocator@D@2@@std@@@2@V?$allocator@U?$pair@$$CBV?$basic_string@DU?$char_traits@D@std@@V?$allocator@D@2@@std@@PAVWSlotInstance_@@@std@@@2@@std@@@Z 0042ff04 f   dependtree:WPushButton.obj
 0001:0002ef10       $L26573                    0042ff10 f   dependtree:WScrollArea.obj
 0001:0002ef18       $L26574                    0042ff18 f   dependtree:WScrollArea.obj
 0001:0002ef23       $L26575                    0042ff23 f   dependtree:WScrollArea.obj
 0001:0002ef2e       __ehhandler$??0WScrollArea@@QAE@PAVWContainerWidget@@@Z 0042ff2e f   dependtree:WScrollArea.obj
 0001:0002ef40       $L26593                    0042ff40 f   dependtree:WScrollArea.obj
 0001:0002ef48       __ehhandler$??1WScrollArea@@UAE@XZ 0042ff48 f   dependtree:WScrollArea.obj
 0001:0002ef60       $L26860                    0042ff60 f   dependtree:WScrollArea.obj
 0001:0002ef69       $L26864                    0042ff69 f   dependtree:WScrollArea.obj
 0001:0002ef72       __ehhandler$?_Xlen@?$vector@PAVWScrollBar@@V?$allocator@PAVWScrollBar@@@std@@@std@@IBEXXZ 0042ff72 f   dependtree:WScrollArea.obj
 0001:0002ef80       $L38865                    0042ff80 f   dependtree:WScrollArea.obj
 0001:0002ef80       $L38892                    0042ff80 f   dependtree:WScrollArea.obj
 0001:0002ef8b       $L38893                    0042ff8b f   dependtree:WScrollArea.obj
 0001:0002ef8b       $L38866                    0042ff8b f   dependtree:WScrollArea.obj
 0001:0002ef94       __ehhandler$?buildSlotMap@WScrollArea@@MAEXAAV?$map@V?$basic_string@DU?$char_traits@D@std@@V?$allocator@D@2@@std@@PAVWSlotInstance_@@U?$less@V?$basic_string@DU?$char_traits@D@std@@V?$allocator@D@2@@std@@@2@V?$allocator@U?$pair@$$CBV?$basic_string@DU?$char_traits@D@std@@V?$allocator@D@2@@std@@PAVWSlotInstance_@@@std@@@2@@std@@@Z 0042ff94 f   dependtree:WScrollArea.obj
 0001:0002ef94       __ehhandler$?buildSignalMap@WScrollArea@@MAEXAAV?$map@V?$basic_string@DU?$char_traits@D@std@@V?$allocator@D@2@@std@@PAVWSignalInstance_@@U?$less@V?$basic_string@DU?$char_traits@D@std@@V?$allocator@D@2@@std@@@2@V?$allocator@U?$pair@$$CBV?$basic_string@DU?$char_traits@D@std@@V?$allocator@D@2@@std@@PAVWSignalInstance_@@@std@@@2@@std@@@Z 0042ff94 f   dependtree:WScrollArea.obj
 0001:0002efa0       $L81590                    0042ffa0 f   dependtree:WApplication.obj
 0001:0002efa0       $L81608                    0042ffa0 f   dependtree:WApplication.obj
 0001:0002efa0       $L81567                    0042ffa0 f   dependtree:WApplication.obj
 0001:0002efa9       __ehhandler$?setOAPLDownloadPath@WApplication@@QAEXV?$basic_string@DU?$char_traits@D@std@@V?$allocator@D@2@@std@@@Z 0042ffa9 f   dependtree:WApplication.obj
 0001:0002efa9       __ehhandler$?setTitle@WApplication@@QAEXV?$basic_string@DU?$char_traits@D@std@@V?$allocator@D@2@@std@@@Z 0042ffa9 f   dependtree:WApplication.obj
 0001:0002efa9       __ehhandler$?setBodyAttribute@WApplication@@QAEXV?$basic_string@DU?$char_traits@D@std@@V?$allocator@D@2@@std@@@Z 0042ffa9 f   dependtree:WApplication.obj
 0001:0002efc0       $L81617                    0042ffc0 f   dependtree:WApplication.obj
 0001:0002efc9       __ehhandler$?setRefreshTime@WApplication@@QAEXHV?$basic_string@DU?$char_traits@D@std@@V?$allocator@D@2@@std@@@Z 0042ffc9 f   dependtree:WApplication.obj
 0001:0002efe0       $L89113                    0042ffe0 f   dependtree:WApplication.obj
 0001:0002efe0       $L88624                    0042ffe0 f   dependtree:WApplication.obj
 0001:0002efe9       $L88644                    0042ffe9 f   dependtree:WApplication.obj
 0001:0002efe9       $L89133                    0042ffe9 f   dependtree:WApplication.obj
 0001:0002eff2       __ehhandler$?_Insert@?$_Tree@V?$_Tset_traits@PBVWSignalInstance_@@U?$less@PBVWSignalInstance_@@@std@@V?$allocator@PBVWSignalInstance_@@@3@$0A@@std@@@std@@IAE?AViterator@12@_NPAU_Node@?$_Tree_nod@V?$_Tset_traits@PBVWSignalInstance_@@U?$less@PBVWSignalInstance_@@@std@@V?$allocator@PBVWSignalInstance_@@@3@$0A@@std@@@2@ABQBVWSignalInstance_@@@Z 0042fff2 f   dependtree:WApplication.obj
 0001:0002eff2       __ehhandler$?_Insert@?$_Tree@V?$_Tset_traits@PBVWResource@@U?$less@PBVWResource@@@std@@V?$allocator@PBVWResource@@@3@$0A@@std@@@std@@IAE?AViterator@12@_NPAU_Node@?$_Tree_nod@V?$_Tset_traits@PBVWResource@@U?$less@PBVWResource@@@std@@V?$allocator@PBVWResource@@@3@$0A@@std@@@2@ABQBVWResource@@@Z 0042fff2 f   dependtree:WApplication.obj
 0001:0002f000       $L96652                    00430000 f   dependtree:WApplication.obj
 0001:0002f008       $L96653                    00430008 f   dependtree:WApplication.obj
 0001:0002f014       $L96654                    00430014 f   dependtree:WApplication.obj
 0001:0002f020       $L96655                    00430020 f   dependtree:WApplication.obj
 0001:0002f02c       $L96656                    0043002c f   dependtree:WApplication.obj
 0001:0002f037       $L96657                    00430037 f   dependtree:WApplication.obj
 0001:0002f045       $L96658                    00430045 f   dependtree:WApplication.obj
 0001:0002f054       $L96659                    00430054 f   dependtree:WApplication.obj
 0001:0002f063       $L96660                    00430063 f   dependtree:WApplication.obj
 0001:0002f072       $L96661                    00430072 f   dependtree:WApplication.obj
 0001:0002f080       $L96662                    00430080 f   dependtree:WApplication.obj
 0001:0002f08e       __ehhandler$??1WApplication@@UAE@XZ 0043008e f   dependtree:WApplication.obj
 0001:0002f0a0       $L98060                    004300a0 f   dependtree:WApplication.obj
 0001:0002f0a0       $L98087                    004300a0 f   dependtree:WApplication.obj
 0001:0002f0ab       $L98061                    004300ab f   dependtree:WApplication.obj
 0001:0002f0ab       $L98088                    004300ab f   dependtree:WApplication.obj
 0001:0002f0b4       __ehhandler$?buildSignalMap@WApplication@@MAEXAAV?$map@V?$basic_string@DU?$char_traits@D@std@@V?$allocator@D@2@@std@@PAVWSignalInstance_@@U?$less@V?$basic_string@DU?$char_traits@D@std@@V?$allocator@D@2@@std@@@2@V?$allocator@U?$pair@$$CBV?$basic_string@DU?$char_traits@D@std@@V?$allocator@D@2@@std@@PAVWSignalInstance_@@@std@@@2@@std@@@Z 004300b4 f   dependtree:WApplication.obj
 0001:0002f0b4       __ehhandler$?buildSlotMap@WApplication@@MAEXAAV?$map@V?$basic_string@DU?$char_traits@D@std@@V?$allocator@D@2@@std@@PAVWSlotInstance_@@U?$less@V?$basic_string@DU?$char_traits@D@std@@V?$allocator@D@2@@std@@@2@V?$allocator@U?$pair@$$CBV?$basic_string@DU?$char_traits@D@std@@V?$allocator@D@2@@std@@PAVWSlotInstance_@@@std@@@2@@std@@@Z 004300b4 f   dependtree:WApplication.obj
 0001:0002f0c0       $L98113                    004300c0 f   dependtree:WApplication.obj
 0001:0002f0c8       $L98114                    004300c8 f   dependtree:WApplication.obj
 0001:0002f0d4       $L98115                    004300d4 f   dependtree:WApplication.obj
 0001:0002f0e0       $L98116                    004300e0 f   dependtree:WApplication.obj
 0001:0002f0ec       $L98117                    004300ec f   dependtree:WApplication.obj
 0001:0002f0f7       $L98118                    004300f7 f   dependtree:WApplication.obj
 0001:0002f105       $L98119                    00430105 f   dependtree:WApplication.obj
 0001:0002f114       $L98120                    00430114 f   dependtree:WApplication.obj
 0001:0002f123       $L98121                    00430123 f   dependtree:WApplication.obj
 0001:0002f132       $L98122                    00430132 f   dependtree:WApplication.obj
 0001:0002f140       $L98123                    00430140 f   dependtree:WApplication.obj
 0001:0002f14e       $L98124                    0043014e f   dependtree:WApplication.obj
 0001:0002f159       __ehhandler$??0WApplication@@QAE@HQAPAD@Z 00430159 f   dependtree:WApplication.obj
 0001:0002f170       $L99115                    00430170 f   dependtree:WApplication.obj
 0001:0002f178       $L99116                    00430178 f   dependtree:WApplication.obj
 0001:0002f182       $L99118                    00430182 f   dependtree:WApplication.obj
 0001:0002f18a       $L99119                    0043018a f   dependtree:WApplication.obj
 0001:0002f194       __ehhandler$_$E7           00430194 f   dependtree:WApplication.obj
 0001:0002f1a0       $L100004                   004301a0 f   dependtree:WebSession.obj
 0001:0002f1ac       $L100005                   004301ac f   dependtree:WebSession.obj
 0001:0002f1b8       $L100006                   004301b8 f   dependtree:WebSession.obj
 0001:0002f1d8       __ehhandler$?GetWebUserID@@YA?AV?$basic_string@DU?$char_traits@D@std@@V?$allocator@D@2@@std@@XZ 004301d8 f   dependtree:WebSession.obj
 0001:0002f1f0       $L100044                   004301f0 f   dependtree:WebSession.obj
 0001:0002f1f9       __ehhandler$?setCurrentWidget@WebSession@@AAEXPAVWWidget@@@Z 004301f9 f   dependtree:WebSession.obj
 0001:0002f210       $L106346                   00430210 f   dependtree:WebSession.obj
 0001:0002f21c       $L106347                   0043021c f   dependtree:WebSession.obj
 0001:0002f228       $L106348                   00430228 f   dependtree:WebSession.obj
 0001:0002f234       $L106349                   00430234 f   dependtree:WebSession.obj
 0001:0002f240       __ehhandler$?handleRequestData@WebSession@@AAEPAVWResource@@XZ 00430240 f   dependtree:WebSession.obj
 0001:0002f250       $L106493                   00430250 f   dependtree:WebSession.obj
 0001:0002f259       $L106494                   00430259 f   dependtree:WebSession.obj
 0001:0002f262       $L106495                   00430262 f   dependtree:WebSession.obj
 0001:0002f26b       $L106496                   0043026b f   dependtree:WebSession.obj
 0001:0002f274       $L106497                   00430274 f   dependtree:WebSession.obj
 0001:0002f294       __ehhandler$?createFormsVar@WebSession@@AAE?AV?$basic_string@DU?$char_traits@D@std@@V?$allocator@D@2@@std@@ABV?$vector@PAVWObject@@V?$allocator@PAVWObject@@@std@@@3@@Z 00430294 f   dependtree:WebSession.obj
 0001:0002f2a0       $L107624                   004302a0 f   dependtree:WebSession.obj
 0001:0002f2a9       $L107625                   004302a9 f   dependtree:WebSession.obj
 0001:0002f2b2       $L107626                   004302b2 f   dependtree:WebSession.obj
 0001:0002f2bb       $L107627                   004302bb f   dependtree:WebSession.obj
 0001:0002f2ca       $L107628                   004302ca f   dependtree:WebSession.obj
 0001:0002f2d9       $L107629                   004302d9 f   dependtree:WebSession.obj
 0001:0002f2e8       $L107630                   004302e8 f   dependtree:WebSession.obj
 0001:0002f2f7       $L107631                   004302f7 f   dependtree:WebSession.obj
 0001:0002f309       $L107632                   00430309 f   dependtree:WebSession.obj
 0001:0002f31b       $L107633                   0043031b f   dependtree:WebSession.obj
 0001:0002f32d       $L107634                   0043032d f   dependtree:WebSession.obj
 0001:0002f33e       __ehhandler$??0WebSession@@QAE@V?$basic_string@DU?$char_traits@D@std@@V?$allocator@D@2@@std@@_N1V12@2@Z 0043033e f   dependtree:WebSession.obj
 0001:0002f350       $L110989                   00430350 f   dependtree:WebSession.obj
 0001:0002f35b       $L110990                   0043035b f   dependtree:WebSession.obj
 0001:0002f366       $L110991                   00430366 f   dependtree:WebSession.obj
 0001:0002f36f       $L110992                   0043036f f   dependtree:WebSession.obj
 0001:0002f378       $L110993                   00430378 f   dependtree:WebSession.obj
 0001:0002f381       $L110994                   00430381 f   dependtree:WebSession.obj
 0001:0002f38f       $L110995                   0043038f f   dependtree:WebSession.obj
 0001:0002f39d       $L110996                   0043039d f   dependtree:WebSession.obj
 0001:0002f3ab       $L110997                   004303ab f   dependtree:WebSession.obj
 0001:0002f3b7       $L110998                   004303b7 f   dependtree:WebSession.obj
 0001:0002f3c3       $L110999                   004303c3 f   dependtree:WebSession.obj
 0001:0002f3d1       $L111000                   004303d1 f   dependtree:WebSession.obj
 0001:0002f3dd       $L111001                   004303dd f   dependtree:WebSession.obj
 0001:0002f3e9       $L111002                   004303e9 f   dependtree:WebSession.obj
 0001:0002f3f5       $L111003                   004303f5 f   dependtree:WebSession.obj
 0001:0002f401       $L111004                   00430401 f   dependtree:WebSession.obj
 0001:0002f40d       $L111005                   0043040d f   dependtree:WebSession.obj
 0001:0002f419       $L111006                   00430419 f   dependtree:WebSession.obj
 0001:0002f425       $L111007                   00430425 f   dependtree:WebSession.obj
 0001:0002f431       $L111008                   00430431 f   dependtree:WebSession.obj
 0001:0002f43d       $L111009                   0043043d f   dependtree:WebSession.obj
 0001:0002f449       $L111010                   00430449 f   dependtree:WebSession.obj
 0001:0002f455       $L111011                   00430455 f   dependtree:WebSession.obj
 0001:0002f461       $L111012                   00430461 f   dependtree:WebSession.obj
 0001:0002f46d       $L111013                   0043046d f   dependtree:WebSession.obj
 0001:0002f479       $L111014                   00430479 f   dependtree:WebSession.obj
 0001:0002f485       $L111015                   00430485 f   dependtree:WebSession.obj
 0001:0002f491       $L111016                   00430491 f   dependtree:WebSession.obj
 0001:0002f49d       $L111019                   0043049d f   dependtree:WebSession.obj
 0001:0002f4a9       $L111020                   004304a9 f   dependtree:WebSession.obj
 0001:0002f4b5       $L111022                   004304b5 f   dependtree:WebSession.obj
 0001:0002f4c1       $L111024                   004304c1 f   dependtree:WebSession.obj
 0001:0002f4cd       $L111027                   004304cd f   dependtree:WebSession.obj
 0001:0002f4d9       $L111028                   004304d9 f   dependtree:WebSession.obj
 0001:0002f4e5       $L111029                   004304e5 f   dependtree:WebSession.obj
 0001:0002f4f1       $L111030                   004304f1 f   dependtree:WebSession.obj
 0001:0002f4fd       __ehhandler$?serveMainpage@WebSession@@AAEXPAVWWidget@@@Z 004304fd f   dependtree:WebSession.obj
 0001:0002f510       $L111511                   00430510 f   dependtree:WebSession.obj
 0001:0002f518       $L111516                   00430518 f   dependtree:WebSession.obj
 0001:0002f523       $L111518                   00430523 f   dependtree:WebSession.obj
 0001:0002f52e       $L111519                   0043052e f   dependtree:WebSession.obj
 0001:0002f537       $L111520                   00430537 f   dependtree:WebSession.obj
 0001:0002f543       $L111524                   00430543 f   dependtree:WebSession.obj
 0001:0002f54c       $L111525                   0043054c f   dependtree:WebSession.obj
 0001:0002f558       $L111526                   00430558 f   dependtree:WebSession.obj
 0001:0002f564       $L111527                   00430564 f   dependtree:WebSession.obj
 0001:0002f570       $L111929                   00430570 f   dependtree:WebSession.obj
 0001:0002f579       __ehhandler$?serveJavascriptUpdate@WebSession@@AAEXPAVWWidget@@@Z 00430579 f   dependtree:WebSession.obj
 0001:0002f590       $L111956                   00430590 f   dependtree:WebSession.obj
 0001:0002f59e       $L111957                   0043059e f   dependtree:WebSession.obj
 0001:0002f5a9       $L111959                   004305a9 f   dependtree:WebSession.obj
 0001:0002f5b2       __ehhandler$?generateResponse@WebSession@@AAEXPAVWResource@@@Z 004305b2 f   dependtree:WebSession.obj
 0001:0002f5c0       $L113893                   004305c0 f   dependtree:WebSession.obj
 0001:0002f5c9       $L113894                   004305c9 f   dependtree:WebSession.obj
 0001:0002f5d2       $L113895                   004305d2 f   dependtree:WebSession.obj
 0001:0002f5db       __ehhandler$?start@WebSession@@QAEXP6AXHPAPAD@ZH0@Z 004305db f   dependtree:WebSession.obj
 0001:0002f5f0       $L24925                    004305f0 f   dependtree:WObject.obj
 0001:0002f5f0       $L25367                    004305f0 f   dependtree:WObject.obj
 0001:0002f5f9       $L24935                    004305f9 f   dependtree:WObject.obj
 0001:0002f5f9       $L25377                    004305f9 f   dependtree:WObject.obj
 0001:0002f602       __ehhandler$?erase@?$_Tree@V?$_Tmap_traits@V?$basic_string@DU?$char_traits@D@std@@V?$allocator@D@2@@std@@PAVWSlotInstance_@@U?$less@V?$basic_string@DU?$char_traits@D@std@@V?$allocator@D@2@@std@@@2@V?$allocator@U?$pair@$$CBV?$basic_string@DU?$char_traits@D@std@@V?$allocator@D@2@@std@@PAVWSlotInstance_@@@std@@@2@$0A@@std@@@std@@QAE?AViterator@12@V312@@Z 00430602 f   dependtree:WObject.obj
 0001:0002f602       __ehhandler$?erase@?$_Tree@V?$_Tmap_traits@V?$basic_string@DU?$char_traits@D@std@@V?$allocator@D@2@@std@@PAVWSignalInstance_@@U?$less@V?$basic_string@DU?$char_traits@D@std@@V?$allocator@D@2@@std@@@2@V?$allocator@U?$pair@$$CBV?$basic_string@DU?$char_traits@D@std@@V?$allocator@D@2@@std@@PAVWSignalInstance_@@@std@@@2@$0A@@std@@@std@@QAE?AViterator@12@V312@@Z 00430602 f   dependtree:WObject.obj
 0001:0002f610       $L28100                    00430610 f   dependtree:WObject.obj
 0001:0002f610       $L28073                    00430610 f   dependtree:WObject.obj
 0001:0002f61b       $L28101                    0043061b f   dependtree:WObject.obj
 0001:0002f61b       $L28074                    0043061b f   dependtree:WObject.obj
 0001:0002f624       __ehhandler$?buildSlotMap@WObject@@MAEXAAV?$map@V?$basic_string@DU?$char_traits@D@std@@V?$allocator@D@2@@std@@PAVWSlotInstance_@@U?$less@V?$basic_string@DU?$char_traits@D@std@@V?$allocator@D@2@@std@@@2@V?$allocator@U?$pair@$$CBV?$basic_string@DU?$char_traits@D@std@@V?$allocator@D@2@@std@@PAVWSlotInstance_@@@std@@@2@@std@@@Z 00430624 f   dependtree:WObject.obj
 0001:0002f624       __ehhandler$?buildSignalMap@WObject@@MAEXAAV?$map@V?$basic_string@DU?$char_traits@D@std@@V?$allocator@D@2@@std@@PAVWSignalInstance_@@U?$less@V?$basic_string@DU?$char_traits@D@std@@V?$allocator@D@2@@std@@@2@V?$allocator@U?$pair@$$CBV?$basic_string@DU?$char_traits@D@std@@V?$allocator@D@2@@std@@PAVWSignalInstance_@@@std@@@2@@std@@@Z 00430624 f   dependtree:WObject.obj
 0001:0002f630       $L28122                    00430630 f   dependtree:WObject.obj
 0001:0002f639       __ehhandler$?InsertMap@WObject@@SAXAAV?$map@V?$basic_string@DU?$char_traits@D@std@@V?$allocator@D@2@@std@@PAVWSlotInstance_@@U?$less@V?$basic_string@DU?$char_traits@D@std@@V?$allocator@D@2@@std@@@2@V?$allocator@U?$pair@$$CBV?$basic_string@DU?$char_traits@D@std@@V?$allocator@D@2@@std@@PAVWSlotInstance_@@@std@@@2@@std@@V?$basic_string@DU?$char_traits@D@std@@V?$allocator@D@2@@3@PAVWSlotInstance_@@@Z 00430639 f   dependtree:WObject.obj
 0001:0002f650       $L29316                    00430650 f   dependtree:WObject.obj
 0001:0002f650       $L29043                    00430650 f   dependtree:WObject.obj
 0001:0002f659       $L29317                    00430659 f   dependtree:WObject.obj
 0001:0002f659       $L29044                    00430659 f   dependtree:WObject.obj
 0001:0002f664       $L29045                    00430664 f   dependtree:WObject.obj
 0001:0002f664       $L29318                    00430664 f   dependtree:WObject.obj
 0001:0002f66d       __ehhandler$?getSlot@WObject@@IBEPAVWSlotInstance_@@V?$basic_string@DU?$char_traits@D@std@@V?$allocator@D@2@@std@@@Z 0043066d f   dependtree:WObject.obj
 0001:0002f66d       __ehhandler$?getSignal@WObject@@IBEPAVWSignalInstance_@@V?$basic_string@DU?$char_traits@D@std@@V?$allocator@D@2@@std@@@Z 0043066d f   dependtree:WObject.obj
 0001:0002f680       $L29582                    00430680 f   dependtree:WObject.obj
 0001:0002f689       __ehhandler$?staticSlotChanged@WObject@@QAEXV?$basic_string@DU?$char_traits@D@std@@V?$allocator@D@2@@std@@@Z 00430689 f   dependtree:WObject.obj
 0001:0002f6a0       $L22599                    004306a0 f   dependtree:WObject.obj
 0001:0002f6a0       $L29612                    004306a0 f   dependtree:WObject.obj
 0001:0002f6a0       $L22609                    004306a0 f   dependtree:WObject.obj
 0001:0002f6a9       __ehhandler$?triggerSlot@WObject@@MAE_NPAV1@PBVWSlot_@@PAPAX@Z 004306a9 f   dependtree:WObject.obj
 0001:0002f6a9       __ehhandler$?triggerSignal@WObject@@IAEXPBVWSignal_@@PAPAX@Z 004306a9 f   dependtree:WObject.obj
 0001:0002f6a9       __ehhandler$?undoTriggerSlot@WObject@@MAE_NPBVWSlot_@@PAPAX@Z 004306a9 f   dependtree:WObject.obj
 0001:0002f6c0       $L29940                    004306c0 f   dependtree:WObject.obj
 0001:0002f6c8       $L29941                    004306c8 f   dependtree:WObject.obj
 0001:0002f6d2       __ehhandler$_$E4           004306d2 f   dependtree:WObject.obj
 0001:0002f6e0       $L105058                   004306e0 f   dependtree:CheckBoxTreeView.obj
 0001:0002f6e0       $L105068                   004306e0 f   dependtree:CheckBoxTreeView.obj
 0001:0002f6e0       $L105376                   004306e0 f   dependtree:CheckBoxTreeView.obj
 0001:0002f6e9       __ehhandler$??0base_param@CCheckBoxTreeView@@QAE@ABU01@@Z 004306e9 f   dependtree:CheckBoxTreeView.obj
 0001:0002f6e9       __ehhandler$??0base_param@CCheckBoxTreeView@@QAE@XZ 004306e9 f   dependtree:CheckBoxTreeView.obj
 0001:0002f6e9       __ehhandler$??1base_param@CCheckBoxTreeView@@QAE@XZ 004306e9 f   dependtree:CheckBoxTreeView.obj
 0001:0002f700       $L111158                   00430700 f   dependtree:CheckBoxTreeView.obj
 0001:0002f711       __ehhandler$?_Buynode@?$_Tree@V?$_Tmap_traits@V?$basic_string@DU?$char_traits@D@std@@V?$allocator@D@2@@std@@PAVWCheckBox@@U?$less@V?$basic_string@DU?$char_traits@D@std@@V?$allocator@D@2@@std@@@2@V?$allocator@U?$pair@$$CBV?$basic_string@DU?$char_traits@D@std@@V?$allocator@D@2@@std@@PAVWCheckBox@@@std@@@2@$0A@@std@@@std@@IAEPAU_Node@?$_Tree_nod@V?$_Tmap_traits@V?$basic_string@DU?$char_traits@D@std@@V?$allocator@D@2@@std@@PAVWCheckBox@@U?$less@V?$basic_string@DU?$char_traits@D@std@@V?$allocator@D@2@@std@@@2@V?$allocator@U?$pair@$$CBV?$basic_string@DU?$char_traits@D@std@@V?$allocator@D@2@@std@@PAVWCheckBox@@@std@@@2@$0A@@std@@@2@PAU342@00ABU?$pair@$$CBV?$basic_string@DU?$char_traits@D@std@@V?$allocator@D@2@@std@@PAVWCheckBox@@@2@D@Z 00430711 f   dependtree:CheckBoxTreeView.obj
 0001:0002f720       $L111336                   00430720 f   dependtree:CheckBoxTreeView.obj
 0001:0002f731       __ehhandler$?_Buynode@?$_Tree@V?$_Tmap_traits@HUbase_param@CCheckBoxTreeView@@U?$less@H@std@@V?$allocator@U?$pair@$$CBHUbase_param@CCheckBoxTreeView@@@std@@@4@$0A@@std@@@std@@IAEPAU_Node@?$_Tree_nod@V?$_Tmap_traits@HUbase_param@CCheckBoxTreeView@@U?$less@H@std@@V?$allocator@U?$pair@$$CBHUbase_param@CCheckBoxTreeView@@@std@@@4@$0A@@std@@@2@PAU342@00ABU?$pair@$$CBHUbase_param@CCheckBoxTreeView@@@2@D@Z 00430731 f   dependtree:CheckBoxTreeView.obj
 0001:0002f740       $L111706                   00430740 f   dependtree:CheckBoxTreeView.obj
 0001:0002f751       __ehhandler$??$_Uninit_copy@PAV?$basic_string@DU?$char_traits@D@std@@V?$allocator@D@2@@std@@PAV12@V?$allocator@V?$basic_string@DU?$char_traits@D@std@@V?$allocator@D@2@@std@@@2@@std@@YAPAV?$basic_string@DU?$char_traits@D@std@@V?$allocator@D@2@@0@PAV10@00AAV?$allocator@V?$basic_string@DU?$char_traits@D@std@@V?$allocator@D@2@@std@@@0@U_Nonscalar_ptr_iterator_tag@0@@Z 00430751 f   dependtree:CheckBoxTreeView.obj
 0001:0002f760       $L113564                   00430760 f   dependtree:CheckBoxTreeView.obj
 0001:0002f771       __ehhandler$??$_Uninit_fill_n@PAV?$basic_string@DU?$char_traits@D@std@@V?$allocator@D@2@@std@@IV12@V?$allocator@V?$basic_string@DU?$char_traits@D@std@@V?$allocator@D@2@@std@@@2@@std@@YAXPAV?$basic_string@DU?$char_traits@D@std@@V?$allocator@D@2@@0@IABV10@AAV?$allocator@V?$basic_string@DU?$char_traits@D@std@@V?$allocator@D@2@@std@@@0@U_Nonscalar_ptr_iterator_tag@0@@Z 00430771 f   dependtree:CheckBoxTreeView.obj
 0001:0002f780       $L105564                   00430780 f   dependtree:CheckBoxTreeView.obj
 0001:0002f780       $L105541                   00430780 f   dependtree:CheckBoxTreeView.obj
 0001:0002f780       $L113108                   00430780 f   dependtree:CheckBoxTreeView.obj
 0001:0002f780       $L112588                   00430780 f   dependtree:CheckBoxTreeView.obj
 0001:0002f780       $L116738                   00430780 f   dependtree:CheckBoxTreeView.obj
 0001:0002f789       $L105545                   00430789 f   dependtree:CheckBoxTreeView.obj
 0001:0002f789       $L105568                   00430789 f   dependtree:CheckBoxTreeView.obj
 0001:0002f789       $L116748                   00430789 f   dependtree:CheckBoxTreeView.obj
 0001:0002f789       $L112608                   00430789 f   dependtree:CheckBoxTreeView.obj
 0001:0002f789       $L113128                   00430789 f   dependtree:CheckBoxTreeView.obj
 0001:0002f792       __ehhandler$?_Insert@?$_Tree@V?$_Tmap_traits@HUbase_param@CCheckBoxTreeView@@U?$less@H@std@@V?$allocator@U?$pair@$$CBHUbase_param@CCheckBoxTreeView@@@std@@@4@$0A@@std@@@std@@IAE?AViterator@12@_NPAU_Node@?$_Tree_nod@V?$_Tmap_traits@HUbase_param@CCheckBoxTreeView@@U?$less@H@std@@V?$allocator@U?$pair@$$CBHUbase_param@CCheckBoxTreeView@@@std@@@4@$0A@@std@@@2@ABU?$pair@$$CBHUbase_param@CCheckBoxTreeView@@@2@@Z 00430792 f   dependtree:CheckBoxTreeView.obj
 0001:0002f792       __ehhandler$?_Insert@?$_Tree@V?$_Tmap_traits@V?$basic_string@DU?$char_traits@D@std@@V?$allocator@D@2@@std@@PAVWCheckBox@@U?$less@V?$basic_string@DU?$char_traits@D@std@@V?$allocator@D@2@@std@@@2@V?$allocator@U?$pair@$$CBV?$basic_string@DU?$char_traits@D@std@@V?$allocator@D@2@@std@@PAVWCheckBox@@@std@@@2@$0A@@std@@@std@@IAE?AViterator@12@_NPAU_Node@?$_Tree_nod@V?$_Tmap_traits@V?$basic_string@DU?$char_traits@D@std@@V?$allocator@D@2@@std@@PAVWCheckBox@@U?$less@V?$basic_string@DU?$char_traits@D@std@@V?$allocator@D@2@@std@@@2@V?$allocator@U?$pair@$$CBV?$basic_string@DU?$char_traits@D@std@@V?$allocator@D@2@@std@@PAVWCheckBox@@@std@@@2@$0A@@std@@@2@ABU?$pair@$$CBV?$basic_string@DU?$char_traits@D@std@@V?$allocator@D@2@@std@@PAVWCheckBox@@@2@@Z 00430792 f   dependtree:CheckBoxTreeView.obj
 0001:0002f792       __ehhandler$?erase@?$_Tree@V?$_Tmap_traits@V?$basic_string@DU?$char_traits@D@std@@V?$allocator@D@2@@std@@PAVWCheckBox@@U?$less@V?$basic_string@DU?$char_traits@D@std@@V?$allocator@D@2@@std@@@2@V?$allocator@U?$pair@$$CBV?$basic_string@DU?$char_traits@D@std@@V?$allocator@D@2@@std@@PAVWCheckBox@@@std@@@2@$0A@@std@@@std@@QAE?AViterator@12@V312@@Z 00430792 f   dependtree:CheckBoxTreeView.obj
 0001:0002f792       __ehhandler$?_Xlen@?$vector@PAVWTreeNode@@V?$allocator@PAVWTreeNode@@@std@@@std@@IBEXXZ 00430792 f   dependtree:CheckBoxTreeView.obj
 0001:0002f792       __ehhandler$?_Xlen@?$vector@V?$basic_string@DU?$char_traits@D@std@@V?$allocator@D@2@@std@@V?$allocator@V?$basic_string@DU?$char_traits@D@std@@V?$allocator@D@2@@std@@@2@@std@@IBEXXZ 00430792 f   dependtree:CheckBoxTreeView.obj
 0001:0002f7a0       $L117177                   004307a0 f   dependtree:CheckBoxTreeView.obj
 0001:0002f7a9       $L117187                   004307a9 f   dependtree:CheckBoxTreeView.obj
 0001:0002f7b2       $L117560                   004307b2 f   dependtree:CheckBoxTreeView.obj
 0001:0002f7bb       __ehhandler$?erase@?$_Tree@V?$_Tmap_traits@HUbase_param@CCheckBoxTreeView@@U?$less@H@std@@V?$allocator@U?$pair@$$CBHUbase_param@CCheckBoxTreeView@@@std@@@4@$0A@@std@@@std@@QAE?AViterator@12@V312@@Z 004307bb f   dependtree:CheckBoxTreeView.obj
 0001:0002f7d0       $L121448                   004307d0 f   dependtree:CheckBoxTreeView.obj
 0001:0002f7d9       __ehhandler$?_Insert_n@?$vector@V?$basic_string@DU?$char_traits@D@std@@V?$allocator@D@2@@std@@V?$allocator@V?$basic_string@DU?$char_traits@D@std@@V?$allocator@D@2@@std@@@2@@std@@IAEXViterator@12@IABV?$basic_string@DU?$char_traits@D@std@@V?$allocator@D@2@@2@@Z 004307d9 f   dependtree:CheckBoxTreeView.obj
 0001:0002f7f0       $L121869                   004307f0 f   dependtree:CheckBoxTreeView.obj
 0001:0002f7f9       $L121870                   004307f9 f   dependtree:CheckBoxTreeView.obj
 0001:0002f802       $L121871                   00430802 f   dependtree:CheckBoxTreeView.obj
 0001:0002f80b       $L121872                   0043080b f   dependtree:CheckBoxTreeView.obj
 0001:0002f814       $L121873                   00430814 f   dependtree:CheckBoxTreeView.obj
 0001:0002f81f       $L121874                   0043081f f   dependtree:CheckBoxTreeView.obj
 0001:0002f828       $L121876                   00430828 f   dependtree:CheckBoxTreeView.obj
 0001:0002f833       $L121877                   00430833 f   dependtree:CheckBoxTreeView.obj
 0001:0002f83c       __ehhandler$?makeTreeMap@CCheckBoxTreeView@@AAEPAVWTreeNode@@V?$basic_string@DU?$char_traits@D@std@@V?$allocator@D@2@@std@@0HPAVWTable@@_N200@Z 0043083c f   dependtree:CheckBoxTreeView.obj
 0001:0002f850       $L122153                   00430850 f   dependtree:CheckBoxTreeView.obj
 0001:0002f859       $L122154                   00430859 f   dependtree:CheckBoxTreeView.obj
 0001:0002f862       $L122155                   00430862 f   dependtree:CheckBoxTreeView.obj
 0001:0002f86b       $L122156                   0043086b f   dependtree:CheckBoxTreeView.obj
 0001:0002f874       $L122157                   00430874 f   dependtree:CheckBoxTreeView.obj
 0001:0002f87f       $L122158                   0043087f f   dependtree:CheckBoxTreeView.obj
 0001:0002f888       $L122160                   00430888 f   dependtree:CheckBoxTreeView.obj
 0001:0002f893       $L122161                   00430893 f   dependtree:CheckBoxTreeView.obj
 0001:0002f89c       __ehhandler$?makeTreeFile@CCheckBoxTreeView@@AAEPAVWTreeNode@@V?$basic_string@DU?$char_traits@D@std@@V?$allocator@D@2@@std@@V34@HPAV2@_N300@Z 0043089c f   dependtree:CheckBoxTreeView.obj
 0001:0002f8b0       $L122390                   004308b0 f   dependtree:CheckBoxTreeView.obj
 0001:0002f8b8       __ehhandler$??A?$map@V?$basic_string@DU?$char_traits@D@std@@V?$allocator@D@2@@std@@PAVWCheckBox@@U?$less@V?$basic_string@DU?$char_traits@D@std@@V?$allocator@D@2@@std@@@2@V?$allocator@U?$pair@$$CBV?$basic_string@DU?$char_traits@D@std@@V?$allocator@D@2@@std@@PAVWCheckBox@@@std@@@2@@std@@QAEAAPAVWCheckBox@@ABV?$basic_string@DU?$char_traits@D@std@@V?$allocator@D@2@@1@@Z 004308b8 f   dependtree:CheckBoxTreeView.obj
 0001:0002f8d0       $L122626                   004308d0 f   dependtree:CheckBoxTreeView.obj
 0001:0002f8d9       $L122484                   004308d9 f   dependtree:CheckBoxTreeView.obj
 0001:0002f8e1       $L122485                   004308e1 f   dependtree:CheckBoxTreeView.obj
 0001:0002f8e9       __ehhandler$??A?$map@HUbase_param@CCheckBoxTreeView@@U?$less@H@std@@V?$allocator@U?$pair@$$CBHUbase_param@CCheckBoxTreeView@@@std@@@4@@std@@QAEAAUbase_param@CCheckBoxTreeView@@ABH@Z 004308e9 f   dependtree:CheckBoxTreeView.obj
 0001:0002f900       $L124062                   00430900 f   dependtree:CheckBoxTreeView.obj
 0001:0002f900       $L104921                   00430900 f   dependtree:CheckBoxTreeView.obj
 0001:0002f908       __ehhandler$??1WLineEdit@@UAE@XZ 00430908 f   dependtree:CheckBoxTreeView.obj
 0001:0002f908       __ehhandler$??1WComboBox@@UAE@XZ 00430908 f   dependtree:CheckBoxTreeView.obj
 0001:0002f920       $L124113                   00430920 f   dependtree:CheckBoxTreeView.obj
 0001:0002f920       $L124084                   00430920 f   dependtree:CheckBoxTreeView.obj
 0001:0002f929       $L124114                   00430929 f   dependtree:CheckBoxTreeView.obj
 0001:0002f929       $L124085                   00430929 f   dependtree:CheckBoxTreeView.obj
 0001:0002f932       $L124115                   00430932 f   dependtree:CheckBoxTreeView.obj
 0001:0002f932       $L124086                   00430932 f   dependtree:CheckBoxTreeView.obj
 0001:0002f93b       $L124117                   0043093b f   dependtree:CheckBoxTreeView.obj
 0001:0002f93b       $L124088                   0043093b f   dependtree:CheckBoxTreeView.obj
 0001:0002f944       $L124119                   00430944 f   dependtree:CheckBoxTreeView.obj
 0001:0002f944       $L124090                   00430944 f   dependtree:CheckBoxTreeView.obj
 0001:0002f94d       $L124120                   0043094d f   dependtree:CheckBoxTreeView.obj
 0001:0002f94d       $L124091                   0043094d f   dependtree:CheckBoxTreeView.obj
 0001:0002f956       $L124121                   00430956 f   dependtree:CheckBoxTreeView.obj
 0001:0002f956       $L124092                   00430956 f   dependtree:CheckBoxTreeView.obj
 0001:0002f95f       __ehhandler$?AddDeviceTreeNode@CCheckBoxTreeView@@AAEXV?$basic_string@DU?$char_traits@D@std@@V?$allocator@D@2@@std@@PAVWTreeNode@@@Z 0043095f f   dependtree:CheckBoxTreeView.obj
 0001:0002f95f       __ehhandler$?AddGroupTreeNode@CCheckBoxTreeView@@AAEPAVWTreeNode@@V?$basic_string@DU?$char_traits@D@std@@V?$allocator@D@2@@std@@PAV2@_N@Z 0043095f f   dependtree:CheckBoxTreeView.obj
 0001:0002f970       $L124253                   00430970 f   dependtree:CheckBoxTreeView.obj
 0001:0002f97b       $L124254                   0043097b f   dependtree:CheckBoxTreeView.obj
 0001:0002f986       $L124255                   00430986 f   dependtree:CheckBoxTreeView.obj
 0001:0002f991       $L124256                   00430991 f   dependtree:CheckBoxTreeView.obj
 0001:0002f99c       $L124257                   0043099c f   dependtree:CheckBoxTreeView.obj
 0001:0002f9a7       $L124258                   004309a7 f   dependtree:CheckBoxTreeView.obj
 0001:0002f9b2       $L124259                   004309b2 f   dependtree:CheckBoxTreeView.obj
 0001:0002f9ba       $L124260                   004309ba f   dependtree:CheckBoxTreeView.obj
 0001:0002f9c3       $L124261                   004309c3 f   dependtree:CheckBoxTreeView.obj
 0001:0002f9cc       $L124263                   004309cc f   dependtree:CheckBoxTreeView.obj
 0001:0002f9d7       $L124264                   004309d7 f   dependtree:CheckBoxTreeView.obj
 0001:0002f9e0       $L124265                   004309e0 f   dependtree:CheckBoxTreeView.obj
 0001:0002f9e9       $L124266                   004309e9 f   dependtree:CheckBoxTreeView.obj
 0001:0002f9f2       $L124267                   004309f2 f   dependtree:CheckBoxTreeView.obj
 0001:0002f9fb       $L124270                   004309fb f   dependtree:CheckBoxTreeView.obj
 0001:0002fa04       $L124271                   00430a04 f   dependtree:CheckBoxTreeView.obj
 0001:0002fa0f       $L124272                   00430a0f f   dependtree:CheckBoxTreeView.obj
 0001:0002fa18       $L124273                   00430a18 f   dependtree:CheckBoxTreeView.obj
 0001:0002fa21       $L124274                   00430a21 f   dependtree:CheckBoxTreeView.obj
 0001:0002fa2a       $L124275                   00430a2a f   dependtree:CheckBoxTreeView.obj
 0001:0002fa33       $L124278                   00430a33 f   dependtree:CheckBoxTreeView.obj
 0001:0002fa3c       $L124279                   00430a3c f   dependtree:CheckBoxTreeView.obj
 0001:0002fa45       $L124280                   00430a45 f   dependtree:CheckBoxTreeView.obj
 0001:0002fa4e       $L124282                   00430a4e f   dependtree:CheckBoxTreeView.obj
 0001:0002fa59       $L124283                   00430a59 f   dependtree:CheckBoxTreeView.obj
 0001:0002fa62       $L124284                   00430a62 f   dependtree:CheckBoxTreeView.obj
 0001:0002fa6b       $L124285                   00430a6b f   dependtree:CheckBoxTreeView.obj
 0001:0002fa74       $L124286                   00430a74 f   dependtree:CheckBoxTreeView.obj
 0001:0002fa7d       $L124289                   00430a7d f   dependtree:CheckBoxTreeView.obj
 0001:0002fa86       $L124290                   00430a86 f   dependtree:CheckBoxTreeView.obj
 0001:0002fa91       $L124291                   00430a91 f   dependtree:CheckBoxTreeView.obj
 0001:0002fa9a       $L124292                   00430a9a f   dependtree:CheckBoxTreeView.obj
 0001:0002faa3       $L124293                   00430aa3 f   dependtree:CheckBoxTreeView.obj
 0001:0002faac       $L124294                   00430aac f   dependtree:CheckBoxTreeView.obj
 0001:0002fab5       $L124297                   00430ab5 f   dependtree:CheckBoxTreeView.obj
 0001:0002fabe       $L124298                   00430abe f   dependtree:CheckBoxTreeView.obj
 0001:0002fac7       $L124299                   00430ac7 f   dependtree:CheckBoxTreeView.obj
 0001:0002fad0       $L124301                   00430ad0 f   dependtree:CheckBoxTreeView.obj
 0001:0002fadb       $L124302                   00430adb f   dependtree:CheckBoxTreeView.obj
 0001:0002fae4       $L124303                   00430ae4 f   dependtree:CheckBoxTreeView.obj
 0001:0002faed       $L124304                   00430aed f   dependtree:CheckBoxTreeView.obj
 0001:0002faf6       $L124305                   00430af6 f   dependtree:CheckBoxTreeView.obj
 0001:0002faff       $L124308                   00430aff f   dependtree:CheckBoxTreeView.obj
 0001:0002fb08       $L124309                   00430b08 f   dependtree:CheckBoxTreeView.obj
 0001:0002fb13       $L124310                   00430b13 f   dependtree:CheckBoxTreeView.obj
 0001:0002fb1c       $L124311                   00430b1c f   dependtree:CheckBoxTreeView.obj
 0001:0002fb25       $L124312                   00430b25 f   dependtree:CheckBoxTreeView.obj
 0001:0002fb2e       $L124313                   00430b2e f   dependtree:CheckBoxTreeView.obj
 0001:0002fb37       $L124316                   00430b37 f   dependtree:CheckBoxTreeView.obj
 0001:0002fb40       $L124317                   00430b40 f   dependtree:CheckBoxTreeView.obj
 0001:0002fb4b       $L124319                   00430b4b f   dependtree:CheckBoxTreeView.obj
 0001:0002fb56       $L124321                   00430b56 f   dependtree:CheckBoxTreeView.obj
 0001:0002fb61       __ehhandler$?InitRightCell@CCheckBoxTreeView@@AAEXXZ 00430b61 f   dependtree:CheckBoxTreeView.obj
 0001:0002fb70       $L126149                   00430b70 f   dependtree:CheckBoxTreeView.obj
 0001:0002fb79       $L126150                   00430b79 f   dependtree:CheckBoxTreeView.obj
 0001:0002fb82       $L126153                   00430b82 f   dependtree:CheckBoxTreeView.obj
 0001:0002fb8b       __ehhandler$?PushGroup@CCheckBoxTreeView@@AAEXV?$basic_string@DU?$char_traits@D@std@@V?$allocator@D@2@@std@@AAV?$vector@V?$basic_string@DU?$char_traits@D@std@@V?$allocator@D@2@@std@@V?$allocator@V?$basic_string@DU?$char_traits@D@std@@V?$allocator@D@2@@std@@@2@@3@@Z 00430b8b f   dependtree:CheckBoxTreeView.obj
 0001:0002fba0       $L126316                   00430ba0 f   dependtree:CheckBoxTreeView.obj
 0001:0002fba9       __ehhandler$?ParserToken@CCheckBoxTreeView@@AAE_NAAV?$vector@V?$basic_string@DU?$char_traits@D@std@@V?$allocator@D@2@@std@@V?$allocator@V?$basic_string@DU?$char_traits@D@std@@V?$allocator@D@2@@std@@@2@@std@@PBDPAD@Z 00430ba9 f   dependtree:CheckBoxTreeView.obj
 0001:0002fbc0       $L127541                   00430bc0 f   dependtree:CheckBoxTreeView.obj
 0001:0002fbc8       $L127542                   00430bc8 f   dependtree:CheckBoxTreeView.obj
 0001:0002fbd7       $L127543                   00430bd7 f   dependtree:CheckBoxTreeView.obj
 0001:0002fbe5       $L127544                   00430be5 f   dependtree:CheckBoxTreeView.obj
 0001:0002fbf3       $L127545                   00430bf3 f   dependtree:CheckBoxTreeView.obj
 0001:0002fc01       $L127546                   00430c01 f   dependtree:CheckBoxTreeView.obj
 0001:0002fc0f       $L127547                   00430c0f f   dependtree:CheckBoxTreeView.obj
 0001:0002fc1d       $L127548                   00430c1d f   dependtree:CheckBoxTreeView.obj
 0001:0002fc2b       $L127549                   00430c2b f   dependtree:CheckBoxTreeView.obj
 0001:0002fc39       $L127550                   00430c39 f   dependtree:CheckBoxTreeView.obj
 0001:0002fc48       $L127551                   00430c48 f   dependtree:CheckBoxTreeView.obj
 0001:0002fc57       $L127552                   00430c57 f   dependtree:CheckBoxTreeView.obj
 0001:0002fc62       $L127553                   00430c62 f   dependtree:CheckBoxTreeView.obj
 0001:0002fc6a       $L127555                   00430c6a f   dependtree:CheckBoxTreeView.obj
 0001:0002fc75       $L127556                   00430c75 f   dependtree:CheckBoxTreeView.obj
 0001:0002fc80       __ehhandler$??0CCheckBoxTreeView@@QAE@PAVWContainerWidget@@@Z 00430c80 f   dependtree:CheckBoxTreeView.obj
 0001:0002fc90       $L128666                   00430c90 f   dependtree:CheckBoxTreeView.obj
 0001:0002fc98       $L128667                   00430c98 f   dependtree:CheckBoxTreeView.obj
 0001:0002fca7       $L128668                   00430ca7 f   dependtree:CheckBoxTreeView.obj
 0001:0002fcb5       $L128669                   00430cb5 f   dependtree:CheckBoxTreeView.obj
 0001:0002fcc3       $L128670                   00430cc3 f   dependtree:CheckBoxTreeView.obj
 0001:0002fcd1       $L128671                   00430cd1 f   dependtree:CheckBoxTreeView.obj
 0001:0002fcdf       $L128672                   00430cdf f   dependtree:CheckBoxTreeView.obj
 0001:0002fced       $L128673                   00430ced f   dependtree:CheckBoxTreeView.obj
 0001:0002fcfb       $L128674                   00430cfb f   dependtree:CheckBoxTreeView.obj
 0001:0002fd09       $L128675                   00430d09 f   dependtree:CheckBoxTreeView.obj
 0001:0002fd18       __ehhandler$??1CCheckBoxTreeView@@UAE@XZ 00430d18 f   dependtree:CheckBoxTreeView.obj
 0001:0002fd30       $L129373                   00430d30 f   dependtree:CheckBoxTreeView.obj
 0001:0002fd3b       $L129374                   00430d3b f   dependtree:CheckBoxTreeView.obj
 0001:0002fd47       $L129375                   00430d47 f   dependtree:CheckBoxTreeView.obj
 0001:0002fd53       $L129377                   00430d53 f   dependtree:CheckBoxTreeView.obj
 0001:0002fd5e       $L129378                   00430d5e f   dependtree:CheckBoxTreeView.obj
 0001:0002fd66       $L129379                   00430d66 f   dependtree:CheckBoxTreeView.obj
 0001:0002fd6f       $L129380                   00430d6f f   dependtree:CheckBoxTreeView.obj
 0001:0002fd7b       $L129381                   00430d7b f   dependtree:CheckBoxTreeView.obj
 0001:0002fd87       $L129383                   00430d87 f   dependtree:CheckBoxTreeView.obj
 0001:0002fd90       $L129384                   00430d90 f   dependtree:CheckBoxTreeView.obj
 0001:0002fd9c       $L129387                   00430d9c f   dependtree:CheckBoxTreeView.obj
 0001:0002fda8       $L129388                   00430da8 f   dependtree:CheckBoxTreeView.obj
 0001:0002fdb4       $L129389                   00430db4 f   dependtree:CheckBoxTreeView.obj
 0001:0002fdc0       __ehhandler$?AddMontiorInDevice@CCheckBoxTreeView@@AAEXPAVWTreeNode@@_N@Z 00430dc0 f   dependtree:CheckBoxTreeView.obj
 0001:0002fdd0       $L130219                   00430dd0 f   dependtree:CheckBoxTreeView.obj
 0001:0002fdd9       $L130220                   00430dd9 f   dependtree:CheckBoxTreeView.obj
 0001:0002fde4       $L130221                   00430de4 f   dependtree:CheckBoxTreeView.obj
 0001:0002fdef       $L130222                   00430def f   dependtree:CheckBoxTreeView.obj
 0001:0002fdfb       $L130223                   00430dfb f   dependtree:CheckBoxTreeView.obj
 0001:0002fe07       $L130225                   00430e07 f   dependtree:CheckBoxTreeView.obj
 0001:0002fe12       $L130226                   00430e12 f   dependtree:CheckBoxTreeView.obj
 0001:0002fe1a       $L130227                   00430e1a f   dependtree:CheckBoxTreeView.obj
 0001:0002fe23       $L130228                   00430e23 f   dependtree:CheckBoxTreeView.obj
 0001:0002fe2f       $L130229                   00430e2f f   dependtree:CheckBoxTreeView.obj
 0001:0002fe3b       $L130231                   00430e3b f   dependtree:CheckBoxTreeView.obj
 0001:0002fe44       $L130232                   00430e44 f   dependtree:CheckBoxTreeView.obj
 0001:0002fe50       $L130831                   00430e50 f   dependtree:CheckBoxTreeView.obj
 0001:0002fe59       $L130236                   00430e59 f   dependtree:CheckBoxTreeView.obj
 0001:0002fe64       $L131213                   00430e64 f   dependtree:CheckBoxTreeView.obj
 0001:0002fe6d       $L130237                   00430e6d f   dependtree:CheckBoxTreeView.obj
 0001:0002fe75       $L130238                   00430e75 f   dependtree:CheckBoxTreeView.obj
 0001:0002fe7e       $L130239                   00430e7e f   dependtree:CheckBoxTreeView.obj
 0001:0002fe8a       $L130240                   00430e8a f   dependtree:CheckBoxTreeView.obj
 0001:0002fe96       $L130242                   00430e96 f   dependtree:CheckBoxTreeView.obj
 0001:0002fe9f       $L130243                   00430e9f f   dependtree:CheckBoxTreeView.obj
 0001:0002feab       $L131711                   00430eab f   dependtree:CheckBoxTreeView.obj
 0001:0002feb4       __ehhandler$?EnumGroup@CCheckBoxTreeView@@AAEXV?$basic_string@DU?$char_traits@D@std@@V?$allocator@D@2@@std@@PAVWTreeNode@@_N@Z 00430eb4 f   dependtree:CheckBoxTreeView.obj
 0001:0002fec0       $L132299                   00430ec0 f   dependtree:CheckBoxTreeView.obj
 0001:0002fec9       $L132300                   00430ec9 f   dependtree:CheckBoxTreeView.obj
 0001:0002fed2       $L132301                   00430ed2 f   dependtree:CheckBoxTreeView.obj
 0001:0002fedb       $L132305                   00430edb f   dependtree:CheckBoxTreeView.obj
 0001:0002fee7       $L132306                   00430ee7 f   dependtree:CheckBoxTreeView.obj
 0001:0002fef3       $L132307                   00430ef3 f   dependtree:CheckBoxTreeView.obj
 0001:0002feff       $L132309                   00430eff f   dependtree:CheckBoxTreeView.obj
 0001:0002ff0b       $L132310                   00430f0b f   dependtree:CheckBoxTreeView.obj
 0001:0002ff17       $L132311                   00430f17 f   dependtree:CheckBoxTreeView.obj
 0001:0002ff23       $L132312                   00430f23 f   dependtree:CheckBoxTreeView.obj
 0001:0002ff2f       $L132314                   00430f2f f   dependtree:CheckBoxTreeView.obj
 0001:0002ff3b       $L132316                   00430f3b f   dependtree:CheckBoxTreeView.obj
 0001:0002ff47       $L132317                   00430f47 f   dependtree:CheckBoxTreeView.obj
 0001:0002ff53       $L132319                   00430f53 f   dependtree:CheckBoxTreeView.obj
 0001:0002ff5e       $L132320                   00430f5e f   dependtree:CheckBoxTreeView.obj
 0001:0002ff6a       $L132321                   00430f6a f   dependtree:CheckBoxTreeView.obj
 0001:0002ff76       $L132322                   00430f76 f   dependtree:CheckBoxTreeView.obj
 0001:0002ff82       $L132324                   00430f82 f   dependtree:CheckBoxTreeView.obj
 0001:0002ff8e       $L132325                   00430f8e f   dependtree:CheckBoxTreeView.obj
 0001:0002ff9a       $L132326                   00430f9a f   dependtree:CheckBoxTreeView.obj
 0001:0002ffa6       $L132328                   00430fa6 f   dependtree:CheckBoxTreeView.obj
 0001:0002ffb1       $L132773                   00430fb1 f   dependtree:CheckBoxTreeView.obj
 0001:0002ffba       $L132329                   00430fba f   dependtree:CheckBoxTreeView.obj
 0001:0002ffc2       $L132330                   00430fc2 f   dependtree:CheckBoxTreeView.obj
 0001:0002ffce       $L132331                   00430fce f   dependtree:CheckBoxTreeView.obj
 0001:0002ffda       $L132332                   00430fda f   dependtree:CheckBoxTreeView.obj
 0001:0002ffe6       $L132334                   00430fe6 f   dependtree:CheckBoxTreeView.obj
 0001:0002ffef       $L132335                   00430fef f   dependtree:CheckBoxTreeView.obj
 0001:0002fff8       $L133408                   00430ff8 f   dependtree:CheckBoxTreeView.obj
 0001:00030001       $L132339                   00431001 f   dependtree:CheckBoxTreeView.obj
 0001:0003000c       $L133790                   0043100c f   dependtree:CheckBoxTreeView.obj
 0001:00030015       $L132340                   00431015 f   dependtree:CheckBoxTreeView.obj
 0001:0003001d       $L132341                   0043101d f   dependtree:CheckBoxTreeView.obj
 0001:00030026       $L132342                   00431026 f   dependtree:CheckBoxTreeView.obj
 0001:00030032       $L132343                   00431032 f   dependtree:CheckBoxTreeView.obj
 0001:0003003e       $L132345                   0043103e f   dependtree:CheckBoxTreeView.obj
 0001:00030047       $L132346                   00431047 f   dependtree:CheckBoxTreeView.obj
 0001:00030053       $L134326                   00431053 f   dependtree:CheckBoxTreeView.obj
 0001:0003005c       $L132349                   0043105c f   dependtree:CheckBoxTreeView.obj
 0001:00030068       $L132350                   00431068 f   dependtree:CheckBoxTreeView.obj
 0001:00030074       $L132351                   00431074 f   dependtree:CheckBoxTreeView.obj
 0001:00030080       __ehhandler$?InitTree@CCheckBoxTreeView@@QAE_NV?$basic_string@DU?$char_traits@D@std@@V?$allocator@D@2@@std@@_N1100@Z 00431080 f   dependtree:CheckBoxTreeView.obj
 0001:00030090       $L92081                    00431090 f   dependtree:WWidget.obj
 0001:0003009b       $L92082                    0043109b f   dependtree:WWidget.obj
 0001:000300a3       $L92532                    004310a3 f   dependtree:WWidget.obj
 0001:000300ac       __ehhandler$?updateStaticSlotCode@WWidget@@IAEXPAVWWebWidget@@AAVJavaScript@@@Z 004310ac f   dependtree:WWidget.obj
 0001:000300c0       $L101030                   004310c0 f   dependtree:WWidget.obj
 0001:000300c0       $L101003                   004310c0 f   dependtree:WWidget.obj
 0001:000300cb       $L101031                   004310cb f   dependtree:WWidget.obj
 0001:000300cb       $L101004                   004310cb f   dependtree:WWidget.obj
 0001:000300d4       __ehhandler$?buildSlotMap@WWidget@@MAEXAAV?$map@V?$basic_string@DU?$char_traits@D@std@@V?$allocator@D@2@@std@@PAVWSlotInstance_@@U?$less@V?$basic_string@DU?$char_traits@D@std@@V?$allocator@D@2@@std@@@2@V?$allocator@U?$pair@$$CBV?$basic_string@DU?$char_traits@D@std@@V?$allocator@D@2@@std@@PAVWSlotInstance_@@@std@@@2@@std@@@Z 004310d4 f   dependtree:WWidget.obj
 0001:000300d4       __ehhandler$?buildSignalMap@WWidget@@MAEXAAV?$map@V?$basic_string@DU?$char_traits@D@std@@V?$allocator@D@2@@std@@PAVWSignalInstance_@@U?$less@V?$basic_string@DU?$char_traits@D@std@@V?$allocator@D@2@@std@@@2@V?$allocator@U?$pair@$$CBV?$basic_string@DU?$char_traits@D@std@@V?$allocator@D@2@@std@@PAVWSignalInstance_@@@std@@@2@@std@@@Z 004310d4 f   dependtree:WWidget.obj
 0001:000300e0       $L104179                   004310e0 f   dependtree:WWidget.obj
 0001:000300e8       $L104180                   004310e8 f   dependtree:WWidget.obj
 0001:000300f2       $L104182                   004310f2 f   dependtree:WWidget.obj
 0001:000300fa       $L104183                   004310fa f   dependtree:WWidget.obj
 0001:00030104       __ehhandler$_$E3           00431104 f   dependtree:WWidget.obj
 0001:00030110       $L74538                    00431110 f   dependtree:WSlotInstance_.obj
 0001:00030119       __ehhandler$?setStaticCode@WSlotInstance_@@QAEXV?$basic_string@DU?$char_traits@D@std@@V?$allocator@D@2@@std@@@Z 00431119 f   dependtree:WSlotInstance_.obj
 0001:00030130       $L74937                    00431130 f   dependtree:WSlotInstance_.obj
 0001:0003013b       __ehhandler$??0WSlotInstance_@@QAE@PAVWObject@@PAVWSlot_@@@Z 0043113b f   dependtree:WSlotInstance_.obj
 0001:00030150       $L75036                    00431150 f   dependtree:WSlotInstance_.obj
 0001:0003015b       $L75037                    0043115b f   dependtree:WSlotInstance_.obj
 0001:00030167       __ehhandler$??1WSlotInstance_@@QAE@XZ 00431167 f   dependtree:WSlotInstance_.obj
 0001:00030180       $L77185                    00431180 f   dependtree:WSignalInstance_.obj
 0001:00030189       __ehhandler$?decodeSignal@WSignalInstance_@@SAPAV1@V?$basic_string@DU?$char_traits@D@std@@V?$allocator@D@2@@std@@@Z 00431189 f   dependtree:WSignalInstance_.obj
 0001:000301a0       $L80712                    004311a0 f   dependtree:WSignalInstance_.obj
 0001:000301ab       __ehhandler$?connect@WSignalInstance_@@AAE_NPAVWSlotInstance_@@W4ConnectionType@WObject@@@Z 004311ab f   dependtree:WSignalInstance_.obj
 0001:000301c0       __ehhandler$?trigger@WSignalInstance_@@ABEXW4ConnectionType@WObject@@PAPAX@Z 004311c0 f   dependtree:WSignalInstance_.obj
 0001:000301d0       $L80896                    004311d0 f   dependtree:WSignalInstance_.obj
 0001:000301d9       __ehhandler$?getStaticCode@WSignalInstance_@@ABEXAAV?$basic_string@DU?$char_traits@D@std@@V?$allocator@D@2@@std@@@Z 004311d9 f   dependtree:WSignalInstance_.obj
 0001:000301f0       $L81600                    004311f0 f   dependtree:WSignalInstance_.obj
 0001:000301fb       __ehhandler$??0WSignalInstance_@@QAE@PAVWObject@@PAVWSignal_@@@Z 004311fb f   dependtree:WSignalInstance_.obj
 0001:00030210       $L81699                    00431210 f   dependtree:WSignalInstance_.obj
 0001:0003021b       $L81700                    0043121b f   dependtree:WSignalInstance_.obj
 0001:00030227       __ehhandler$??1WSignalInstance_@@QAE@XZ 00431227 f   dependtree:WSignalInstance_.obj
 0001:00030240       $L15272                    00431240 f   dependtree:WSlot_.obj
 0001:00030249       __ehhandler$??0WSlot_@@QAE@V?$basic_string@DU?$char_traits@D@std@@V?$allocator@D@2@@std@@_N@Z 00431249 f   dependtree:WSlot_.obj
 0001:00030260       $L16019                    00431260 f   dependtree:WSignal_.obj
 0001:00030269       __ehhandler$??0WSignal_@@QAE@V?$basic_string@DU?$char_traits@D@std@@V?$allocator@D@2@@std@@_N@Z 00431269 f   dependtree:WSignal_.obj
 0001:00030280       $L30495                    00431280 f   dependtree:WLength.obj
 0001:00030289       __ehhandler$??5?$lexical_stream@V?$basic_string@DU?$char_traits@D@std@@V?$allocator@D@2@@std@@N@detail@boost@@QAE_NAAV?$basic_string@DU?$char_traits@D@std@@V?$allocator@D@2@@std@@@Z 00431289 f   dependtree:WLength.obj
 0001:000302a0       $L31825                    004312a0 f   dependtree:WLength.obj
 0001:000302ab       $L31826                    004312ab f   dependtree:WLength.obj
 0001:000302b4       $L31828                    004312b4 f   dependtree:WLength.obj
 0001:000302d4       $L31827                    004312d4 f   dependtree:WLength.obj
 0001:000302df       __ehhandler$??$lexical_cast@V?$basic_string@DU?$char_traits@D@std@@V?$allocator@D@2@@std@@N@boost@@YA?AV?$basic_string@DU?$char_traits@D@std@@V?$allocator@D@2@@std@@ABN@Z 004312df f   dependtree:WLength.obj
 0001:000302f0       $L31902                    004312f0 f   dependtree:WLength.obj
 0001:0003030a       $L31905                    0043130a f   dependtree:WLength.obj
 0001:00030313       __ehhandler$?cssText@WLength@@QBE?BV?$basic_string@DU?$char_traits@D@std@@V?$allocator@D@2@@std@@XZ 00431313 f   dependtree:WLength.obj
