 refresh

 Timestamp is 45b72e7c (Wed Jan 24 18:01:32 2007)

 Preferred load address is 00400000

 Start         Length     Name                   Class
 0001:00000000 00024268H .text                   CODE
 0001:00024270 000042e2H .text$x                 CODE
 0001:00028560 00001afbH .text$yc                CODE
 0001:0002a060 000006daH .text$yd                CODE
 0002:00000000 00000248H .idata$5                DATA
 0002:00000248 000045e8H .rdata                  DATA
 0002:00004830 00000044H .rdata$r                DATA
 0002:00004880 000003d8H .rdata$sxdata           DATA
 0002:00004c58 00000004H .rtc$IAA                DATA
 0002:00004c5c 00000004H .rtc$IZZ                DATA
 0002:00004c60 00000004H .rtc$TAA                DATA
 0002:00004c64 00000004H .rtc$TZZ                DATA
 0002:00004c68 0000458cH .xdata$x                DATA
 0002:000091f4 00000064H .idata$2                DATA
 0002:00009258 00000014H .idata$3                DATA
 0002:0000926c 00000248H .idata$4                DATA
 0002:000094b4 00001608H .idata$6                DATA
 0002:0000aac0 0000c1baH .edata                  DATA
 0003:00000000 00000004H .CRT$XCA                DATA
 0003:00000004 00000004H .CRT$XCAA               DATA
 0003:00000008 000000e8H .CRT$XCU                DATA
 0003:000000f0 00000004H .CRT$XCZ                DATA
 0003:000000f4 00000004H .CRT$XIA                DATA
 0003:000000f8 00000004H .CRT$XIZ                DATA
 0003:00000100 000001f4H .data                   DATA
 0003:000002f8 00001958H .bss                    DATA

  Address         Publics by Value              Rva+Base     Lib:Object

 0000:00000000       __except_list              00000000     <absolute>
 0000:000000f6       ___safe_se_handler_count   000000f6     <absolute>
 0000:00009876       __fltused                  00009876     <absolute>
 0000:00009876       __ldused                   00009876     <absolute>
 0001:00000000       ?refresh@WSPopTable@@UAEXXZ 00401000 f i WSPopTable.obj
 0001:00000000       ??3@YAXPAX0@Z              00401000 f i refresh.obj
 0001:00000000       ?signalConnectionsChanged@WObject@@EAEXXZ 00401000 f i libwt:WObject.obj
 0001:00000000       ?BtnProc@WSPopTable@@AAEXXZ 00401000 f i WSPopTable.obj
 0001:00000010       ??1logic_error@std@@UAE@XZ 00401010 f i refresh.obj
 0001:00000070       ?what@logic_error@std@@UBEPBDXZ 00401070 f i refresh.obj
 0001:00000080       ??_Elogic_error@std@@UAEPAXI@Z 00401080 f i refresh.obj
 0001:00000080       ??_Glogic_error@std@@UAEPAXI@Z 00401080 f i refresh.obj
 0001:000000a0       ??_Elength_error@std@@UAEPAXI@Z 004010a0 f i refresh.obj
 0001:000000a0       ??_Glength_error@std@@UAEPAXI@Z 004010a0 f i refresh.obj
 0001:000000c0       ??1length_error@std@@UAE@XZ 004010c0 f i refresh.obj
 0001:000000d0       ??_Eout_of_range@std@@UAEPAXI@Z 004010d0 f i refresh.obj
 0001:000000d0       ??_Gout_of_range@std@@UAEPAXI@Z 004010d0 f i refresh.obj
 0001:000000f0       ??1out_of_range@std@@UAE@XZ 004010f0 f i refresh.obj
 0001:00000100       ?haveJavaScript@WebSession@@QBE_NXZ 00401100 f i refresh.obj
 0001:00000110       ?havaAjax@WebSession@@QBE_NXZ 00401110 f i refresh.obj
 0001:00000120       ?genericFamily@WFont@@QBE?AW4GenericFamily@1@XZ 00401120 f i refresh.obj
 0001:00000120       ?cursor@WCssDecorationStyle@@QBE?AW4Cursor@1@XZ 00401120 f i refresh.obj
 0001:00000120       ?sender@WObject@@ABEPAV1@XZ 00401120 f i refresh.obj
 0001:00000120       ?object@WSignalInstance_@@QBEPAVWObject@@XZ 00401120 f i refreshformwt.obj
 0001:00000120       ?slot@WConnection_@@QBEPAVWSlotInstance_@@XZ 00401120 f i libwt:WebSession.obj
 0001:00000120       ?red@WColor@@QBEHXZ        00401120 f i refresh.obj
 0001:00000120       ?unit@WLength@@QBE?AW4Unit@1@XZ 00401120 f i refresh.obj
 0001:00000130       ?value@WLength@@QBENXZ     00401130 f i refresh.obj
 0001:00000140       ??4WLength@@QAEAAV0@ABV0@@Z 00401140 f i refresh.obj
 0001:00000170       ?isAuto@WLength@@QBE_NXZ   00401170 f i refresh.obj
 0001:00000170       ?isDefault@WColor@@QBE_NXZ 00401170 f i refresh.obj
 0001:00000180       ?type@WConnection_@@QBE?AW4ConnectionType@WObject@@XZ 00401180 f i libwt:WebSession.obj
 0001:00000180       ?green@WColor@@QBEHXZ      00401180 f i refresh.obj
 0001:00000190       ?blue@WColor@@QBEHXZ       00401190 f i refresh.obj
 0001:000001a0       ?name@WColor@@QBE?AV?$basic_string@DU?$char_traits@D@std@@V?$allocator@D@2@@std@@XZ 004011a0 f i refresh.obj
 0001:000001d0       ??1WColor@@QAE@XZ          004011d0 f i refresh.obj
 0001:000001d0       ??1_Node@?$_Tree_nod@V?$_Tmap_traits@W4Property@Wt@@V?$basic_string@DU?$char_traits@D@std@@V?$allocator@D@2@@std@@U?$less@W4Property@Wt@@@4@V?$allocator@U?$pair@$$CBW4Property@Wt@@V?$basic_string@DU?$char_traits@D@std@@V?$allocator@D@2@@std@@@std@@@4@$0A@@std@@@std@@QAE@XZ 004011d0 f i libwt:WWebWidget.obj
 0001:000001e0       ??0WColor@@QAE@ABV0@@Z     004011e0 f i refresh.obj
 0001:00000210       ??4WColor@@QAEAAV0@ABV0@@Z 00401210 f i refresh.obj
 0001:00000240       ?width@WBorder@@QBE?AW4Width@1@XZ 00401240 f i refresh.obj
 0001:00000240       ?signal@WConnection_@@QBEPAVWSignalInstance_@@XZ 00401240 f i libwt:WebSession.obj
 0001:00000250       ?explicitWidth@WBorder@@QBE?AVWLength@@XZ 00401250 f i refresh.obj
 0001:00000280       ?color@WBorder@@QBE?AVWColor@@XZ 00401280 f i refresh.obj
 0001:000002c0       ?style@WBorder@@QBE?AW4Style@1@XZ 004012c0 f i refresh.obj
 0001:000002d0       ??1WBorder@@QAE@XZ         004012d0 f i refresh.obj
 0001:000002e0       ??0WBorder@@QAE@ABV0@@Z    004012e0 f i refresh.obj
 0001:00000340       ??4WBorder@@QAEAAV0@ABV0@@Z 00401340 f i refresh.obj
 0001:000003a0       ?specificFamilies@WFont@@QBE?BV?$basic_string@DU?$char_traits@D@std@@V?$allocator@D@2@@std@@XZ 004013a0 f i refresh.obj
 0001:000003d0       ?style@WFont@@QBE?AW4Style@1@XZ 004013d0 f i refresh.obj
 0001:000003e0       ?variant@WFont@@QBE?AW4Variant@1@XZ 004013e0 f i refresh.obj
 0001:000003f0       ?weight@WFont@@QBE?AW4Weight@1@XZ 004013f0 f i refresh.obj
 0001:00000400       ?weightValue@WFont@@QBEHXZ 00401400 f i refresh.obj
 0001:00000410       ?size@WFont@@QBE?AW4Size@1@XZ 00401410 f i refresh.obj
 0001:00000410       ?getRefreshTime@WApplication@@QAEHXZ 00401410 f i refresh.obj
 0001:00000420       ?fixedSize@WFont@@QBE?AVWLength@@XZ 00401420 f i refresh.obj
 0001:00000450       ??1WFont@@QAE@XZ           00401450 f i refresh.obj
 0001:00000460       ??0WFont@@QAE@ABV0@@Z      00401460 f i refresh.obj
 0001:000004e0       ??4WFont@@QAEAAV0@ABV0@@Z  004014e0 f i refresh.obj
 0001:00000560       ?backgroundColor@WCssDecorationStyle@@QBE?AVWColor@@XZ 00401560 f i refresh.obj
 0001:000005a0       ?backgroundImage@WCssDecorationStyle@@QBE?BV?$basic_string@DU?$char_traits@D@std@@V?$allocator@D@2@@std@@XZ 004015a0 f i refresh.obj
 0001:000005d0       ?backgroundImageRepeat@WCssDecorationStyle@@QBE?AW4Repeat@1@XZ 004015d0 f i refresh.obj
 0001:000005e0       ?foregroundColor@WCssDecorationStyle@@QBE?AVWColor@@XZ 004015e0 f i refresh.obj
 0001:00000630       ?border@WCssDecorationStyle@@QBE?AVWBorder@@XZ 00401630 f i refresh.obj
 0001:00000650       ??1WCssDecorationStyle@@QAE@XZ 00401650 f i refresh.obj
 0001:000006e0       ??0WCssDecorationStyle@@QAE@ABV0@@Z 004016e0 f i refresh.obj
 0001:00000820       ??4WCssDecorationStyle@@QAEAAV0@ABV0@@Z 00401820 f i refresh.obj
 0001:00000920       ?selector@WCssRule@@QBE?BV?$basic_string@DU?$char_traits@D@std@@V?$allocator@D@2@@std@@XZ 00401920 f i refresh.obj
 0001:00000950       ??0WCssRule@@QAE@ABV0@@Z   00401950 f i refresh.obj
 0001:00000970       ??4WCssRule@@QAEAAV0@ABV0@@Z 00401970 f i refresh.obj
 0001:00000990       ??_EWCssRule@@UAEPAXI@Z    00401990 f i refresh.obj
 0001:000009f0       ?styleSheet@WApplication@@QAEAAVWCssStyleSheet@@XZ 004019f0 f i refresh.obj
 0001:00000a00       ?root@WApplication@@QBEPAVWContainerWidget@@XZ 00401a00 f i refresh.obj
 0001:00000a10       ?title@WApplication@@QBE?AV?$basic_string@DU?$char_traits@D@std@@V?$allocator@D@2@@std@@XZ 00401a10 f i refresh.obj
 0001:00000a40       ?loading@WApplication@@QBE_NXZ 00401a40 f i refresh.obj
 0001:00000a50       ?setLoading@WApplication@@QAEX_N@Z 00401a50 f i refresh.obj
 0001:00000a60       ?messageResourceBundle@WApplication@@QAEAAVWMessageResourceBundle@@XZ 00401a60 f i refresh.obj
 0001:00000a70       ?locale@WApplication@@QBE?AV?$basic_string@DU?$char_traits@D@std@@V?$allocator@D@2@@std@@XZ 00401a70 f i refresh.obj
 0001:00000aa0       ?getBodyAttribute@WApplication@@QAE?BV?$basic_string@DU?$char_traits@D@std@@V?$allocator@D@2@@std@@XZ 00401aa0 f i refresh.obj
 0001:00000ad0       ?setBeforBodyStr@WApplication@@QAEXV?$basic_string@DU?$char_traits@D@std@@V?$allocator@D@2@@std@@@Z 00401ad0 f i refresh.obj
 0001:00000b20       ?getBeforBodyStr@WApplication@@QAE?BV?$basic_string@DU?$char_traits@D@std@@V?$allocator@D@2@@std@@XZ 00401b20 f i refresh.obj
 0001:00000b50       ?getRefreshFunc@WApplication@@QAE?AV?$basic_string@DU?$char_traits@D@std@@V?$allocator@D@2@@std@@XZ 00401b50 f i refresh.obj
 0001:00000b80       ?isQuited@WApplication@@ABE_NXZ 00401b80 f i refresh.obj
 0001:00000b90       ?empty@WMessage@@QBE_NXZ   00401b90 f i refresh.obj
 0001:00000ba0       ??0WMessage@@QAE@ABV0@@Z   00401ba0 f i refresh.obj
 0001:00000ba0       ??0JSVar@@QAE@ABV0@@Z      00401ba0 f i libwt:JavaScript.obj
 0001:00000bc0       ??4WMessage@@QAEAAV0@ABV0@@Z 00401bc0 f i refresh.obj
 0001:00000be0       ??4WResource@@QAEAAV0@ABV0@@Z 00401be0 f i refresh.obj
 0001:00000be0       ??4WWidget@@QAEAAV0@ABV0@@Z 00401be0 f i refresh.obj
 0001:00000be0       ??4WObject@@QAEAAV0@ABV0@@Z 00401be0 f i refresh.obj
 0001:00000c10       ?positionScheme@WWebWidget@@UBE?AW4PositionScheme@WWidget@@XZ 00401c10 f i refresh.obj
 0001:00000c20       ?width@WWebWidget@@UBE?AVWLength@@XZ 00401c20 f i refresh.obj
 0001:00000c50       ?height@WWebWidget@@UBE?AVWLength@@XZ 00401c50 f i refresh.obj
 0001:00000c80       ?isHidden@WWebWidget@@UBE_NXZ 00401c80 f i refresh.obj
 0001:00000c90       ?isPopup@WWebWidget@@UBE_NXZ 00401c90 f i refresh.obj
 0001:00000ca0       ?isInline@WWebWidget@@UBE_NXZ 00401ca0 f i refresh.obj
 0001:00000cb0       ?decorationStyle@WWebWidget@@UAEAAVWCssDecorationStyle@@XZ 00401cb0 f i refresh.obj
 0001:00000cb0       ?font@WCssDecorationStyle@@QAEAAVWFont@@XZ 00401cb0 f i refresh.obj
 0001:00000cc0       ?styleClass@WWebWidget@@UBE?BV?$basic_string@DU?$char_traits@D@std@@V?$allocator@D@2@@std@@XZ 00401cc0 f i refresh.obj
 0001:00000cf0       ?verticalAlignment@WWebWidget@@UBE?AW4VerticalAlignment@WWidget@@XZ 00401cf0 f i refresh.obj
 0001:00000d00       ?verticalAlignmentLength@WWebWidget@@UBE?AVWLength@@XZ 00401d00 f i refresh.obj
 0001:00000d30       ?toolTip@WWebWidget@@UBE?AV?$basic_string@DU?$char_traits@D@std@@V?$allocator@D@2@@std@@XZ 00401d30 f i refresh.obj
 0001:00000d60       ?toolTipMessage@WWebWidget@@UBEABVWMessage@@XZ 00401d60 f i refresh.obj
 0001:00000d70       ?renderState@WWebWidget@@IBE?AW4RenderState@1@XZ 00401d70 f i refresh.obj
 0001:00000d80       ?webWidget@WWebWidget@@MAEPAV1@XZ 00401d80 f i refresh.obj
 0001:00000d90       ?children@WWebWidget@@MBEABV?$vector@PAVWWidget@@V?$allocator@PAVWWidget@@@std@@@std@@XZ 00401d90 f i refresh.obj
 0001:00000da0       ??_FWWebWidget@@QAEXXZ     00401da0 f i refresh.obj
 0001:00000db0       ?widget@WScrollArea@@QBEPAVWWidget@@XZ 00401db0 f i refresh.obj
 0001:00000db0       ?data@WInteractWidget@@QAEPAXXZ 00401db0 f i refresh.obj
 0001:00000dc0       ??1WInteractWidget@@UAE@XZ 00401dc0 f i refresh.obj
 0001:00000dd0       ??_FWInteractWidget@@QAEXXZ 00401dd0 f i refresh.obj
 0001:00000de0       ?label@WFormWidget@@QBEPAVWLabel@@XZ 00401de0 f i refresh.obj
 0001:00000de0       ?buddy@WLabel@@QBEPAVWFormWidget@@XZ 00401de0 f i libwt:WFormWidget.obj
 0001:00000de0       ?contentAlignment@WContainerWidget@@QBE?AW4HorizontalAlignment@WWidget@@XZ 00401de0 f i refresh.obj
 0001:00000df0       ??_FWContainerWidget@@QAEXXZ 00401df0 f i refresh.obj
 0001:00000e00       ?table@WTableRow@@QBEPAVWTable@@XZ 00401e00 f i refresh.obj
 0001:00000e10       ??_FWTable@@QAEXXZ         00401e10 f i refresh.obj
 0001:00000e20       ?rowSpan@WTableCell@@QBEHXZ 00401e20 f i refresh.obj
 0001:00000e30       ?columnSpan@WTableCell@@QBEHXZ 00401e30 f i refresh.obj
 0001:00000e40       ?column@WTableCell@@QBEHXZ 00401e40 f i refresh.obj
 0001:00000e50       ?message@WText@@QBEABVWMessage@@XZ 00401e50 f i refresh.obj
 0001:00000e60       ??1WText@@UAE@XZ           00401e60 f i refresh.obj
 0001:00000ed0       ??_FWText@@QAEXXZ          00401ed0 f i refresh.obj
 0001:00000ee0       ?alternateText@WImage@@QBE?BV?$basic_string@DU?$char_traits@D@std@@V?$allocator@D@2@@std@@XZ 00401ee0 f i refresh.obj
 0001:00000f10       ?resource@WImage@@QBEPAVWResource@@XZ 00401f10 f i refresh.obj
 0001:00000f10       ?formatting@WText@@QBE?AW4Formatting@1@XZ 00401f10 f i refresh.obj
 0001:00000f20       ??1WImage@@UAE@XZ          00401f20 f i refresh.obj
 0001:00000f90       ??_FWImage@@QAEXXZ         00401f90 f i refresh.obj
 0001:00000fa0       ?isEnabled@WFormWidget@@QBE_NXZ 00401fa0 f i refresh.obj
 0001:00000fb0       ??_FWFormWidget@@QAEXXZ    00401fb0 f i refresh.obj
 0001:00000fc0       ?text@WPushButton@@QBE?AV?$basic_string@DU?$char_traits@D@std@@V?$allocator@D@2@@std@@XZ 00401fc0 f i refresh.obj
 0001:00000ff0       ?message@WPushButton@@QBEABVWMessage@@XZ 00401ff0 f i refresh.obj
 0001:00001000       ??1WPushButton@@UAE@XZ     00402000 f i refresh.obj
 0001:00001070       ??_FWPushButton@@QAEXXZ    00402070 f i refresh.obj
 0001:00001080       ?horizontalScrollBar@WScrollArea@@QBEPAVWScrollBar@@XZ 00402080 f i refresh.obj
 0001:00001090       ?verticalScrollBar@WScrollArea@@QBEPAVWScrollBar@@XZ 00402090 f i refresh.obj
 0001:000010a0       ??_FWScrollArea@@QAEXXZ    004020a0 f i refresh.obj
 0001:000010b0       ?orientation@WScrollBar@@QBE?AW4Orientation@1@XZ 004020b0 f i refresh.obj
 0001:000010b0       ?floatSide@WWebWidget@@UBE?AW4Side@WWidget@@XZ 004020b0 f i libwt:WWebWidget.obj
 0001:000010b0       ?type@DomElement@@QBE?AW4ElementType@1@XZ 004020b0 f i libwt:WWebWidget.obj
 0001:000010c0       ?PrintDebugString@@YAXPBD@Z 004020c0 f   refresh.obj
 0001:000010e0       ?refreshmonitor@@YAXHQAPAD@Z 004020e0 f   refresh.obj
 0001:000012f0       ?_Xlen@?$vector@PAVWTableRow@@V?$allocator@PAVWTableRow@@@std@@@std@@IBEXXZ 004022f0 f i refresh.obj
 0001:000012f0       ?_Xlen@?$vector@PAVDomElement@@V?$allocator@PAVDomElement@@@std@@@std@@IBEXXZ 004022f0 f i refresh.obj
 0001:000012f0       ?_Xlen@?$vector@PAVWObject@@V?$allocator@PAVWObject@@@std@@@std@@IBEXXZ 004022f0 f i refresh.obj
 0001:000012f0       ?_Xlen@?$vector@PAVWScrollBar@@V?$allocator@PAVWScrollBar@@@std@@@std@@IBEXXZ 004022f0 f i refresh.obj
 0001:000012f0       ?_Xlen@?$vector@UTableData@WTableRow@@V?$allocator@UTableData@WTableRow@@@std@@@std@@IBEXXZ 004022f0 f i refresh.obj
 0001:000012f0       ?_Xlen@?$vector@PAVWMessageResources@@V?$allocator@PAVWMessageResources@@@std@@@std@@IBEXXZ 004022f0 f i refresh.obj
 0001:000012f0       ?_Xlen@?$vector@PAVWWidget@@V?$allocator@PAVWWidget@@@std@@@std@@IBEXXZ 004022f0 f i refresh.obj
 0001:00001370       ??1_Sentry_base@?$basic_ostream@DU?$char_traits@D@std@@@std@@QAE@XZ 00402370 f i refresh.obj
 0001:00001390       ??0logic_error@std@@QAE@ABV01@@Z 00402390 f i refresh.obj
 0001:000013f0       ??$?HDU?$char_traits@D@std@@V?$allocator@D@1@@std@@YA?AV?$basic_string@DU?$char_traits@D@std@@V?$allocator@D@2@@0@ABV10@0@Z 004023f0 f i refresh.obj
 0001:00001470       ??$?HDU?$char_traits@D@std@@V?$allocator@D@1@@std@@YA?AV?$basic_string@DU?$char_traits@D@std@@V?$allocator@D@2@@0@PBDABV10@@Z 00402470 f i refresh.obj
 0001:000014f0       ??$?HDU?$char_traits@D@std@@V?$allocator@D@1@@std@@YA?AV?$basic_string@DU?$char_traits@D@std@@V?$allocator@D@2@@0@DABV10@@Z 004024f0 f i refresh.obj
 0001:00001570       ??$?HDU?$char_traits@D@std@@V?$allocator@D@1@@std@@YA?AV?$basic_string@DU?$char_traits@D@std@@V?$allocator@D@2@@0@ABV10@PBD@Z 00402570 f i refresh.obj
 0001:000015f0       ??$?HDU?$char_traits@D@std@@V?$allocator@D@1@@std@@YA?AV?$basic_string@DU?$char_traits@D@std@@V?$allocator@D@2@@0@ABV10@D@Z 004025f0 f i refresh.obj
 0001:00001670       ??0sentry@?$basic_ostream@DU?$char_traits@D@std@@@std@@QAE@AAV12@@Z 00402670 f i refresh.obj
 0001:00001700       ??1sentry@?$basic_ostream@DU?$char_traits@D@std@@@std@@QAE@XZ 00402700 f i refresh.obj
 0001:00001770       ?_Min@?$_Tree@V?$_Tmap_traits@V?$basic_string@DU?$char_traits@D@std@@V?$allocator@D@2@@std@@PAVWCssRule@@U?$less@V?$basic_string@DU?$char_traits@D@std@@V?$allocator@D@2@@std@@@2@V?$allocator@U?$pair@$$CBV?$basic_string@DU?$char_traits@D@std@@V?$allocator@D@2@@std@@PAVWCssRule@@@std@@@2@$0A@@std@@@std@@KAPAU_Node@?$_Tree_nod@V?$_Tmap_traits@V?$basic_string@DU?$char_traits@D@std@@V?$allocator@D@2@@std@@PAVWCssRule@@U?$less@V?$basic_string@DU?$char_traits@D@std@@V?$allocator@D@2@@std@@@2@V?$allocator@U?$pair@$$CBV?$basic_string@DU?$char_traits@D@std@@V?$allocator@D@2@@std@@PAVWCssRule@@@std@@@2@$0A@@std@@@2@PAU342@@Z 00402770 f i refresh.obj
 0001:00001770       ?_Min@?$_Tree@V?$_Tmap_traits@V?$basic_string@DU?$char_traits@D@std@@V?$allocator@D@2@@std@@PAVWSignalInstance_@@U?$less@V?$basic_string@DU?$char_traits@D@std@@V?$allocator@D@2@@std@@@2@V?$allocator@U?$pair@$$CBV?$basic_string@DU?$char_traits@D@std@@V?$allocator@D@2@@std@@PAVWSignalInstance_@@@std@@@2@$0A@@std@@@std@@KAPAU_Node@?$_Tree_nod@V?$_Tmap_traits@V?$basic_string@DU?$char_traits@D@std@@V?$allocator@D@2@@std@@PAVWSignalInstance_@@U?$less@V?$basic_string@DU?$char_traits@D@std@@V?$allocator@D@2@@std@@@2@V?$allocator@U?$pair@$$CBV?$basic_string@DU?$char_traits@D@std@@V?$allocator@D@2@@std@@PAVWSignalInstance_@@@std@@@2@$0A@@std@@@2@PAU342@@Z 00402770 f i refreshformwt.obj
 0001:00001770       ?_Min@?$_Tree@V?$_Tmap_traits@W4Property@Wt@@V?$basic_string@DU?$char_traits@D@std@@V?$allocator@D@2@@std@@U?$less@W4Property@Wt@@@4@V?$allocator@U?$pair@$$CBW4Property@Wt@@V?$basic_string@DU?$char_traits@D@std@@V?$allocator@D@2@@std@@@std@@@4@$0A@@std@@@std@@KAPAU_Node@?$_Tree_nod@V?$_Tmap_traits@W4Property@Wt@@V?$basic_string@DU?$char_traits@D@std@@V?$allocator@D@2@@std@@U?$less@W4Property@Wt@@@4@V?$allocator@U?$pair@$$CBW4Property@Wt@@V?$basic_string@DU?$char_traits@D@std@@V?$allocator@D@2@@std@@@std@@@4@$0A@@std@@@2@PAU342@@Z 00402770 f i libwt:WWebWidget.obj
 0001:00001770       ?_Min@?$_Tree@V?$_Tmap_traits@V?$basic_string@DU?$char_traits@D@std@@V?$allocator@D@2@@std@@PAVWSlotInstance_@@U?$less@V?$basic_string@DU?$char_traits@D@std@@V?$allocator@D@2@@std@@@2@V?$allocator@U?$pair@$$CBV?$basic_string@DU?$char_traits@D@std@@V?$allocator@D@2@@std@@PAVWSlotInstance_@@@std@@@2@$0A@@std@@@std@@KAPAU_Node@?$_Tree_nod@V?$_Tmap_traits@V?$basic_string@DU?$char_traits@D@std@@V?$allocator@D@2@@std@@PAVWSlotInstance_@@U?$less@V?$basic_string@DU?$char_traits@D@std@@V?$allocator@D@2@@std@@@2@V?$allocator@U?$pair@$$CBV?$basic_string@DU?$char_traits@D@std@@V?$allocator@D@2@@std@@PAVWSlotInstance_@@@std@@@2@$0A@@std@@@2@PAU342@@Z 00402770 f i libwt:WWebWidget.obj
 0001:00001790       ?_Max@?$_Tree@V?$_Tset_traits@PBVWSignalInstance_@@U?$less@PBVWSignalInstance_@@@std@@V?$allocator@PBVWSignalInstance_@@@3@$0A@@std@@@std@@KAPAU_Node@?$_Tree_nod@V?$_Tset_traits@PBVWSignalInstance_@@U?$less@PBVWSignalInstance_@@@std@@V?$allocator@PBVWSignalInstance_@@@3@$0A@@std@@@2@PAU342@@Z 00402790 f i refresh.obj
 0001:00001790       ?_Max@?$_Tree@V?$_Tset_traits@PBVWResource@@U?$less@PBVWResource@@@std@@V?$allocator@PBVWResource@@@3@$0A@@std@@@std@@KAPAU_Node@?$_Tree_nod@V?$_Tset_traits@PBVWResource@@U?$less@PBVWResource@@@std@@V?$allocator@PBVWResource@@@3@$0A@@std@@@2@PAU342@@Z 00402790 f i refresh.obj
 0001:000017b0       ?_Min@?$_Tree@V?$_Tset_traits@PBVWSignalInstance_@@U?$less@PBVWSignalInstance_@@@std@@V?$allocator@PBVWSignalInstance_@@@3@$0A@@std@@@std@@KAPAU_Node@?$_Tree_nod@V?$_Tset_traits@PBVWSignalInstance_@@U?$less@PBVWSignalInstance_@@@std@@V?$allocator@PBVWSignalInstance_@@@3@$0A@@std@@@2@PAU342@@Z 004027b0 f i refresh.obj
 0001:000017b0       ?_Min@?$_Tree@V?$_Tset_traits@PBVWResource@@U?$less@PBVWResource@@@std@@V?$allocator@PBVWResource@@@3@$0A@@std@@@std@@KAPAU_Node@?$_Tree_nod@V?$_Tset_traits@PBVWResource@@U?$less@PBVWResource@@@std@@V?$allocator@PBVWResource@@@3@$0A@@std@@@2@PAU342@@Z 004027b0 f i refresh.obj
 0001:000017d0       ??0length_error@std@@QAE@ABV01@@Z 004027d0 f i refresh.obj
 0001:000017f0       ?_Lrotate@?$_Tree@V?$_Tmap_traits@V?$basic_string@DU?$char_traits@D@std@@V?$allocator@D@2@@std@@PAVWSlotInstance_@@U?$less@V?$basic_string@DU?$char_traits@D@std@@V?$allocator@D@2@@std@@@2@V?$allocator@U?$pair@$$CBV?$basic_string@DU?$char_traits@D@std@@V?$allocator@D@2@@std@@PAVWSlotInstance_@@@std@@@2@$0A@@std@@@std@@IAEXPAU_Node@?$_Tree_nod@V?$_Tmap_traits@V?$basic_string@DU?$char_traits@D@std@@V?$allocator@D@2@@std@@PAVWSlotInstance_@@U?$less@V?$basic_string@DU?$char_traits@D@std@@V?$allocator@D@2@@std@@@2@V?$allocator@U?$pair@$$CBV?$basic_string@DU?$char_traits@D@std@@V?$allocator@D@2@@std@@PAVWSlotInstance_@@@std@@@2@$0A@@std@@@2@@Z 004027f0 f i libwt:WWebWidget.obj
 0001:000017f0       ?_Lrotate@?$_Tree@V?$_Tmap_traits@V?$basic_string@DU?$char_traits@D@std@@V?$allocator@D@2@@std@@PAVWCssRule@@U?$less@V?$basic_string@DU?$char_traits@D@std@@V?$allocator@D@2@@std@@@2@V?$allocator@U?$pair@$$CBV?$basic_string@DU?$char_traits@D@std@@V?$allocator@D@2@@std@@PAVWCssRule@@@std@@@2@$0A@@std@@@std@@IAEXPAU_Node@?$_Tree_nod@V?$_Tmap_traits@V?$basic_string@DU?$char_traits@D@std@@V?$allocator@D@2@@std@@PAVWCssRule@@U?$less@V?$basic_string@DU?$char_traits@D@std@@V?$allocator@D@2@@std@@@2@V?$allocator@U?$pair@$$CBV?$basic_string@DU?$char_traits@D@std@@V?$allocator@D@2@@std@@PAVWCssRule@@@std@@@2@$0A@@std@@@2@@Z 004027f0 f i refresh.obj
 0001:000017f0       ?_Lrotate@?$_Tree@V?$_Tmap_traits@V?$basic_string@DU?$char_traits@D@std@@V?$allocator@D@2@@std@@PAVWSignalInstance_@@U?$less@V?$basic_string@DU?$char_traits@D@std@@V?$allocator@D@2@@std@@@2@V?$allocator@U?$pair@$$CBV?$basic_string@DU?$char_traits@D@std@@V?$allocator@D@2@@std@@PAVWSignalInstance_@@@std@@@2@$0A@@std@@@std@@IAEXPAU_Node@?$_Tree_nod@V?$_Tmap_traits@V?$basic_string@DU?$char_traits@D@std@@V?$allocator@D@2@@std@@PAVWSignalInstance_@@U?$less@V?$basic_string@DU?$char_traits@D@std@@V?$allocator@D@2@@std@@@2@V?$allocator@U?$pair@$$CBV?$basic_string@DU?$char_traits@D@std@@V?$allocator@D@2@@std@@PAVWSignalInstance_@@@std@@@2@$0A@@std@@@2@@Z 004027f0 f i refreshformwt.obj
 0001:000017f0       ?_Lrotate@?$_Tree@V?$_Tmap_traits@W4Property@Wt@@V?$basic_string@DU?$char_traits@D@std@@V?$allocator@D@2@@std@@U?$less@W4Property@Wt@@@4@V?$allocator@U?$pair@$$CBW4Property@Wt@@V?$basic_string@DU?$char_traits@D@std@@V?$allocator@D@2@@std@@@std@@@4@$0A@@std@@@std@@IAEXPAU_Node@?$_Tree_nod@V?$_Tmap_traits@W4Property@Wt@@V?$basic_string@DU?$char_traits@D@std@@V?$allocator@D@2@@std@@U?$less@W4Property@Wt@@@4@V?$allocator@U?$pair@$$CBW4Property@Wt@@V?$basic_string@DU?$char_traits@D@std@@V?$allocator@D@2@@std@@@std@@@4@$0A@@std@@@2@@Z 004027f0 f i libwt:WWebWidget.obj
 0001:00001850       ?_Lrotate@?$_Tree@V?$_Tset_traits@PBVWResource@@U?$less@PBVWResource@@@std@@V?$allocator@PBVWResource@@@3@$0A@@std@@@std@@IAEXPAU_Node@?$_Tree_nod@V?$_Tset_traits@PBVWResource@@U?$less@PBVWResource@@@std@@V?$allocator@PBVWResource@@@3@$0A@@std@@@2@@Z 00402850 f i refresh.obj
 0001:00001850       ?_Lrotate@?$_Tree@V?$_Tset_traits@PBVWSignalInstance_@@U?$less@PBVWSignalInstance_@@@std@@V?$allocator@PBVWSignalInstance_@@@3@$0A@@std@@@std@@IAEXPAU_Node@?$_Tree_nod@V?$_Tset_traits@PBVWSignalInstance_@@U?$less@PBVWSignalInstance_@@@std@@V?$allocator@PBVWSignalInstance_@@@3@$0A@@std@@@2@@Z 00402850 f i refresh.obj
 0001:000018b0       ?_Rrotate@?$_Tree@V?$_Tset_traits@PBVWResource@@U?$less@PBVWResource@@@std@@V?$allocator@PBVWResource@@@3@$0A@@std@@@std@@IAEXPAU_Node@?$_Tree_nod@V?$_Tset_traits@PBVWResource@@U?$less@PBVWResource@@@std@@V?$allocator@PBVWResource@@@3@$0A@@std@@@2@@Z 004028b0 f i refresh.obj
 0001:000018b0       ?_Rrotate@?$_Tree@V?$_Tset_traits@PBVWSignalInstance_@@U?$less@PBVWSignalInstance_@@@std@@V?$allocator@PBVWSignalInstance_@@@3@$0A@@std@@@std@@IAEXPAU_Node@?$_Tree_nod@V?$_Tset_traits@PBVWSignalInstance_@@U?$less@PBVWSignalInstance_@@@std@@V?$allocator@PBVWSignalInstance_@@@3@$0A@@std@@@2@@Z 004028b0 f i refresh.obj
 0001:00001910       ?_Inc@const_iterator@?$_Tree@V?$_Tset_traits@PBVWResource@@U?$less@PBVWResource@@@std@@V?$allocator@PBVWResource@@@3@$0A@@std@@@std@@QAEXXZ 00402910 f i refresh.obj
 0001:00001910       ?_Inc@const_iterator@?$_Tree@V?$_Tset_traits@PBVWSignalInstance_@@U?$less@PBVWSignalInstance_@@@std@@V?$allocator@PBVWSignalInstance_@@@3@$0A@@std@@@std@@QAEXXZ 00402910 f i refresh.obj
 0001:00001970       ??$?6DU?$char_traits@D@std@@V?$allocator@D@1@@std@@YAAAV?$basic_ostream@DU?$char_traits@D@std@@@0@AAV10@ABV?$basic_string@DU?$char_traits@D@std@@V?$allocator@D@2@@0@@Z 00402970 f i refresh.obj
 0001:00001b70       ??$copy@PAPAVWMessageResources@@PAPAV1@@std@@YAPAPAVWMessageResources@@PAPAV1@00@Z 00402b70 f i refresh.obj
 0001:00001b70       ??$copy@PAPAVDomElement@@PAPAV1@@std@@YAPAPAVDomElement@@PAPAV1@00@Z 00402b70 f i refresh.obj
 0001:00001b70       ??$copy@PAPAVWWidget@@PAPAV1@@std@@YAPAPAVWWidget@@PAPAV1@00@Z 00402b70 f i refresh.obj
 0001:00001b70       ??$copy@PAPAVWObject@@PAPAV1@@std@@YAPAPAVWObject@@PAPAV1@00@Z 00402b70 f i refresh.obj
 0001:00001b70       ??$copy@PAPAVWConnection_@@PAPAV1@@std@@YAPAPAVWConnection_@@PAPAV1@00@Z 00402b70 f i refreshformwt.obj
 0001:00001b70       ??$copy@PAPAVWScrollBar@@PAPAV1@@std@@YAPAPAVWScrollBar@@PAPAV1@00@Z 00402b70 f i refresh.obj
 0001:00001b70       ??$copy@PAPAVWTableRow@@PAPAV1@@std@@YAPAPAVWTableRow@@PAPAV1@00@Z 00402b70 f i refresh.obj
 0001:00001ba0       ??$copy@PAUTableData@WTableRow@@PAU12@@std@@YAPAUTableData@WTableRow@@PAU12@00@Z 00402ba0 f i refresh.obj
 0001:00001bd0       ??1?$vector@PAVWConnection_@@V?$allocator@PAVWConnection_@@@std@@@std@@QAE@XZ 00402bd0 f i refreshformwt.obj
 0001:00001bd0       ??1?$vector@PAVWWidget@@V?$allocator@PAVWWidget@@@std@@@std@@QAE@XZ 00402bd0 f i refresh.obj
 0001:00001bd0       ?_Tidy@?$vector@PAVWMessageResources@@V?$allocator@PAVWMessageResources@@@std@@@std@@IAEXXZ 00402bd0 f i refresh.obj
 0001:00001bd0       ??1?$vector@UTableData@WTableRow@@V?$allocator@UTableData@WTableRow@@@std@@@std@@QAE@XZ 00402bd0 f i refresh.obj
 0001:00001bd0       ??1?$vector@PAVWTableRow@@V?$allocator@PAVWTableRow@@@std@@@std@@QAE@XZ 00402bd0 f i libwt:WTable.obj
 0001:00001bd0       ??1?$vector@PAVWTable@@V?$allocator@PAVWTable@@@std@@@std@@QAE@XZ 00402bd0 f i WSPopTable.obj
 0001:00001bd0       ??1?$vector@PAVWObject@@V?$allocator@PAVWObject@@@std@@@std@@QAE@XZ 00402bd0 f i refresh.obj
 0001:00001bd0       ?_Tidy@?$vector@PAVWConnection_@@V?$allocator@PAVWConnection_@@@std@@@std@@IAEXXZ 00402bd0 f i refreshformwt.obj
 0001:00001bd0       ??1?$vector@PAVDomElement@@V?$allocator@PAVDomElement@@@std@@@std@@QAE@XZ 00402bd0 f i libwt:WWebWidget.obj
 0001:00001bd0       ?_Tidy@?$vector@PAVWObject@@V?$allocator@PAVWObject@@@std@@@std@@IAEXXZ 00402bd0 f i refresh.obj
 0001:00001bd0       ??1WMessageResourceBundle@@QAE@XZ 00402bd0 f i refresh.obj
 0001:00001bd0       ??1?$vector@PAVWScrollBar@@V?$allocator@PAVWScrollBar@@@std@@@std@@QAE@XZ 00402bd0 f i libwt:WScrollBar.obj
 0001:00001c00       ?_Buy@?$vector@PAVWWidget@@V?$allocator@PAVWWidget@@@std@@@std@@IAE_NI@Z 00402c00 f i refresh.obj
 0001:00001c00       ?_Buy@?$vector@PAVWScrollBar@@V?$allocator@PAVWScrollBar@@@std@@@std@@IAE_NI@Z 00402c00 f i refresh.obj
 0001:00001c00       ?_Buy@?$vector@PAVWMessageResources@@V?$allocator@PAVWMessageResources@@@std@@@std@@IAE_NI@Z 00402c00 f i refresh.obj
 0001:00001c00       ?_Buy@?$vector@PAVDomElement@@V?$allocator@PAVDomElement@@@std@@@std@@IAE_NI@Z 00402c00 f i refresh.obj
 0001:00001c00       ?_Buy@?$vector@PAVWObject@@V?$allocator@PAVWObject@@@std@@@std@@IAE_NI@Z 00402c00 f i refresh.obj
 0001:00001c00       ?_Buy@?$vector@PAVWTableRow@@V?$allocator@PAVWTableRow@@@std@@@std@@IAE_NI@Z 00402c00 f i refresh.obj
 0001:00001c50       ?_Buy@?$vector@UTableData@WTableRow@@V?$allocator@UTableData@WTableRow@@@std@@@std@@IAE_NI@Z 00402c50 f i refresh.obj
 0001:00001ca0       ?_Buynode@?$_Tree@V?$_Tmap_traits@V?$basic_string@DU?$char_traits@D@std@@V?$allocator@D@2@@std@@PAVWCssRule@@U?$less@V?$basic_string@DU?$char_traits@D@std@@V?$allocator@D@2@@std@@@2@V?$allocator@U?$pair@$$CBV?$basic_string@DU?$char_traits@D@std@@V?$allocator@D@2@@std@@PAVWCssRule@@@std@@@2@$0A@@std@@@std@@IAEPAU_Node@?$_Tree_nod@V?$_Tmap_traits@V?$basic_string@DU?$char_traits@D@std@@V?$allocator@D@2@@std@@PAVWCssRule@@U?$less@V?$basic_string@DU?$char_traits@D@std@@V?$allocator@D@2@@std@@@2@V?$allocator@U?$pair@$$CBV?$basic_string@DU?$char_traits@D@std@@V?$allocator@D@2@@std@@PAVWCssRule@@@std@@@2@$0A@@std@@@2@PAU342@00ABU?$pair@$$CBV?$basic_string@DU?$char_traits@D@std@@V?$allocator@D@2@@std@@PAVWCssRule@@@2@D@Z 00402ca0 f i refresh.obj
 0001:00001d40       ?_Erase@?$_Tree@V?$_Tset_traits@PBVWSignalInstance_@@U?$less@PBVWSignalInstance_@@@std@@V?$allocator@PBVWSignalInstance_@@@3@$0A@@std@@@std@@IAEXPAU_Node@?$_Tree_nod@V?$_Tset_traits@PBVWSignalInstance_@@U?$less@PBVWSignalInstance_@@@std@@V?$allocator@PBVWSignalInstance_@@@3@$0A@@std@@@2@@Z 00402d40 f i refresh.obj
 0001:00001d80       ?_Buynode@?$_Tree@V?$_Tset_traits@PBVWResource@@U?$less@PBVWResource@@@std@@V?$allocator@PBVWResource@@@3@$0A@@std@@@std@@IAEPAU_Node@?$_Tree_nod@V?$_Tset_traits@PBVWResource@@U?$less@PBVWResource@@@std@@V?$allocator@PBVWResource@@@3@$0A@@std@@@2@PAU342@00ABQBVWResource@@D@Z 00402d80 f i refresh.obj
 0001:00001d80       ?_Buynode@?$_Tree@V?$_Tset_traits@PBVWSignalInstance_@@U?$less@PBVWSignalInstance_@@@std@@V?$allocator@PBVWSignalInstance_@@@3@$0A@@std@@@std@@IAEPAU_Node@?$_Tree_nod@V?$_Tset_traits@PBVWSignalInstance_@@U?$less@PBVWSignalInstance_@@@std@@V?$allocator@PBVWSignalInstance_@@@3@$0A@@std@@@2@PAU342@00ABQBVWSignalInstance_@@D@Z 00402d80 f i refresh.obj
 0001:00001dc0       ?_Erase@?$_Tree@V?$_Tset_traits@PBVWResource@@U?$less@PBVWResource@@@std@@V?$allocator@PBVWResource@@@3@$0A@@std@@@std@@IAEXPAU_Node@?$_Tree_nod@V?$_Tset_traits@PBVWResource@@U?$less@PBVWResource@@@std@@V?$allocator@PBVWResource@@@3@$0A@@std@@@2@@Z 00402dc0 f i refresh.obj
 0001:00001e00       ??$_Ucopy@PAPAVWWidget@@@?$vector@PAVWWidget@@V?$allocator@PAVWWidget@@@std@@@std@@IAEPAPAVWWidget@@PAPAV2@00@Z 00402e00 f i refresh.obj
 0001:00001e00       ??$_Ucopy@PAPAVWMessageResources@@@?$vector@PAVWMessageResources@@V?$allocator@PAVWMessageResources@@@std@@@std@@IAEPAPAVWMessageResources@@PAPAV2@00@Z 00402e00 f i refresh.obj
 0001:00001e00       ??$_Ucopy@PAPAVWConnection_@@@?$vector@PAVWConnection_@@V?$allocator@PAVWConnection_@@@std@@@std@@IAEPAPAVWConnection_@@PAPAV2@00@Z 00402e00 f i refreshformwt.obj
 0001:00001e00       ??$_Ucopy@PAPAVWTable@@@?$vector@PAVWTable@@V?$allocator@PAVWTable@@@std@@@std@@IAEPAPAVWTable@@PAPAV2@00@Z 00402e00 f i WSPopTable.obj
 0001:00001e00       ??$_Ucopy@PAPAVWTableRow@@@?$vector@PAVWTableRow@@V?$allocator@PAVWTableRow@@@std@@@std@@IAEPAPAVWTableRow@@PAPAV2@00@Z 00402e00 f i refresh.obj
 0001:00001e00       ??$_Ucopy@PAPAVWScrollBar@@@?$vector@PAVWScrollBar@@V?$allocator@PAVWScrollBar@@@std@@@std@@IAEPAPAVWScrollBar@@PAPAV2@00@Z 00402e00 f i refresh.obj
 0001:00001e00       ??$_Ucopy@PAPAVWObject@@@?$vector@PAVWObject@@V?$allocator@PAVWObject@@@std@@@std@@IAEPAPAVWObject@@PAPAV2@00@Z 00402e00 f i refresh.obj
 0001:00001e00       ??$_Ucopy@PAPAVDomElement@@@?$vector@PAVDomElement@@V?$allocator@PAVDomElement@@@std@@@std@@IAEPAPAVDomElement@@PAPAV2@00@Z 00402e00 f i refresh.obj
 0001:00001e30       ??$_Uninit_copy@Vconst_iterator@?$vector@PAVWMessageResources@@V?$allocator@PAVWMessageResources@@@std@@@std@@PAPAVWMessageResources@@V?$allocator@PAVWMessageResources@@@3@@std@@YAPAPAVWMessageResources@@Vconst_iterator@?$vector@PAVWMessageResources@@V?$allocator@PAVWMessageResources@@@std@@@0@0PAPAV1@AAV?$allocator@PAVWMessageResources@@@0@U_Nonscalar_ptr_iterator_tag@0@@Z 00402e30 f i refresh.obj
 0001:00001e30       ??$_Uninit_copy@Vconst_iterator@?$vector@PAVWObject@@V?$allocator@PAVWObject@@@std@@@std@@PAPAVWObject@@V?$allocator@PAVWObject@@@3@@std@@YAPAPAVWObject@@Vconst_iterator@?$vector@PAVWObject@@V?$allocator@PAVWObject@@@std@@@0@0PAPAV1@AAV?$allocator@PAVWObject@@@0@U_Nonscalar_ptr_iterator_tag@0@@Z 00402e30 f i refresh.obj
 0001:00001e30       ??$_Uninit_copy@Vconst_iterator@?$vector@PAVWConnection_@@V?$allocator@PAVWConnection_@@@std@@@std@@PAPAVWConnection_@@V?$allocator@PAVWConnection_@@@3@@std@@YAPAPAVWConnection_@@Vconst_iterator@?$vector@PAVWConnection_@@V?$allocator@PAVWConnection_@@@std@@@0@0PAPAV1@AAV?$allocator@PAVWConnection_@@@0@U_Nonscalar_ptr_iterator_tag@0@@Z 00402e30 f i refreshformwt.obj
 0001:00001e60       ??$_Uninit_copy@PAUTableData@WTableRow@@PAU12@V?$allocator@UTableData@WTableRow@@@std@@@std@@YAPAUTableData@WTableRow@@PAU12@00AAV?$allocator@UTableData@WTableRow@@@0@U_Nonscalar_ptr_iterator_tag@0@@Z 00402e60 f i refresh.obj
 0001:00001e90       ?_Copy@?$_Tree@V?$_Tset_traits@PBVWSignalInstance_@@U?$less@PBVWSignalInstance_@@@std@@V?$allocator@PBVWSignalInstance_@@@3@$0A@@std@@@std@@IAEPAU_Node@?$_Tree_nod@V?$_Tset_traits@PBVWSignalInstance_@@U?$less@PBVWSignalInstance_@@@std@@V?$allocator@PBVWSignalInstance_@@@3@$0A@@std@@@2@PAU342@0@Z 00402e90 f i refresh.obj
 0001:00001f40       ?_Copy@?$_Tree@V?$_Tset_traits@PBVWResource@@U?$less@PBVWResource@@@std@@V?$allocator@PBVWResource@@@3@$0A@@std@@@std@@IAEPAU_Node@?$_Tree_nod@V?$_Tset_traits@PBVWResource@@U?$less@PBVWResource@@@std@@V?$allocator@PBVWResource@@@3@$0A@@std@@@2@PAU342@0@Z 00402f40 f i refresh.obj
 0001:00001ff0       ??1WebSession@@QAE@XZ      00402ff0 f i refresh.obj
 0001:000020d0       ??1WContainerWidget@@UAE@XZ 004030d0 f i refresh.obj
 0001:000020d0       ??1WTableCell@@UAE@XZ      004030d0 f i refresh.obj
 0001:00002110       _main                      00403110 f   refresh.obj
 0001:000022c0       ??4?$vector@PAVWScrollBar@@V?$allocator@PAVWScrollBar@@@std@@@std@@QAEAAV01@ABV01@@Z 004032c0 f i refresh.obj
 0001:000022c0       ??4?$vector@PAVDomElement@@V?$allocator@PAVDomElement@@@std@@@std@@QAEAAV01@ABV01@@Z 004032c0 f i refresh.obj
 0001:000022c0       ??4?$vector@PAVWObject@@V?$allocator@PAVWObject@@@std@@@std@@QAEAAV01@ABV01@@Z 004032c0 f i refresh.obj
 0001:000022c0       ??4?$vector@PAVWMessageResources@@V?$allocator@PAVWMessageResources@@@std@@@std@@QAEAAV01@ABV01@@Z 004032c0 f i refresh.obj
 0001:000022c0       ??4?$vector@PAVWWidget@@V?$allocator@PAVWWidget@@@std@@@std@@QAEAAV01@ABV01@@Z 004032c0 f i refresh.obj
 0001:000022c0       ??4?$vector@PAVWTableRow@@V?$allocator@PAVWTableRow@@@std@@@std@@QAEAAV01@ABV01@@Z 004032c0 f i refresh.obj
 0001:00002410       ?_Copy@?$_Tree@V?$_Tset_traits@PBVWSignalInstance_@@U?$less@PBVWSignalInstance_@@@std@@V?$allocator@PBVWSignalInstance_@@@3@$0A@@std@@@std@@IAEXABV12@@Z 00403410 f i refresh.obj
 0001:000024a0       ?_Copy@?$_Tree@V?$_Tset_traits@PBVWResource@@U?$less@PBVWResource@@@std@@V?$allocator@PBVWResource@@@3@$0A@@std@@@std@@IAEXABV12@@Z 004034a0 f i refresh.obj
 0001:00002530       ?erase@?$_Tree@V?$_Tmap_traits@V?$basic_string@DU?$char_traits@D@std@@V?$allocator@D@2@@std@@PAVWCssRule@@U?$less@V?$basic_string@DU?$char_traits@D@std@@V?$allocator@D@2@@std@@@2@V?$allocator@U?$pair@$$CBV?$basic_string@DU?$char_traits@D@std@@V?$allocator@D@2@@std@@PAVWCssRule@@@std@@@2@$0A@@std@@@std@@QAE?AViterator@12@V312@@Z 00403530 f i refresh.obj
 0001:00002810       ??0out_of_range@std@@QAE@ABV01@@Z 00403810 f i refresh.obj
 0001:00002830       ?erase@?$_Tree@V?$_Tset_traits@PBVWResource@@U?$less@PBVWResource@@@std@@V?$allocator@PBVWResource@@@3@$0A@@std@@@std@@QAE?AViterator@12@V312@@Z 00403830 f i refresh.obj
 0001:00002830       ?erase@?$_Tree@V?$_Tset_traits@PBVWSignalInstance_@@U?$less@PBVWSignalInstance_@@@std@@V?$allocator@PBVWSignalInstance_@@@3@$0A@@std@@@std@@QAE?AViterator@12@V312@@Z 00403830 f i refresh.obj
 0001:00002b00       ?_Erase@?$_Tree@V?$_Tmap_traits@V?$basic_string@DU?$char_traits@D@std@@V?$allocator@D@2@@std@@PAVWCssRule@@U?$less@V?$basic_string@DU?$char_traits@D@std@@V?$allocator@D@2@@std@@@2@V?$allocator@U?$pair@$$CBV?$basic_string@DU?$char_traits@D@std@@V?$allocator@D@2@@std@@PAVWCssRule@@@std@@@2@$0A@@std@@@std@@IAEXPAU_Node@?$_Tree_nod@V?$_Tmap_traits@V?$basic_string@DU?$char_traits@D@std@@V?$allocator@D@2@@std@@PAVWCssRule@@U?$less@V?$basic_string@DU?$char_traits@D@std@@V?$allocator@D@2@@std@@@2@V?$allocator@U?$pair@$$CBV?$basic_string@DU?$char_traits@D@std@@V?$allocator@D@2@@std@@PAVWCssRule@@@std@@@2@$0A@@std@@@2@@Z 00403b00 f i refresh.obj
 0001:00002b40       ??$_Ucopy@PAUTableData@WTableRow@@@?$vector@UTableData@WTableRow@@V?$allocator@UTableData@WTableRow@@@std@@@std@@IAEPAUTableData@WTableRow@@PAU23@00@Z 00403b40 f i refresh.obj
 0001:00002b60       ??4WebSession@@QAEAAV0@ABV0@@Z 00403b60 f i refresh.obj
 0001:00002d20       ??4WMessageResourceBundle@@QAEAAV0@ABV0@@Z 00403d20 f i refresh.obj
 0001:00002d40       ??4WWebWidget@@QAEAAV0@ABV0@@Z 00403d40 f i refresh.obj
 0001:00003080       ??4WInteractWidget@@QAEAAV0@ABV0@@Z 00404080 f i refresh.obj
 0001:000030c0       ??4WContainerWidget@@QAEAAV0@ABV0@@Z 004040c0 f i refresh.obj
 0001:000031a0       ??4WTable@@QAEAAV0@ABV0@@Z 004041a0 f i refresh.obj
 0001:00003300       ??4WTableCell@@QAEAAV0@ABV0@@Z 00404300 f i refresh.obj
 0001:00003360       ??4WText@@QAEAAV0@ABV0@@Z  00404360 f i refresh.obj
 0001:000033c0       ??4WImage@@QAEAAV0@ABV0@@Z 004043c0 f i refresh.obj
 0001:00003420       ??4WFormWidget@@QAEAAV0@ABV0@@Z 00404420 f i refresh.obj
 0001:00003470       ??4WPushButton@@QAEAAV0@ABV0@@Z 00404470 f i refresh.obj
 0001:00003500       ??4WScrollArea@@QAEAAV0@ABV0@@Z 00404500 f i refresh.obj
 0001:00003570       ??4WScrollBar@@QAEAAV0@ABV0@@Z 00404570 f i refresh.obj
 0001:000035d0       ??0?$vector@PAVWObject@@V?$allocator@PAVWObject@@@std@@@std@@QAE@ABV01@@Z 004045d0 f i refresh.obj
 0001:000035d0       ??0?$vector@PAVWMessageResources@@V?$allocator@PAVWMessageResources@@@std@@@std@@QAE@ABV01@@Z 004045d0 f i refresh.obj
 0001:00003690       ?erase@?$_Tree@V?$_Tset_traits@PBVWSignalInstance_@@U?$less@PBVWSignalInstance_@@@std@@V?$allocator@PBVWSignalInstance_@@@3@$0A@@std@@@std@@QAE?AViterator@12@V312@0@Z 00404690 f i refresh.obj
 0001:00003750       ?erase@?$_Tree@V?$_Tset_traits@PBVWResource@@U?$less@PBVWResource@@@std@@V?$allocator@PBVWResource@@@3@$0A@@std@@@std@@QAE?AViterator@12@V312@0@Z 00404750 f i refresh.obj
 0001:00003810       ?_Copy@?$_Tree@V?$_Tmap_traits@V?$basic_string@DU?$char_traits@D@std@@V?$allocator@D@2@@std@@PAVWCssRule@@U?$less@V?$basic_string@DU?$char_traits@D@std@@V?$allocator@D@2@@std@@@2@V?$allocator@U?$pair@$$CBV?$basic_string@DU?$char_traits@D@std@@V?$allocator@D@2@@std@@PAVWCssRule@@@std@@@2@$0A@@std@@@std@@IAEPAU_Node@?$_Tree_nod@V?$_Tmap_traits@V?$basic_string@DU?$char_traits@D@std@@V?$allocator@D@2@@std@@PAVWCssRule@@U?$less@V?$basic_string@DU?$char_traits@D@std@@V?$allocator@D@2@@std@@@2@V?$allocator@U?$pair@$$CBV?$basic_string@DU?$char_traits@D@std@@V?$allocator@D@2@@std@@PAVWCssRule@@@std@@@2@$0A@@std@@@2@PAU342@0@Z 00404810 f i refresh.obj
 0001:000038c0       ??0WebSession@@QAE@ABV0@@Z 004048c0 f i refresh.obj
 0001:00003ad0       ??0WMessageResourceBundle@@QAE@ABV0@@Z 00404ad0 f i refresh.obj
 0001:00003af0       ??1WTableRow@@UAE@XZ       00404af0 f i refresh.obj
 0001:00003b90       ??4?$vector@UTableData@WTableRow@@V?$allocator@UTableData@WTableRow@@@std@@@std@@QAEAAV01@ABV01@@Z 00404b90 f i refresh.obj
 0001:00003ce0       ?erase@?$_Tree@V?$_Tmap_traits@V?$basic_string@DU?$char_traits@D@std@@V?$allocator@D@2@@std@@PAVWCssRule@@U?$less@V?$basic_string@DU?$char_traits@D@std@@V?$allocator@D@2@@std@@@2@V?$allocator@U?$pair@$$CBV?$basic_string@DU?$char_traits@D@std@@V?$allocator@D@2@@std@@PAVWCssRule@@@std@@@2@$0A@@std@@@std@@QAE?AViterator@12@V312@0@Z 00404ce0 f i refresh.obj
 0001:00003da0       ?_Copy@?$_Tree@V?$_Tmap_traits@V?$basic_string@DU?$char_traits@D@std@@V?$allocator@D@2@@std@@PAVWCssRule@@U?$less@V?$basic_string@DU?$char_traits@D@std@@V?$allocator@D@2@@std@@@2@V?$allocator@U?$pair@$$CBV?$basic_string@DU?$char_traits@D@std@@V?$allocator@D@2@@std@@PAVWCssRule@@@std@@@2@$0A@@std@@@std@@IAEXABV12@@Z 00404da0 f i refresh.obj
 0001:00003e30       ??4WTableRow@@QAEAAV0@ABV0@@Z 00404e30 f i refresh.obj
 0001:00003e80       ??4WApplication@@QAEAAV0@ABV0@@Z 00404e80 f i refresh.obj
 0001:00003fd0       ??0TTime@chen@@QAE@HHHHHHH@Z 00404fd0 f i refreshform.obj
 0001:000040a0       ?GetCurrentTimeEx@TTime@chen@@SA?AV12@XZ 004050a0 f i refreshform.obj
 0001:000040d0       ??1sv_dyn@@QAE@XZ          004050d0 f i refreshform.obj
 0001:000040e0       ?isMonitorDisable@@YA_NAAV?$basic_string@DU?$char_traits@D@std@@V?$allocator@D@2@@std@@V12@1@Z 004050e0 f   refreshform.obj
 0001:00004350       ?makeQueueName@@YA?AV?$basic_string@DU?$char_traits@D@std@@V?$allocator@D@2@@std@@XZ 00405350 f   refreshform.obj
 0001:000044a0       ?getRefreshQueueName@@YA?AV?$basic_string@DU?$char_traits@D@std@@V?$allocator@D@2@@std@@ABV12@@Z 004054a0 f   refreshform.obj
 0001:000045c0       ?loadString@SVRefresh@@AAEXXZ 004055c0 f   refreshform.obj
 0001:000048c0       ?AddJsParam@SVRefresh@@AAEXV?$basic_string@DU?$char_traits@D@std@@V?$allocator@D@2@@std@@0PAVWContainerWidget@@@Z 004058c0 f   refreshform.obj
 0001:000049d0       ?ExChange@SVRefresh@@AAEXXZ 004059d0 f   refreshform.obj
 0001:00004a00       ?Translate@SVRefresh@@AAEXXZ 00405a00 f   refreshform.obj
 0001:00004a40       ?createState@SVRefresh@@AAEXXZ 00405a40 f   refreshform.obj
 0001:00004df0       ?createContain@SVRefresh@@AAEXXZ 00405df0 f   refreshform.obj
 0001:00004f50       ?createOperate@SVRefresh@@AAEXXZ 00405f50 f   refreshform.obj
 0001:00005090       ?createHideButton@SVRefresh@@AAEXXZ 00406090 f   refreshform.obj
 0001:000051f0       ??1SVRefresh@@UAE@XZ       004061f0 f   refreshform.obj
 0001:00005480       ?getDeviceData@SVRefresh@@AAEXAAV?$basic_string@DU?$char_traits@D@std@@V?$allocator@D@2@@std@@@Z 00406480 f   refreshform.obj
 0001:00005680       ??_GSVRefresh@@UAEPAXI@Z   00406680 f i refreshform.obj
 0001:00005680       ??_ESVRefresh@@UAEPAXI@Z   00406680 f i refreshform.obj
 0001:000056a0       ?initForm@SVRefresh@@AAEXXZ 004066a0 f   refreshform.obj
 0001:00005a00       ?clearEnvironment@SVRefresh@@AAEXXZ 00406a00 f   refreshform.obj
 0001:00005b20       ?refresh@SVRefresh@@UAEXXZ 00406b20 f   refreshform.obj
 0001:00006220       ?showresult@SVRefresh@@AAEXXZ 00407220 f   refreshform.obj
 0001:00006440       ?addDisableDyn@SVRefresh@@AAEXPBD@Z 00407440 f   refreshform.obj
 0001:00006700       ?addDynData@SVRefresh@@AAEXPBD@Z 00407700 f   refreshform.obj
 0001:00006cc0       ??0SVRefresh@@QAE@PAVWContainerWidget@@@Z 00407cc0 f   refreshform.obj
 0001:00006f30       ?getresult@SVRefresh@@AAEXXZ 00407f30 f   refreshform.obj
 0001:00007510       ?exposable@WSignal_@@QBE_NXZ 00408510 f i refreshformwt.obj
 0001:00007510       ?canStatic@WSlot_@@QBE_NXZ 00408510 f i refreshformwt.obj
 0001:00007520       ??0WSignal_@@QAE@ABV0@@Z   00408520 f i refreshformwt.obj
 0001:00007520       ??0WSlot_@@QAE@ABV0@@Z     00408520 f i refreshformwt.obj
 0001:00007540       ??4WSignal_@@QAEAAV0@ABV0@@Z 00408540 f i refreshformwt.obj
 0001:00007540       ??4WSlot_@@QAEAAV0@ABV0@@Z 00408540 f i refreshformwt.obj
 0001:00007560       ?staticCodeChanged@WSignalInstance_@@QBE_NXZ 00408560 f i refreshformwt.obj
 0001:00007570       ?connectivityChanged@WSignalInstance_@@QBE_NXZ 00408570 f i refreshformwt.obj
 0001:00007580       ?good@WSlot_@@QAE_NXZ      00408580 f i refreshformwt.obj
 0001:00007580       ?good@WSignal_@@QBE_NXZ    00408580 f i refreshformwt.obj
 0001:00007590       ?key@WMessage@@QBE?BV?$basic_string@DU?$char_traits@D@std@@V?$allocator@D@2@@std@@XZ 00408590 f i refresh.obj
 0001:00007590       ?name@JSVar@@QAE?BV?$basic_string@DU?$char_traits@D@std@@V?$allocator@D@2@@std@@XZ 00408590 f i libwt:DomElement.obj
 0001:00007590       ?name@WSlot_@@QBE?BV?$basic_string@DU?$char_traits@D@std@@V?$allocator@D@2@@std@@XZ 00408590 f i refreshformwt.obj
 0001:00007590       ?path@WMessageResources@@QBE?BV?$basic_string@DU?$char_traits@D@std@@V?$allocator@D@2@@std@@XZ 00408590 f i libwt:WMessageResourceBundle.obj
 0001:00007590       ?name@WSignal_@@QBE?BV?$basic_string@DU?$char_traits@D@std@@V?$allocator@D@2@@std@@XZ 00408590 f i refreshformwt.obj
 0001:000075b0       ?staticCodeCollected@WSlotInstance_@@QBE_NXZ 004085b0 f i refreshformwt.obj
 0001:000075c0       ?buildSlotMap@SVRefresh@@MAEXAAV?$map@V?$basic_string@DU?$char_traits@D@std@@V?$allocator@D@2@@std@@PAVWSlotInstance_@@U?$less@V?$basic_string@DU?$char_traits@D@std@@V?$allocator@D@2@@std@@@2@V?$allocator@U?$pair@$$CBV?$basic_string@DU?$char_traits@D@std@@V?$allocator@D@2@@std@@PAVWSlotInstance_@@@std@@@2@@std@@@Z 004085c0 f   refreshformwt.obj
 0001:000076b0       ?triggerSlot@SVRefresh@@MAE_NPAVWObject@@PBVWSlot_@@PAPAX@Z 004086b0 f   refreshformwt.obj
 0001:00007740       ?undoTriggerSlot@SVRefresh@@MAE_NPBVWSlot_@@PAPAX@Z 00408740 f   refreshformwt.obj
 0001:00007740       ?undoTriggerSlot@WSPopTable@@MAE_NPBVWSlot_@@PAPAX@Z 00408740 f   WSPopTableWt.obj
 0001:00007740       ?undoTriggerSlot@WTableRow@@MAE_NPBVWSlot_@@PAPAX@Z 00408740 f   libwt:WTable.obj
 0001:00007740       ?undoTriggerSlot@WTableCell@@MAE_NPBVWSlot_@@PAPAX@Z 00408740 f   libwt:WTableCell.obj
 0001:00007750       ??1?$pair@V?$basic_string@DU?$char_traits@D@std@@V?$allocator@D@2@@std@@PAVDomElement@@@std@@QAE@XZ 00408750 f i libwt:WWebWidget.obj
 0001:00007750       ??1WMessage@@QAE@XZ        00408750 f i refresh.obj
 0001:00007750       ??1WSlot_@@QAE@XZ          00408750 f i refreshformwt.obj
 0001:00007750       ??1JSVar@@QAE@XZ           00408750 f i libwt:WebSession.obj
 0001:00007750       ??1?$pair@$$CBV?$basic_string@DU?$char_traits@D@std@@V?$allocator@D@2@@std@@PAVWSlotInstance_@@@std@@QAE@XZ 00408750 f i libwt:WWebWidget.obj
 0001:00007750       ??1WSignal_@@QAE@XZ        00408750 f i refreshformwt.obj
 0001:00007750       ??1?$pair@$$CBV?$basic_string@DU?$char_traits@D@std@@V?$allocator@D@2@@std@@PAVWSignalInstance_@@@std@@QAE@XZ 00408750 f i refreshformwt.obj
 0001:00007760       ??R?$less@V?$basic_string@DU?$char_traits@D@std@@V?$allocator@D@2@@std@@@std@@QBE_NABV?$basic_string@DU?$char_traits@D@std@@V?$allocator@D@2@@1@0@Z 00408760 f i refreshformwt.obj
 0001:00007780       ?_Xlen@?$vector@PAVWConnection_@@V?$allocator@PAVWConnection_@@@std@@@std@@IBEXXZ 00408780 f i refreshformwt.obj
 0001:00007800       ?_Max@?$_Tree@V?$_Tmap_traits@V?$basic_string@DU?$char_traits@D@std@@V?$allocator@D@2@@std@@PAVWSignalInstance_@@U?$less@V?$basic_string@DU?$char_traits@D@std@@V?$allocator@D@2@@std@@@2@V?$allocator@U?$pair@$$CBV?$basic_string@DU?$char_traits@D@std@@V?$allocator@D@2@@std@@PAVWSignalInstance_@@@std@@@2@$0A@@std@@@std@@KAPAU_Node@?$_Tree_nod@V?$_Tmap_traits@V?$basic_string@DU?$char_traits@D@std@@V?$allocator@D@2@@std@@PAVWSignalInstance_@@U?$less@V?$basic_string@DU?$char_traits@D@std@@V?$allocator@D@2@@std@@@2@V?$allocator@U?$pair@$$CBV?$basic_string@DU?$char_traits@D@std@@V?$allocator@D@2@@std@@PAVWSignalInstance_@@@std@@@2@$0A@@std@@@2@PAU342@@Z 00408800 f i refreshformwt.obj
 0001:00007800       ?_Max@?$_Tree@V?$_Tmap_traits@W4Property@Wt@@V?$basic_string@DU?$char_traits@D@std@@V?$allocator@D@2@@std@@U?$less@W4Property@Wt@@@4@V?$allocator@U?$pair@$$CBW4Property@Wt@@V?$basic_string@DU?$char_traits@D@std@@V?$allocator@D@2@@std@@@std@@@4@$0A@@std@@@std@@KAPAU_Node@?$_Tree_nod@V?$_Tmap_traits@W4Property@Wt@@V?$basic_string@DU?$char_traits@D@std@@V?$allocator@D@2@@std@@U?$less@W4Property@Wt@@@4@V?$allocator@U?$pair@$$CBW4Property@Wt@@V?$basic_string@DU?$char_traits@D@std@@V?$allocator@D@2@@std@@@std@@@4@$0A@@std@@@2@PAU342@@Z 00408800 f i libwt:WWebWidget.obj
 0001:00007800       ?_Max@?$_Tree@V?$_Tmap_traits@V?$basic_string@DU?$char_traits@D@std@@V?$allocator@D@2@@std@@PAVWSlotInstance_@@U?$less@V?$basic_string@DU?$char_traits@D@std@@V?$allocator@D@2@@std@@@2@V?$allocator@U?$pair@$$CBV?$basic_string@DU?$char_traits@D@std@@V?$allocator@D@2@@std@@PAVWSlotInstance_@@@std@@@2@$0A@@std@@@std@@KAPAU_Node@?$_Tree_nod@V?$_Tmap_traits@V?$basic_string@DU?$char_traits@D@std@@V?$allocator@D@2@@std@@PAVWSlotInstance_@@U?$less@V?$basic_string@DU?$char_traits@D@std@@V?$allocator@D@2@@std@@@2@V?$allocator@U?$pair@$$CBV?$basic_string@DU?$char_traits@D@std@@V?$allocator@D@2@@std@@PAVWSlotInstance_@@@std@@@2@$0A@@std@@@2@PAU342@@Z 00408800 f i libwt:WWebWidget.obj
 0001:00007800       ?_Max@?$_Tree@V?$_Tmap_traits@V?$basic_string@DU?$char_traits@D@std@@V?$allocator@D@2@@std@@PAVWCssRule@@U?$less@V?$basic_string@DU?$char_traits@D@std@@V?$allocator@D@2@@std@@@2@V?$allocator@U?$pair@$$CBV?$basic_string@DU?$char_traits@D@std@@V?$allocator@D@2@@std@@PAVWCssRule@@@std@@@2@$0A@@std@@@std@@KAPAU_Node@?$_Tree_nod@V?$_Tmap_traits@V?$basic_string@DU?$char_traits@D@std@@V?$allocator@D@2@@std@@PAVWCssRule@@U?$less@V?$basic_string@DU?$char_traits@D@std@@V?$allocator@D@2@@std@@@2@V?$allocator@U?$pair@$$CBV?$basic_string@DU?$char_traits@D@std@@V?$allocator@D@2@@std@@PAVWCssRule@@@std@@@2@$0A@@std@@@2@PAU342@@Z 00408800 f i refresh.obj
 0001:00007820       ?isConnected@WSignalInstance_@@ABE_NXZ 00408820 f i refreshformwt.obj
 0001:00007850       ?_Buy@?$vector@PAVWConnection_@@V?$allocator@PAVWConnection_@@@std@@@std@@IAE_NI@Z 00408850 f i refreshformwt.obj
 0001:000078a0       ?_Buynode@?$_Tree@V?$_Tmap_traits@V?$basic_string@DU?$char_traits@D@std@@V?$allocator@D@2@@std@@PAVWSignalInstance_@@U?$less@V?$basic_string@DU?$char_traits@D@std@@V?$allocator@D@2@@std@@@2@V?$allocator@U?$pair@$$CBV?$basic_string@DU?$char_traits@D@std@@V?$allocator@D@2@@std@@PAVWSignalInstance_@@@std@@@2@$0A@@std@@@std@@IAEPAU_Node@?$_Tree_nod@V?$_Tmap_traits@V?$basic_string@DU?$char_traits@D@std@@V?$allocator@D@2@@std@@PAVWSignalInstance_@@U?$less@V?$basic_string@DU?$char_traits@D@std@@V?$allocator@D@2@@std@@@2@V?$allocator@U?$pair@$$CBV?$basic_string@DU?$char_traits@D@std@@V?$allocator@D@2@@std@@PAVWSignalInstance_@@@std@@@2@$0A@@std@@@2@PAU342@00ABU?$pair@$$CBV?$basic_string@DU?$char_traits@D@std@@V?$allocator@D@2@@std@@PAVWSignalInstance_@@@2@D@Z 004088a0 f i refreshformwt.obj
 0001:00007940       ?_Insert@?$_Tree@V?$_Tmap_traits@V?$basic_string@DU?$char_traits@D@std@@V?$allocator@D@2@@std@@PAVWSignalInstance_@@U?$less@V?$basic_string@DU?$char_traits@D@std@@V?$allocator@D@2@@std@@@2@V?$allocator@U?$pair@$$CBV?$basic_string@DU?$char_traits@D@std@@V?$allocator@D@2@@std@@PAVWSignalInstance_@@@std@@@2@$0A@@std@@@std@@IAE?AViterator@12@_NPAU_Node@?$_Tree_nod@V?$_Tmap_traits@V?$basic_string@DU?$char_traits@D@std@@V?$allocator@D@2@@std@@PAVWSignalInstance_@@U?$less@V?$basic_string@DU?$char_traits@D@std@@V?$allocator@D@2@@std@@@2@V?$allocator@U?$pair@$$CBV?$basic_string@DU?$char_traits@D@std@@V?$allocator@D@2@@std@@PAVWSignalInstance_@@@std@@@2@$0A@@std@@@2@ABU?$pair@$$CBV?$basic_string@DU?$char_traits@D@std@@V?$allocator@D@2@@std@@PAVWSignalInstance_@@@2@@Z 00408940 f i refreshformwt.obj
 0001:00007b00       ??4?$vector@PAVWConnection_@@V?$allocator@PAVWConnection_@@@std@@@std@@QAEAAV01@ABV01@@Z 00408b00 f i refreshformwt.obj
 0001:00007c50       ?insert@?$_Tree@V?$_Tmap_traits@V?$basic_string@DU?$char_traits@D@std@@V?$allocator@D@2@@std@@PAVWSignalInstance_@@U?$less@V?$basic_string@DU?$char_traits@D@std@@V?$allocator@D@2@@std@@@2@V?$allocator@U?$pair@$$CBV?$basic_string@DU?$char_traits@D@std@@V?$allocator@D@2@@std@@PAVWSignalInstance_@@@std@@@2@$0A@@std@@@std@@QAE?AU?$pair@Viterator@?$_Tree@V?$_Tmap_traits@V?$basic_string@DU?$char_traits@D@std@@V?$allocator@D@2@@std@@PAVWSignalInstance_@@U?$less@V?$basic_string@DU?$char_traits@D@std@@V?$allocator@D@2@@std@@@2@V?$allocator@U?$pair@$$CBV?$basic_string@DU?$char_traits@D@std@@V?$allocator@D@2@@std@@PAVWSignalInstance_@@@std@@@2@$0A@@std@@@std@@_N@2@ABU?$pair@$$CBV?$basic_string@DU?$char_traits@D@std@@V?$allocator@D@2@@std@@PAVWSignalInstance_@@@2@@Z 00408c50 f i refreshformwt.obj
 0001:00007d30       ??4WSignalInstance_@@QAEAAV0@ABV0@@Z 00408d30 f i refreshformwt.obj
 0001:00007d80       ??4WSlotInstance_@@QAEAAV0@ABV0@@Z 00408d80 f i refreshformwt.obj
 0001:00007dc0       ??0?$vector@PAVWConnection_@@V?$allocator@PAVWConnection_@@@std@@@std@@QAE@ABV01@@Z 00408dc0 f i refreshformwt.obj
 0001:00007e80       ?insert@?$_Tree@V?$_Tmap_traits@V?$basic_string@DU?$char_traits@D@std@@V?$allocator@D@2@@std@@PAVWSignalInstance_@@U?$less@V?$basic_string@DU?$char_traits@D@std@@V?$allocator@D@2@@std@@@2@V?$allocator@U?$pair@$$CBV?$basic_string@DU?$char_traits@D@std@@V?$allocator@D@2@@std@@PAVWSignalInstance_@@@std@@@2@$0A@@std@@@std@@QAE?AViterator@12@V312@ABU?$pair@$$CBV?$basic_string@DU?$char_traits@D@std@@V?$allocator@D@2@@std@@PAVWSignalInstance_@@@2@@Z 00408e80 f i refreshformwt.obj
 0001:00008040       ??0WSignalInstance_@@QAE@ABV0@@Z 00409040 f i refreshformwt.obj
 0001:000080c0       ??0WSlotInstance_@@QAE@ABV0@@Z 004090c0 f i refreshformwt.obj
 0001:00008130       ??A?$map@V?$basic_string@DU?$char_traits@D@std@@V?$allocator@D@2@@std@@PAVWSignalInstance_@@U?$less@V?$basic_string@DU?$char_traits@D@std@@V?$allocator@D@2@@std@@@2@V?$allocator@U?$pair@$$CBV?$basic_string@DU?$char_traits@D@std@@V?$allocator@D@2@@std@@PAVWSignalInstance_@@@std@@@2@@std@@QAEAAPAVWSignalInstance_@@ABV?$basic_string@DU?$char_traits@D@std@@V?$allocator@D@2@@1@@Z 00409130 f i refreshformwt.obj
 0001:000081d0       ?buildSignalMap@SVRefresh@@MAEXAAV?$map@V?$basic_string@DU?$char_traits@D@std@@V?$allocator@D@2@@std@@PAVWSignalInstance_@@U?$less@V?$basic_string@DU?$char_traits@D@std@@V?$allocator@D@2@@std@@@2@V?$allocator@U?$pair@$$CBV?$basic_string@DU?$char_traits@D@std@@V?$allocator@D@2@@std@@PAVWSignalInstance_@@@std@@@2@@std@@@Z 004091d0 f   refreshformwt.obj
 0001:00008290       ?setEnabled@WSPopButton@@QAEX_N@Z 00409290 f   WSPopButton.obj
 0001:000082d0       ??1WSPopButton@@UAE@XZ     004092d0 f   WSPopButton.obj
 0001:000082e0       ??0WSPopButton@@QAE@PAVWContainerWidget@@V?$basic_string@DU?$char_traits@D@std@@V?$allocator@D@2@@std@@11_N@Z 004092e0 f   WSPopButton.obj
 0001:00008a10       ??_EWSPopButton@@UAEPAXI@Z 00409a10 f i WSPopButton.obj
 0001:00008a10       ??_GWSPopButton@@UAEPAXI@Z 00409a10 f i WSPopButton.obj
 0001:00008a30       ?ShowTop@WSPopTable@@AAEXPAVWTable@@@Z 00409a30 f   WSPopTable.obj
 0001:00008b70       ?ShowBottom@WSPopTable@@AAEXPAVWTable@@@Z 00409b70 f   WSPopTable.obj
 0001:00008cb0       ?_Xlen@?$vector@PAVWTable@@V?$allocator@PAVWTable@@@std@@@std@@IBEXXZ 00409cb0 f i WSPopTable.obj
 0001:00008d30       ?_Ufill@?$vector@PAVWScrollBar@@V?$allocator@PAVWScrollBar@@@std@@@std@@IAEPAPAVWScrollBar@@PAPAV3@IABQAV3@@Z 00409d30 f i libwt:WScrollBar.obj
 0001:00008d30       ?_Ufill@?$vector@PAVDomElement@@V?$allocator@PAVDomElement@@@std@@@std@@IAEPAPAVDomElement@@PAPAV3@IABQAV3@@Z 00409d30 f i libwt:WWebWidget.obj
 0001:00008d30       ?_Ufill@?$vector@PAVWWidget@@V?$allocator@PAVWWidget@@@std@@@std@@IAEPAPAVWWidget@@PAPAV3@IABQAV3@@Z 00409d30 f i libwt:WWebWidget.obj
 0001:00008d30       ?_Ufill@?$vector@PAVWMessageResources@@V?$allocator@PAVWMessageResources@@@std@@@std@@IAEPAPAVWMessageResources@@PAPAV3@IABQAV3@@Z 00409d30 f i libwt:WMessageResourceBundle.obj
 0001:00008d30       ?_Ufill@?$vector@PAVWObject@@V?$allocator@PAVWObject@@@std@@@std@@IAEPAPAVWObject@@PAPAV3@IABQAV3@@Z 00409d30 f i libwt:WWebWidget.obj
 0001:00008d30       ?_Ufill@?$vector@PAVWTableRow@@V?$allocator@PAVWTableRow@@@std@@@std@@IAEPAPAVWTableRow@@PAPAV3@IABQAV3@@Z 00409d30 f i libwt:WTable.obj
 0001:00008d30       ?_Ufill@?$vector@PAVWTable@@V?$allocator@PAVWTable@@@std@@@std@@IAEPAPAVWTable@@PAPAV3@IABQAV3@@Z 00409d30 f i WSPopTable.obj
 0001:00008d30       ?_Ufill@?$vector@PAVWConnection_@@V?$allocator@PAVWConnection_@@@std@@@std@@IAEPAPAVWConnection_@@PAPAV3@IABQAV3@@Z 00409d30 f i libwt:WSlotInstance_.obj
 0001:00008d60       ?_Insert_n@?$vector@PAVWTable@@V?$allocator@PAVWTable@@@std@@@std@@IAEXViterator@12@IABQAVWTable@@@Z 00409d60 f i WSPopTable.obj
 0001:00008f50       ?GeRowContentTable@WSPopTable@@QAEPAVWTable@@H@Z 00409f50 f   WSPopTable.obj
 0001:00008f80       ?GeRowActionTable@WSPopTable@@QAEPAVWTable@@H@Z 00409f80 f   WSPopTable.obj
 0001:00008fb0       ??0WSPopTable@@QAE@PAVWContainerWidget@@_N@Z 00409fb0 f   WSPopTable.obj
 0001:000091b0       ??_EWSPopTable@@UAEPAXI@Z  0040a1b0 f i WSPopTable.obj
 0001:000091b0       ??_GWSPopTable@@UAEPAXI@Z  0040a1b0 f i WSPopTable.obj
 0001:000091d0       ??1WSPopTable@@UAE@XZ      0040a1d0 f i WSPopTable.obj
 0001:00009230       ?AppendRows@WSPopTable@@QAEXV?$basic_string@DU?$char_traits@D@std@@V?$allocator@D@2@@std@@@Z 0040a230 f   WSPopTable.obj
 0001:00009960       ?buildSlotMap@WSPopTable@@MAEXAAV?$map@V?$basic_string@DU?$char_traits@D@std@@V?$allocator@D@2@@std@@PAVWSlotInstance_@@U?$less@V?$basic_string@DU?$char_traits@D@std@@V?$allocator@D@2@@std@@@2@V?$allocator@U?$pair@$$CBV?$basic_string@DU?$char_traits@D@std@@V?$allocator@D@2@@std@@PAVWSlotInstance_@@@std@@@2@@std@@@Z 0040a960 f   WSPopTableWt.obj
 0001:00009a50       ?triggerSlot@WSPopTable@@MAE_NPAVWObject@@PBVWSlot_@@PAPAX@Z 0040aa50 f   WSPopTableWt.obj
 0001:00009a80       ?buildSignalMap@WSPopTable@@MAEXAAV?$map@V?$basic_string@DU?$char_traits@D@std@@V?$allocator@D@2@@std@@PAVWSignalInstance_@@U?$less@V?$basic_string@DU?$char_traits@D@std@@V?$allocator@D@2@@std@@@2@V?$allocator@U?$pair@$$CBV?$basic_string@DU?$char_traits@D@std@@V?$allocator@D@2@@std@@PAVWSignalInstance_@@@std@@@2@@std@@@Z 0040aa80 f   WSPopTableWt.obj
 0001:00009b40       ??0WCssRule@@QAE@V?$basic_string@DU?$char_traits@D@std@@V?$allocator@D@2@@std@@@Z 0040ab40 f   libwt:WCssStyleSheet.obj
 0001:00009ba0       ??1WCssRule@@UAE@XZ        0040aba0 f   libwt:WCssStyleSheet.obj
 0001:00009bb0       ?cssText@WCssStyleSheet@@QBE?AV?$basic_string@DU?$char_traits@D@std@@V?$allocator@D@2@@std@@XZ 0040abb0 f   libwt:WCssStyleSheet.obj
 0001:00009d40       ??1?$map@V?$basic_string@DU?$char_traits@D@std@@V?$allocator@D@2@@std@@PAVWCssRule@@U?$less@V?$basic_string@DU?$char_traits@D@std@@V?$allocator@D@2@@std@@@2@V?$allocator@U?$pair@$$CBV?$basic_string@DU?$char_traits@D@std@@V?$allocator@D@2@@std@@PAVWCssRule@@@std@@@2@@std@@QAE@XZ 0040ad40 f i libwt:WCssStyleSheet.obj
 0001:00009d70       ??1WCssStyleSheet@@QAE@XZ  0040ad70 f   libwt:WCssStyleSheet.obj
 0001:00009e30       ??0WCssStyleSheet@@QAE@XZ  0040ae30 f   libwt:WCssStyleSheet.obj
 0001:00009e60       ?what@bad_lexical_cast@boost@@UBEPBDXZ 0040ae60 f i libwt:WWebWidget.obj
 0001:00009e70       ??1bad_lexical_cast@boost@@UAE@XZ 0040ae70 f i libwt:WWebWidget.obj
 0001:00009e80       ??_Gbad_lexical_cast@boost@@UAEPAXI@Z 0040ae80 f i libwt:WWebWidget.obj
 0001:00009e80       ??_Ebad_lexical_cast@boost@@UAEPAXI@Z 0040ae80 f i libwt:WWebWidget.obj
 0001:00009ea0       ?id@DomElement@@QBE?AV?$basic_string@DU?$char_traits@D@std@@V?$allocator@D@2@@std@@XZ 0040aea0 f i libwt:WWebWidget.obj
 0001:00009ea0       ?staticCode@WSlotInstance_@@QBE?BV?$basic_string@DU?$char_traits@D@std@@V?$allocator@D@2@@std@@XZ 0040aea0 f i refreshformwt.obj
 0001:00009ea0       ?getStaticCode@WSlotInstance_@@QAE?AV?$basic_string@DU?$char_traits@D@std@@V?$allocator@D@2@@std@@XZ 0040aea0 f i refreshformwt.obj
 0001:00009ea0       ?statements@JavaScript@@QBE?BV?$basic_string@DU?$char_traits@D@std@@V?$allocator@D@2@@std@@XZ 0040aea0 f i libwt:WWebWidget.obj
 0001:00009ed0       ??1?$pair@V?$basic_string@DU?$char_traits@D@std@@V?$allocator@D@2@@std@@V12@@std@@QAE@XZ 0040aed0 f i libwt:WWebWidget.obj
 0001:00009ed0       ??1JavaScript@@QAE@XZ      0040aed0 f i libwt:WWebWidget.obj
 0001:00009ed0       ??1?$pair@$$CBV?$basic_string@DU?$char_traits@D@std@@V?$allocator@D@2@@std@@V12@@std@@QAE@XZ 0040aed0 f i libwt:WWebWidget.obj
 0001:00009f20       ??0?$pair@$$CBV?$basic_string@DU?$char_traits@D@std@@V?$allocator@D@2@@std@@V12@@std@@QAE@ABU01@@Z 0040af20 f i libwt:WWebWidget.obj
 0001:00009f20       ??0JavaScript@@QAE@ABV0@@Z 0040af20 f i libwt:WWebWidget.obj
 0001:00009f20       ??0?$pair@V?$basic_string@DU?$char_traits@D@std@@V?$allocator@D@2@@std@@V12@@std@@QAE@ABU01@@Z 0040af20 f i libwt:WWebWidget.obj
 0001:00009f80       ??4JavaScript@@QAEAAV0@ABV0@@Z 0040af80 f i libwt:WWebWidget.obj
 0001:00009fb0       ?triggerSlot@WWebWidget@@MAE_NPAVWObject@@PBVWSlot_@@PAPAX@Z 0040afb0 f   libwt:WWebWidget.obj
 0001:00009fc0       ?undoTriggerSlot@WWebWidget@@MAE_NPBVWSlot_@@PAPAX@Z 0040afc0 f   libwt:WWebWidget.obj
 0001:00009fd0       ?setFormObject@WWebWidget@@IAEX_N@Z 0040afd0 f   libwt:WWebWidget.obj
 0001:00009fe0       ?repaint@WWebWidget@@IAEXXZ 0040afe0 f   libwt:WWebWidget.obj
 0001:00009fe0       ?signalConnectionsChanged@WWebWidget@@EAEXXZ 0040afe0 f   libwt:WWebWidget.obj
 0001:00009ff0       ?renderOk@WWebWidget@@IAEXXZ 0040aff0 f   libwt:WWebWidget.obj
 0001:0000a000       ?setParent@WWebWidget@@MAEXPAVWWidget@@@Z 0040b000 f   libwt:WWebWidget.obj
 0001:0000a030       ?parent@WWebWidget@@UBEPAVWWidget@@XZ 0040b030 f   libwt:WWebWidget.obj
 0001:0000a040       ?setPositionScheme@WWebWidget@@UAEXW4PositionScheme@WWidget@@@Z 0040b040 f   libwt:WWebWidget.obj
 0001:0000a070       ?resize@WWebWidget@@UAEXVWLength@@0@Z 0040b070 f   libwt:WWebWidget.obj
 0001:0000a0c0       ?setMinimumSize@WWebWidget@@UAEXVWLength@@0@Z 0040b0c0 f   libwt:WWebWidget.obj
 0001:0000a120       ?setMaximumSize@WWebWidget@@UAEXVWLength@@0@Z 0040b120 f   libwt:WWebWidget.obj
 0001:0000a180       ?setFloatSide@WWebWidget@@UAEXW4Side@WWidget@@@Z 0040b180 f   libwt:WWebWidget.obj
 0001:0000a1a0       ?setClearSides@WWebWidget@@UAEXH@Z 0040b1a0 f   libwt:WWebWidget.obj
 0001:0000a1c0       ?clearSides@WWebWidget@@UBEHXZ 0040b1c0 f   libwt:WWebWidget.obj
 0001:0000a1d0       ?setVerticalAlignment@WWebWidget@@UAEXW4VerticalAlignment@WWidget@@VWLength@@@Z 0040b1d0 f   libwt:WWebWidget.obj
 0001:0000a210       ?setOffset@WWebWidget@@UAEXW4Side@WWidget@@VWLength@@@Z 0040b210 f   libwt:WWebWidget.obj
 0001:0000a290       ?offset@WWebWidget@@UBE?AVWLength@@W4Side@WWidget@@@Z 0040b290 f   libwt:WWebWidget.obj
 0001:0000a340       ?zIndex@WWebWidget@@ABEHXZ 0040b340 f   libwt:WWebWidget.obj
 0001:0000a380       ?setInline@WWebWidget@@UAEX_N@Z 0040b380 f   libwt:WWebWidget.obj
 0001:0000a3a0       ?setPopup@WWebWidget@@UAEX_N@Z 0040b3a0 f   libwt:WWebWidget.obj
 0001:0000a3c0       ?setMargin@WWebWidget@@UAEXVWLength@@H@Z 0040b3c0 f   libwt:WWebWidget.obj
 0001:0000a450       ?margin@WWebWidget@@UBE?AVWLength@@W4Side@WWidget@@@Z 0040b450 f   libwt:WWebWidget.obj
 0001:0000a500       ?setStyleClass@WWebWidget@@UAEXV?$basic_string@DU?$char_traits@D@std@@V?$allocator@D@2@@std@@@Z 0040b500 f   libwt:WWebWidget.obj
 0001:0000a570       ?setToolTip@WWebWidget@@UAEXV?$basic_string@DU?$char_traits@D@std@@V?$allocator@D@2@@std@@@Z 0040b570 f   libwt:WWebWidget.obj
 0001:0000a610       ?setToolTipMessage@WWebWidget@@UAEXABVWMessage@@@Z 0040b610 f   libwt:WWebWidget.obj
 0001:0000a650       ?setHidden@WWebWidget@@UAEX_N@Z 0040b650 f   libwt:WWebWidget.obj
 0001:0000a670       ?hide@WWebWidget@@UAEXXZ   0040b670 f   libwt:WWebWidget.obj
 0001:0000a690       ?show@WWebWidget@@UAEXXZ   0040b690 f   libwt:WWebWidget.obj
 0001:0000a6b0       ?undoHide@WWebWidget@@EAEXXZ 0040b6b0 f   libwt:WWebWidget.obj
 0001:0000a6c0       ?undoShow@WWebWidget@@EAEXXZ 0040b6c0 f   libwt:WWebWidget.obj
 0001:0000a6d0       ?isLoaded@WWebWidget@@IBE_NXZ 0040b6d0 f   libwt:WWebWidget.obj
 0001:0000a710       ?getSFormObjects@WWebWidget@@AAEXAAV?$vector@PAVWObject@@V?$allocator@PAVWObject@@@std@@@std@@@Z 0040b710 f   libwt:WWebWidget.obj
 0001:0000a730       ?createSDomElement@WWebWidget@@AAEPAVDomElement@@XZ 0040b730 f   libwt:WWebWidget.obj
 0001:0000a7b0       ?getEncodeCmd@WWebWidget@@QAE?AV?$basic_string@DU?$char_traits@D@std@@V?$allocator@D@2@@std@@PBD@Z 0040b7b0 f   libwt:WWebWidget.obj
 0001:0000a810       ?updateSignalConnection@WWebWidget@@IAEXAAVDomElement@@PBDV?$basic_string@DU?$char_traits@D@std@@V?$allocator@D@2@@std@@1_N1@Z 0040b810 f   libwt:WWebWidget.obj
 0001:0000a8f0       ?setNoFormData@WWebWidget@@EAEXXZ 0040b8f0 f   libwt:WWebWidget.obj
 0001:0000a910       ?_Max@?$_Tree@V?$_Tmap_traits@V?$basic_string@DU?$char_traits@D@std@@V?$allocator@D@2@@std@@V12@U?$less@V?$basic_string@DU?$char_traits@D@std@@V?$allocator@D@2@@std@@@2@V?$allocator@U?$pair@$$CBV?$basic_string@DU?$char_traits@D@std@@V?$allocator@D@2@@std@@V12@@std@@@2@$0A@@std@@@std@@KAPAU_Node@?$_Tree_nod@V?$_Tmap_traits@V?$basic_string@DU?$char_traits@D@std@@V?$allocator@D@2@@std@@V12@U?$less@V?$basic_string@DU?$char_traits@D@std@@V?$allocator@D@2@@std@@@2@V?$allocator@U?$pair@$$CBV?$basic_string@DU?$char_traits@D@std@@V?$allocator@D@2@@std@@V12@@std@@@2@$0A@@std@@@2@PAU342@@Z 0040b910 f i libwt:WWebWidget.obj
 0001:0000a930       ?_Min@?$_Tree@V?$_Tmap_traits@V?$basic_string@DU?$char_traits@D@std@@V?$allocator@D@2@@std@@V12@U?$less@V?$basic_string@DU?$char_traits@D@std@@V?$allocator@D@2@@std@@@2@V?$allocator@U?$pair@$$CBV?$basic_string@DU?$char_traits@D@std@@V?$allocator@D@2@@std@@V12@@std@@@2@$0A@@std@@@std@@KAPAU_Node@?$_Tree_nod@V?$_Tmap_traits@V?$basic_string@DU?$char_traits@D@std@@V?$allocator@D@2@@std@@V12@U?$less@V?$basic_string@DU?$char_traits@D@std@@V?$allocator@D@2@@std@@@2@V?$allocator@U?$pair@$$CBV?$basic_string@DU?$char_traits@D@std@@V?$allocator@D@2@@std@@V12@@std@@@2@$0A@@std@@@2@PAU342@@Z 0040b930 f i libwt:WWebWidget.obj
 0001:0000a950       ?_Max@?$_Tree@V?$_Tmap_traits@V?$basic_string@DU?$char_traits@D@std@@V?$allocator@D@2@@std@@U?$pair@V?$basic_string@DU?$char_traits@D@std@@V?$allocator@D@2@@std@@V12@@2@U?$less@V?$basic_string@DU?$char_traits@D@std@@V?$allocator@D@2@@std@@@2@V?$allocator@U?$pair@$$CBV?$basic_string@DU?$char_traits@D@std@@V?$allocator@D@2@@std@@U?$pair@V?$basic_string@DU?$char_traits@D@std@@V?$allocator@D@2@@std@@V12@@2@@std@@@2@$0A@@std@@@std@@KAPAU_Node@?$_Tree_nod@V?$_Tmap_traits@V?$basic_string@DU?$char_traits@D@std@@V?$allocator@D@2@@std@@U?$pair@V?$basic_string@DU?$char_traits@D@std@@V?$allocator@D@2@@std@@V12@@2@U?$less@V?$basic_string@DU?$char_traits@D@std@@V?$allocator@D@2@@std@@@2@V?$allocator@U?$pair@$$CBV?$basic_string@DU?$char_traits@D@std@@V?$allocator@D@2@@std@@U?$pair@V?$basic_string@DU?$char_traits@D@std@@V?$allocator@D@2@@std@@V12@@2@@std@@@2@$0A@@std@@@2@PAU342@@Z 0040b950 f i libwt:WWebWidget.obj
 0001:0000a970       ?_Min@?$_Tree@V?$_Tmap_traits@V?$basic_string@DU?$char_traits@D@std@@V?$allocator@D@2@@std@@U?$pair@V?$basic_string@DU?$char_traits@D@std@@V?$allocator@D@2@@std@@V12@@2@U?$less@V?$basic_string@DU?$char_traits@D@std@@V?$allocator@D@2@@std@@@2@V?$allocator@U?$pair@$$CBV?$basic_string@DU?$char_traits@D@std@@V?$allocator@D@2@@std@@U?$pair@V?$basic_string@DU?$char_traits@D@std@@V?$allocator@D@2@@std@@V12@@2@@std@@@2@$0A@@std@@@std@@KAPAU_Node@?$_Tree_nod@V?$_Tmap_traits@V?$basic_string@DU?$char_traits@D@std@@V?$allocator@D@2@@std@@U?$pair@V?$basic_string@DU?$char_traits@D@std@@V?$allocator@D@2@@std@@V12@@2@U?$less@V?$basic_string@DU?$char_traits@D@std@@V?$allocator@D@2@@std@@@2@V?$allocator@U?$pair@$$CBV?$basic_string@DU?$char_traits@D@std@@V?$allocator@D@2@@std@@U?$pair@V?$basic_string@DU?$char_traits@D@std@@V?$allocator@D@2@@std@@V12@@2@@std@@@2@$0A@@std@@@2@PAU342@@Z 0040b970 f i libwt:WWebWidget.obj
 0001:0000a990       ?_Xlen@?$vector@U?$pair@V?$basic_string@DU?$char_traits@D@std@@V?$allocator@D@2@@std@@PAVDomElement@@@std@@V?$allocator@U?$pair@V?$basic_string@DU?$char_traits@D@std@@V?$allocator@D@2@@std@@PAVDomElement@@@std@@@2@@std@@IBEXXZ 0040b990 f i libwt:WWebWidget.obj
 0001:0000aa10       ?_Lrotate@?$_Tree@V?$_Tmap_traits@V?$basic_string@DU?$char_traits@D@std@@V?$allocator@D@2@@std@@V12@U?$less@V?$basic_string@DU?$char_traits@D@std@@V?$allocator@D@2@@std@@@2@V?$allocator@U?$pair@$$CBV?$basic_string@DU?$char_traits@D@std@@V?$allocator@D@2@@std@@V12@@std@@@2@$0A@@std@@@std@@IAEXPAU_Node@?$_Tree_nod@V?$_Tmap_traits@V?$basic_string@DU?$char_traits@D@std@@V?$allocator@D@2@@std@@V12@U?$less@V?$basic_string@DU?$char_traits@D@std@@V?$allocator@D@2@@std@@@2@V?$allocator@U?$pair@$$CBV?$basic_string@DU?$char_traits@D@std@@V?$allocator@D@2@@std@@V12@@std@@@2@$0A@@std@@@2@@Z 0040ba10 f i libwt:WWebWidget.obj
 0001:0000aa70       ?_Rrotate@?$_Tree@V?$_Tmap_traits@V?$basic_string@DU?$char_traits@D@std@@V?$allocator@D@2@@std@@V12@U?$less@V?$basic_string@DU?$char_traits@D@std@@V?$allocator@D@2@@std@@@2@V?$allocator@U?$pair@$$CBV?$basic_string@DU?$char_traits@D@std@@V?$allocator@D@2@@std@@V12@@std@@@2@$0A@@std@@@std@@IAEXPAU_Node@?$_Tree_nod@V?$_Tmap_traits@V?$basic_string@DU?$char_traits@D@std@@V?$allocator@D@2@@std@@V12@U?$less@V?$basic_string@DU?$char_traits@D@std@@V?$allocator@D@2@@std@@@2@V?$allocator@U?$pair@$$CBV?$basic_string@DU?$char_traits@D@std@@V?$allocator@D@2@@std@@V12@@std@@@2@$0A@@std@@@2@@Z 0040ba70 f i libwt:WWebWidget.obj
 0001:0000aad0       ?_Rrotate@?$_Tree@V?$_Tmap_traits@V?$basic_string@DU?$char_traits@D@std@@V?$allocator@D@2@@std@@PAVWSignalInstance_@@U?$less@V?$basic_string@DU?$char_traits@D@std@@V?$allocator@D@2@@std@@@2@V?$allocator@U?$pair@$$CBV?$basic_string@DU?$char_traits@D@std@@V?$allocator@D@2@@std@@PAVWSignalInstance_@@@std@@@2@$0A@@std@@@std@@IAEXPAU_Node@?$_Tree_nod@V?$_Tmap_traits@V?$basic_string@DU?$char_traits@D@std@@V?$allocator@D@2@@std@@PAVWSignalInstance_@@U?$less@V?$basic_string@DU?$char_traits@D@std@@V?$allocator@D@2@@std@@@2@V?$allocator@U?$pair@$$CBV?$basic_string@DU?$char_traits@D@std@@V?$allocator@D@2@@std@@PAVWSignalInstance_@@@std@@@2@$0A@@std@@@2@@Z 0040bad0 f i refreshformwt.obj
 0001:0000aad0       ?_Rrotate@?$_Tree@V?$_Tmap_traits@V?$basic_string@DU?$char_traits@D@std@@V?$allocator@D@2@@std@@PAVWSlotInstance_@@U?$less@V?$basic_string@DU?$char_traits@D@std@@V?$allocator@D@2@@std@@@2@V?$allocator@U?$pair@$$CBV?$basic_string@DU?$char_traits@D@std@@V?$allocator@D@2@@std@@PAVWSlotInstance_@@@std@@@2@$0A@@std@@@std@@IAEXPAU_Node@?$_Tree_nod@V?$_Tmap_traits@V?$basic_string@DU?$char_traits@D@std@@V?$allocator@D@2@@std@@PAVWSlotInstance_@@U?$less@V?$basic_string@DU?$char_traits@D@std@@V?$allocator@D@2@@std@@@2@V?$allocator@U?$pair@$$CBV?$basic_string@DU?$char_traits@D@std@@V?$allocator@D@2@@std@@PAVWSlotInstance_@@@std@@@2@$0A@@std@@@2@@Z 0040bad0 f i libwt:WWebWidget.obj
 0001:0000aad0       ?_Rrotate@?$_Tree@V?$_Tmap_traits@W4Property@Wt@@V?$basic_string@DU?$char_traits@D@std@@V?$allocator@D@2@@std@@U?$less@W4Property@Wt@@@4@V?$allocator@U?$pair@$$CBW4Property@Wt@@V?$basic_string@DU?$char_traits@D@std@@V?$allocator@D@2@@std@@@std@@@4@$0A@@std@@@std@@IAEXPAU_Node@?$_Tree_nod@V?$_Tmap_traits@W4Property@Wt@@V?$basic_string@DU?$char_traits@D@std@@V?$allocator@D@2@@std@@U?$less@W4Property@Wt@@@4@V?$allocator@U?$pair@$$CBW4Property@Wt@@V?$basic_string@DU?$char_traits@D@std@@V?$allocator@D@2@@std@@@std@@@4@$0A@@std@@@2@@Z 0040bad0 f i libwt:WWebWidget.obj
 0001:0000aad0       ?_Rrotate@?$_Tree@V?$_Tmap_traits@V?$basic_string@DU?$char_traits@D@std@@V?$allocator@D@2@@std@@PAVWCssRule@@U?$less@V?$basic_string@DU?$char_traits@D@std@@V?$allocator@D@2@@std@@@2@V?$allocator@U?$pair@$$CBV?$basic_string@DU?$char_traits@D@std@@V?$allocator@D@2@@std@@PAVWCssRule@@@std@@@2@$0A@@std@@@std@@IAEXPAU_Node@?$_Tree_nod@V?$_Tmap_traits@V?$basic_string@DU?$char_traits@D@std@@V?$allocator@D@2@@std@@PAVWCssRule@@U?$less@V?$basic_string@DU?$char_traits@D@std@@V?$allocator@D@2@@std@@@2@V?$allocator@U?$pair@$$CBV?$basic_string@DU?$char_traits@D@std@@V?$allocator@D@2@@std@@PAVWCssRule@@@std@@@2@$0A@@std@@@2@@Z 0040bad0 f i refresh.obj
 0001:0000ab30       ?_Lrotate@?$_Tree@V?$_Tmap_traits@V?$basic_string@DU?$char_traits@D@std@@V?$allocator@D@2@@std@@U?$pair@V?$basic_string@DU?$char_traits@D@std@@V?$allocator@D@2@@std@@V12@@2@U?$less@V?$basic_string@DU?$char_traits@D@std@@V?$allocator@D@2@@std@@@2@V?$allocator@U?$pair@$$CBV?$basic_string@DU?$char_traits@D@std@@V?$allocator@D@2@@std@@U?$pair@V?$basic_string@DU?$char_traits@D@std@@V?$allocator@D@2@@std@@V12@@2@@std@@@2@$0A@@std@@@std@@IAEXPAU_Node@?$_Tree_nod@V?$_Tmap_traits@V?$basic_string@DU?$char_traits@D@std@@V?$allocator@D@2@@std@@U?$pair@V?$basic_string@DU?$char_traits@D@std@@V?$allocator@D@2@@std@@V12@@2@U?$less@V?$basic_string@DU?$char_traits@D@std@@V?$allocator@D@2@@std@@@2@V?$allocator@U?$pair@$$CBV?$basic_string@DU?$char_traits@D@std@@V?$allocator@D@2@@std@@U?$pair@V?$basic_string@DU?$char_traits@D@std@@V?$allocator@D@2@@std@@V12@@2@@std@@@2@$0A@@std@@@2@@Z 0040bb30 f i libwt:WWebWidget.obj
 0001:0000ab90       ?_Rrotate@?$_Tree@V?$_Tmap_traits@V?$basic_string@DU?$char_traits@D@std@@V?$allocator@D@2@@std@@U?$pair@V?$basic_string@DU?$char_traits@D@std@@V?$allocator@D@2@@std@@V12@@2@U?$less@V?$basic_string@DU?$char_traits@D@std@@V?$allocator@D@2@@std@@@2@V?$allocator@U?$pair@$$CBV?$basic_string@DU?$char_traits@D@std@@V?$allocator@D@2@@std@@U?$pair@V?$basic_string@DU?$char_traits@D@std@@V?$allocator@D@2@@std@@V12@@2@@std@@@2@$0A@@std@@@std@@IAEXPAU_Node@?$_Tree_nod@V?$_Tmap_traits@V?$basic_string@DU?$char_traits@D@std@@V?$allocator@D@2@@std@@U?$pair@V?$basic_string@DU?$char_traits@D@std@@V?$allocator@D@2@@std@@V12@@2@U?$less@V?$basic_string@DU?$char_traits@D@std@@V?$allocator@D@2@@std@@@2@V?$allocator@U?$pair@$$CBV?$basic_string@DU?$char_traits@D@std@@V?$allocator@D@2@@std@@U?$pair@V?$basic_string@DU?$char_traits@D@std@@V?$allocator@D@2@@std@@V12@@2@@std@@@2@$0A@@std@@@2@@Z 0040bb90 f i libwt:WWebWidget.obj
 0001:0000abf0       ??1?$pair@$$CBW4Property@Wt@@V?$basic_string@DU?$char_traits@D@std@@V?$allocator@D@2@@std@@@std@@QAE@XZ 0040bbf0 f i libwt:WWebWidget.obj
 0001:0000ac00       ?_Inc@const_iterator@?$_Tree@V?$_Tmap_traits@V?$basic_string@DU?$char_traits@D@std@@V?$allocator@D@2@@std@@V12@U?$less@V?$basic_string@DU?$char_traits@D@std@@V?$allocator@D@2@@std@@@2@V?$allocator@U?$pair@$$CBV?$basic_string@DU?$char_traits@D@std@@V?$allocator@D@2@@std@@V12@@std@@@2@$0A@@std@@@std@@QAEXXZ 0040bc00 f i libwt:WWebWidget.obj
 0001:0000ac60       ?_Inc@const_iterator@?$_Tree@V?$_Tmap_traits@V?$basic_string@DU?$char_traits@D@std@@V?$allocator@D@2@@std@@PAVWSignalInstance_@@U?$less@V?$basic_string@DU?$char_traits@D@std@@V?$allocator@D@2@@std@@@2@V?$allocator@U?$pair@$$CBV?$basic_string@DU?$char_traits@D@std@@V?$allocator@D@2@@std@@PAVWSignalInstance_@@@std@@@2@$0A@@std@@@std@@QAEXXZ 0040bc60 f i refreshformwt.obj
 0001:0000ac60       ?_Inc@const_iterator@?$_Tree@V?$_Tmap_traits@W4Property@Wt@@V?$basic_string@DU?$char_traits@D@std@@V?$allocator@D@2@@std@@U?$less@W4Property@Wt@@@4@V?$allocator@U?$pair@$$CBW4Property@Wt@@V?$basic_string@DU?$char_traits@D@std@@V?$allocator@D@2@@std@@@std@@@4@$0A@@std@@@std@@QAEXXZ 0040bc60 f i libwt:WWebWidget.obj
 0001:0000ac60       ?_Inc@const_iterator@?$_Tree@V?$_Tmap_traits@V?$basic_string@DU?$char_traits@D@std@@V?$allocator@D@2@@std@@PAVWSlotInstance_@@U?$less@V?$basic_string@DU?$char_traits@D@std@@V?$allocator@D@2@@std@@@2@V?$allocator@U?$pair@$$CBV?$basic_string@DU?$char_traits@D@std@@V?$allocator@D@2@@std@@PAVWSlotInstance_@@@std@@@2@$0A@@std@@@std@@QAEXXZ 0040bc60 f i libwt:WWebWidget.obj
 0001:0000ac60       ?_Inc@const_iterator@?$_Tree@V?$_Tmap_traits@V?$basic_string@DU?$char_traits@D@std@@V?$allocator@D@2@@std@@PAVWCssRule@@U?$less@V?$basic_string@DU?$char_traits@D@std@@V?$allocator@D@2@@std@@@2@V?$allocator@U?$pair@$$CBV?$basic_string@DU?$char_traits@D@std@@V?$allocator@D@2@@std@@PAVWCssRule@@@std@@@2@$0A@@std@@@std@@QAEXXZ 0040bc60 f i refresh.obj
 0001:0000acc0       ?_Inc@const_iterator@?$_Tree@V?$_Tmap_traits@V?$basic_string@DU?$char_traits@D@std@@V?$allocator@D@2@@std@@U?$pair@V?$basic_string@DU?$char_traits@D@std@@V?$allocator@D@2@@std@@V12@@2@U?$less@V?$basic_string@DU?$char_traits@D@std@@V?$allocator@D@2@@std@@@2@V?$allocator@U?$pair@$$CBV?$basic_string@DU?$char_traits@D@std@@V?$allocator@D@2@@std@@U?$pair@V?$basic_string@DU?$char_traits@D@std@@V?$allocator@D@2@@std@@V12@@2@@std@@@2@$0A@@std@@@std@@QAEXXZ 0040bcc0 f i libwt:WWebWidget.obj
 0001:0000ad20       ??1_Node@?$_Tree_nod@V?$_Tmap_traits@V?$basic_string@DU?$char_traits@D@std@@V?$allocator@D@2@@std@@V12@U?$less@V?$basic_string@DU?$char_traits@D@std@@V?$allocator@D@2@@std@@@2@V?$allocator@U?$pair@$$CBV?$basic_string@DU?$char_traits@D@std@@V?$allocator@D@2@@std@@V12@@std@@@2@$0A@@std@@@std@@QAE@XZ 0040bd20 f i libwt:WWebWidget.obj
 0001:0000ad30       ??1?$lexical_stream@V?$basic_string@DU?$char_traits@D@std@@V?$allocator@D@2@@std@@N@detail@boost@@QAE@XZ 0040bd30 f i libwt:WLength.obj
 0001:0000ad30       ??1?$lexical_stream@V?$basic_string@DU?$char_traits@D@std@@V?$allocator@D@2@@std@@H@detail@boost@@QAE@XZ 0040bd30 f i libwt:WWebWidget.obj
 0001:0000ad40       ??5?$lexical_stream@V?$basic_string@DU?$char_traits@D@std@@V?$allocator@D@2@@std@@H@detail@boost@@QAE_NAAV?$basic_string@DU?$char_traits@D@std@@V?$allocator@D@2@@std@@@Z 0040bd40 f i libwt:WWebWidget.obj
 0001:0000ada0       ??0bad_lexical_cast@boost@@QAE@ABV01@@Z 0040bda0 f i libwt:WWebWidget.obj
 0001:0000add0       ?updateSignalConnection@WWebWidget@@IAEXAAVDomElement@@PBDV?$basic_string@DU?$char_traits@D@std@@V?$allocator@D@2@@std@@_N1@Z 0040bdd0 f   libwt:WWebWidget.obj
 0001:0000ae50       ?_Lbound@?$_Tree@V?$_Tmap_traits@V?$basic_string@DU?$char_traits@D@std@@V?$allocator@D@2@@std@@PAVWSignalInstance_@@U?$less@V?$basic_string@DU?$char_traits@D@std@@V?$allocator@D@2@@std@@@2@V?$allocator@U?$pair@$$CBV?$basic_string@DU?$char_traits@D@std@@V?$allocator@D@2@@std@@PAVWSignalInstance_@@@std@@@2@$0A@@std@@@std@@IBEPAU_Node@?$_Tree_nod@V?$_Tmap_traits@V?$basic_string@DU?$char_traits@D@std@@V?$allocator@D@2@@std@@PAVWSignalInstance_@@U?$less@V?$basic_string@DU?$char_traits@D@std@@V?$allocator@D@2@@std@@@2@V?$allocator@U?$pair@$$CBV?$basic_string@DU?$char_traits@D@std@@V?$allocator@D@2@@std@@PAVWSignalInstance_@@@std@@@2@$0A@@std@@@2@ABV?$basic_string@DU?$char_traits@D@std@@V?$allocator@D@2@@2@@Z 0040be50 f i refreshformwt.obj
 0001:0000ae50       ?_Lbound@?$_Tree@V?$_Tmap_traits@V?$basic_string@DU?$char_traits@D@std@@V?$allocator@D@2@@std@@PAVWSlotInstance_@@U?$less@V?$basic_string@DU?$char_traits@D@std@@V?$allocator@D@2@@std@@@2@V?$allocator@U?$pair@$$CBV?$basic_string@DU?$char_traits@D@std@@V?$allocator@D@2@@std@@PAVWSlotInstance_@@@std@@@2@$0A@@std@@@std@@IBEPAU_Node@?$_Tree_nod@V?$_Tmap_traits@V?$basic_string@DU?$char_traits@D@std@@V?$allocator@D@2@@std@@PAVWSlotInstance_@@U?$less@V?$basic_string@DU?$char_traits@D@std@@V?$allocator@D@2@@std@@@2@V?$allocator@U?$pair@$$CBV?$basic_string@DU?$char_traits@D@std@@V?$allocator@D@2@@std@@PAVWSlotInstance_@@@std@@@2@$0A@@std@@@2@ABV?$basic_string@DU?$char_traits@D@std@@V?$allocator@D@2@@2@@Z 0040be50 f i libwt:WWebWidget.obj
 0001:0000aea0       ?_Dec@const_iterator@?$_Tree@V?$_Tmap_traits@W4Property@Wt@@V?$basic_string@DU?$char_traits@D@std@@V?$allocator@D@2@@std@@U?$less@W4Property@Wt@@@4@V?$allocator@U?$pair@$$CBW4Property@Wt@@V?$basic_string@DU?$char_traits@D@std@@V?$allocator@D@2@@std@@@std@@@4@$0A@@std@@@std@@QAEXXZ 0040bea0 f i libwt:DomElement.obj
 0001:0000aea0       ?_Dec@const_iterator@?$_Tree@V?$_Tmap_traits@V?$basic_string@DU?$char_traits@D@std@@V?$allocator@D@2@@std@@PAVWSignalInstance_@@U?$less@V?$basic_string@DU?$char_traits@D@std@@V?$allocator@D@2@@std@@@2@V?$allocator@U?$pair@$$CBV?$basic_string@DU?$char_traits@D@std@@V?$allocator@D@2@@std@@PAVWSignalInstance_@@@std@@@2@$0A@@std@@@std@@QAEXXZ 0040bea0 f i refreshformwt.obj
 0001:0000aea0       ?_Dec@const_iterator@?$_Tree@V?$_Tmap_traits@V?$basic_string@DU?$char_traits@D@std@@V?$allocator@D@2@@std@@PAVWSlotInstance_@@U?$less@V?$basic_string@DU?$char_traits@D@std@@V?$allocator@D@2@@std@@@2@V?$allocator@U?$pair@$$CBV?$basic_string@DU?$char_traits@D@std@@V?$allocator@D@2@@std@@PAVWSlotInstance_@@@std@@@2@$0A@@std@@@std@@QAEXXZ 0040bea0 f i libwt:WWebWidget.obj
 0001:0000af00       ??0?$pair@$$CBV?$basic_string@DU?$char_traits@D@std@@V?$allocator@D@2@@std@@U?$pair@V?$basic_string@DU?$char_traits@D@std@@V?$allocator@D@2@@std@@V12@@2@@std@@QAE@ABU01@@Z 0040bf00 f i libwt:WWebWidget.obj
 0001:0000af60       ??1?$pair@$$CBV?$basic_string@DU?$char_traits@D@std@@V?$allocator@D@2@@std@@U?$pair@V?$basic_string@DU?$char_traits@D@std@@V?$allocator@D@2@@std@@V12@@2@@std@@QAE@XZ 0040bf60 f i libwt:WWebWidget.obj
 0001:0000afb0       ??1_Node@?$_Tree_nod@V?$_Tmap_traits@V?$basic_string@DU?$char_traits@D@std@@V?$allocator@D@2@@std@@U?$pair@V?$basic_string@DU?$char_traits@D@std@@V?$allocator@D@2@@std@@V12@@2@U?$less@V?$basic_string@DU?$char_traits@D@std@@V?$allocator@D@2@@std@@@2@V?$allocator@U?$pair@$$CBV?$basic_string@DU?$char_traits@D@std@@V?$allocator@D@2@@std@@U?$pair@V?$basic_string@DU?$char_traits@D@std@@V?$allocator@D@2@@std@@V12@@2@@std@@@2@$0A@@std@@@std@@QAE@XZ 0040bfb0 f i libwt:WWebWidget.obj
 0001:0000afc0       ??$throw_exception@Vbad_lexical_cast@boost@@@boost@@YAXABVbad_lexical_cast@0@@Z 0040bfc0 f i libwt:WWebWidget.obj
 0001:0000aff0       ??$_Copy_opt@PAU?$pair@V?$basic_string@DU?$char_traits@D@std@@V?$allocator@D@2@@std@@PAVDomElement@@@std@@PAU12@@std@@YAPAU?$pair@V?$basic_string@DU?$char_traits@D@std@@V?$allocator@D@2@@std@@PAVDomElement@@@0@PAU10@00U_Nonscalar_ptr_iterator_tag@0@@Z 0040bff0 f i libwt:WWebWidget.obj
 0001:0000b030       ?_Buy@?$vector@U?$pair@V?$basic_string@DU?$char_traits@D@std@@V?$allocator@D@2@@std@@PAVDomElement@@@std@@V?$allocator@U?$pair@V?$basic_string@DU?$char_traits@D@std@@V?$allocator@D@2@@std@@PAVDomElement@@@std@@@2@@std@@IAE_NI@Z 0040c030 f i libwt:WWebWidget.obj
 0001:0000b080       ?_Buynode@?$_Tree@V?$_Tmap_traits@V?$basic_string@DU?$char_traits@D@std@@V?$allocator@D@2@@std@@V12@U?$less@V?$basic_string@DU?$char_traits@D@std@@V?$allocator@D@2@@std@@@2@V?$allocator@U?$pair@$$CBV?$basic_string@DU?$char_traits@D@std@@V?$allocator@D@2@@std@@V12@@std@@@2@$0A@@std@@@std@@IAEPAU_Node@?$_Tree_nod@V?$_Tmap_traits@V?$basic_string@DU?$char_traits@D@std@@V?$allocator@D@2@@std@@V12@U?$less@V?$basic_string@DU?$char_traits@D@std@@V?$allocator@D@2@@std@@@2@V?$allocator@U?$pair@$$CBV?$basic_string@DU?$char_traits@D@std@@V?$allocator@D@2@@std@@V12@@std@@@2@$0A@@std@@@2@XZ 0040c080 f i libwt:WWebWidget.obj
 0001:0000b0c0       ?_Buynode@?$_Tree@V?$_Tmap_traits@V?$basic_string@DU?$char_traits@D@std@@V?$allocator@D@2@@std@@U?$pair@V?$basic_string@DU?$char_traits@D@std@@V?$allocator@D@2@@std@@V12@@2@U?$less@V?$basic_string@DU?$char_traits@D@std@@V?$allocator@D@2@@std@@@2@V?$allocator@U?$pair@$$CBV?$basic_string@DU?$char_traits@D@std@@V?$allocator@D@2@@std@@U?$pair@V?$basic_string@DU?$char_traits@D@std@@V?$allocator@D@2@@std@@V12@@2@@std@@@2@$0A@@std@@@std@@IAEPAU_Node@?$_Tree_nod@V?$_Tmap_traits@V?$basic_string@DU?$char_traits@D@std@@V?$allocator@D@2@@std@@U?$pair@V?$basic_string@DU?$char_traits@D@std@@V?$allocator@D@2@@std@@V12@@2@U?$less@V?$basic_string@DU?$char_traits@D@std@@V?$allocator@D@2@@std@@@2@V?$allocator@U?$pair@$$CBV?$basic_string@DU?$char_traits@D@std@@V?$allocator@D@2@@std@@U?$pair@V?$basic_string@DU?$char_traits@D@std@@V?$allocator@D@2@@std@@V12@@2@@std@@@2@$0A@@std@@@2@XZ 0040c0c0 f i libwt:WWebWidget.obj
 0001:0000b100       ?_Buynode@?$_Tree@V?$_Tmap_traits@V?$basic_string@DU?$char_traits@D@std@@V?$allocator@D@2@@std@@V12@U?$less@V?$basic_string@DU?$char_traits@D@std@@V?$allocator@D@2@@std@@@2@V?$allocator@U?$pair@$$CBV?$basic_string@DU?$char_traits@D@std@@V?$allocator@D@2@@std@@V12@@std@@@2@$0A@@std@@@std@@IAEPAU_Node@?$_Tree_nod@V?$_Tmap_traits@V?$basic_string@DU?$char_traits@D@std@@V?$allocator@D@2@@std@@V12@U?$less@V?$basic_string@DU?$char_traits@D@std@@V?$allocator@D@2@@std@@@2@V?$allocator@U?$pair@$$CBV?$basic_string@DU?$char_traits@D@std@@V?$allocator@D@2@@std@@V12@@std@@@2@$0A@@std@@@2@PAU342@00ABU?$pair@$$CBV?$basic_string@DU?$char_traits@D@std@@V?$allocator@D@2@@std@@V12@@2@D@Z 0040c100 f i libwt:WWebWidget.obj
 0001:0000b1a0       ?_Buynode@?$_Tree@V?$_Tmap_traits@W4Property@Wt@@V?$basic_string@DU?$char_traits@D@std@@V?$allocator@D@2@@std@@U?$less@W4Property@Wt@@@4@V?$allocator@U?$pair@$$CBW4Property@Wt@@V?$basic_string@DU?$char_traits@D@std@@V?$allocator@D@2@@std@@@std@@@4@$0A@@std@@@std@@IAEPAU_Node@?$_Tree_nod@V?$_Tmap_traits@W4Property@Wt@@V?$basic_string@DU?$char_traits@D@std@@V?$allocator@D@2@@std@@U?$less@W4Property@Wt@@@4@V?$allocator@U?$pair@$$CBW4Property@Wt@@V?$basic_string@DU?$char_traits@D@std@@V?$allocator@D@2@@std@@@std@@@4@$0A@@std@@@2@PAU342@00ABU?$pair@$$CBW4Property@Wt@@V?$basic_string@DU?$char_traits@D@std@@V?$allocator@D@2@@std@@@2@D@Z 0040c1a0 f i libwt:WWebWidget.obj
 0001:0000b240       ?_Buynode@?$_Tree@V?$_Tmap_traits@V?$basic_string@DU?$char_traits@D@std@@V?$allocator@D@2@@std@@PAVWSlotInstance_@@U?$less@V?$basic_string@DU?$char_traits@D@std@@V?$allocator@D@2@@std@@@2@V?$allocator@U?$pair@$$CBV?$basic_string@DU?$char_traits@D@std@@V?$allocator@D@2@@std@@PAVWSlotInstance_@@@std@@@2@$0A@@std@@@std@@IAEPAU_Node@?$_Tree_nod@V?$_Tmap_traits@V?$basic_string@DU?$char_traits@D@std@@V?$allocator@D@2@@std@@PAVWSlotInstance_@@U?$less@V?$basic_string@DU?$char_traits@D@std@@V?$allocator@D@2@@std@@@2@V?$allocator@U?$pair@$$CBV?$basic_string@DU?$char_traits@D@std@@V?$allocator@D@2@@std@@PAVWSlotInstance_@@@std@@@2@$0A@@std@@@2@PAU342@00ABU?$pair@$$CBV?$basic_string@DU?$char_traits@D@std@@V?$allocator@D@2@@std@@PAVWSlotInstance_@@@2@D@Z 0040c240 f i libwt:WWebWidget.obj
 0001:0000b2e0       ??$lexical_cast@V?$basic_string@DU?$char_traits@D@std@@V?$allocator@D@2@@std@@H@boost@@YA?AV?$basic_string@DU?$char_traits@D@std@@V?$allocator@D@2@@std@@ABH@Z 0040c2e0 f i libwt:WWebWidget.obj
 0001:0000b440       ?refresh@WWebWidget@@UAEXXZ 0040c440 f   libwt:WWebWidget.obj
 0001:0000b530       ?_Insert@?$_Tree@V?$_Tmap_traits@V?$basic_string@DU?$char_traits@D@std@@V?$allocator@D@2@@std@@PAVWSlotInstance_@@U?$less@V?$basic_string@DU?$char_traits@D@std@@V?$allocator@D@2@@std@@@2@V?$allocator@U?$pair@$$CBV?$basic_string@DU?$char_traits@D@std@@V?$allocator@D@2@@std@@PAVWSlotInstance_@@@std@@@2@$0A@@std@@@std@@IAE?AViterator@12@_NPAU_Node@?$_Tree_nod@V?$_Tmap_traits@V?$basic_string@DU?$char_traits@D@std@@V?$allocator@D@2@@std@@PAVWSlotInstance_@@U?$less@V?$basic_string@DU?$char_traits@D@std@@V?$allocator@D@2@@std@@@2@V?$allocator@U?$pair@$$CBV?$basic_string@DU?$char_traits@D@std@@V?$allocator@D@2@@std@@PAVWSlotInstance_@@@std@@@2@$0A@@std@@@2@ABU?$pair@$$CBV?$basic_string@DU?$char_traits@D@std@@V?$allocator@D@2@@std@@PAVWSlotInstance_@@@2@@Z 0040c530 f i libwt:WWebWidget.obj
 0001:0000b6f0       ?_Buynode@?$_Tree@V?$_Tmap_traits@V?$basic_string@DU?$char_traits@D@std@@V?$allocator@D@2@@std@@U?$pair@V?$basic_string@DU?$char_traits@D@std@@V?$allocator@D@2@@std@@V12@@2@U?$less@V?$basic_string@DU?$char_traits@D@std@@V?$allocator@D@2@@std@@@2@V?$allocator@U?$pair@$$CBV?$basic_string@DU?$char_traits@D@std@@V?$allocator@D@2@@std@@U?$pair@V?$basic_string@DU?$char_traits@D@std@@V?$allocator@D@2@@std@@V12@@2@@std@@@2@$0A@@std@@@std@@IAEPAU_Node@?$_Tree_nod@V?$_Tmap_traits@V?$basic_string@DU?$char_traits@D@std@@V?$allocator@D@2@@std@@U?$pair@V?$basic_string@DU?$char_traits@D@std@@V?$allocator@D@2@@std@@V12@@2@U?$less@V?$basic_string@DU?$char_traits@D@std@@V?$allocator@D@2@@std@@@2@V?$allocator@U?$pair@$$CBV?$basic_string@DU?$char_traits@D@std@@V?$allocator@D@2@@std@@U?$pair@V?$basic_string@DU?$char_traits@D@std@@V?$allocator@D@2@@std@@V12@@2@@std@@@2@$0A@@std@@@2@PAU342@00ABU?$pair@$$CBV?$basic_string@DU?$char_traits@D@std@@V?$allocator@D@2@@std@@U?$pair@V?$basic_string@DU?$char_traits@D@std@@V?$allocator@D@2@@std@@V12@@2@@2@D@Z 0040c6f0 f i libwt:WWebWidget.obj
 0001:0000b790       ??$_Uninit_copy@PAU?$pair@V?$basic_string@DU?$char_traits@D@std@@V?$allocator@D@2@@std@@PAVDomElement@@@std@@PAU12@V?$allocator@U?$pair@V?$basic_string@DU?$char_traits@D@std@@V?$allocator@D@2@@std@@PAVDomElement@@@std@@@2@@std@@YAPAU?$pair@V?$basic_string@DU?$char_traits@D@std@@V?$allocator@D@2@@std@@PAVDomElement@@@0@PAU10@00AAV?$allocator@U?$pair@V?$basic_string@DU?$char_traits@D@std@@V?$allocator@D@2@@std@@PAVDomElement@@@std@@@0@U_Nonscalar_ptr_iterator_tag@0@@Z 0040c790 f i libwt:WWebWidget.obj
 0001:0000b790       ??$_Uninit_copy@Vconst_iterator@?$vector@U?$pair@V?$basic_string@DU?$char_traits@D@std@@V?$allocator@D@2@@std@@PAVDomElement@@@std@@V?$allocator@U?$pair@V?$basic_string@DU?$char_traits@D@std@@V?$allocator@D@2@@std@@PAVDomElement@@@std@@@2@@std@@PAU?$pair@V?$basic_string@DU?$char_traits@D@std@@V?$allocator@D@2@@std@@PAVDomElement@@@3@V?$allocator@U?$pair@V?$basic_string@DU?$char_traits@D@std@@V?$allocator@D@2@@std@@PAVDomElement@@@std@@@3@@std@@YAPAU?$pair@V?$basic_string@DU?$char_traits@D@std@@V?$allocator@D@2@@std@@PAVDomElement@@@0@Vconst_iterator@?$vector@U?$pair@V?$basic_string@DU?$char_traits@D@std@@V?$allocator@D@2@@std@@PAVDomElement@@@std@@V?$allocator@U?$pair@V?$basic_string@DU?$char_traits@D@std@@V?$allocator@D@2@@std@@PAVDomElement@@@std@@@2@@0@0PAU10@AAV?$allocator@U?$pair@V?$basic_string@DU?$char_traits@D@std@@V?$allocator@D@2@@std@@PAVDomElement@@@std@@@0@U_Nonscalar_ptr_iterator_tag@0@@Z 0040c790 f i libwt:WWebWidget.obj
 0001:0000b830       ??0WWebWidget@@QAE@PAVWContainerWidget@@@Z 0040c830 f   libwt:WWebWidget.obj
 0001:0000ba40       ??1WWebWidget@@UAE@XZ      0040ca40 f   libwt:WWebWidget.obj
 0001:0000bba0       ?updateDom@WWebWidget@@MAEXAAVDomElement@@_N@Z 0040cba0 f   libwt:WWebWidget.obj
 0001:0000c300       ?erase@?$_Tree@V?$_Tmap_traits@V?$basic_string@DU?$char_traits@D@std@@V?$allocator@D@2@@std@@V12@U?$less@V?$basic_string@DU?$char_traits@D@std@@V?$allocator@D@2@@std@@@2@V?$allocator@U?$pair@$$CBV?$basic_string@DU?$char_traits@D@std@@V?$allocator@D@2@@std@@V12@@std@@@2@$0A@@std@@@std@@QAE?AViterator@12@V312@@Z 0040d300 f i libwt:WWebWidget.obj
 0001:0000c600       ?erase@?$_Tree@V?$_Tmap_traits@W4Property@Wt@@V?$basic_string@DU?$char_traits@D@std@@V?$allocator@D@2@@std@@U?$less@W4Property@Wt@@@4@V?$allocator@U?$pair@$$CBW4Property@Wt@@V?$basic_string@DU?$char_traits@D@std@@V?$allocator@D@2@@std@@@std@@@4@$0A@@std@@@std@@QAE?AViterator@12@V312@@Z 0040d600 f i libwt:WWebWidget.obj
 0001:0000c8e0       ?insert@?$_Tree@V?$_Tmap_traits@V?$basic_string@DU?$char_traits@D@std@@V?$allocator@D@2@@std@@PAVWSlotInstance_@@U?$less@V?$basic_string@DU?$char_traits@D@std@@V?$allocator@D@2@@std@@@2@V?$allocator@U?$pair@$$CBV?$basic_string@DU?$char_traits@D@std@@V?$allocator@D@2@@std@@PAVWSlotInstance_@@@std@@@2@$0A@@std@@@std@@QAE?AU?$pair@Viterator@?$_Tree@V?$_Tmap_traits@V?$basic_string@DU?$char_traits@D@std@@V?$allocator@D@2@@std@@PAVWSlotInstance_@@U?$less@V?$basic_string@DU?$char_traits@D@std@@V?$allocator@D@2@@std@@@2@V?$allocator@U?$pair@$$CBV?$basic_string@DU?$char_traits@D@std@@V?$allocator@D@2@@std@@PAVWSlotInstance_@@@std@@@2@$0A@@std@@@std@@_N@2@ABU?$pair@$$CBV?$basic_string@DU?$char_traits@D@std@@V?$allocator@D@2@@std@@PAVWSlotInstance_@@@2@@Z 0040d8e0 f i libwt:WWebWidget.obj
 0001:0000c9c0       ?_Erase@?$_Tree@V?$_Tmap_traits@V?$basic_string@DU?$char_traits@D@std@@V?$allocator@D@2@@std@@V12@U?$less@V?$basic_string@DU?$char_traits@D@std@@V?$allocator@D@2@@std@@@2@V?$allocator@U?$pair@$$CBV?$basic_string@DU?$char_traits@D@std@@V?$allocator@D@2@@std@@V12@@std@@@2@$0A@@std@@@std@@IAEXPAU_Node@?$_Tree_nod@V?$_Tmap_traits@V?$basic_string@DU?$char_traits@D@std@@V?$allocator@D@2@@std@@V12@U?$less@V?$basic_string@DU?$char_traits@D@std@@V?$allocator@D@2@@std@@@2@V?$allocator@U?$pair@$$CBV?$basic_string@DU?$char_traits@D@std@@V?$allocator@D@2@@std@@V12@@std@@@2@$0A@@std@@@2@@Z 0040d9c0 f i libwt:WWebWidget.obj
 0001:0000ca00       ?_Erase@?$_Tree@V?$_Tmap_traits@W4Property@Wt@@V?$basic_string@DU?$char_traits@D@std@@V?$allocator@D@2@@std@@U?$less@W4Property@Wt@@@4@V?$allocator@U?$pair@$$CBW4Property@Wt@@V?$basic_string@DU?$char_traits@D@std@@V?$allocator@D@2@@std@@@std@@@4@$0A@@std@@@std@@IAEXPAU_Node@?$_Tree_nod@V?$_Tmap_traits@W4Property@Wt@@V?$basic_string@DU?$char_traits@D@std@@V?$allocator@D@2@@std@@U?$less@W4Property@Wt@@@4@V?$allocator@U?$pair@$$CBW4Property@Wt@@V?$basic_string@DU?$char_traits@D@std@@V?$allocator@D@2@@std@@@std@@@4@$0A@@std@@@2@@Z 0040da00 f i libwt:WWebWidget.obj
 0001:0000ca40       ??_EWWebWidget@@UAEPAXI@Z  0040da40 f i libwt:WWebWidget.obj
 0001:0000caa0       ?push_back@?$vector@PAVWWidget@@V?$allocator@PAVWWidget@@@std@@@std@@QAEXABQAVWWidget@@@Z 0040daa0 f i libwt:WWebWidget.obj
 0001:0000caa0       ?push_back@?$vector@PAVWObject@@V?$allocator@PAVWObject@@@std@@@std@@QAEXABQAVWObject@@@Z 0040daa0 f i libwt:WWebWidget.obj
 0001:0000caa0       ?push_back@?$vector@PAVDomElement@@V?$allocator@PAVDomElement@@@std@@@std@@QAEXABQAVDomElement@@@Z 0040daa0 f i libwt:WWebWidget.obj
 0001:0000caf0       ?insert@?$_Tree@V?$_Tmap_traits@V?$basic_string@DU?$char_traits@D@std@@V?$allocator@D@2@@std@@PAVWSlotInstance_@@U?$less@V?$basic_string@DU?$char_traits@D@std@@V?$allocator@D@2@@std@@@2@V?$allocator@U?$pair@$$CBV?$basic_string@DU?$char_traits@D@std@@V?$allocator@D@2@@std@@PAVWSlotInstance_@@@std@@@2@$0A@@std@@@std@@QAE?AViterator@12@V312@ABU?$pair@$$CBV?$basic_string@DU?$char_traits@D@std@@V?$allocator@D@2@@std@@PAVWSlotInstance_@@@2@@Z 0040daf0 f i libwt:WWebWidget.obj
 0001:0000ccb0       ?_Copy@?$_Tree@V?$_Tmap_traits@V?$basic_string@DU?$char_traits@D@std@@V?$allocator@D@2@@std@@V12@U?$less@V?$basic_string@DU?$char_traits@D@std@@V?$allocator@D@2@@std@@@2@V?$allocator@U?$pair@$$CBV?$basic_string@DU?$char_traits@D@std@@V?$allocator@D@2@@std@@V12@@std@@@2@$0A@@std@@@std@@IAEPAU_Node@?$_Tree_nod@V?$_Tmap_traits@V?$basic_string@DU?$char_traits@D@std@@V?$allocator@D@2@@std@@V12@U?$less@V?$basic_string@DU?$char_traits@D@std@@V?$allocator@D@2@@std@@@2@V?$allocator@U?$pair@$$CBV?$basic_string@DU?$char_traits@D@std@@V?$allocator@D@2@@std@@V12@@std@@@2@$0A@@std@@@2@PAU342@0@Z 0040dcb0 f i libwt:WWebWidget.obj
 0001:0000cd60       ?_Copy@?$_Tree@V?$_Tmap_traits@W4Property@Wt@@V?$basic_string@DU?$char_traits@D@std@@V?$allocator@D@2@@std@@U?$less@W4Property@Wt@@@4@V?$allocator@U?$pair@$$CBW4Property@Wt@@V?$basic_string@DU?$char_traits@D@std@@V?$allocator@D@2@@std@@@std@@@4@$0A@@std@@@std@@IAEPAU_Node@?$_Tree_nod@V?$_Tmap_traits@W4Property@Wt@@V?$basic_string@DU?$char_traits@D@std@@V?$allocator@D@2@@std@@U?$less@W4Property@Wt@@@4@V?$allocator@U?$pair@$$CBW4Property@Wt@@V?$basic_string@DU?$char_traits@D@std@@V?$allocator@D@2@@std@@@std@@@4@$0A@@std@@@2@PAU342@0@Z 0040dd60 f i libwt:WWebWidget.obj
 0001:0000ce10       ?erase@?$_Tree@V?$_Tmap_traits@V?$basic_string@DU?$char_traits@D@std@@V?$allocator@D@2@@std@@U?$pair@V?$basic_string@DU?$char_traits@D@std@@V?$allocator@D@2@@std@@V12@@2@U?$less@V?$basic_string@DU?$char_traits@D@std@@V?$allocator@D@2@@std@@@2@V?$allocator@U?$pair@$$CBV?$basic_string@DU?$char_traits@D@std@@V?$allocator@D@2@@std@@U?$pair@V?$basic_string@DU?$char_traits@D@std@@V?$allocator@D@2@@std@@V12@@2@@std@@@2@$0A@@std@@@std@@QAE?AViterator@12@V312@@Z 0040de10 f i libwt:WWebWidget.obj
 0001:0000d120       ?_Erase@?$_Tree@V?$_Tmap_traits@V?$basic_string@DU?$char_traits@D@std@@V?$allocator@D@2@@std@@U?$pair@V?$basic_string@DU?$char_traits@D@std@@V?$allocator@D@2@@std@@V12@@2@U?$less@V?$basic_string@DU?$char_traits@D@std@@V?$allocator@D@2@@std@@@2@V?$allocator@U?$pair@$$CBV?$basic_string@DU?$char_traits@D@std@@V?$allocator@D@2@@std@@U?$pair@V?$basic_string@DU?$char_traits@D@std@@V?$allocator@D@2@@std@@V12@@2@@std@@@2@$0A@@std@@@std@@IAEXPAU_Node@?$_Tree_nod@V?$_Tmap_traits@V?$basic_string@DU?$char_traits@D@std@@V?$allocator@D@2@@std@@U?$pair@V?$basic_string@DU?$char_traits@D@std@@V?$allocator@D@2@@std@@V12@@2@U?$less@V?$basic_string@DU?$char_traits@D@std@@V?$allocator@D@2@@std@@@2@V?$allocator@U?$pair@$$CBV?$basic_string@DU?$char_traits@D@std@@V?$allocator@D@2@@std@@U?$pair@V?$basic_string@DU?$char_traits@D@std@@V?$allocator@D@2@@std@@V12@@2@@std@@@2@$0A@@std@@@2@@Z 0040e120 f i libwt:WWebWidget.obj
 0001:0000d160       ??$_Ucopy@PAU?$pair@V?$basic_string@DU?$char_traits@D@std@@V?$allocator@D@2@@std@@PAVDomElement@@@std@@@?$vector@U?$pair@V?$basic_string@DU?$char_traits@D@std@@V?$allocator@D@2@@std@@PAVDomElement@@@std@@V?$allocator@U?$pair@V?$basic_string@DU?$char_traits@D@std@@V?$allocator@D@2@@std@@PAVDomElement@@@std@@@2@@std@@IAEPAU?$pair@V?$basic_string@DU?$char_traits@D@std@@V?$allocator@D@2@@std@@PAVDomElement@@@1@PAU21@00@Z 0040e160 f i libwt:WWebWidget.obj
 0001:0000d180       ?removeChild@WWebWidget@@MAEXPAVWWidget@@@Z 0040e180 f   libwt:WWebWidget.obj
 0001:0000d250       ?addChild@WWebWidget@@MAEXPAVWWidget@@@Z 0040e250 f   libwt:WWebWidget.obj
 0001:0000d2b0       ?getFormObjects@WWebWidget@@EAEXAAV?$vector@PAVWObject@@V?$allocator@PAVWObject@@@std@@@std@@@Z 0040e2b0 f   libwt:WWebWidget.obj
 0001:0000d320       ?getSDomChanges@WWebWidget@@AAEXAAV?$vector@PAVDomElement@@V?$allocator@PAVDomElement@@@std@@@std@@@Z 0040e320 f   libwt:WWebWidget.obj
 0001:0000d440       ??A?$map@V?$basic_string@DU?$char_traits@D@std@@V?$allocator@D@2@@std@@PAVWSlotInstance_@@U?$less@V?$basic_string@DU?$char_traits@D@std@@V?$allocator@D@2@@std@@@2@V?$allocator@U?$pair@$$CBV?$basic_string@DU?$char_traits@D@std@@V?$allocator@D@2@@std@@PAVWSlotInstance_@@@std@@@2@@std@@QAEAAPAVWSlotInstance_@@ABV?$basic_string@DU?$char_traits@D@std@@V?$allocator@D@2@@1@@Z 0040e440 f i libwt:WWebWidget.obj
 0001:0000d4e0       ?erase@?$_Tree@V?$_Tmap_traits@V?$basic_string@DU?$char_traits@D@std@@V?$allocator@D@2@@std@@V12@U?$less@V?$basic_string@DU?$char_traits@D@std@@V?$allocator@D@2@@std@@@2@V?$allocator@U?$pair@$$CBV?$basic_string@DU?$char_traits@D@std@@V?$allocator@D@2@@std@@V12@@std@@@2@$0A@@std@@@std@@QAE?AViterator@12@V312@0@Z 0040e4e0 f i libwt:WWebWidget.obj
 0001:0000d5a0       ?_Copy@?$_Tree@V?$_Tmap_traits@V?$basic_string@DU?$char_traits@D@std@@V?$allocator@D@2@@std@@V12@U?$less@V?$basic_string@DU?$char_traits@D@std@@V?$allocator@D@2@@std@@@2@V?$allocator@U?$pair@$$CBV?$basic_string@DU?$char_traits@D@std@@V?$allocator@D@2@@std@@V12@@std@@@2@$0A@@std@@@std@@IAEXABV12@@Z 0040e5a0 f i libwt:WWebWidget.obj
 0001:0000d630       ?_Tidy@?$_Tree@V?$_Tmap_traits@V?$basic_string@DU?$char_traits@D@std@@V?$allocator@D@2@@std@@V12@U?$less@V?$basic_string@DU?$char_traits@D@std@@V?$allocator@D@2@@std@@@2@V?$allocator@U?$pair@$$CBV?$basic_string@DU?$char_traits@D@std@@V?$allocator@D@2@@std@@V12@@std@@@2@$0A@@std@@@std@@IAEXXZ 0040e630 f i libwt:WWebWidget.obj
 0001:0000d630       ??1?$map@V?$basic_string@DU?$char_traits@D@std@@V?$allocator@D@2@@std@@V12@U?$less@V?$basic_string@DU?$char_traits@D@std@@V?$allocator@D@2@@std@@@2@V?$allocator@U?$pair@$$CBV?$basic_string@DU?$char_traits@D@std@@V?$allocator@D@2@@std@@V12@@std@@@2@@std@@QAE@XZ 0040e630 f i libwt:WWebWidget.obj
 0001:0000d660       ?erase@?$_Tree@V?$_Tmap_traits@W4Property@Wt@@V?$basic_string@DU?$char_traits@D@std@@V?$allocator@D@2@@std@@U?$less@W4Property@Wt@@@4@V?$allocator@U?$pair@$$CBW4Property@Wt@@V?$basic_string@DU?$char_traits@D@std@@V?$allocator@D@2@@std@@@std@@@4@$0A@@std@@@std@@QAE?AViterator@12@V312@0@Z 0040e660 f i libwt:WWebWidget.obj
 0001:0000d720       ?_Copy@?$_Tree@V?$_Tmap_traits@W4Property@Wt@@V?$basic_string@DU?$char_traits@D@std@@V?$allocator@D@2@@std@@U?$less@W4Property@Wt@@@4@V?$allocator@U?$pair@$$CBW4Property@Wt@@V?$basic_string@DU?$char_traits@D@std@@V?$allocator@D@2@@std@@@std@@@4@$0A@@std@@@std@@IAEXABV12@@Z 0040e720 f i libwt:WWebWidget.obj
 0001:0000d7b0       ??1?$map@W4Property@Wt@@V?$basic_string@DU?$char_traits@D@std@@V?$allocator@D@2@@std@@U?$less@W4Property@Wt@@@4@V?$allocator@U?$pair@$$CBW4Property@Wt@@V?$basic_string@DU?$char_traits@D@std@@V?$allocator@D@2@@std@@@std@@@4@@std@@QAE@XZ 0040e7b0 f i libwt:WWebWidget.obj
 0001:0000d7b0       ?_Tidy@?$_Tree@V?$_Tmap_traits@W4Property@Wt@@V?$basic_string@DU?$char_traits@D@std@@V?$allocator@D@2@@std@@U?$less@W4Property@Wt@@@4@V?$allocator@U?$pair@$$CBW4Property@Wt@@V?$basic_string@DU?$char_traits@D@std@@V?$allocator@D@2@@std@@@std@@@4@$0A@@std@@@std@@IAEXXZ 0040e7b0 f i libwt:WWebWidget.obj
 0001:0000d7e0       ?_Destroy@?$vector@U?$pair@V?$basic_string@DU?$char_traits@D@std@@V?$allocator@D@2@@std@@PAVDomElement@@@std@@V?$allocator@U?$pair@V?$basic_string@DU?$char_traits@D@std@@V?$allocator@D@2@@std@@PAVDomElement@@@std@@@2@@std@@IAEXPAU?$pair@V?$basic_string@DU?$char_traits@D@std@@V?$allocator@D@2@@std@@PAVDomElement@@@2@0@Z 0040e7e0 f i libwt:WWebWidget.obj
 0001:0000d810       ?_Tidy@?$vector@U?$pair@V?$basic_string@DU?$char_traits@D@std@@V?$allocator@D@2@@std@@PAVDomElement@@@std@@V?$allocator@U?$pair@V?$basic_string@DU?$char_traits@D@std@@V?$allocator@D@2@@std@@PAVDomElement@@@std@@@2@@std@@IAEXXZ 0040e810 f i libwt:WWebWidget.obj
 0001:0000d860       ?_Copy@?$_Tree@V?$_Tmap_traits@V?$basic_string@DU?$char_traits@D@std@@V?$allocator@D@2@@std@@U?$pair@V?$basic_string@DU?$char_traits@D@std@@V?$allocator@D@2@@std@@V12@@2@U?$less@V?$basic_string@DU?$char_traits@D@std@@V?$allocator@D@2@@std@@@2@V?$allocator@U?$pair@$$CBV?$basic_string@DU?$char_traits@D@std@@V?$allocator@D@2@@std@@U?$pair@V?$basic_string@DU?$char_traits@D@std@@V?$allocator@D@2@@std@@V12@@2@@std@@@2@$0A@@std@@@std@@IAEPAU_Node@?$_Tree_nod@V?$_Tmap_traits@V?$basic_string@DU?$char_traits@D@std@@V?$allocator@D@2@@std@@U?$pair@V?$basic_string@DU?$char_traits@D@std@@V?$allocator@D@2@@std@@V12@@2@U?$less@V?$basic_string@DU?$char_traits@D@std@@V?$allocator@D@2@@std@@@2@V?$allocator@U?$pair@$$CBV?$basic_string@DU?$char_traits@D@std@@V?$allocator@D@2@@std@@U?$pair@V?$basic_string@DU?$char_traits@D@std@@V?$allocator@D@2@@std@@V12@@2@@std@@@2@$0A@@std@@@2@PAU342@0@Z 0040e860 f i libwt:WWebWidget.obj
 0001:0000d910       ?buildSlotMap@WWebWidget@@MAEXAAV?$map@V?$basic_string@DU?$char_traits@D@std@@V?$allocator@D@2@@std@@PAVWSlotInstance_@@U?$less@V?$basic_string@DU?$char_traits@D@std@@V?$allocator@D@2@@std@@@2@V?$allocator@U?$pair@$$CBV?$basic_string@DU?$char_traits@D@std@@V?$allocator@D@2@@std@@PAVWSlotInstance_@@@std@@@2@@std@@@Z 0040e910 f   libwt:WWebWidget.obj
 0001:0000d9d0       ?buildSignalMap@WWebWidget@@MAEXAAV?$map@V?$basic_string@DU?$char_traits@D@std@@V?$allocator@D@2@@std@@PAVWSignalInstance_@@U?$less@V?$basic_string@DU?$char_traits@D@std@@V?$allocator@D@2@@std@@@2@V?$allocator@U?$pair@$$CBV?$basic_string@DU?$char_traits@D@std@@V?$allocator@D@2@@std@@PAVWSignalInstance_@@@std@@@2@@std@@@Z 0040e9d0 f   libwt:WWebWidget.obj
 0001:0000da90       ??0?$_Tree@V?$_Tmap_traits@V?$basic_string@DU?$char_traits@D@std@@V?$allocator@D@2@@std@@V12@U?$less@V?$basic_string@DU?$char_traits@D@std@@V?$allocator@D@2@@std@@@2@V?$allocator@U?$pair@$$CBV?$basic_string@DU?$char_traits@D@std@@V?$allocator@D@2@@std@@V12@@std@@@2@$0A@@std@@@std@@QAE@ABV01@@Z 0040ea90 f i libwt:WWebWidget.obj
 0001:0000db20       ??0?$_Tree@V?$_Tmap_traits@W4Property@Wt@@V?$basic_string@DU?$char_traits@D@std@@V?$allocator@D@2@@std@@U?$less@W4Property@Wt@@@4@V?$allocator@U?$pair@$$CBW4Property@Wt@@V?$basic_string@DU?$char_traits@D@std@@V?$allocator@D@2@@std@@@std@@@4@$0A@@std@@@std@@QAE@ABV01@@Z 0040eb20 f i libwt:WWebWidget.obj
 0001:0000dbb0       ??0?$vector@U?$pair@V?$basic_string@DU?$char_traits@D@std@@V?$allocator@D@2@@std@@PAVDomElement@@@std@@V?$allocator@U?$pair@V?$basic_string@DU?$char_traits@D@std@@V?$allocator@D@2@@std@@PAVDomElement@@@std@@@2@@std@@QAE@ABV01@@Z 0040ebb0 f i libwt:WWebWidget.obj
 0001:0000dc70       ??1?$vector@U?$pair@V?$basic_string@DU?$char_traits@D@std@@V?$allocator@D@2@@std@@PAVDomElement@@@std@@V?$allocator@U?$pair@V?$basic_string@DU?$char_traits@D@std@@V?$allocator@D@2@@std@@PAVDomElement@@@std@@@2@@std@@QAE@XZ 0040ec70 f i libwt:WWebWidget.obj
 0001:0000dc80       ?erase@?$_Tree@V?$_Tmap_traits@V?$basic_string@DU?$char_traits@D@std@@V?$allocator@D@2@@std@@U?$pair@V?$basic_string@DU?$char_traits@D@std@@V?$allocator@D@2@@std@@V12@@2@U?$less@V?$basic_string@DU?$char_traits@D@std@@V?$allocator@D@2@@std@@@2@V?$allocator@U?$pair@$$CBV?$basic_string@DU?$char_traits@D@std@@V?$allocator@D@2@@std@@U?$pair@V?$basic_string@DU?$char_traits@D@std@@V?$allocator@D@2@@std@@V12@@2@@std@@@2@$0A@@std@@@std@@QAE?AViterator@12@V312@0@Z 0040ec80 f i libwt:WWebWidget.obj
 0001:0000dd40       ?_Copy@?$_Tree@V?$_Tmap_traits@V?$basic_string@DU?$char_traits@D@std@@V?$allocator@D@2@@std@@U?$pair@V?$basic_string@DU?$char_traits@D@std@@V?$allocator@D@2@@std@@V12@@2@U?$less@V?$basic_string@DU?$char_traits@D@std@@V?$allocator@D@2@@std@@@2@V?$allocator@U?$pair@$$CBV?$basic_string@DU?$char_traits@D@std@@V?$allocator@D@2@@std@@U?$pair@V?$basic_string@DU?$char_traits@D@std@@V?$allocator@D@2@@std@@V12@@2@@std@@@2@$0A@@std@@@std@@IAEXABV12@@Z 0040ed40 f i libwt:WWebWidget.obj
 0001:0000ddd0       ??1?$map@V?$basic_string@DU?$char_traits@D@std@@V?$allocator@D@2@@std@@U?$pair@V?$basic_string@DU?$char_traits@D@std@@V?$allocator@D@2@@std@@V12@@2@U?$less@V?$basic_string@DU?$char_traits@D@std@@V?$allocator@D@2@@std@@@2@V?$allocator@U?$pair@$$CBV?$basic_string@DU?$char_traits@D@std@@V?$allocator@D@2@@std@@U?$pair@V?$basic_string@DU?$char_traits@D@std@@V?$allocator@D@2@@std@@V12@@2@@std@@@2@@std@@QAE@XZ 0040edd0 f i libwt:WWebWidget.obj
 0001:0000ddd0       ?_Tidy@?$_Tree@V?$_Tmap_traits@V?$basic_string@DU?$char_traits@D@std@@V?$allocator@D@2@@std@@U?$pair@V?$basic_string@DU?$char_traits@D@std@@V?$allocator@D@2@@std@@V12@@2@U?$less@V?$basic_string@DU?$char_traits@D@std@@V?$allocator@D@2@@std@@@2@V?$allocator@U?$pair@$$CBV?$basic_string@DU?$char_traits@D@std@@V?$allocator@D@2@@std@@U?$pair@V?$basic_string@DU?$char_traits@D@std@@V?$allocator@D@2@@std@@V12@@2@@std@@@2@$0A@@std@@@std@@IAEXXZ 0040edd0 f i libwt:WWebWidget.obj
 0001:0000de00       ??0?$_Tree@V?$_Tmap_traits@V?$basic_string@DU?$char_traits@D@std@@V?$allocator@D@2@@std@@U?$pair@V?$basic_string@DU?$char_traits@D@std@@V?$allocator@D@2@@std@@V12@@2@U?$less@V?$basic_string@DU?$char_traits@D@std@@V?$allocator@D@2@@std@@@2@V?$allocator@U?$pair@$$CBV?$basic_string@DU?$char_traits@D@std@@V?$allocator@D@2@@std@@U?$pair@V?$basic_string@DU?$char_traits@D@std@@V?$allocator@D@2@@std@@V12@@2@@std@@@2@$0A@@std@@@std@@QAE@ABV01@@Z 0040ee00 f i libwt:WWebWidget.obj
 0001:0000de90       ??4?$vector@U?$pair@V?$basic_string@DU?$char_traits@D@std@@V?$allocator@D@2@@std@@PAVDomElement@@@std@@V?$allocator@U?$pair@V?$basic_string@DU?$char_traits@D@std@@V?$allocator@D@2@@std@@PAVDomElement@@@std@@@2@@std@@QAEAAV01@ABV01@@Z 0040ee90 f i libwt:WWebWidget.obj
 0001:0000dff0       ??0DomElement@@QAE@ABV0@@Z 0040eff0 f i libwt:WWebWidget.obj
 0001:0000e0b0       ??4DomElement@@QAEAAV0@ABV0@@Z 0040f0b0 f i libwt:WWebWidget.obj
 0001:0000e180       ??_EWInteractWidget@@UAEPAXI@Z 0040f180 f i libwt:WInteractWidget.obj
 0001:0000e1e0       ?keyWentDown@WInteractWidget@@QAEXH@Z 0040f1e0 f   libwt:WInteractWidget.obj
 0001:0000e200       ?keyPressed@WInteractWidget@@QAEXH@Z 0040f200 f   libwt:WInteractWidget.obj
 0001:0000e220       ?keyWentUp@WInteractWidget@@QAEXH@Z 0040f220 f   libwt:WInteractWidget.obj
 0001:0000e240       ?clicked@WInteractWidget@@QAEXXZ 0040f240 f   libwt:WInteractWidget.obj
 0001:0000e250       ?doubleClicked@WInteractWidget@@QAEXXZ 0040f250 f   libwt:WInteractWidget.obj
 0001:0000e260       ?mouseWentDown@WInteractWidget@@QAEXXZ 0040f260 f   libwt:WInteractWidget.obj
 0001:0000e270       ?mouseWentUp@WInteractWidget@@QAEXXZ 0040f270 f   libwt:WInteractWidget.obj
 0001:0000e280       ?mouseWentOut@WInteractWidget@@QAEXXZ 0040f280 f   libwt:WInteractWidget.obj
 0001:0000e290       ?mouseWentOver@WInteractWidget@@QAEXXZ 0040f290 f   libwt:WInteractWidget.obj
 0001:0000e2a0       ?mouseMoved@WInteractWidget@@QAEXXZ 0040f2a0 f   libwt:WInteractWidget.obj
 0001:0000e2b0       ?clicked@WInteractWidget@@QAEXPAX@Z 0040f2b0 f   libwt:WInteractWidget.obj
 0001:0000e2d0       ?contextmenu@WInteractWidget@@QAEXXZ 0040f2d0 f   libwt:WInteractWidget.obj
 0001:0000e2e0       ?undoTriggerSlot@WInteractWidget@@MAE_NPBVWSlot_@@PAPAX@Z 0040f2e0 f   libwt:WInteractWidget.obj
 0001:0000e2e0       ?undoTriggerSlot@WScrollArea@@MAE_NPBVWSlot_@@PAPAX@Z 0040f2e0 f   libwt:WScrollArea.obj
 0001:0000e2f0       ??0WInteractWidget@@QAE@PAVWContainerWidget@@@Z 0040f2f0 f   libwt:WInteractWidget.obj
 0001:0000e330       ?setData@WInteractWidget@@QAEXPAX@Z 0040f330 f   libwt:WInteractWidget.obj
 0001:0000e340       ?updateDom@WInteractWidget@@MAEXAAVDomElement@@_N@Z 0040f340 f   libwt:WInteractWidget.obj
 0001:0000e5b0       ?gotClick@WInteractWidget@@AAEXXZ 0040f5b0 f   libwt:WInteractWidget.obj
 0001:0000e5e0       ?triggerSlot@WInteractWidget@@MAE_NPAVWObject@@PBVWSlot_@@PAPAX@Z 0040f5e0 f   libwt:WInteractWidget.obj
 0001:0000e630       ?buildSlotMap@WInteractWidget@@MAEXAAV?$map@V?$basic_string@DU?$char_traits@D@std@@V?$allocator@D@2@@std@@PAVWSlotInstance_@@U?$less@V?$basic_string@DU?$char_traits@D@std@@V?$allocator@D@2@@std@@@2@V?$allocator@U?$pair@$$CBV?$basic_string@DU?$char_traits@D@std@@V?$allocator@D@2@@std@@PAVWSlotInstance_@@@std@@@2@@std@@@Z 0040f630 f   libwt:WInteractWidget.obj
 0001:0000e6f0       ?buildSignalMap@WInteractWidget@@MAEXAAV?$map@V?$basic_string@DU?$char_traits@D@std@@V?$allocator@D@2@@std@@PAVWSignalInstance_@@U?$less@V?$basic_string@DU?$char_traits@D@std@@V?$allocator@D@2@@std@@@2@V?$allocator@U?$pair@$$CBV?$basic_string@DU?$char_traits@D@std@@V?$allocator@D@2@@std@@PAVWSignalInstance_@@@std@@@2@@std@@@Z 0040f6f0 f   libwt:WInteractWidget.obj
 0001:0000e7b0       ?removeWidget@WContainerWidget@@UAEXPAVWWidget@@@Z 0040f7b0 f   libwt:WContainerWidget.obj
 0001:0000e7d0       ?setContentAlignment@WContainerWidget@@QAEXW4HorizontalAlignment@WWidget@@@Z 0040f7d0 f   libwt:WContainerWidget.obj
 0001:0000e7f0       ?setPadding@WContainerWidget@@QAEXVWLength@@H@Z 0040f7f0 f   libwt:WContainerWidget.obj
 0001:0000e880       ?padding@WContainerWidget@@QBE?AVWLength@@W4Side@WWidget@@@Z 0040f880 f   libwt:WContainerWidget.obj
 0001:0000e930       ?clear@WContainerWidget@@QAEXXZ 0040f930 f   libwt:WContainerWidget.obj
 0001:0000e970       ??_EWContainerWidget@@UAEPAXI@Z 0040f970 f i libwt:WContainerWidget.obj
 0001:0000e9d0       ??0WContainerWidget@@QAE@PAV0@@Z 0040f9d0 f   libwt:WContainerWidget.obj
 0001:0000ea70       ?removeChild@WContainerWidget@@MAEXPAVWWidget@@@Z 0040fa70 f   libwt:WContainerWidget.obj
 0001:0000ead0       ?updateDom@WContainerWidget@@MAEXAAVDomElement@@_N@Z 0040fad0 f   libwt:WContainerWidget.obj
 0001:0000efc0       ?createDomChildren@WContainerWidget@@IAEXAAVDomElement@@@Z 0040ffc0 f   libwt:WContainerWidget.obj
 0001:0000f060       ?createDomElement@WContainerWidget@@MAEPAVDomElement@@XZ 00410060 f   libwt:WContainerWidget.obj
 0001:0000f0e0       ?addWidget@WContainerWidget@@UAEXPAVWWidget@@@Z 004100e0 f   libwt:WContainerWidget.obj
 0001:0000f150       ?getDomChanges@WContainerWidget@@MAEXAAV?$vector@PAVDomElement@@V?$allocator@PAVDomElement@@@std@@@std@@@Z 00410150 f   libwt:WContainerWidget.obj
 0001:0000f1f0       ?buildSlotMap@WContainerWidget@@MAEXAAV?$map@V?$basic_string@DU?$char_traits@D@std@@V?$allocator@D@2@@std@@PAVWSlotInstance_@@U?$less@V?$basic_string@DU?$char_traits@D@std@@V?$allocator@D@2@@std@@@2@V?$allocator@U?$pair@$$CBV?$basic_string@DU?$char_traits@D@std@@V?$allocator@D@2@@std@@PAVWSlotInstance_@@@std@@@2@@std@@@Z 004101f0 f   libwt:WContainerWidget.obj
 0001:0000f2b0       ?buildSignalMap@WContainerWidget@@MAEXAAV?$map@V?$basic_string@DU?$char_traits@D@std@@V?$allocator@D@2@@std@@PAVWSignalInstance_@@U?$less@V?$basic_string@DU?$char_traits@D@std@@V?$allocator@D@2@@std@@@2@V?$allocator@U?$pair@$$CBV?$basic_string@DU?$char_traits@D@std@@V?$allocator@D@2@@std@@PAVWSignalInstance_@@@std@@@2@@std@@@Z 004102b0 f   libwt:WContainerWidget.obj
 0001:0000f370       ?triggerSlot@WTableRow@@MAE_NPAVWObject@@PBVWSlot_@@PAPAX@Z 00410370 f   libwt:WTable.obj
 0001:0000f370       ?triggerSlot@WTableCell@@MAE_NPAVWObject@@PBVWSlot_@@PAPAX@Z 00410370 f   libwt:WTableCell.obj
 0001:0000f380       ?createDomElement@WTableRow@@MAEPAVDomElement@@XZ 00410380 f   libwt:WTable.obj
 0001:0000f3c0       ?updateDom@WTableRow@@MAEXAAVDomElement@@_N@Z 004103c0 f   libwt:WTable.obj
 0001:0000f3c0       ?updateDom@WTableCell@@MAEXAAVDomElement@@_N@Z 004103c0 f   libwt:WTableCell.obj
 0001:0000f3d0       ?setCellPadding@WTable@@QAEXH@Z 004103d0 f   libwt:WTable.obj
 0001:0000f3e0       ?SetLine@WTable@@QAEX_N@Z  004103e0 f   libwt:WTable.obj
 0001:0000f3f0       ?updateDom@WTable@@MAEXAAVDomElement@@_N@Z 004103f0 f   libwt:WTable.obj
 0001:0000f410       ?setCellSpaceing@WTable@@QAEXH@Z 00410410 f   libwt:WTable.obj
 0001:0000f420       ??$fill@PAUTableData@WTableRow@@U12@@std@@YAXPAUTableData@WTableRow@@0ABU12@@Z 00410420 f i libwt:WTable.obj
 0001:0000f450       ?numRows@WTable@@QBEHXZ    00410450 f   libwt:WTable.obj
 0001:0000f470       ??$copy_backward@PAUTableData@WTableRow@@PAU12@@std@@YAPAUTableData@WTableRow@@PAU12@00@Z 00410470 f i libwt:WTable.obj
 0001:0000f4a0       ??$_Uninit_fill_n@PAUTableData@WTableRow@@IU12@V?$allocator@UTableData@WTableRow@@@std@@@std@@YAXPAUTableData@WTableRow@@IABU12@AAV?$allocator@UTableData@WTableRow@@@0@U_Nonscalar_ptr_iterator_tag@0@@Z 004104a0 f i libwt:WTable.obj
 0001:0000f4d0       ?rowNum@WTableRow@@QBEHXZ  004104d0 f   libwt:WTable.obj
 0001:0000f510       ?numColumns@WTable@@QBEHXZ 00410510 f   libwt:WTable.obj
 0001:0000f550       ?itemAt@WTable@@AAEAAUTableData@WTableRow@@HH@Z 00410550 f   libwt:WTable.obj
 0001:0000f570       ?GetRow@WTable@@QAEPAVWTableRow@@H@Z 00410570 f   libwt:WTable.obj
 0001:0000f590       ?adjustRowStyle@WTable@@QAEXV?$basic_string@DU?$char_traits@D@std@@V?$allocator@D@2@@std@@0@Z 00410590 f   libwt:WTable.obj
 0001:0000f670       ??0WTable@@QAE@PAVWContainerWidget@@@Z 00410670 f   libwt:WTable.obj
 0001:0000f700       ??1WTable@@UAE@XZ          00410700 f   libwt:WTable.obj
 0001:0000f7b0       ?printDebug@WTable@@QAEXXZ 004107b0 f   libwt:WTable.obj
 0001:0000f990       ?removeCell@WTable@@QAEXHH@Z 00410990 f   libwt:WTable.obj
 0001:0000fa30       ?deleteRow@WTable@@QAEXH@Z 00410a30 f   libwt:WTable.obj
 0001:0000fb00       ?clear@WTable@@QAEXXZ      00410b00 f   libwt:WTable.obj
 0001:0000fb50       ?createDomElement@WTable@@MAEPAVDomElement@@XZ 00410b50 f   libwt:WTable.obj
 0001:0000ffd0       ?_Ufill@?$vector@UTableData@WTableRow@@V?$allocator@UTableData@WTableRow@@@std@@@std@@IAEPAUTableData@WTableRow@@PAU34@IABU34@@Z 00410fd0 f i libwt:WTable.obj
 0001:00010000       ??_EWTable@@UAEPAXI@Z      00411000 f i libwt:WTable.obj
 0001:00010060       ?removeCell@WTable@@QAEXPAVWTableCell@@@Z 00411060 f   libwt:WTable.obj
 0001:00010080       ?_Insert_n@?$vector@UTableData@WTableRow@@V?$allocator@UTableData@WTableRow@@@std@@@std@@IAEXViterator@12@IABUTableData@WTableRow@@@Z 00411080 f i libwt:WTable.obj
 0001:000102d0       ??_EWTableRow@@UAEPAXI@Z   004112d0 f i libwt:WTable.obj
 0001:00010330       ?getDomChanges@WTable@@MAEXAAV?$vector@PAVDomElement@@V?$allocator@PAVDomElement@@@std@@@std@@@Z 00411330 f   libwt:WTable.obj
 0001:00010450       ?buildSlotMap@WTableRow@@MAEXAAV?$map@V?$basic_string@DU?$char_traits@D@std@@V?$allocator@D@2@@std@@PAVWSlotInstance_@@U?$less@V?$basic_string@DU?$char_traits@D@std@@V?$allocator@D@2@@std@@@2@V?$allocator@U?$pair@$$CBV?$basic_string@DU?$char_traits@D@std@@V?$allocator@D@2@@std@@PAVWSlotInstance_@@@std@@@2@@std@@@Z 00411450 f   libwt:WTable.obj
 0001:00010510       ?buildSignalMap@WTableRow@@MAEXAAV?$map@V?$basic_string@DU?$char_traits@D@std@@V?$allocator@D@2@@std@@PAVWSignalInstance_@@U?$less@V?$basic_string@DU?$char_traits@D@std@@V?$allocator@D@2@@std@@@2@V?$allocator@U?$pair@$$CBV?$basic_string@DU?$char_traits@D@std@@V?$allocator@D@2@@std@@PAVWSignalInstance_@@@std@@@2@@std@@@Z 00411510 f   libwt:WTable.obj
 0001:000105d0       ?buildSlotMap@WTable@@MAEXAAV?$map@V?$basic_string@DU?$char_traits@D@std@@V?$allocator@D@2@@std@@PAVWSlotInstance_@@U?$less@V?$basic_string@DU?$char_traits@D@std@@V?$allocator@D@2@@std@@@2@V?$allocator@U?$pair@$$CBV?$basic_string@DU?$char_traits@D@std@@V?$allocator@D@2@@std@@PAVWSlotInstance_@@@std@@@2@@std@@@Z 004115d0 f   libwt:WTable.obj
 0001:00010690       ?buildSignalMap@WTable@@MAEXAAV?$map@V?$basic_string@DU?$char_traits@D@std@@V?$allocator@D@2@@std@@PAVWSignalInstance_@@U?$less@V?$basic_string@DU?$char_traits@D@std@@V?$allocator@D@2@@std@@@2@V?$allocator@U?$pair@$$CBV?$basic_string@DU?$char_traits@D@std@@V?$allocator@D@2@@std@@PAVWSignalInstance_@@@std@@@2@@std@@@Z 00411690 f   libwt:WTable.obj
 0001:00010750       ?insertColumn@WTableRow@@QAEXH@Z 00411750 f   libwt:WTable.obj
 0001:00010820       ?insertColumn@WTable@@QAEXH@Z 00411820 f   libwt:WTable.obj
 0001:00010870       ?expand@WTableRow@@AAEXH@Z 00411870 f   libwt:WTable.obj
 0001:00010990       ??0WTableRow@@QAE@PAVWTable@@H@Z 00411990 f   libwt:WTable.obj
 0001:00010a10       ?expand@WTable@@AAEXHHHH@Z 00411a10 f   libwt:WTable.obj
 0001:00010bc0       ?insertRow@WTable@@QAEXH@Z 00411bc0 f   libwt:WTable.obj
 0001:00010c90       ?insertRow@WTable@@QAEXHV?$basic_string@DU?$char_traits@D@std@@V?$allocator@D@2@@std@@@Z 00411c90 f   libwt:WTable.obj
 0001:00010d90       ?elementAt@WTable@@QAEPAVWTableCell@@HH@Z 00411d90 f   libwt:WTable.obj
 0001:00010dd0       ??_EWText@@UAEPAXI@Z       00411dd0 f i libwt:WText.obj
 0001:00010e30       ??0WText@@QAE@PAVWContainerWidget@@@Z 00411e30 f   libwt:WText.obj
 0001:00010ed0       ??0WText@@QAE@V?$basic_string@DU?$char_traits@D@std@@V?$allocator@D@2@@std@@PAVWContainerWidget@@@Z 00411ed0 f   libwt:WText.obj
 0001:00010f90       ??0WText@@QAE@ABVWMessage@@PAVWContainerWidget@@@Z 00411f90 f   libwt:WText.obj
 0001:00011050       ?hintedWidth@WText@@QBE?AVWLength@@XZ 00412050 f   libwt:WText.obj
 0001:00011090       ?setText@WText@@QAEXV?$basic_string@DU?$char_traits@D@std@@V?$allocator@D@2@@std@@@Z 00412090 f   libwt:WText.obj
 0001:00011120       ?setMessage@WText@@QAEXABVWMessage@@@Z 00412120 f   libwt:WText.obj
 0001:00011200       ?setFormatting@WText@@QAEXW4Formatting@1@@Z 00412200 f   libwt:WText.obj
 0001:00011210       ?formattedText@WText@@QBE?AV?$basic_string@DU?$char_traits@D@std@@V?$allocator@D@2@@std@@XZ 00412210 f   libwt:WText.obj
 0001:00011380       ?createDomElement@WText@@MAEPAVDomElement@@XZ 00412380 f   libwt:WText.obj
 0001:000113c0       ?refresh@WText@@UAEXXZ     004123c0 f   libwt:WText.obj
 0001:000114c0       ?updateDom@WText@@MAEXAAVDomElement@@_N@Z 004124c0 f   libwt:WText.obj
 0001:00011520       ?getDomChanges@WText@@MAEXAAV?$vector@PAVDomElement@@V?$allocator@PAVDomElement@@@std@@@std@@@Z 00412520 f   libwt:WText.obj
 0001:00011560       ?buildSlotMap@WText@@MAEXAAV?$map@V?$basic_string@DU?$char_traits@D@std@@V?$allocator@D@2@@std@@PAVWSlotInstance_@@U?$less@V?$basic_string@DU?$char_traits@D@std@@V?$allocator@D@2@@std@@@2@V?$allocator@U?$pair@$$CBV?$basic_string@DU?$char_traits@D@std@@V?$allocator@D@2@@std@@PAVWSlotInstance_@@@std@@@2@@std@@@Z 00412560 f   libwt:WText.obj
 0001:00011620       ?buildSignalMap@WText@@MAEXAAV?$map@V?$basic_string@DU?$char_traits@D@std@@V?$allocator@D@2@@std@@PAVWSignalInstance_@@U?$less@V?$basic_string@DU?$char_traits@D@std@@V?$allocator@D@2@@std@@@2@V?$allocator@U?$pair@$$CBV?$basic_string@DU?$char_traits@D@std@@V?$allocator@D@2@@std@@PAVWSignalInstance_@@@std@@@2@@std@@@Z 00412620 f   libwt:WText.obj
 0001:000116e0       ??_EWImage@@UAEPAXI@Z      004126e0 f i libwt:WImage.obj
 0001:00011740       ??0WImage@@QAE@PAVWContainerWidget@@@Z 00412740 f   libwt:WImage.obj
 0001:000117c0       ??0WImage@@QAE@V?$basic_string@DU?$char_traits@D@std@@V?$allocator@D@2@@std@@PAVWContainerWidget@@@Z 004127c0 f   libwt:WImage.obj
 0001:00011860       ??0WImage@@QAE@V?$basic_string@DU?$char_traits@D@std@@V?$allocator@D@2@@std@@0PAVWContainerWidget@@@Z 00412860 f   libwt:WImage.obj
 0001:00011910       ??0WImage@@QAE@PAVWResource@@V?$basic_string@DU?$char_traits@D@std@@V?$allocator@D@2@@std@@PAVWContainerWidget@@@Z 00412910 f   libwt:WImage.obj
 0001:00011a00       ?setAlternateText@WImage@@QAEXV?$basic_string@DU?$char_traits@D@std@@V?$allocator@D@2@@std@@@Z 00412a00 f   libwt:WImage.obj
 0001:00011a70       ?setImageRef@WImage@@QAEXV?$basic_string@DU?$char_traits@D@std@@V?$allocator@D@2@@std@@@Z 00412a70 f   libwt:WImage.obj
 0001:00011ae0       ?imageRef@WImage@@QBE?BV?$basic_string@DU?$char_traits@D@std@@V?$allocator@D@2@@std@@XZ 00412ae0 f   libwt:WImage.obj
 0001:00011ae0       ?text@WText@@QBE?BV?$basic_string@DU?$char_traits@D@std@@V?$allocator@D@2@@std@@XZ 00412ae0 f   refresh.obj
 0001:00011b10       ?resourceChanged@WImage@@AAEXXZ 00412b10 f   libwt:WImage.obj
 0001:00011b40       ?updateDom@WImage@@MAEXAAVDomElement@@_N@Z 00412b40 f   libwt:WImage.obj
 0001:00011bb0       ?createDomElement@WImage@@MAEPAVDomElement@@XZ 00412bb0 f   libwt:WImage.obj
 0001:00011be0       ?triggerSlot@WImage@@MAE_NPAVWObject@@PBVWSlot_@@PAPAX@Z 00412be0 f   libwt:WImage.obj
 0001:00011c10       ?getDomChanges@WImage@@MAEXAAV?$vector@PAVDomElement@@V?$allocator@PAVDomElement@@@std@@@std@@@Z 00412c10 f   libwt:WImage.obj
 0001:00011c50       ?buildSlotMap@WImage@@MAEXAAV?$map@V?$basic_string@DU?$char_traits@D@std@@V?$allocator@D@2@@std@@PAVWSlotInstance_@@U?$less@V?$basic_string@DU?$char_traits@D@std@@V?$allocator@D@2@@std@@@2@V?$allocator@U?$pair@$$CBV?$basic_string@DU?$char_traits@D@std@@V?$allocator@D@2@@std@@PAVWSlotInstance_@@@std@@@2@@std@@@Z 00412c50 f   libwt:WImage.obj
 0001:00011d10       ?buildSignalMap@WImage@@MAEXAAV?$map@V?$basic_string@DU?$char_traits@D@std@@V?$allocator@D@2@@std@@PAVWSignalInstance_@@U?$less@V?$basic_string@DU?$char_traits@D@std@@V?$allocator@D@2@@std@@@2@V?$allocator@U?$pair@$$CBV?$basic_string@DU?$char_traits@D@std@@V?$allocator@D@2@@std@@PAVWSignalInstance_@@@std@@@2@@std@@@Z 00412d10 f   libwt:WImage.obj
 0001:00011dd0       ?image@WLabel@@QBEPAVWImage@@XZ 00412dd0 f i libwt:WFormWidget.obj
 0001:00011de0       ??_FWLabel@@QAEXXZ         00412de0 f i libwt:WFormWidget.obj
 0001:00011df0       ?changed@WFormWidget@@QAEXXZ 00412df0 f   libwt:WFormWidget.obj
 0001:00011e00       ?selected@WFormWidget@@QAEXXZ 00412e00 f   libwt:WFormWidget.obj
 0001:00011e10       ?blurred@WFormWidget@@QAEXXZ 00412e10 f   libwt:WFormWidget.obj
 0001:00011e20       ?focussed@WFormWidget@@QAEXXZ 00412e20 f   libwt:WFormWidget.obj
 0001:00011e30       ??0WFormWidget@@QAE@PAVWContainerWidget@@@Z 00412e30 f   libwt:WFormWidget.obj
 0001:00011e60       ??1WFormWidget@@UAE@XZ     00412e60 f   libwt:WFormWidget.obj
 0001:00011ec0       ?setEnabled@WFormWidget@@QAEX_N@Z 00412ec0 f   libwt:WFormWidget.obj
 0001:00011ee0       ?updateDom@WFormWidget@@MAEXAAVDomElement@@_N@Z 00412ee0 f   libwt:WFormWidget.obj
 0001:00011fd0       ?setLabel@WFormWidget@@AAEXPAVWLabel@@@Z 00412fd0 f   libwt:WFormWidget.obj
 0001:00011fe0       ?setHidden@WFormWidget@@UAEX_N@Z 00412fe0 f   libwt:WFormWidget.obj
 0001:00012010       ??_EWFormWidget@@UAEPAXI@Z 00413010 f i libwt:WFormWidget.obj
 0001:00012070       ?enable@WFormWidget@@QAEXXZ 00413070 f   libwt:WFormWidget.obj
 0001:00012090       ?disable@WFormWidget@@QAEXXZ 00413090 f   libwt:WFormWidget.obj
 0001:000120b0       ?undoDisable@WFormWidget@@AAEXXZ 004130b0 f   libwt:WFormWidget.obj
 0001:000120b0       ?undoEnable@WFormWidget@@AAEXXZ 004130b0 f   libwt:WFormWidget.obj
 0001:000120d0       ?triggerSlot@WFormWidget@@MAE_NPAVWObject@@PBVWSlot_@@PAPAX@Z 004130d0 f   libwt:WFormWidget.obj
 0001:00012170       ?undoTriggerSlot@WFormWidget@@MAE_NPBVWSlot_@@PAPAX@Z 00413170 f   libwt:WFormWidget.obj
 0001:000121d0       ??4WLabel@@QAEAAV0@ABV0@@Z 004131d0 f i libwt:WFormWidget.obj
 0001:00012220       ?buildSlotMap@WFormWidget@@MAEXAAV?$map@V?$basic_string@DU?$char_traits@D@std@@V?$allocator@D@2@@std@@PAVWSlotInstance_@@U?$less@V?$basic_string@DU?$char_traits@D@std@@V?$allocator@D@2@@std@@@2@V?$allocator@U?$pair@$$CBV?$basic_string@DU?$char_traits@D@std@@V?$allocator@D@2@@std@@PAVWSlotInstance_@@@std@@@2@@std@@@Z 00413220 f   libwt:WFormWidget.obj
 0001:000122e0       ?buildSignalMap@WFormWidget@@MAEXAAV?$map@V?$basic_string@DU?$char_traits@D@std@@V?$allocator@D@2@@std@@PAVWSignalInstance_@@U?$less@V?$basic_string@DU?$char_traits@D@std@@V?$allocator@D@2@@std@@@2@V?$allocator@U?$pair@$$CBV?$basic_string@DU?$char_traits@D@std@@V?$allocator@D@2@@std@@PAVWSignalInstance_@@@std@@@2@@std@@@Z 004132e0 f   libwt:WFormWidget.obj
 0001:000123a0       ??_EWPushButton@@UAEPAXI@Z 004133a0 f i libwt:WPushButton.obj
 0001:00012400       ?triggerSlot@WPushButton@@MAE_NPAVWObject@@PBVWSlot_@@PAPAX@Z 00413400 f   libwt:WPushButton.obj
 0001:00012410       ?undoTriggerSlot@WPushButton@@MAE_NPBVWSlot_@@PAPAX@Z 00413410 f   libwt:WPushButton.obj
 0001:00012420       ??0WPushButton@@QAE@PAVWContainerWidget@@@Z 00413420 f   libwt:WPushButton.obj
 0001:000124a0       ??0WPushButton@@QAE@V?$basic_string@DU?$char_traits@D@std@@V?$allocator@D@2@@std@@PAVWContainerWidget@@@Z 004134a0 f   libwt:WPushButton.obj
 0001:00012540       ??0WPushButton@@QAE@ABVWMessage@@PAVWContainerWidget@@@Z 00413540 f   libwt:WPushButton.obj
 0001:00012600       ?setText@WPushButton@@QAEXV?$basic_string@DU?$char_traits@D@std@@V?$allocator@D@2@@std@@@Z 00413600 f   libwt:WPushButton.obj
 0001:00012690       ?setMessage@WPushButton@@QAEXABVWMessage@@@Z 00413690 f   libwt:WPushButton.obj
 0001:000126d0       ?updateDom@WPushButton@@MAEXAAVDomElement@@_N@Z 004136d0 f   libwt:WPushButton.obj
 0001:00012730       ?createDomElement@WPushButton@@MAEPAVDomElement@@XZ 00413730 f   libwt:WPushButton.obj
 0001:000127d0       ?refresh@WPushButton@@UAEXXZ 004137d0 f   libwt:WPushButton.obj
 0001:000128d0       ?getDomChanges@WPushButton@@MAEXAAV?$vector@PAVDomElement@@V?$allocator@PAVDomElement@@@std@@@std@@@Z 004138d0 f   libwt:WPushButton.obj
 0001:00012910       ?buildSlotMap@WPushButton@@MAEXAAV?$map@V?$basic_string@DU?$char_traits@D@std@@V?$allocator@D@2@@std@@PAVWSlotInstance_@@U?$less@V?$basic_string@DU?$char_traits@D@std@@V?$allocator@D@2@@std@@@2@V?$allocator@U?$pair@$$CBV?$basic_string@DU?$char_traits@D@std@@V?$allocator@D@2@@std@@PAVWSlotInstance_@@@std@@@2@@std@@@Z 00413910 f   libwt:WPushButton.obj
 0001:000129d0       ?buildSignalMap@WPushButton@@MAEXAAV?$map@V?$basic_string@DU?$char_traits@D@std@@V?$allocator@D@2@@std@@PAVWSignalInstance_@@U?$less@V?$basic_string@DU?$char_traits@D@std@@V?$allocator@D@2@@std@@@2@V?$allocator@U?$pair@$$CBV?$basic_string@DU?$char_traits@D@std@@V?$allocator@D@2@@std@@PAVWSignalInstance_@@@std@@@2@@std@@@Z 004139d0 f   libwt:WPushButton.obj
 0001:00012a90       ?triggerSlot@WScrollArea@@MAE_NPAVWObject@@PBVWSlot_@@PAPAX@Z 00413a90 f   libwt:WScrollArea.obj
 0001:00012aa0       ??0WScrollArea@@QAE@PAVWContainerWidget@@@Z 00413aa0 f   libwt:WScrollArea.obj
 0001:00012b80       ??1WScrollArea@@UAE@XZ     00413b80 f   libwt:WScrollArea.obj
 0001:00012bf0       ?scrollBarChanged@WScrollArea@@AAEXXZ 00413bf0 f   libwt:WScrollArea.obj
 0001:00012c00       ?setWidget@WScrollArea@@QAEXPAVWWidget@@@Z 00413c00 f   libwt:WScrollArea.obj
 0001:00012c50       ?takeWidget@WScrollArea@@QAEPAVWWidget@@XZ 00413c50 f   libwt:WScrollArea.obj
 0001:00012c90       ?setScrollBarPolicy@WScrollArea@@QAEXW4ScrollBarPolicy@1@@Z 00413c90 f   libwt:WScrollArea.obj
 0001:00012cb0       ?updateDom@WScrollArea@@MAEXAAVDomElement@@_N@Z 00413cb0 f   libwt:WScrollArea.obj
 0001:00012dd0       ?createDomElement@WScrollArea@@MAEPAVDomElement@@XZ 00413dd0 f   libwt:WScrollArea.obj
 0001:00012e00       ??_EWScrollArea@@UAEPAXI@Z 00413e00 f i libwt:WScrollArea.obj
 0001:00012e60       ?getDomChanges@WScrollArea@@MAEXAAV?$vector@PAVDomElement@@V?$allocator@PAVDomElement@@@std@@@std@@@Z 00413e60 f   libwt:WScrollArea.obj
 0001:00012ec0       ?buildSlotMap@WScrollArea@@MAEXAAV?$map@V?$basic_string@DU?$char_traits@D@std@@V?$allocator@D@2@@std@@PAVWSlotInstance_@@U?$less@V?$basic_string@DU?$char_traits@D@std@@V?$allocator@D@2@@std@@@2@V?$allocator@U?$pair@$$CBV?$basic_string@DU?$char_traits@D@std@@V?$allocator@D@2@@std@@PAVWSlotInstance_@@@std@@@2@@std@@@Z 00413ec0 f   libwt:WScrollArea.obj
 0001:00012f80       ?buildSignalMap@WScrollArea@@MAEXAAV?$map@V?$basic_string@DU?$char_traits@D@std@@V?$allocator@D@2@@std@@PAVWSignalInstance_@@U?$less@V?$basic_string@DU?$char_traits@D@std@@V?$allocator@D@2@@std@@@2@V?$allocator@U?$pair@$$CBV?$basic_string@DU?$char_traits@D@std@@V?$allocator@D@2@@std@@PAVWSignalInstance_@@@std@@@2@@std@@@Z 00413f80 f   libwt:WScrollArea.obj
 0001:00013040       ?undoTriggerSlot@WApplication@@MAE_NPBVWSlot_@@PAPAX@Z 00414040 f   libwt:WApplication.obj
 0001:00013040       ?undoTriggerSlot@WResource@@MAE_NPBVWSlot_@@PAPAX@Z 00414040 f   libwt:WResource.obj
 0001:00013040       ?undoTriggerSlot@WScrollBar@@MAE_NPBVWSlot_@@PAPAX@Z 00414040 f   libwt:WScrollBar.obj
 0001:00013050       ?exec@WApplication@@QAEHXZ 00414050 f   libwt:WApplication.obj
 0001:00013060       ?instance@WApplication@@SAPAV1@XZ 00414060 f   libwt:WApplication.obj
 0001:00013070       ?setTitle@WApplication@@QAEXV?$basic_string@DU?$char_traits@D@std@@V?$allocator@D@2@@std@@@Z 00414070 f   libwt:WApplication.obj
 0001:000130c0       ?url@WApplication@@QBE?AV?$basic_string@DU?$char_traits@D@std@@V?$allocator@D@2@@std@@XZ 004140c0 f   libwt:WApplication.obj
 0001:000130f0       ?submiturl@WApplication@@QBE?AV?$basic_string@DU?$char_traits@D@std@@V?$allocator@D@2@@std@@XZ 004140f0 f   libwt:WApplication.obj
 0001:00013120       ?quit@WApplication@@QAEXXZ 00414120 f   libwt:WApplication.obj
 0001:00013130       ?scheduleUploadFiles@WApplication@@QAEXXZ 00414130 f   libwt:WApplication.obj
 0001:00013140       ?setOAPLDownloadPath@WApplication@@QAEXV?$basic_string@DU?$char_traits@D@std@@V?$allocator@D@2@@std@@@Z 00414140 f   libwt:WApplication.obj
 0001:00013190       ?haveJavaScript@WApplication@@QBE_NXZ 00414190 f   libwt:WApplication.obj
 0001:000131a0       ?refresh@WApplication@@UAEXXZ 004141a0 f   libwt:WApplication.obj
 0001:000131c0       ?setBodyAttribute@WApplication@@QAEXV?$basic_string@DU?$char_traits@D@std@@V?$allocator@D@2@@std@@@Z 004141c0 f   libwt:WApplication.obj
 0001:00013210       ?setRefreshTime@WApplication@@QAEXHV?$basic_string@DU?$char_traits@D@std@@V?$allocator@D@2@@std@@@Z 00414210 f   libwt:WApplication.obj
 0001:00013270       ?_Dec@const_iterator@?$_Tree@V?$_Tset_traits@PBVWResource@@U?$less@PBVWResource@@@std@@V?$allocator@PBVWResource@@@3@$0A@@std@@@std@@QAEXXZ 00414270 f i libwt:WApplication.obj
 0001:00013270       ?_Dec@const_iterator@?$_Tree@V?$_Tset_traits@PBVWSignalInstance_@@U?$less@PBVWSignalInstance_@@@std@@V?$allocator@PBVWSignalInstance_@@@3@$0A@@std@@@std@@QAEXXZ 00414270 f i libwt:WApplication.obj
 0001:000132d0       ?triggerSlot@WApplication@@MAE_NPAVWObject@@PBVWSlot_@@PAPAX@Z 004142d0 f   libwt:WApplication.obj
 0001:00013310       ?_Buynode@?$_Tree@V?$_Tset_traits@PBVWSignalInstance_@@U?$less@PBVWSignalInstance_@@@std@@V?$allocator@PBVWSignalInstance_@@@3@$0A@@std@@@std@@IAEPAU_Node@?$_Tree_nod@V?$_Tset_traits@PBVWSignalInstance_@@U?$less@PBVWSignalInstance_@@@std@@V?$allocator@PBVWSignalInstance_@@@3@$0A@@std@@@2@XZ 00414310 f i libwt:WApplication.obj
 0001:00013310       ?_Buynode@?$_Tree@V?$_Tset_traits@PBVWResource@@U?$less@PBVWResource@@@std@@V?$allocator@PBVWResource@@@3@$0A@@std@@@std@@IAEPAU_Node@?$_Tree_nod@V?$_Tset_traits@PBVWResource@@U?$less@PBVWResource@@@std@@V?$allocator@PBVWResource@@@3@$0A@@std@@@2@XZ 00414310 f i libwt:WApplication.obj
 0001:00013350       ?find@?$_Tree@V?$_Tset_traits@PBVWSignalInstance_@@U?$less@PBVWSignalInstance_@@@std@@V?$allocator@PBVWSignalInstance_@@@3@$0A@@std@@@std@@QBE?AVconst_iterator@12@ABQBVWSignalInstance_@@@Z 00414350 f i libwt:WApplication.obj
 0001:00013350       ?find@?$_Tree@V?$_Tset_traits@PBVWResource@@U?$less@PBVWResource@@@std@@V?$allocator@PBVWResource@@@3@$0A@@std@@@std@@QBE?AVconst_iterator@12@ABQBVWResource@@@Z 00414350 f i libwt:WApplication.obj
 0001:00013350       ?find@?$_Tree@V?$_Tset_traits@PBVWResource@@U?$less@PBVWResource@@@std@@V?$allocator@PBVWResource@@@3@$0A@@std@@@std@@QAE?AViterator@12@ABQBVWResource@@@Z 00414350 f i libwt:WApplication.obj
 0001:00013350       ?find@?$_Tree@V?$_Tset_traits@PBVWSignalInstance_@@U?$less@PBVWSignalInstance_@@@std@@V?$allocator@PBVWSignalInstance_@@@3@$0A@@std@@@std@@QAE?AViterator@12@ABQBVWSignalInstance_@@@Z 00414350 f i libwt:WApplication.obj
 0001:000133c0       ?_Insert@?$_Tree@V?$_Tset_traits@PBVWResource@@U?$less@PBVWResource@@@std@@V?$allocator@PBVWResource@@@3@$0A@@std@@@std@@IAE?AViterator@12@_NPAU_Node@?$_Tree_nod@V?$_Tset_traits@PBVWResource@@U?$less@PBVWResource@@@std@@V?$allocator@PBVWResource@@@3@$0A@@std@@@2@ABQBVWResource@@@Z 004143c0 f i libwt:WApplication.obj
 0001:000133c0       ?_Insert@?$_Tree@V?$_Tset_traits@PBVWSignalInstance_@@U?$less@PBVWSignalInstance_@@@std@@V?$allocator@PBVWSignalInstance_@@@3@$0A@@std@@@std@@IAE?AViterator@12@_NPAU_Node@?$_Tree_nod@V?$_Tset_traits@PBVWSignalInstance_@@U?$less@PBVWSignalInstance_@@@std@@V?$allocator@PBVWSignalInstance_@@@3@$0A@@std@@@2@ABQBVWSignalInstance_@@@Z 004143c0 f i libwt:WApplication.obj
 0001:00013580       ?equal_range@?$_Tree@V?$_Tset_traits@PBVWSignalInstance_@@U?$less@PBVWSignalInstance_@@@std@@V?$allocator@PBVWSignalInstance_@@@3@$0A@@std@@@std@@QAE?AU?$pair@Viterator@?$_Tree@V?$_Tset_traits@PBVWSignalInstance_@@U?$less@PBVWSignalInstance_@@@std@@V?$allocator@PBVWSignalInstance_@@@3@$0A@@std@@@std@@V123@@2@ABQBVWSignalInstance_@@@Z 00414580 f i libwt:WApplication.obj
 0001:00013580       ?equal_range@?$_Tree@V?$_Tset_traits@PBVWResource@@U?$less@PBVWResource@@@std@@V?$allocator@PBVWResource@@@3@$0A@@std@@@std@@QAE?AU?$pair@Viterator@?$_Tree@V?$_Tset_traits@PBVWResource@@U?$less@PBVWResource@@@std@@V?$allocator@PBVWResource@@@3@$0A@@std@@@std@@V123@@2@ABQBVWResource@@@Z 00414580 f i libwt:WApplication.obj
 0001:000135f0       ??$_Distance@Viterator@?$_Tree@V?$_Tset_traits@PBVWResource@@U?$less@PBVWResource@@@std@@V?$allocator@PBVWResource@@@3@$0A@@std@@@std@@I@std@@YAXViterator@?$_Tree@V?$_Tset_traits@PBVWResource@@U?$less@PBVWResource@@@std@@V?$allocator@PBVWResource@@@3@$0A@@std@@@0@0AAI@Z 004145f0 f i libwt:WApplication.obj
 0001:000135f0       ??$_Distance@Viterator@?$_Tree@V?$_Tset_traits@PBVWSignalInstance_@@U?$less@PBVWSignalInstance_@@@std@@V?$allocator@PBVWSignalInstance_@@@3@$0A@@std@@@std@@I@std@@YAXViterator@?$_Tree@V?$_Tset_traits@PBVWSignalInstance_@@U?$less@PBVWSignalInstance_@@@std@@V?$allocator@PBVWSignalInstance_@@@3@$0A@@std@@@0@0AAI@Z 004145f0 f i libwt:WApplication.obj
 0001:00013630       ?isExposedSignal@WApplication@@ABE_NPBVWSignalInstance_@@@Z 00414630 f   libwt:WApplication.obj
 0001:00013660       ?isExposedResource@WApplication@@ABE_NPBVWResource@@@Z 00414660 f   libwt:WApplication.obj
 0001:00013690       ?insert@?$_Tree@V?$_Tset_traits@PBVWResource@@U?$less@PBVWResource@@@std@@V?$allocator@PBVWResource@@@3@$0A@@std@@@std@@QAE?AU?$pair@Viterator@?$_Tree@V?$_Tset_traits@PBVWResource@@U?$less@PBVWResource@@@std@@V?$allocator@PBVWResource@@@3@$0A@@std@@@std@@_N@2@ABQBVWResource@@@Z 00414690 f i libwt:WApplication.obj
 0001:00013690       ?insert@?$_Tree@V?$_Tset_traits@PBVWSignalInstance_@@U?$less@PBVWSignalInstance_@@@std@@V?$allocator@PBVWSignalInstance_@@@3@$0A@@std@@@std@@QAE?AU?$pair@Viterator@?$_Tree@V?$_Tset_traits@PBVWSignalInstance_@@U?$less@PBVWSignalInstance_@@@std@@V?$allocator@PBVWSignalInstance_@@@3@$0A@@std@@@std@@_N@2@ABQBVWSignalInstance_@@@Z 00414690 f i libwt:WApplication.obj
 0001:00013750       ?addExposedSignal@WApplication@@AAEXPBVWSignalInstance_@@@Z 00414750 f   libwt:WApplication.obj
 0001:00013770       ?addExposedResource@WApplication@@AAEXPBVWResource@@@Z 00414770 f   libwt:WApplication.obj
 0001:000137c0       ?erase@?$_Tree@V?$_Tset_traits@PBVWSignalInstance_@@U?$less@PBVWSignalInstance_@@@std@@V?$allocator@PBVWSignalInstance_@@@3@$0A@@std@@@std@@QAEIABQBVWSignalInstance_@@@Z 004147c0 f i libwt:WApplication.obj
 0001:00013820       ?erase@?$_Tree@V?$_Tset_traits@PBVWResource@@U?$less@PBVWResource@@@std@@V?$allocator@PBVWResource@@@3@$0A@@std@@@std@@QAEIABQBVWResource@@@Z 00414820 f i libwt:WApplication.obj
 0001:00013880       ??1?$set@PBVWSignalInstance_@@U?$less@PBVWSignalInstance_@@@std@@V?$allocator@PBVWSignalInstance_@@@3@@std@@QAE@XZ 00414880 f i libwt:WApplication.obj
 0001:000138b0       ??1?$set@PBVWResource@@U?$less@PBVWResource@@@std@@V?$allocator@PBVWResource@@@3@@std@@QAE@XZ 004148b0 f i libwt:WApplication.obj
 0001:000138e0       ??1WApplication@@UAE@XZ    004148e0 f   libwt:WApplication.obj
 0001:00013a40       ?removeExposedSignal@WApplication@@AAEXPBVWSignalInstance_@@@Z 00414a40 f   libwt:WApplication.obj
 0001:00013ab0       ?removeExposedResource@WApplication@@AAEXPBVWResource@@@Z 00414ab0 f   libwt:WApplication.obj
 0001:00013b40       ??_EWApplication@@UAEPAXI@Z 00414b40 f i libwt:WApplication.obj
 0001:00013ba0       ?buildSlotMap@WApplication@@MAEXAAV?$map@V?$basic_string@DU?$char_traits@D@std@@V?$allocator@D@2@@std@@PAVWSlotInstance_@@U?$less@V?$basic_string@DU?$char_traits@D@std@@V?$allocator@D@2@@std@@@2@V?$allocator@U?$pair@$$CBV?$basic_string@DU?$char_traits@D@std@@V?$allocator@D@2@@std@@PAVWSlotInstance_@@@std@@@2@@std@@@Z 00414ba0 f   libwt:WApplication.obj
 0001:00013c60       ?buildSignalMap@WApplication@@MAEXAAV?$map@V?$basic_string@DU?$char_traits@D@std@@V?$allocator@D@2@@std@@PAVWSignalInstance_@@U?$less@V?$basic_string@DU?$char_traits@D@std@@V?$allocator@D@2@@std@@@2@V?$allocator@U?$pair@$$CBV?$basic_string@DU?$char_traits@D@std@@V?$allocator@D@2@@std@@PAVWSignalInstance_@@@std@@@2@@std@@@Z 00414c60 f   libwt:WApplication.obj
 0001:00013d20       ??0WApplication@@QAE@HQAPAD@Z 00414d20 f   libwt:WApplication.obj
 0001:00013e90       ??4WConnection_@@QAEAAV0@ABV0@@Z 00414e90 f i libwt:WebSession.obj
 0001:00013eb0       ?WriteLog@WebSession@@QAEXPAD0@Z 00414eb0 f   libwt:WebSession.obj
 0001:00013ee0       ?WriteLog1@WebSession@@QAEXPAD0@Z 00414ee0 f   libwt:WebSession.obj
 0001:00013f10       ?accept@WebSession@@QAE_NXZ 00414f10 f   libwt:WebSession.obj
 0001:00014000       ?serveResource@WebSession@@AAEXPAVWResource@@@Z 00415000 f   libwt:WebSession.obj
 0001:00014060       ?setCurrentWidget@WebSession@@AAEXPAVWWidget@@@Z 00415060 f   libwt:WebSession.obj
 0001:000140d0       ?UnicodeToGB@@YAPADPBG@Z   004150d0 f   libwt:WebSession.obj
 0001:00014140       ?unescape_url@@YAXPAD@Z    00415140 f   libwt:WebSession.obj
 0001:00014250       ?lineread@@YAHPAU_iobuf@@PADH@Z 00415250 f   libwt:WebSession.obj
 0001:00014340       ?cgi_quit1@WebSession@@QAEXXZ 00415340 f   libwt:WebSession.obj
 0001:00014480       ?cgi_quit@WebSession@@QAEXXZ 00415480 f   libwt:WebSession.obj
 0001:000145c0       ?cgi_getcookie@WebSession@@QAEPBDPBD@Z 004155c0 f   libwt:WebSession.obj
 0001:00014650       ?cgi_getnumentries@WebSession@@QAEHPBD@Z 00415650 f   libwt:WebSession.obj
 0001:000146d0       ?cgi_getnentrystr@WebSession@@QAEPBDPBDHPAH@Z 004156d0 f   libwt:WebSession.obj
 0001:000147c0       ?cgi_getnentrytype@WebSession@@QAEPBDPBDH@Z 004157c0 f   libwt:WebSession.obj
 0001:000148b0       ?cgi_getnentryfilename@WebSession@@QAEPBDPBDH@Z 004158b0 f   libwt:WebSession.obj
 0001:000149a0       ?cgi_getnentrybool@WebSession@@QAEHPBDHH@Z 004159a0 f   libwt:WebSession.obj
 0001:00014a60       ?cgi_dump_no_abort@WebSession@@QAEHPBD@Z 00415a60 f   libwt:WebSession.obj
 0001:00014b10       ?cgi_dump@WebSession@@QAEXPBD@Z 00415b10 f   libwt:WebSession.obj
 0001:00014b50       ?cgi_error@WebSession@@QAEXPBD@Z 00415b50 f   libwt:WebSession.obj
 0001:00014b80       ?cgi_goodemailaddress@WebSession@@QAEHPBD@Z 00415b80 f   libwt:WebSession.obj
 0001:00014c80       ?cgi_strerror@WebSession@@QAEPBDH@Z 00415c80 f   libwt:WebSession.obj
 0001:00014ca0       ?GetWtEnv@WebSession@@AAEPADPBD@Z 00415ca0 f   libwt:WebSession.obj
 0001:00014cf0       ?GetSessionIdbyCookie@WebSession@@QAEHXZ 00415cf0 f   libwt:WebSession.obj
 0001:00014d10       ?GetUserIdbyCookie@WebSession@@QAEHXZ 00415d10 f   libwt:WebSession.obj
 0001:00014d30       ?cgi_parse_cookies@WebSession@@QAEHXZ 00415d30 f   libwt:WebSession.obj
 0001:00014ed0       ?cgi_getentrystr@WebSession@@QAEPBDPBDPAH@Z 00415ed0 f   libwt:WebSession.obj
 0001:00014ef0       ?cgi_getentrytype@WebSession@@QAEPBDPBD@Z 00415ef0 f   libwt:WebSession.obj
 0001:00014f00       ?cgi_getentryfilename@WebSession@@QAEPBDPBD@Z 00415f00 f   libwt:WebSession.obj
 0001:00014f10       ?cgi_getnentryint@WebSession@@QAEHPBDH@Z 00415f10 f   libwt:WebSession.obj
 0001:00014f80       ?cgi_getnentrydouble@WebSession@@QAENPBDH@Z 00415f80 f   libwt:WebSession.obj
 0001:00015000       ?cgi_getentrybool@WebSession@@QAEHPBDH@Z 00416000 f   libwt:WebSession.obj
 0001:00015020       ?cgi_init@WebSession@@QAEHXZ 00416020 f   libwt:WebSession.obj
 0001:00015910       ?cgi_getentryint@WebSession@@QAEHPBD@Z 00416910 f   libwt:WebSession.obj
 0001:00015920       ?cgi_getentrydouble@WebSession@@QAENPBD@Z 00416920 f   libwt:WebSession.obj
 0001:00015930       ?handleRequestData@WebSession@@AAEPAVWResource@@XZ 00416930 f   libwt:WebSession.obj
 0001:00015d40       ?createFormsVar@WebSession@@AAE?AV?$basic_string@DU?$char_traits@D@std@@V?$allocator@D@2@@std@@ABV?$vector@PAVWObject@@V?$allocator@PAVWObject@@@std@@@3@@Z 00416d40 f   libwt:WebSession.obj
 0001:00015ea0       ??0WebSession@@QAE@V?$basic_string@DU?$char_traits@D@std@@V?$allocator@D@2@@std@@_N1V12@2@Z 00416ea0 f   libwt:WebSession.obj
 0001:000160e0       ?serveMainpage@WebSession@@AAEXPAVWWidget@@@Z 004170e0 f   libwt:WebSession.obj
 0001:00016ed0       ?serveJavascriptUpdate@WebSession@@AAEXPAVWWidget@@@Z 00417ed0 f   libwt:WebSession.obj
 0001:00017480       ?generateResponse@WebSession@@AAEXPAVWResource@@@Z 00418480 f   libwt:WebSession.obj
 0001:00017680       ?start@WebSession@@QAEXP6AXHPAPAD@ZH0@Z 00418680 f   libwt:WebSession.obj
 0001:000177b0       ?eventLoop@WebSession@@AAEHXZ 004187b0 f   libwt:WebSession.obj
 0001:00017830       ?eventLoop@WebSession@@AAEHPAVWApplication@@@Z 00418830 f   libwt:WebSession.obj
 0001:00017850       ?WApplicationExecCallback@WebSession@@SAHPAVWApplication@@@Z 00418850 f   libwt:WebSession.obj
 0001:00017880       ??0WObject@@QAE@XZ         00418880 f   libwt:WObject.obj
 0001:000178a0       ?formName@WObject@@QBE?BV?$basic_string@DU?$char_traits@D@std@@V?$allocator@D@2@@std@@XZ 004188a0 f   libwt:WObject.obj
 0001:000178f0       ?setFormData@WObject@@UAEXPBDH0@Z 004188f0 f   libwt:WObject.obj
 0001:00017920       ?setNoFormData@WObject@@UAEXXZ 00418920 f   libwt:WObject.obj
 0001:00017950       ??1_Node@?$_Tree_nod@V?$_Tmap_traits@V?$basic_string@DU?$char_traits@D@std@@V?$allocator@D@2@@std@@PAVWSignalInstance_@@U?$less@V?$basic_string@DU?$char_traits@D@std@@V?$allocator@D@2@@std@@@2@V?$allocator@U?$pair@$$CBV?$basic_string@DU?$char_traits@D@std@@V?$allocator@D@2@@std@@PAVWSignalInstance_@@@std@@@2@$0A@@std@@@std@@QAE@XZ 00418950 f i libwt:WObject.obj
 0001:00017950       ??1_Node@?$_Tree_nod@V?$_Tmap_traits@V?$basic_string@DU?$char_traits@D@std@@V?$allocator@D@2@@std@@PAVWSlotInstance_@@U?$less@V?$basic_string@DU?$char_traits@D@std@@V?$allocator@D@2@@std@@@2@V?$allocator@U?$pair@$$CBV?$basic_string@DU?$char_traits@D@std@@V?$allocator@D@2@@std@@PAVWSlotInstance_@@@std@@@2@$0A@@std@@@std@@QAE@XZ 00418950 f i libwt:WObject.obj
 0001:00017950       ??1_Node@?$_Tree_nod@V?$_Tmap_traits@V?$basic_string@DU?$char_traits@D@std@@V?$allocator@D@2@@std@@PAVWCssRule@@U?$less@V?$basic_string@DU?$char_traits@D@std@@V?$allocator@D@2@@std@@@2@V?$allocator@U?$pair@$$CBV?$basic_string@DU?$char_traits@D@std@@V?$allocator@D@2@@std@@PAVWCssRule@@@std@@@2@$0A@@std@@@std@@QAE@XZ 00418950 f i refresh.obj
 0001:00017960       ?triggerSlot@WObject@@MAE_NPAV1@PBVWSlot_@@PAPAX@Z 00418960 f   libwt:WObject.obj
 0001:000179e0       ?undoTriggerSlot@WObject@@MAE_NPBVWSlot_@@PAPAX@Z 004189e0 f   libwt:WObject.obj
 0001:00017a60       ?isConnected@WObject@@IBE_NPBVWSignalInstance_@@@Z 00418a60 f   libwt:WObject.obj
 0001:00017aa0       ?_Buynode@?$_Tree@V?$_Tmap_traits@W4Property@Wt@@V?$basic_string@DU?$char_traits@D@std@@V?$allocator@D@2@@std@@U?$less@W4Property@Wt@@@4@V?$allocator@U?$pair@$$CBW4Property@Wt@@V?$basic_string@DU?$char_traits@D@std@@V?$allocator@D@2@@std@@@std@@@4@$0A@@std@@@std@@IAEPAU_Node@?$_Tree_nod@V?$_Tmap_traits@W4Property@Wt@@V?$basic_string@DU?$char_traits@D@std@@V?$allocator@D@2@@std@@U?$less@W4Property@Wt@@@4@V?$allocator@U?$pair@$$CBW4Property@Wt@@V?$basic_string@DU?$char_traits@D@std@@V?$allocator@D@2@@std@@@std@@@4@$0A@@std@@@2@XZ 00418aa0 f i libwt:WWebWidget.obj
 0001:00017aa0       ?_Buynode@?$_Tree@V?$_Tmap_traits@V?$basic_string@DU?$char_traits@D@std@@V?$allocator@D@2@@std@@PAVWSlotInstance_@@U?$less@V?$basic_string@DU?$char_traits@D@std@@V?$allocator@D@2@@std@@@2@V?$allocator@U?$pair@$$CBV?$basic_string@DU?$char_traits@D@std@@V?$allocator@D@2@@std@@PAVWSlotInstance_@@@std@@@2@$0A@@std@@@std@@IAEPAU_Node@?$_Tree_nod@V?$_Tmap_traits@V?$basic_string@DU?$char_traits@D@std@@V?$allocator@D@2@@std@@PAVWSlotInstance_@@U?$less@V?$basic_string@DU?$char_traits@D@std@@V?$allocator@D@2@@std@@@2@V?$allocator@U?$pair@$$CBV?$basic_string@DU?$char_traits@D@std@@V?$allocator@D@2@@std@@PAVWSlotInstance_@@@std@@@2@$0A@@std@@@2@XZ 00418aa0 f i libwt:WObject.obj
 0001:00017aa0       ?_Buynode@?$_Tree@V?$_Tmap_traits@V?$basic_string@DU?$char_traits@D@std@@V?$allocator@D@2@@std@@PAVWCssRule@@U?$less@V?$basic_string@DU?$char_traits@D@std@@V?$allocator@D@2@@std@@@2@V?$allocator@U?$pair@$$CBV?$basic_string@DU?$char_traits@D@std@@V?$allocator@D@2@@std@@PAVWCssRule@@@std@@@2@$0A@@std@@@std@@IAEPAU_Node@?$_Tree_nod@V?$_Tmap_traits@V?$basic_string@DU?$char_traits@D@std@@V?$allocator@D@2@@std@@PAVWCssRule@@U?$less@V?$basic_string@DU?$char_traits@D@std@@V?$allocator@D@2@@std@@@2@V?$allocator@U?$pair@$$CBV?$basic_string@DU?$char_traits@D@std@@V?$allocator@D@2@@std@@PAVWCssRule@@@std@@@2@$0A@@std@@@2@XZ 00418aa0 f i libwt:WCssStyleSheet.obj
 0001:00017aa0       ?_Buynode@?$_Tree@V?$_Tmap_traits@V?$basic_string@DU?$char_traits@D@std@@V?$allocator@D@2@@std@@PAVWSignalInstance_@@U?$less@V?$basic_string@DU?$char_traits@D@std@@V?$allocator@D@2@@std@@@2@V?$allocator@U?$pair@$$CBV?$basic_string@DU?$char_traits@D@std@@V?$allocator@D@2@@std@@PAVWSignalInstance_@@@std@@@2@$0A@@std@@@std@@IAEPAU_Node@?$_Tree_nod@V?$_Tmap_traits@V?$basic_string@DU?$char_traits@D@std@@V?$allocator@D@2@@std@@PAVWSignalInstance_@@U?$less@V?$basic_string@DU?$char_traits@D@std@@V?$allocator@D@2@@std@@@2@V?$allocator@U?$pair@$$CBV?$basic_string@DU?$char_traits@D@std@@V?$allocator@D@2@@std@@PAVWSignalInstance_@@@std@@@2@$0A@@std@@@2@XZ 00418aa0 f i libwt:WObject.obj
 0001:00017ae0       ?findConnectedNeedTriggerStaticSlot@WObject@@IAEPAVWSlotInstance_@@XZ 00418ae0 f   libwt:WObject.obj
 0001:00017b20       ?find@?$_Tree@V?$_Tmap_traits@V?$basic_string@DU?$char_traits@D@std@@V?$allocator@D@2@@std@@PAVWSlotInstance_@@U?$less@V?$basic_string@DU?$char_traits@D@std@@V?$allocator@D@2@@std@@@2@V?$allocator@U?$pair@$$CBV?$basic_string@DU?$char_traits@D@std@@V?$allocator@D@2@@std@@PAVWSlotInstance_@@@std@@@2@$0A@@std@@@std@@QAE?AViterator@12@ABV?$basic_string@DU?$char_traits@D@std@@V?$allocator@D@2@@2@@Z 00418b20 f i libwt:WObject.obj
 0001:00017b20       ?find@?$_Tree@V?$_Tmap_traits@V?$basic_string@DU?$char_traits@D@std@@V?$allocator@D@2@@std@@PAVWSignalInstance_@@U?$less@V?$basic_string@DU?$char_traits@D@std@@V?$allocator@D@2@@std@@@2@V?$allocator@U?$pair@$$CBV?$basic_string@DU?$char_traits@D@std@@V?$allocator@D@2@@std@@PAVWSignalInstance_@@@std@@@2@$0A@@std@@@std@@QAE?AViterator@12@ABV?$basic_string@DU?$char_traits@D@std@@V?$allocator@D@2@@2@@Z 00418b20 f i libwt:WObject.obj
 0001:00017b80       ?erase@?$_Tree@V?$_Tmap_traits@V?$basic_string@DU?$char_traits@D@std@@V?$allocator@D@2@@std@@PAVWSlotInstance_@@U?$less@V?$basic_string@DU?$char_traits@D@std@@V?$allocator@D@2@@std@@@2@V?$allocator@U?$pair@$$CBV?$basic_string@DU?$char_traits@D@std@@V?$allocator@D@2@@std@@PAVWSlotInstance_@@@std@@@2@$0A@@std@@@std@@QAE?AViterator@12@V312@@Z 00418b80 f i libwt:WObject.obj
 0001:00017b80       ?erase@?$_Tree@V?$_Tmap_traits@V?$basic_string@DU?$char_traits@D@std@@V?$allocator@D@2@@std@@PAVWSignalInstance_@@U?$less@V?$basic_string@DU?$char_traits@D@std@@V?$allocator@D@2@@std@@@2@V?$allocator@U?$pair@$$CBV?$basic_string@DU?$char_traits@D@std@@V?$allocator@D@2@@std@@PAVWSignalInstance_@@@std@@@2@$0A@@std@@@std@@QAE?AViterator@12@V312@@Z 00418b80 f i libwt:WObject.obj
 0001:00017e60       ?_Erase@?$_Tree@V?$_Tmap_traits@V?$basic_string@DU?$char_traits@D@std@@V?$allocator@D@2@@std@@PAVWSlotInstance_@@U?$less@V?$basic_string@DU?$char_traits@D@std@@V?$allocator@D@2@@std@@@2@V?$allocator@U?$pair@$$CBV?$basic_string@DU?$char_traits@D@std@@V?$allocator@D@2@@std@@PAVWSlotInstance_@@@std@@@2@$0A@@std@@@std@@IAEXPAU_Node@?$_Tree_nod@V?$_Tmap_traits@V?$basic_string@DU?$char_traits@D@std@@V?$allocator@D@2@@std@@PAVWSlotInstance_@@U?$less@V?$basic_string@DU?$char_traits@D@std@@V?$allocator@D@2@@std@@@2@V?$allocator@U?$pair@$$CBV?$basic_string@DU?$char_traits@D@std@@V?$allocator@D@2@@std@@PAVWSlotInstance_@@@std@@@2@$0A@@std@@@2@@Z 00418e60 f i libwt:WObject.obj
 0001:00017ea0       ?_Erase@?$_Tree@V?$_Tmap_traits@V?$basic_string@DU?$char_traits@D@std@@V?$allocator@D@2@@std@@PAVWSignalInstance_@@U?$less@V?$basic_string@DU?$char_traits@D@std@@V?$allocator@D@2@@std@@@2@V?$allocator@U?$pair@$$CBV?$basic_string@DU?$char_traits@D@std@@V?$allocator@D@2@@std@@PAVWSignalInstance_@@@std@@@2@$0A@@std@@@std@@IAEXPAU_Node@?$_Tree_nod@V?$_Tmap_traits@V?$basic_string@DU?$char_traits@D@std@@V?$allocator@D@2@@std@@PAVWSignalInstance_@@U?$less@V?$basic_string@DU?$char_traits@D@std@@V?$allocator@D@2@@std@@@2@V?$allocator@U?$pair@$$CBV?$basic_string@DU?$char_traits@D@std@@V?$allocator@D@2@@std@@PAVWSignalInstance_@@@std@@@2@$0A@@std@@@2@@Z 00418ea0 f i libwt:WObject.obj
 0001:00017ee0       ?erase@?$_Tree@V?$_Tmap_traits@V?$basic_string@DU?$char_traits@D@std@@V?$allocator@D@2@@std@@PAVWSlotInstance_@@U?$less@V?$basic_string@DU?$char_traits@D@std@@V?$allocator@D@2@@std@@@2@V?$allocator@U?$pair@$$CBV?$basic_string@DU?$char_traits@D@std@@V?$allocator@D@2@@std@@PAVWSlotInstance_@@@std@@@2@$0A@@std@@@std@@QAE?AViterator@12@V312@0@Z 00418ee0 f i libwt:WObject.obj
 0001:00017fa0       ?erase@?$_Tree@V?$_Tmap_traits@V?$basic_string@DU?$char_traits@D@std@@V?$allocator@D@2@@std@@PAVWSignalInstance_@@U?$less@V?$basic_string@DU?$char_traits@D@std@@V?$allocator@D@2@@std@@@2@V?$allocator@U?$pair@$$CBV?$basic_string@DU?$char_traits@D@std@@V?$allocator@D@2@@std@@PAVWSignalInstance_@@@std@@@2@$0A@@std@@@std@@QAE?AViterator@12@V312@0@Z 00418fa0 f i libwt:WObject.obj
 0001:00018060       ?buildSlotMap@WObject@@MAEXAAV?$map@V?$basic_string@DU?$char_traits@D@std@@V?$allocator@D@2@@std@@PAVWSlotInstance_@@U?$less@V?$basic_string@DU?$char_traits@D@std@@V?$allocator@D@2@@std@@@2@V?$allocator@U?$pair@$$CBV?$basic_string@DU?$char_traits@D@std@@V?$allocator@D@2@@std@@PAVWSlotInstance_@@@std@@@2@@std@@@Z 00419060 f   libwt:WObject.obj
 0001:00018110       ?buildSignalMap@WObject@@MAEXAAV?$map@V?$basic_string@DU?$char_traits@D@std@@V?$allocator@D@2@@std@@PAVWSignalInstance_@@U?$less@V?$basic_string@DU?$char_traits@D@std@@V?$allocator@D@2@@std@@@2@V?$allocator@U?$pair@$$CBV?$basic_string@DU?$char_traits@D@std@@V?$allocator@D@2@@std@@PAVWSignalInstance_@@@std@@@2@@std@@@Z 00419110 f   libwt:WObject.obj
 0001:000181c0       ?InsertMap@WObject@@SAXAAV?$map@V?$basic_string@DU?$char_traits@D@std@@V?$allocator@D@2@@std@@PAVWSlotInstance_@@U?$less@V?$basic_string@DU?$char_traits@D@std@@V?$allocator@D@2@@std@@@2@V?$allocator@U?$pair@$$CBV?$basic_string@DU?$char_traits@D@std@@V?$allocator@D@2@@std@@PAVWSlotInstance_@@@std@@@2@@std@@V?$basic_string@DU?$char_traits@D@std@@V?$allocator@D@2@@3@PAVWSlotInstance_@@@Z 004191c0 f   libwt:WObject.obj
 0001:00018220       ??1?$map@V?$basic_string@DU?$char_traits@D@std@@V?$allocator@D@2@@std@@PAVWSignalInstance_@@U?$less@V?$basic_string@DU?$char_traits@D@std@@V?$allocator@D@2@@std@@@2@V?$allocator@U?$pair@$$CBV?$basic_string@DU?$char_traits@D@std@@V?$allocator@D@2@@std@@PAVWSignalInstance_@@@std@@@2@@std@@QAE@XZ 00419220 f i libwt:WObject.obj
 0001:00018250       ??1?$map@V?$basic_string@DU?$char_traits@D@std@@V?$allocator@D@2@@std@@PAVWSlotInstance_@@U?$less@V?$basic_string@DU?$char_traits@D@std@@V?$allocator@D@2@@std@@@2@V?$allocator@U?$pair@$$CBV?$basic_string@DU?$char_traits@D@std@@V?$allocator@D@2@@std@@PAVWSlotInstance_@@@std@@@2@@std@@QAE@XZ 00419250 f i libwt:WObject.obj
 0001:00018280       ?getSignal@WObject@@IBEPAVWSignalInstance_@@V?$basic_string@DU?$char_traits@D@std@@V?$allocator@D@2@@std@@@Z 00419280 f   libwt:WObject.obj
 0001:000183d0       ?getSlot@WObject@@IBEPAVWSlotInstance_@@V?$basic_string@DU?$char_traits@D@std@@V?$allocator@D@2@@std@@@Z 004193d0 f   libwt:WObject.obj
 0001:000184e0       ?staticSlotChanged@WObject@@QAEXV?$basic_string@DU?$char_traits@D@std@@V?$allocator@D@2@@std@@@Z 004194e0 f   libwt:WObject.obj
 0001:00018550       ?connect@WObject@@QBE_NPBV1@PBD1W4ConnectionType@1@@Z 00419550 f   libwt:WObject.obj
 0001:00018630       ?connect@WObject@@QBE_NPBV1@PBD11W4ConnectionType@1@@Z 00419630 f   libwt:WObject.obj
 0001:00018700       ?connect@WObject@@SA_NPBV1@PBD101W4ConnectionType@1@@Z 00419700 f   libwt:WObject.obj
 0001:00018730       ?connect@WObject@@SA_NPBV1@PBD01W4ConnectionType@1@@Z 00419730 f   libwt:WObject.obj
 0001:00018750       ?triggerSignal@WObject@@IAEXPBVWSignal_@@PAPAX@Z 00419750 f   libwt:WObject.obj
 0001:000187e0       ?destroyed@WObject@@UAEXPAV1@@Z 004197e0 f   libwt:WObject.obj
 0001:00018800       ??1WObject@@UAE@XZ         00419800 f   libwt:WObject.obj
 0001:00018930       ??_EWObject@@UAEPAXI@Z     00419930 f i libwt:WObject.obj
 0001:00018990       ?row@WTableCell@@QBEHXZ    00419990 f   libwt:WTableCell.obj
 0001:000189a0       ?setRowSpan@WTableCell@@QAEXH@Z 004199a0 f   libwt:WTableCell.obj
 0001:000189f0       ?setColumnSpan@WTableCell@@QAEXH@Z 004199f0 f   libwt:WTableCell.obj
 0001:00018a40       ?setContentAlignment@WTableCell@@QAEXH@Z 00419a40 f   libwt:WTableCell.obj
 0001:00018a90       ?contentAlignment@WTableCell@@QBEHXZ 00419a90 f   libwt:WTableCell.obj
 0001:00018ab0       ?SetMouseMove@WTableCell@@QAEXV?$basic_string@DU?$char_traits@D@std@@V?$allocator@D@2@@std@@0@Z 00419ab0 f   libwt:WTableCell.obj
 0001:00018b00       ?createDomElement@WTableCell@@MAEPAVDomElement@@XZ 00419b00 f   libwt:WTableCell.obj
 0001:00018d80       ??_EWTableCell@@UAEPAXI@Z  00419d80 f i libwt:WTableCell.obj
 0001:00018de0       ??0WTableCell@@AAE@PAVWTableRow@@H@Z 00419de0 f   libwt:WTableCell.obj
 0001:00018e70       ?buildSlotMap@WTableCell@@MAEXAAV?$map@V?$basic_string@DU?$char_traits@D@std@@V?$allocator@D@2@@std@@PAVWSlotInstance_@@U?$less@V?$basic_string@DU?$char_traits@D@std@@V?$allocator@D@2@@std@@@2@V?$allocator@U?$pair@$$CBV?$basic_string@DU?$char_traits@D@std@@V?$allocator@D@2@@std@@PAVWSlotInstance_@@@std@@@2@@std@@@Z 00419e70 f   libwt:WTableCell.obj
 0001:00018f30       ?buildSignalMap@WTableCell@@MAEXAAV?$map@V?$basic_string@DU?$char_traits@D@std@@V?$allocator@D@2@@std@@PAVWSignalInstance_@@U?$less@V?$basic_string@DU?$char_traits@D@std@@V?$allocator@D@2@@std@@@2@V?$allocator@U?$pair@$$CBV?$basic_string@DU?$char_traits@D@std@@V?$allocator@D@2@@std@@PAVWSignalInstance_@@@std@@@2@@std@@@Z 00419f30 f   libwt:WTableCell.obj
 0001:00018ff0       ?triggerSlot@WWidget@@MAE_NPAVWObject@@PBVWSlot_@@PAPAX@Z 00419ff0 f   libwt:WWidget.obj
 0001:00019040       ?undoTriggerSlot@WWidget@@MAE_NPBVWSlot_@@PAPAX@Z 0041a040 f   libwt:WWidget.obj
 0001:00019080       ??0WWidget@@QAE@XZ         0041a080 f   libwt:WWidget.obj
 0001:000190a0       ??1WWidget@@UAE@XZ         0041a0a0 f   libwt:WWidget.obj
 0001:000190b0       ?resourceMimeType@WWidget@@MBE?AV?$basic_string@DU?$char_traits@D@std@@V?$allocator@D@2@@std@@XZ 0041a0b0 f   libwt:WWidget.obj
 0001:000190e0       ?streamResourceData@WWidget@@MAEXPAUFCGI_FILE@@@Z 0041a0e0 f   libwt:WWidget.obj
 0001:000191b0       ??_EWWidget@@UAEPAXI@Z     0041a1b0 f i libwt:WWidget.obj
 0001:00019210       ?updateStaticSlotCode@WWidget@@IAEXPAVWWebWidget@@AAVJavaScript@@@Z 0041a210 f   libwt:WWidget.obj
 0001:000194d0       ?buildSlotMap@WWidget@@MAEXAAV?$map@V?$basic_string@DU?$char_traits@D@std@@V?$allocator@D@2@@std@@PAVWSlotInstance_@@U?$less@V?$basic_string@DU?$char_traits@D@std@@V?$allocator@D@2@@std@@@2@V?$allocator@U?$pair@$$CBV?$basic_string@DU?$char_traits@D@std@@V?$allocator@D@2@@std@@PAVWSlotInstance_@@@std@@@2@@std@@@Z 0041a4d0 f   libwt:WWidget.obj
 0001:00019590       ?buildSignalMap@WWidget@@MAEXAAV?$map@V?$basic_string@DU?$char_traits@D@std@@V?$allocator@D@2@@std@@PAVWSignalInstance_@@U?$less@V?$basic_string@DU?$char_traits@D@std@@V?$allocator@D@2@@std@@@2@V?$allocator@U?$pair@$$CBV?$basic_string@DU?$char_traits@D@std@@V?$allocator@D@2@@std@@PAVWSignalInstance_@@@std@@@2@@std@@@Z 0041a590 f   libwt:WWidget.obj
 0001:00019650       ?invalidateStaticCode@WSlotInstance_@@QAEXXZ 0041a650 f   libwt:WSlotInstance_.obj
 0001:00019660       ?trigger@WSlotInstance_@@QAE_NPAVWObject@@PAPAX@Z 0041a660 f   libwt:WSlotInstance_.obj
 0001:00019680       ?undoTrigger@WSlotInstance_@@QAEXPAPAX@Z 0041a680 f   libwt:WSlotInstance_.obj
 0001:000196a0       ?needTriggerStatic@WSlotInstance_@@QBE_NXZ 0041a6a0 f   libwt:WSlotInstance_.obj
 0001:000196c0       ?setStaticCode@WSlotInstance_@@QAEXV?$basic_string@DU?$char_traits@D@std@@V?$allocator@D@2@@std@@@Z 0041a6c0 f   libwt:WSlotInstance_.obj
 0001:00019740       ?_Insert_n@?$vector@PAVWConnection_@@V?$allocator@PAVWConnection_@@@std@@@std@@IAEXViterator@12@IABQAVWConnection_@@@Z 0041a740 f i libwt:WSlotInstance_.obj
 0001:00019930       ??0WSlotInstance_@@QAE@PAVWObject@@PAVWSlot_@@@Z 0041a930 f   libwt:WSlotInstance_.obj
 0001:000199a0       ??1WSlotInstance_@@QAE@XZ  0041a9a0 f   libwt:WSlotInstance_.obj
 0001:00019a40       ?removeConnection@WSlotInstance_@@QAEXPAVWConnection_@@@Z 0041aa40 f   libwt:WSlotInstance_.obj
 0001:00019ad0       ?addConnection@WSlotInstance_@@QAEXPAVWConnection_@@@Z 0041aad0 f   libwt:WSlotInstance_.obj
 0001:00019b20       ?SetJsVal@WSignalInstance_@@QAEXPBDW4ConnectionType@WObject@@@Z 0041ab20 f   libwt:WSignalInstance_.obj
 0001:00019b40       ?setStaticCodeChanged@WSignalInstance_@@AAEXXZ 0041ab40 f   libwt:WSignalInstance_.obj
 0001:00019b50       ?connectivityOk@WSignalInstance_@@QAEXXZ 0041ab50 f   libwt:WSignalInstance_.obj
 0001:00019b60       ?encodeCmd@WSignalInstance_@@QBE?BV?$basic_string@DU?$char_traits@D@std@@V?$allocator@D@2@@std@@XZ 0041ab60 f   libwt:WSignalInstance_.obj
 0001:00019bb0       ?decodeSignal@WSignalInstance_@@SAPAV1@V?$basic_string@DU?$char_traits@D@std@@V?$allocator@D@2@@std@@@Z 0041abb0 f   libwt:WSignalInstance_.obj
 0001:00019c60       ?connect@WSignalInstance_@@AAE_NPAVWSlotInstance_@@W4ConnectionType@WObject@@@Z 0041ac60 f   libwt:WSignalInstance_.obj
 0001:00019d00       ?trigger@WSignalInstance_@@ABEXW4ConnectionType@WObject@@PAPAX@Z 0041ad00 f   libwt:WSignalInstance_.obj
 0001:00019db0       ?getStaticCode@WSignalInstance_@@ABEXAAV?$basic_string@DU?$char_traits@D@std@@V?$allocator@D@2@@std@@@Z 0041adb0 f   libwt:WSignalInstance_.obj
 0001:00019e40       ?findConnectedNeedTriggerStaticSlot@WSignalInstance_@@ABEPAVWSlotInstance_@@XZ 0041ae40 f   libwt:WSignalInstance_.obj
 0001:00019e90       ??0WSignalInstance_@@QAE@PAVWObject@@PAVWSignal_@@@Z 0041ae90 f   libwt:WSignalInstance_.obj
 0001:00019f00       ??1WSignalInstance_@@QAE@XZ 0041af00 f   libwt:WSignalInstance_.obj
 0001:00019fb0       ?removeConnection@WSignalInstance_@@AAEXPAVWConnection_@@@Z 0041afb0 f   libwt:WSignalInstance_.obj
 0001:0001a060       ?addConnection@WSignalInstance_@@AAEXPAVWConnection_@@@Z 0041b060 f   libwt:WSignalInstance_.obj
 0001:0001a110       ??0WSlot_@@QAE@V?$basic_string@DU?$char_traits@D@std@@V?$allocator@D@2@@std@@_N@Z 0041b110 f   libwt:WSlot_.obj
 0001:0001a170       ??0WSlot_@@QAE@XZ          0041b170 f   libwt:WSlot_.obj
 0001:0001a170       ??0WMessage@@QAE@XZ        0041b170 f   libwt:WMessage.obj
 0001:0001a170       ??0WSignal_@@QAE@XZ        0041b170 f   libwt:WSignal_.obj
 0001:0001a180       ??0WSignal_@@QAE@V?$basic_string@DU?$char_traits@D@std@@V?$allocator@D@2@@std@@_N@Z 0041b180 f   libwt:WSignal_.obj
 0001:0001a1e0       ??0WLength@@QAE@XZ         0041b1e0 f   libwt:WLength.obj
 0001:0001a1f0       ??0WLength@@QAE@NW4Unit@0@@Z 0041b1f0 f   libwt:WLength.obj
 0001:0001a210       ??8WLength@@QBE_NABV0@@Z   0041b210 f   libwt:WLength.obj
 0001:0001a240       ??5?$lexical_stream@V?$basic_string@DU?$char_traits@D@std@@V?$allocator@D@2@@std@@N@detail@boost@@QAE_NAAV?$basic_string@DU?$char_traits@D@std@@V?$allocator@D@2@@std@@@Z 0041b240 f i libwt:WLength.obj
 0001:0001a2a0       ??$lexical_cast@V?$basic_string@DU?$char_traits@D@std@@V?$allocator@D@2@@std@@N@boost@@YA?AV?$basic_string@DU?$char_traits@D@std@@V?$allocator@D@2@@std@@ABN@Z 0041b2a0 f i libwt:WLength.obj
 0001:0001a410       ?cssText@WLength@@QBE?BV?$basic_string@DU?$char_traits@D@std@@V?$allocator@D@2@@std@@XZ 0041b410 f   libwt:WLength.obj
 0001:0001a4c0       ??0WCssDecorationStyle@@QAE@XZ 0041b4c0 f   libwt:WCssDecorationStyle.obj
 0001:0001a570       ??0WCssDecorationStyle@@AAE@PAVWWebWidget@@@Z 0041b570 f   libwt:WCssDecorationStyle.obj
 0001:0001a620       ?setCursor@WCssDecorationStyle@@QAEXW4Cursor@1@@Z 0041b620 f   libwt:WCssDecorationStyle.obj
 0001:0001a640       ?setFont@WCssDecorationStyle@@QAEXABVWFont@@@Z 0041b640 f   libwt:WCssDecorationStyle.obj
 0001:0001a670       ?setBackgroundImage@WCssDecorationStyle@@QAEXV?$basic_string@DU?$char_traits@D@std@@V?$allocator@D@2@@std@@W4Repeat@1@@Z 0041b670 f   libwt:WCssDecorationStyle.obj
 0001:0001a6f0       ?setBackgroundColor@WCssDecorationStyle@@QAEXVWColor@@@Z 0041b6f0 f   libwt:WCssDecorationStyle.obj
 0001:0001a770       ?setForegroundColor@WCssDecorationStyle@@QAEXVWColor@@@Z 0041b770 f   libwt:WCssDecorationStyle.obj
 0001:0001a800       ?setBorder@WCssDecorationStyle@@QAEXVWBorder@@@Z 0041b800 f   libwt:WCssDecorationStyle.obj
 0001:0001a870       ?updateDomElement@WCssDecorationStyle@@QAEXAAVDomElement@@_N@Z 0041b870 f   libwt:WCssDecorationStyle.obj
 0001:0001aba0       ?cssText@WCssDecorationStyle@@QBE?AV?$basic_string@DU?$char_traits@D@std@@V?$allocator@D@2@@std@@XZ 0041bba0 f   libwt:WCssDecorationStyle.obj
 0001:0001ae50       ?insertChild@DomElement@@QAEXPAV1@V?$basic_string@DU?$char_traits@D@std@@V?$allocator@D@2@@std@@@Z 0041be50 f   libwt:DomElement.obj
 0001:0001ae60       ?insertBefore@DomElement@@QAEXPAV1@@Z 0041be60 f   libwt:DomElement.obj
 0001:0001ae70       ?removeFromParent@DomElement@@QAEXXZ 0041be70 f   libwt:DomElement.obj
 0001:0001ae80       ?removeAllChildren@DomElement@@QAEXXZ 0041be80 f   libwt:DomElement.obj
 0001:0001ae90       ?replaceWith@DomElement@@QAEXPAV1@@Z 0041be90 f   libwt:DomElement.obj
 0001:0001af80       ?canWriteInnerHTML@DomElement@@ABE_NXZ 0041bf80 f   libwt:DomElement.obj
 0001:0001afa0       ?isDefaultInline@DomElement@@QBE_NXZ 0041bfa0 f   libwt:DomElement.obj
 0001:0001afb0       ??0?$pair@$$CBV?$basic_string@DU?$char_traits@D@std@@V?$allocator@D@2@@std@@V12@@std@@QAE@ABV?$basic_string@DU?$char_traits@D@std@@V?$allocator@D@2@@1@0@Z 0041bfb0 f i libwt:DomElement.obj
 0001:0001b010       ?_Dec@const_iterator@?$_Tree@V?$_Tmap_traits@V?$basic_string@DU?$char_traits@D@std@@V?$allocator@D@2@@std@@U?$pair@V?$basic_string@DU?$char_traits@D@std@@V?$allocator@D@2@@std@@V12@@2@U?$less@V?$basic_string@DU?$char_traits@D@std@@V?$allocator@D@2@@std@@@2@V?$allocator@U?$pair@$$CBV?$basic_string@DU?$char_traits@D@std@@V?$allocator@D@2@@std@@U?$pair@V?$basic_string@DU?$char_traits@D@std@@V?$allocator@D@2@@std@@V12@@2@@std@@@2@$0A@@std@@@std@@QAEXXZ 0041c010 f i libwt:DomElement.obj
 0001:0001b070       ?_Dec@const_iterator@?$_Tree@V?$_Tmap_traits@V?$basic_string@DU?$char_traits@D@std@@V?$allocator@D@2@@std@@V12@U?$less@V?$basic_string@DU?$char_traits@D@std@@V?$allocator@D@2@@std@@@2@V?$allocator@U?$pair@$$CBV?$basic_string@DU?$char_traits@D@std@@V?$allocator@D@2@@std@@V12@@std@@@2@$0A@@std@@@std@@QAEXXZ 0041c070 f i libwt:DomElement.obj
 0001:0001b0d0       ??$_Copy_backward_opt@PAU?$pair@V?$basic_string@DU?$char_traits@D@std@@V?$allocator@D@2@@std@@PAVDomElement@@@std@@PAU12@@std@@YAPAU?$pair@V?$basic_string@DU?$char_traits@D@std@@V?$allocator@D@2@@std@@PAVDomElement@@@0@PAU10@00U_Nonscalar_ptr_iterator_tag@0@@Z 0041c0d0 f i libwt:DomElement.obj
 0001:0001b1d0       ?createReference@DomElement@@QBE?AV?$basic_string@DU?$char_traits@D@std@@V?$allocator@D@2@@std@@XZ 0041c1d0 f   libwt:DomElement.obj
 0001:0001b290       ??0?$pair@$$CBV?$basic_string@DU?$char_traits@D@std@@V?$allocator@D@2@@std@@U?$pair@V?$basic_string@DU?$char_traits@D@std@@V?$allocator@D@2@@std@@V12@@2@@std@@QAE@ABV?$basic_string@DU?$char_traits@D@std@@V?$allocator@D@2@@1@ABU?$pair@V?$basic_string@DU?$char_traits@D@std@@V?$allocator@D@2@@std@@V12@@1@@Z 0041c290 f i libwt:DomElement.obj
 0001:0001b2f0       ?_Lbound@?$_Tree@V?$_Tmap_traits@V?$basic_string@DU?$char_traits@D@std@@V?$allocator@D@2@@std@@V12@U?$less@V?$basic_string@DU?$char_traits@D@std@@V?$allocator@D@2@@std@@@2@V?$allocator@U?$pair@$$CBV?$basic_string@DU?$char_traits@D@std@@V?$allocator@D@2@@std@@V12@@std@@@2@$0A@@std@@@std@@IBEPAU_Node@?$_Tree_nod@V?$_Tmap_traits@V?$basic_string@DU?$char_traits@D@std@@V?$allocator@D@2@@std@@V12@U?$less@V?$basic_string@DU?$char_traits@D@std@@V?$allocator@D@2@@std@@@2@V?$allocator@U?$pair@$$CBV?$basic_string@DU?$char_traits@D@std@@V?$allocator@D@2@@std@@V12@@std@@@2@$0A@@std@@@2@ABV?$basic_string@DU?$char_traits@D@std@@V?$allocator@D@2@@2@@Z 0041c2f0 f i libwt:DomElement.obj
 0001:0001b340       ?_Lbound@?$_Tree@V?$_Tmap_traits@V?$basic_string@DU?$char_traits@D@std@@V?$allocator@D@2@@std@@U?$pair@V?$basic_string@DU?$char_traits@D@std@@V?$allocator@D@2@@std@@V12@@2@U?$less@V?$basic_string@DU?$char_traits@D@std@@V?$allocator@D@2@@std@@@2@V?$allocator@U?$pair@$$CBV?$basic_string@DU?$char_traits@D@std@@V?$allocator@D@2@@std@@U?$pair@V?$basic_string@DU?$char_traits@D@std@@V?$allocator@D@2@@std@@V12@@2@@std@@@2@$0A@@std@@@std@@IBEPAU_Node@?$_Tree_nod@V?$_Tmap_traits@V?$basic_string@DU?$char_traits@D@std@@V?$allocator@D@2@@std@@U?$pair@V?$basic_string@DU?$char_traits@D@std@@V?$allocator@D@2@@std@@V12@@2@U?$less@V?$basic_string@DU?$char_traits@D@std@@V?$allocator@D@2@@std@@@2@V?$allocator@U?$pair@$$CBV?$basic_string@DU?$char_traits@D@std@@V?$allocator@D@2@@std@@U?$pair@V?$basic_string@DU?$char_traits@D@std@@V?$allocator@D@2@@std@@V12@@2@@std@@@2@$0A@@std@@@2@ABV?$basic_string@DU?$char_traits@D@std@@V?$allocator@D@2@@2@@Z 0041c340 f i libwt:DomElement.obj
 0001:0001b390       ??$make_pair@V?$basic_string@DU?$char_traits@D@std@@V?$allocator@D@2@@std@@PAVDomElement@@@std@@YA?AU?$pair@V?$basic_string@DU?$char_traits@D@std@@V?$allocator@D@2@@std@@PAVDomElement@@@0@V?$basic_string@DU?$char_traits@D@std@@V?$allocator@D@2@@0@PAVDomElement@@@Z 0041c390 f i libwt:DomElement.obj
 0001:0001b400       ??$make_pair@V?$basic_string@DU?$char_traits@D@std@@V?$allocator@D@2@@std@@V12@@std@@YA?AU?$pair@V?$basic_string@DU?$char_traits@D@std@@V?$allocator@D@2@@std@@V12@@0@V?$basic_string@DU?$char_traits@D@std@@V?$allocator@D@2@@0@0@Z 0041c400 f i libwt:DomElement.obj
 0001:0001b490       ??$fill@PAU?$pair@V?$basic_string@DU?$char_traits@D@std@@V?$allocator@D@2@@std@@PAVDomElement@@@std@@U12@@std@@YAXPAU?$pair@V?$basic_string@DU?$char_traits@D@std@@V?$allocator@D@2@@std@@PAVDomElement@@@0@0ABU10@@Z 0041c490 f i libwt:DomElement.obj
 0001:0001b4c0       ?find@?$_Tree@V?$_Tmap_traits@W4Property@Wt@@V?$basic_string@DU?$char_traits@D@std@@V?$allocator@D@2@@std@@U?$less@W4Property@Wt@@@4@V?$allocator@U?$pair@$$CBW4Property@Wt@@V?$basic_string@DU?$char_traits@D@std@@V?$allocator@D@2@@std@@@std@@@4@$0A@@std@@@std@@QBE?AVconst_iterator@12@ABW4Property@Wt@@@Z 0041c4c0 f i libwt:DomElement.obj
 0001:0001b530       ?find@?$_Tree@V?$_Tmap_traits@V?$basic_string@DU?$char_traits@D@std@@V?$allocator@D@2@@std@@U?$pair@V?$basic_string@DU?$char_traits@D@std@@V?$allocator@D@2@@std@@V12@@2@U?$less@V?$basic_string@DU?$char_traits@D@std@@V?$allocator@D@2@@std@@@2@V?$allocator@U?$pair@$$CBV?$basic_string@DU?$char_traits@D@std@@V?$allocator@D@2@@std@@U?$pair@V?$basic_string@DU?$char_traits@D@std@@V?$allocator@D@2@@std@@V12@@2@@std@@@2@$0A@@std@@@std@@QBE?AVconst_iterator@12@ABV?$basic_string@DU?$char_traits@D@std@@V?$allocator@D@2@@2@@Z 0041c530 f i libwt:DomElement.obj
 0001:0001b590       ?_Insert@?$_Tree@V?$_Tmap_traits@V?$basic_string@DU?$char_traits@D@std@@V?$allocator@D@2@@std@@V12@U?$less@V?$basic_string@DU?$char_traits@D@std@@V?$allocator@D@2@@std@@@2@V?$allocator@U?$pair@$$CBV?$basic_string@DU?$char_traits@D@std@@V?$allocator@D@2@@std@@V12@@std@@@2@$0A@@std@@@std@@IAE?AViterator@12@_NPAU_Node@?$_Tree_nod@V?$_Tmap_traits@V?$basic_string@DU?$char_traits@D@std@@V?$allocator@D@2@@std@@V12@U?$less@V?$basic_string@DU?$char_traits@D@std@@V?$allocator@D@2@@std@@@2@V?$allocator@U?$pair@$$CBV?$basic_string@DU?$char_traits@D@std@@V?$allocator@D@2@@std@@V12@@std@@@2@$0A@@std@@@2@ABU?$pair@$$CBV?$basic_string@DU?$char_traits@D@std@@V?$allocator@D@2@@std@@V12@@2@@Z 0041c590 f i libwt:DomElement.obj
 0001:0001b750       ?_Insert@?$_Tree@V?$_Tmap_traits@W4Property@Wt@@V?$basic_string@DU?$char_traits@D@std@@V?$allocator@D@2@@std@@U?$less@W4Property@Wt@@@4@V?$allocator@U?$pair@$$CBW4Property@Wt@@V?$basic_string@DU?$char_traits@D@std@@V?$allocator@D@2@@std@@@std@@@4@$0A@@std@@@std@@IAE?AViterator@12@_NPAU_Node@?$_Tree_nod@V?$_Tmap_traits@W4Property@Wt@@V?$basic_string@DU?$char_traits@D@std@@V?$allocator@D@2@@std@@U?$less@W4Property@Wt@@@4@V?$allocator@U?$pair@$$CBW4Property@Wt@@V?$basic_string@DU?$char_traits@D@std@@V?$allocator@D@2@@std@@@std@@@4@$0A@@std@@@2@ABU?$pair@$$CBW4Property@Wt@@V?$basic_string@DU?$char_traits@D@std@@V?$allocator@D@2@@std@@@2@@Z 0041c750 f i libwt:DomElement.obj
 0001:0001b910       ?_Insert@?$_Tree@V?$_Tmap_traits@V?$basic_string@DU?$char_traits@D@std@@V?$allocator@D@2@@std@@U?$pair@V?$basic_string@DU?$char_traits@D@std@@V?$allocator@D@2@@std@@V12@@2@U?$less@V?$basic_string@DU?$char_traits@D@std@@V?$allocator@D@2@@std@@@2@V?$allocator@U?$pair@$$CBV?$basic_string@DU?$char_traits@D@std@@V?$allocator@D@2@@std@@U?$pair@V?$basic_string@DU?$char_traits@D@std@@V?$allocator@D@2@@std@@V12@@2@@std@@@2@$0A@@std@@@std@@IAE?AViterator@12@_NPAU_Node@?$_Tree_nod@V?$_Tmap_traits@V?$basic_string@DU?$char_traits@D@std@@V?$allocator@D@2@@std@@U?$pair@V?$basic_string@DU?$char_traits@D@std@@V?$allocator@D@2@@std@@V12@@2@U?$less@V?$basic_string@DU?$char_traits@D@std@@V?$allocator@D@2@@std@@@2@V?$allocator@U?$pair@$$CBV?$basic_string@DU?$char_traits@D@std@@V?$allocator@D@2@@std@@U?$pair@V?$basic_string@DU?$char_traits@D@std@@V?$allocator@D@2@@std@@V12@@2@@std@@@2@$0A@@std@@@2@ABU?$pair@$$CBV?$basic_string@DU?$char_traits@D@std@@V?$allocator@D@2@@std@@U?$pair@V?$basic_string@DU?$char_traits@D@std@@V?$allocator@D@2@@std@@V12@@2@@2@@Z 0041c910 f i libwt:DomElement.obj
 0001:0001bad0       ??$_Uninit_fill_n@PAU?$pair@V?$basic_string@DU?$char_traits@D@std@@V?$allocator@D@2@@std@@PAVDomElement@@@std@@IU12@V?$allocator@U?$pair@V?$basic_string@DU?$char_traits@D@std@@V?$allocator@D@2@@std@@PAVDomElement@@@std@@@2@@std@@YAXPAU?$pair@V?$basic_string@DU?$char_traits@D@std@@V?$allocator@D@2@@std@@PAVDomElement@@@0@IABU10@AAV?$allocator@U?$pair@V?$basic_string@DU?$char_traits@D@std@@V?$allocator@D@2@@std@@PAVDomElement@@@std@@@0@U_Nonscalar_ptr_iterator_tag@0@@Z 0041cad0 f i libwt:DomElement.obj
 0001:0001bb70       ?asHTML@DomElement@@QBE?AV?$basic_string@DU?$char_traits@D@std@@V?$allocator@D@2@@std@@XZ 0041cb70 f   libwt:DomElement.obj
 0001:0001cf70       ?insert@?$_Tree@V?$_Tmap_traits@V?$basic_string@DU?$char_traits@D@std@@V?$allocator@D@2@@std@@V12@U?$less@V?$basic_string@DU?$char_traits@D@std@@V?$allocator@D@2@@std@@@2@V?$allocator@U?$pair@$$CBV?$basic_string@DU?$char_traits@D@std@@V?$allocator@D@2@@std@@V12@@std@@@2@$0A@@std@@@std@@QAE?AU?$pair@Viterator@?$_Tree@V?$_Tmap_traits@V?$basic_string@DU?$char_traits@D@std@@V?$allocator@D@2@@std@@V12@U?$less@V?$basic_string@DU?$char_traits@D@std@@V?$allocator@D@2@@std@@@2@V?$allocator@U?$pair@$$CBV?$basic_string@DU?$char_traits@D@std@@V?$allocator@D@2@@std@@V12@@std@@@2@$0A@@std@@@std@@_N@2@ABU?$pair@$$CBV?$basic_string@DU?$char_traits@D@std@@V?$allocator@D@2@@std@@V12@@2@@Z 0041df70 f i libwt:DomElement.obj
 0001:0001d050       ?insert@?$_Tree@V?$_Tmap_traits@W4Property@Wt@@V?$basic_string@DU?$char_traits@D@std@@V?$allocator@D@2@@std@@U?$less@W4Property@Wt@@@4@V?$allocator@U?$pair@$$CBW4Property@Wt@@V?$basic_string@DU?$char_traits@D@std@@V?$allocator@D@2@@std@@@std@@@4@$0A@@std@@@std@@QAE?AU?$pair@Viterator@?$_Tree@V?$_Tmap_traits@W4Property@Wt@@V?$basic_string@DU?$char_traits@D@std@@V?$allocator@D@2@@std@@U?$less@W4Property@Wt@@@4@V?$allocator@U?$pair@$$CBW4Property@Wt@@V?$basic_string@DU?$char_traits@D@std@@V?$allocator@D@2@@std@@@std@@@4@$0A@@std@@@std@@_N@2@ABU?$pair@$$CBW4Property@Wt@@V?$basic_string@DU?$char_traits@D@std@@V?$allocator@D@2@@std@@@2@@Z 0041e050 f i libwt:DomElement.obj
 0001:0001d110       ?insert@?$_Tree@V?$_Tmap_traits@V?$basic_string@DU?$char_traits@D@std@@V?$allocator@D@2@@std@@U?$pair@V?$basic_string@DU?$char_traits@D@std@@V?$allocator@D@2@@std@@V12@@2@U?$less@V?$basic_string@DU?$char_traits@D@std@@V?$allocator@D@2@@std@@@2@V?$allocator@U?$pair@$$CBV?$basic_string@DU?$char_traits@D@std@@V?$allocator@D@2@@std@@U?$pair@V?$basic_string@DU?$char_traits@D@std@@V?$allocator@D@2@@std@@V12@@2@@std@@@2@$0A@@std@@@std@@QAE?AU?$pair@Viterator@?$_Tree@V?$_Tmap_traits@V?$basic_string@DU?$char_traits@D@std@@V?$allocator@D@2@@std@@U?$pair@V?$basic_string@DU?$char_traits@D@std@@V?$allocator@D@2@@std@@V12@@2@U?$less@V?$basic_string@DU?$char_traits@D@std@@V?$allocator@D@2@@std@@@2@V?$allocator@U?$pair@$$CBV?$basic_string@DU?$char_traits@D@std@@V?$allocator@D@2@@std@@U?$pair@V?$basic_string@DU?$char_traits@D@std@@V?$allocator@D@2@@std@@V12@@2@@std@@@2@$0A@@std@@@std@@_N@2@ABU?$pair@$$CBV?$basic_string@DU?$char_traits@D@std@@V?$allocator@D@2@@std@@U?$pair@V?$basic_string@DU?$char_traits@D@std@@V?$allocator@D@2@@std@@V12@@2@@2@@Z 0041e110 f i libwt:DomElement.obj
 0001:0001d1f0       ?insert@?$_Tree@V?$_Tmap_traits@V?$basic_string@DU?$char_traits@D@std@@V?$allocator@D@2@@std@@V12@U?$less@V?$basic_string@DU?$char_traits@D@std@@V?$allocator@D@2@@std@@@2@V?$allocator@U?$pair@$$CBV?$basic_string@DU?$char_traits@D@std@@V?$allocator@D@2@@std@@V12@@std@@@2@$0A@@std@@@std@@QAE?AViterator@12@V312@ABU?$pair@$$CBV?$basic_string@DU?$char_traits@D@std@@V?$allocator@D@2@@std@@V12@@2@@Z 0041e1f0 f i libwt:DomElement.obj
 0001:0001d3b0       ?insert@?$_Tree@V?$_Tmap_traits@W4Property@Wt@@V?$basic_string@DU?$char_traits@D@std@@V?$allocator@D@2@@std@@U?$less@W4Property@Wt@@@4@V?$allocator@U?$pair@$$CBW4Property@Wt@@V?$basic_string@DU?$char_traits@D@std@@V?$allocator@D@2@@std@@@std@@@4@$0A@@std@@@std@@QAE?AViterator@12@V312@ABU?$pair@$$CBW4Property@Wt@@V?$basic_string@DU?$char_traits@D@std@@V?$allocator@D@2@@std@@@2@@Z 0041e3b0 f i libwt:DomElement.obj
 0001:0001d520       ?insert@?$_Tree@V?$_Tmap_traits@V?$basic_string@DU?$char_traits@D@std@@V?$allocator@D@2@@std@@U?$pair@V?$basic_string@DU?$char_traits@D@std@@V?$allocator@D@2@@std@@V12@@2@U?$less@V?$basic_string@DU?$char_traits@D@std@@V?$allocator@D@2@@std@@@2@V?$allocator@U?$pair@$$CBV?$basic_string@DU?$char_traits@D@std@@V?$allocator@D@2@@std@@U?$pair@V?$basic_string@DU?$char_traits@D@std@@V?$allocator@D@2@@std@@V12@@2@@std@@@2@$0A@@std@@@std@@QAE?AViterator@12@V312@ABU?$pair@$$CBV?$basic_string@DU?$char_traits@D@std@@V?$allocator@D@2@@std@@U?$pair@V?$basic_string@DU?$char_traits@D@std@@V?$allocator@D@2@@std@@V12@@2@@2@@Z 0041e520 f i libwt:DomElement.obj
 0001:0001d6e0       ?_Ufill@?$vector@U?$pair@V?$basic_string@DU?$char_traits@D@std@@V?$allocator@D@2@@std@@PAVDomElement@@@std@@V?$allocator@U?$pair@V?$basic_string@DU?$char_traits@D@std@@V?$allocator@D@2@@std@@PAVDomElement@@@std@@@2@@std@@IAEPAU?$pair@V?$basic_string@DU?$char_traits@D@std@@V?$allocator@D@2@@std@@PAVDomElement@@@2@PAU32@IABU32@@Z 0041e6e0 f i libwt:DomElement.obj
 0001:0001d710       ?_Insert_n@?$vector@U?$pair@V?$basic_string@DU?$char_traits@D@std@@V?$allocator@D@2@@std@@PAVDomElement@@@std@@V?$allocator@U?$pair@V?$basic_string@DU?$char_traits@D@std@@V?$allocator@D@2@@std@@PAVDomElement@@@std@@@2@@std@@IAEXViterator@12@IABU?$pair@V?$basic_string@DU?$char_traits@D@std@@V?$allocator@D@2@@std@@PAVDomElement@@@2@@Z 0041e710 f i libwt:DomElement.obj
 0001:0001d9d0       ??A?$map@V?$basic_string@DU?$char_traits@D@std@@V?$allocator@D@2@@std@@V12@U?$less@V?$basic_string@DU?$char_traits@D@std@@V?$allocator@D@2@@std@@@2@V?$allocator@U?$pair@$$CBV?$basic_string@DU?$char_traits@D@std@@V?$allocator@D@2@@std@@V12@@std@@@2@@std@@QAEAAV?$basic_string@DU?$char_traits@D@std@@V?$allocator@D@2@@1@ABV21@@Z 0041e9d0 f i libwt:DomElement.obj
 0001:0001da80       ??A?$map@W4Property@Wt@@V?$basic_string@DU?$char_traits@D@std@@V?$allocator@D@2@@std@@U?$less@W4Property@Wt@@@4@V?$allocator@U?$pair@$$CBW4Property@Wt@@V?$basic_string@DU?$char_traits@D@std@@V?$allocator@D@2@@std@@@std@@@4@@std@@QAEAAV?$basic_string@DU?$char_traits@D@std@@V?$allocator@D@2@@1@ABW4Property@Wt@@@Z 0041ea80 f i libwt:DomElement.obj
 0001:0001db50       ??A?$map@V?$basic_string@DU?$char_traits@D@std@@V?$allocator@D@2@@std@@U?$pair@V?$basic_string@DU?$char_traits@D@std@@V?$allocator@D@2@@std@@V12@@2@U?$less@V?$basic_string@DU?$char_traits@D@std@@V?$allocator@D@2@@std@@@2@V?$allocator@U?$pair@$$CBV?$basic_string@DU?$char_traits@D@std@@V?$allocator@D@2@@std@@U?$pair@V?$basic_string@DU?$char_traits@D@std@@V?$allocator@D@2@@std@@V12@@2@@std@@@2@@std@@QAEAAU?$pair@V?$basic_string@DU?$char_traits@D@std@@V?$allocator@D@2@@std@@V12@@1@ABV?$basic_string@DU?$char_traits@D@std@@V?$allocator@D@2@@1@@Z 0041eb50 f i libwt:DomElement.obj
 0001:0001dc30       ?setAttribute@DomElement@@QAEXV?$basic_string@DU?$char_traits@D@std@@V?$allocator@D@2@@std@@0@Z 0041ec30 f   libwt:DomElement.obj
 0001:0001dca0       ?removeEventSignal@DomElement@@QAEXV?$basic_string@DU?$char_traits@D@std@@V?$allocator@D@2@@std@@@Z 0041eca0 f   libwt:DomElement.obj
 0001:0001ddc0       ?setEvent@DomElement@@QAEXV?$basic_string@DU?$char_traits@D@std@@V?$allocator@D@2@@std@@0@Z 0041edc0 f   libwt:DomElement.obj
 0001:0001def0       ?addEvent@DomElement@@QAEXV?$basic_string@DU?$char_traits@D@std@@V?$allocator@D@2@@std@@0@Z 0041eef0 f   libwt:DomElement.obj
 0001:0001df60       ?addEventSignal@DomElement@@QAEXV?$basic_string@DU?$char_traits@D@std@@V?$allocator@D@2@@std@@ABVWSignalInstance_@@PBD2@Z 0041ef60 f   libwt:DomElement.obj
 0001:0001e410       ?setProperty@DomElement@@QAEXW4Property@Wt@@V?$basic_string@DU?$char_traits@D@std@@V?$allocator@D@2@@std@@@Z 0041f410 f   libwt:DomElement.obj
 0001:0001e470       ?setId@DomElement@@QAEXV?$basic_string@DU?$char_traits@D@std@@V?$allocator@D@2@@std@@_N@Z 0041f470 f   libwt:DomElement.obj
 0001:0001e510       ?setId@DomElement@@QAEXPBVWObject@@_N@Z 0041f510 f   libwt:DomElement.obj
 0001:0001e540       ?push_back@?$vector@U?$pair@V?$basic_string@DU?$char_traits@D@std@@V?$allocator@D@2@@std@@PAVDomElement@@@std@@V?$allocator@U?$pair@V?$basic_string@DU?$char_traits@D@std@@V?$allocator@D@2@@std@@PAVDomElement@@@std@@@2@@std@@QAEXABU?$pair@V?$basic_string@DU?$char_traits@D@std@@V?$allocator@D@2@@std@@PAVDomElement@@@2@@Z 0041f540 f i libwt:DomElement.obj
 0001:0001e5b0       ??1DomElement@@QAE@XZ      0041f5b0 f   libwt:DomElement.obj
 0001:0001e740       ?addChild@DomElement@@QAEXPAV1@@Z 0041f740 f   libwt:DomElement.obj
 0001:0001e7f0       ?setEventSignal@DomElement@@QAEXV?$basic_string@DU?$char_traits@D@std@@V?$allocator@D@2@@std@@ABVWSignalInstance_@@PBD2@Z 0041f7f0 f   libwt:DomElement.obj
 0001:0001e940       ??0DomElement@@AAE@W4Mode@0@W4ElementType@0@@Z 0041f940 f   libwt:DomElement.obj
 0001:0001ea30       ?createNew@DomElement@@SAPAV1@W4ElementType@1@@Z 0041fa30 f   libwt:DomElement.obj
 0001:0001ea90       ?getForUpdate@DomElement@@SAPAV1@V?$basic_string@DU?$char_traits@D@std@@V?$allocator@D@2@@std@@W4ElementType@1@@Z 0041fa90 f   libwt:DomElement.obj
 0001:0001eb20       ?getForUpdate@DomElement@@SAPAV1@PBVWObject@@W4ElementType@1@@Z 0041fb20 f   libwt:DomElement.obj
 0001:0001eb50       ?createJSStatements@DomElement@@QBE?AVJSVar@@AAVJavaScript@@@Z 0041fb50 f   libwt:DomElement.obj
 0001:00020e20       ??0WMessage@@QAE@V?$basic_string@DU?$char_traits@D@std@@V?$allocator@D@2@@std@@@Z 00421e20 f   libwt:WMessage.obj
 0001:00020e80       ?value@WMessage@@QBE?BV?$basic_string@DU?$char_traits@D@std@@V?$allocator@D@2@@std@@XZ 00421e80 f   libwt:WMessage.obj
 0001:00020eb0       ?dataChanged@WResource@@QAEXXZ 00421eb0 f   libwt:WResource.obj
 0001:00020ec0       ?triggerSlot@WResource@@MAE_NPAVWObject@@PBVWSlot_@@PAPAX@Z 00421ec0 f   libwt:WResource.obj
 0001:00020ed0       ??0WResource@@QAE@XZ       00421ed0 f   libwt:WResource.obj
 0001:00020ef0       ??1WResource@@UAE@XZ       00421ef0 f   libwt:WResource.obj
 0001:00020f60       ?decodeResource@WResource@@KAPAV1@V?$basic_string@DU?$char_traits@D@std@@V?$allocator@D@2@@std@@@Z 00421f60 f   libwt:WResource.obj
 0001:00021020       ??_EWResource@@UAEPAXI@Z   00422020 f i libwt:WResource.obj
 0001:00021080       ?generateUrl@WResource@@QBE?BV?$basic_string@DU?$char_traits@D@std@@V?$allocator@D@2@@std@@XZ 00422080 f   libwt:WResource.obj
 0001:00021250       ?buildSlotMap@WResource@@MAEXAAV?$map@V?$basic_string@DU?$char_traits@D@std@@V?$allocator@D@2@@std@@PAVWSlotInstance_@@U?$less@V?$basic_string@DU?$char_traits@D@std@@V?$allocator@D@2@@std@@@2@V?$allocator@U?$pair@$$CBV?$basic_string@DU?$char_traits@D@std@@V?$allocator@D@2@@std@@PAVWSlotInstance_@@@std@@@2@@std@@@Z 00422250 f   libwt:WResource.obj
 0001:00021310       ?buildSignalMap@WResource@@MAEXAAV?$map@V?$basic_string@DU?$char_traits@D@std@@V?$allocator@D@2@@std@@PAVWSignalInstance_@@U?$less@V?$basic_string@DU?$char_traits@D@std@@V?$allocator@D@2@@std@@@2@V?$allocator@U?$pair@$$CBV?$basic_string@DU?$char_traits@D@std@@V?$allocator@D@2@@std@@PAVWSignalInstance_@@@std@@@2@@std@@@Z 00422310 f   libwt:WResource.obj
 0001:000213d0       ?triggerSlot@WText@@MAE_NPAVWObject@@PBVWSlot_@@PAPAX@Z 004223d0 f   libwt:WText.obj
 0001:000213d0       ?triggerSlot@WContainerWidget@@MAE_NPAVWObject@@PBVWSlot_@@PAPAX@Z 004223d0 f   libwt:WContainerWidget.obj
 0001:000213d0       ?triggerSlot@WTable@@MAE_NPAVWObject@@PBVWSlot_@@PAPAX@Z 004223d0 f   libwt:WTable.obj
 0001:000213d0       ?triggerSlot@WLabel@@MAE_NPAVWObject@@PBVWSlot_@@PAPAX@Z 004223d0 f   libwt:WLabel.obj
 0001:000213e0       ?undoTriggerSlot@WTable@@MAE_NPBVWSlot_@@PAPAX@Z 004223e0 f   libwt:WTable.obj
 0001:000213e0       ?undoTriggerSlot@WLabel@@MAE_NPBVWSlot_@@PAPAX@Z 004223e0 f   libwt:WLabel.obj
 0001:000213e0       ?undoTriggerSlot@WText@@MAE_NPBVWSlot_@@PAPAX@Z 004223e0 f   libwt:WText.obj
 0001:000213e0       ?undoTriggerSlot@WContainerWidget@@MAE_NPBVWSlot_@@PAPAX@Z 004223e0 f   libwt:WContainerWidget.obj
 0001:000213e0       ?undoTriggerSlot@WImage@@MAE_NPBVWSlot_@@PAPAX@Z 004223e0 f   libwt:WImage.obj
 0001:000213f0       ??0WLabel@@QAE@PAVWContainerWidget@@@Z 004223f0 f   libwt:WLabel.obj
 0001:00021430       ??0WLabel@@QAE@V?$basic_string@DU?$char_traits@D@std@@V?$allocator@D@2@@std@@PAVWContainerWidget@@@Z 00422430 f   libwt:WLabel.obj
 0001:00021500       ??0WLabel@@QAE@ABVWMessage@@PAVWContainerWidget@@@Z 00422500 f   libwt:WLabel.obj
 0001:000215a0       ??0WLabel@@QAE@PAVWImage@@PAVWContainerWidget@@@Z 004225a0 f   libwt:WLabel.obj
 0001:00021610       ?setBuddy@WLabel@@QAEXPAVWFormWidget@@@Z 00422610 f   libwt:WLabel.obj
 0001:00021650       ?setText@WLabel@@QAEXV?$basic_string@DU?$char_traits@D@std@@V?$allocator@D@2@@std@@@Z 00422650 f   libwt:WLabel.obj
 0001:00021720       ?text@WLabel@@QBE?BV?$basic_string@DU?$char_traits@D@std@@V?$allocator@D@2@@std@@XZ 00422720 f   libwt:WLabel.obj
 0001:00021760       ?setImage@WLabel@@QAEXPAVWImage@@@Z 00422760 f   libwt:WLabel.obj
 0001:00021790       ?updateDom@WLabel@@MAEXAAVDomElement@@_N@Z 00422790 f   libwt:WLabel.obj
 0001:00021840       ?createDomElement@WLabel@@MAEPAVDomElement@@XZ 00422840 f   libwt:WLabel.obj
 0001:000218b0       ??1WLabel@@UAE@XZ          004228b0 f   libwt:WLabel.obj
 0001:00021930       ??_EWLabel@@UAEPAXI@Z      00422930 f i libwt:WLabel.obj
 0001:00021990       ?getDomChanges@WLabel@@MAEXAAV?$vector@PAVDomElement@@V?$allocator@PAVDomElement@@@std@@@std@@@Z 00422990 f   libwt:WLabel.obj
 0001:00021a00       ?buildSlotMap@WLabel@@MAEXAAV?$map@V?$basic_string@DU?$char_traits@D@std@@V?$allocator@D@2@@std@@PAVWSlotInstance_@@U?$less@V?$basic_string@DU?$char_traits@D@std@@V?$allocator@D@2@@std@@@2@V?$allocator@U?$pair@$$CBV?$basic_string@DU?$char_traits@D@std@@V?$allocator@D@2@@std@@PAVWSlotInstance_@@@std@@@2@@std@@@Z 00422a00 f   libwt:WLabel.obj
 0001:00021ac0       ?buildSignalMap@WLabel@@MAEXAAV?$map@V?$basic_string@DU?$char_traits@D@std@@V?$allocator@D@2@@std@@PAVWSignalInstance_@@U?$less@V?$basic_string@DU?$char_traits@D@std@@V?$allocator@D@2@@std@@@2@V?$allocator@U?$pair@$$CBV?$basic_string@DU?$char_traits@D@std@@V?$allocator@D@2@@std@@PAVWSignalInstance_@@@std@@@2@@std@@@Z 00422ac0 f   libwt:WLabel.obj
 0001:00021b80       ?setValue@WScrollBar@@QAEXH@Z 00422b80 f   libwt:WScrollBar.obj
 0001:00021ba0       ??$fill@PAPAVWTableRow@@PAV1@@std@@YAXPAPAVWTableRow@@0ABQAV1@@Z 00422ba0 f i libwt:WTable.obj
 0001:00021ba0       ??$fill@PAPAVWObject@@PAV1@@std@@YAXPAPAVWObject@@0ABQAV1@@Z 00422ba0 f i libwt:WWebWidget.obj
 0001:00021ba0       ??$fill@PAPAVWWidget@@PAV1@@std@@YAXPAPAVWWidget@@0ABQAV1@@Z 00422ba0 f i libwt:WWebWidget.obj
 0001:00021ba0       ??$fill@PAPAVWScrollBar@@PAV1@@std@@YAXPAPAVWScrollBar@@0ABQAV1@@Z 00422ba0 f i libwt:WScrollBar.obj
 0001:00021ba0       ??$fill@PAPAVWConnection_@@PAV1@@std@@YAXPAPAVWConnection_@@0ABQAV1@@Z 00422ba0 f i libwt:WSlotInstance_.obj
 0001:00021ba0       ??$fill@PAPAVWTable@@PAV1@@std@@YAXPAPAVWTable@@0ABQAV1@@Z 00422ba0 f i WSPopTable.obj
 0001:00021ba0       ??$fill@PAPAVWMessageResources@@PAV1@@std@@YAXPAPAVWMessageResources@@0ABQAV1@@Z 00422ba0 f i libwt:WMessageResourceBundle.obj
 0001:00021ba0       ??$fill@PAPAVDomElement@@PAV1@@std@@YAXPAPAVDomElement@@0ABQAV1@@Z 00422ba0 f i libwt:WWebWidget.obj
 0001:00021bc0       ?triggerSlot@WScrollBar@@MAE_NPAVWObject@@PBVWSlot_@@PAPAX@Z 00422bc0 f   libwt:WScrollBar.obj
 0001:00021c00       ??$copy_backward@PAPAVWTable@@PAPAV1@@std@@YAPAPAVWTable@@PAPAV1@00@Z 00422c00 f i WSPopTable.obj
 0001:00021c00       ??$copy_backward@PAPAVWScrollBar@@PAPAV1@@std@@YAPAPAVWScrollBar@@PAPAV1@00@Z 00422c00 f i libwt:WScrollBar.obj
 0001:00021c00       ??$copy_backward@PAPAVDomElement@@PAPAV1@@std@@YAPAPAVDomElement@@PAPAV1@00@Z 00422c00 f i libwt:WWebWidget.obj
 0001:00021c00       ??$copy_backward@PAPAVWWidget@@PAPAV1@@std@@YAPAPAVWWidget@@PAPAV1@00@Z 00422c00 f i libwt:WWebWidget.obj
 0001:00021c00       ??$copy_backward@PAPAVWObject@@PAPAV1@@std@@YAPAPAVWObject@@PAPAV1@00@Z 00422c00 f i libwt:WWebWidget.obj
 0001:00021c00       ??$copy_backward@PAPAVWTableRow@@PAPAV1@@std@@YAPAPAVWTableRow@@PAPAV1@00@Z 00422c00 f i libwt:WTable.obj
 0001:00021c00       ??$copy_backward@PAPAVWConnection_@@PAPAV1@@std@@YAPAPAVWConnection_@@PAPAV1@00@Z 00422c00 f i libwt:WSlotInstance_.obj
 0001:00021c00       ??$copy_backward@PAPAVWMessageResources@@PAPAV1@@std@@YAPAPAVWMessageResources@@PAPAV1@00@Z 00422c00 f i libwt:WMessageResourceBundle.obj
 0001:00021c30       ?updateDom@WScrollBar@@AAEXAAVDomElement@@_N@Z 00422c30 f   libwt:WScrollBar.obj
 0001:00021f60       ??0WScrollBar@@AAE@PAVWScrollArea@@W4Orientation@0@@Z 00422f60 f   libwt:WScrollBar.obj
 0001:00021fc0       ?unTie@WScrollBar@@SAXPAV1@0@Z 00422fc0 f   libwt:WScrollBar.obj
 0001:00022050       ??1WScrollBar@@EAE@XZ      00423050 f   libwt:WScrollBar.obj
 0001:000220f0       ??_EWScrollBar@@EAEPAXI@Z  004230f0 f i libwt:WScrollBar.obj
 0001:00022150       ?tie@WScrollBar@@SAXPAV1@0@Z 00423150 f   libwt:WScrollBar.obj
 0001:00022200       ?buildSlotMap@WScrollBar@@MAEXAAV?$map@V?$basic_string@DU?$char_traits@D@std@@V?$allocator@D@2@@std@@PAVWSlotInstance_@@U?$less@V?$basic_string@DU?$char_traits@D@std@@V?$allocator@D@2@@std@@@2@V?$allocator@U?$pair@$$CBV?$basic_string@DU?$char_traits@D@std@@V?$allocator@D@2@@std@@PAVWSlotInstance_@@@std@@@2@@std@@@Z 00423200 f   libwt:WScrollBar.obj
 0001:000222c0       ?buildSignalMap@WScrollBar@@MAEXAAV?$map@V?$basic_string@DU?$char_traits@D@std@@V?$allocator@D@2@@std@@PAVWSignalInstance_@@U?$less@V?$basic_string@DU?$char_traits@D@std@@V?$allocator@D@2@@std@@@2@V?$allocator@U?$pair@$$CBV?$basic_string@DU?$char_traits@D@std@@V?$allocator@D@2@@std@@PAVWSignalInstance_@@@std@@@2@@std@@@Z 004232c0 f   libwt:WScrollBar.obj
 0001:00022380       ?getValue@WMessageResourceBundle@@QBE?AV?$basic_string@DU?$char_traits@D@std@@V?$allocator@D@2@@std@@ABVWMessage@@@Z 00423380 f   libwt:WMessageResourceBundle.obj
 0001:000224a0       ?refresh@WMessageResourceBundle@@QAEXXZ 004234a0 f   libwt:WMessageResourceBundle.obj
 0001:000224d0       ?_Insert_n@?$vector@PAVWMessageResources@@V?$allocator@PAVWMessageResources@@@std@@@std@@IAEXViterator@12@IABQAVWMessageResources@@@Z 004234d0 f i libwt:WMessageResourceBundle.obj
 0001:000224d0       ?_Insert_n@?$vector@PAVWWidget@@V?$allocator@PAVWWidget@@@std@@@std@@IAEXViterator@12@IABQAVWWidget@@@Z 004234d0 f i libwt:WWebWidget.obj
 0001:000224d0       ?_Insert_n@?$vector@PAVWObject@@V?$allocator@PAVWObject@@@std@@@std@@IAEXViterator@12@IABQAVWObject@@@Z 004234d0 f i libwt:WWebWidget.obj
 0001:000224d0       ?_Insert_n@?$vector@PAVDomElement@@V?$allocator@PAVDomElement@@@std@@@std@@IAEXViterator@12@IABQAVDomElement@@@Z 004234d0 f i libwt:WWebWidget.obj
 0001:000224d0       ?_Insert_n@?$vector@PAVWTableRow@@V?$allocator@PAVWTableRow@@@std@@@std@@IAEXViterator@12@IABQAVWTableRow@@@Z 004234d0 f i libwt:WTable.obj
 0001:000224d0       ?_Insert_n@?$vector@PAVWScrollBar@@V?$allocator@PAVWScrollBar@@@std@@@std@@IAEXViterator@12@IABQAVWScrollBar@@@Z 004234d0 f i libwt:WScrollBar.obj
 0001:000226c0       ??0WMessageResourceBundle@@AAE@XZ 004236c0 f   libwt:WMessageResourceBundle.obj
 0001:000226d0       ?use@WMessageResourceBundle@@QAEXV?$basic_string@DU?$char_traits@D@std@@V?$allocator@D@2@@std@@@Z 004236d0 f   libwt:WMessageResourceBundle.obj
 0001:00022800       ??1WMessageResources@@QAE@XZ 00423800 f i libwt:WMessageResourceBundle.obj
 0001:000228b0       ??0WMessageResources@@QAE@ABV0@@Z 004238b0 f i libwt:WMessageResourceBundle.obj
 0001:00022920       ??0JavaScript@@QAE@XZ      00423920 f   libwt:JavaScript.obj
 0001:00022970       ?addStatement@JavaScript@@QAEXV?$basic_string@DU?$char_traits@D@std@@V?$allocator@D@2@@std@@@Z 00423970 f   libwt:JavaScript.obj
 0001:000229c0       ??0JSVar@@AAE@XZ           004239c0 f   libwt:JavaScript.obj
 0001:00022a40       ?declareVar@JavaScript@@QAE?AVJSVar@@V?$basic_string@DU?$char_traits@D@std@@V?$allocator@D@2@@std@@@Z 00423a40 f   libwt:JavaScript.obj
 0001:00022bf0       ?getTempFunctionName@JavaScript@@QAE?BV?$basic_string@DU?$char_traits@D@std@@V?$allocator@D@2@@std@@XZ 00423bf0 f   libwt:JavaScript.obj
 0001:00022c80       ??0WConnection_@@QAE@PAVWSignalInstance_@@PAVWSlotInstance_@@W4ConnectionType@WObject@@@Z 00423c80 f   libwt:WConnection_.obj
 0001:00022cc0       ??1WConnection_@@QAE@XZ    00423cc0 f   libwt:WConnection_.obj
 0001:00022ce0       ?trigger@WConnection_@@QAE_NPAPAX@Z 00423ce0 f   libwt:WConnection_.obj
 0001:00022d00       ?getStaticCode@WConnection_@@QBE?AV?$basic_string@DU?$char_traits@D@std@@V?$allocator@D@2@@std@@XZ 00423d00 f   libwt:WConnection_.obj
 0001:00022d20       ??0WFont@@QAE@XZ           00423d20 f   libwt:WFont.obj
 0001:00022da0       ??0WFont@@AAE@PAVWWebWidget@@@Z 00423da0 f   libwt:WFont.obj
 0001:00022e20       ?setFamily@WFont@@QAEXW4GenericFamily@1@V?$basic_string@DU?$char_traits@D@std@@V?$allocator@D@2@@std@@@Z 00423e20 f   libwt:WFont.obj
 0001:00022e90       ?setStyle@WFont@@QAEXW4Style@1@@Z 00423e90 f   libwt:WFont.obj
 0001:00022eb0       ?setVariant@WFont@@QAEXW4Variant@1@@Z 00423eb0 f   libwt:WFont.obj
 0001:00022ed0       ?setWeight@WFont@@QAEXW4Weight@1@H@Z 00423ed0 f   libwt:WFont.obj
 0001:00022ef0       ?setSize@WFont@@QAEXW4Size@1@VWLength@@@Z 00423ef0 f   libwt:WFont.obj
 0001:00022f30       ?updateDomElement@WFont@@AAEXAAVDomElement@@_N1@Z 00423f30 f   libwt:WFont.obj
 0001:00023390       ??0WColor@@QAE@XZ          00424390 f   libwt:WColor.obj
 0001:000233b0       ??0WColor@@QAE@HHH@Z       004243b0 f   libwt:WColor.obj
 0001:000233e0       ??0WColor@@QAE@V?$basic_string@DU?$char_traits@D@std@@V?$allocator@D@2@@std@@@Z 004243e0 f   libwt:WColor.obj
 0001:00023440       ?cssText@WColor@@QBE?BV?$basic_string@DU?$char_traits@D@std@@V?$allocator@D@2@@std@@XZ 00424440 f   libwt:WColor.obj
 0001:00023650       ??0WBorder@@QAE@XZ         00424650 f   libwt:WBorder.obj
 0001:00023680       ??0WBorder@@QAE@W4Style@0@W4Width@0@VWColor@@@Z 00424680 f   libwt:WBorder.obj
 0001:00023710       ?setWidth@WBorder@@QAEXW4Width@1@VWLength@@@Z 00424710 f   libwt:WBorder.obj
 0001:00023740       ?setColor@WBorder@@QAEXVWColor@@@Z 00424740 f   libwt:WBorder.obj
 0001:000237b0       ?setStyle@WBorder@@QAEXW4Style@1@@Z 004247b0 f   libwt:WBorder.obj
 0001:000237c0       ?cssText@WBorder@@QBE?AV?$basic_string@DU?$char_traits@D@std@@V?$allocator@D@2@@std@@XZ 004247c0 f   libwt:WBorder.obj
 0001:00023a70       ?readResourceFile@WMessageResources@@AAEXV?$basic_string@DU?$char_traits@D@std@@V?$allocator@D@2@@std@@AAV?$map@V?$basic_string@DU?$char_traits@D@std@@V?$allocator@D@2@@std@@V12@U?$less@V?$basic_string@DU?$char_traits@D@std@@V?$allocator@D@2@@std@@@2@V?$allocator@U?$pair@$$CBV?$basic_string@DU?$char_traits@D@std@@V?$allocator@D@2@@std@@V12@@std@@@2@@3@@Z 00424a70 f   libwt:WMessageResources.obj
 0001:00023a80       ?refresh@WMessageResources@@QAEXXZ 00424a80 f   libwt:WMessageResources.obj
 0001:00023ac0       ?find@?$_Tree@V?$_Tmap_traits@V?$basic_string@DU?$char_traits@D@std@@V?$allocator@D@2@@std@@V12@U?$less@V?$basic_string@DU?$char_traits@D@std@@V?$allocator@D@2@@std@@@2@V?$allocator@U?$pair@$$CBV?$basic_string@DU?$char_traits@D@std@@V?$allocator@D@2@@std@@V12@@std@@@2@$0A@@std@@@std@@QBE?AVconst_iterator@12@ABV?$basic_string@DU?$char_traits@D@std@@V?$allocator@D@2@@2@@Z 00424ac0 f i libwt:WMessageResources.obj
 0001:00023b20       ?getValue@WMessageResources@@QBE_NABVWMessage@@AAV?$basic_string@DU?$char_traits@D@std@@V?$allocator@D@2@@std@@@Z 00424b20 f   libwt:WMessageResources.obj
 0001:00023c30       ??0WMessageResources@@QAE@V?$basic_string@DU?$char_traits@D@std@@V?$allocator@D@2@@std@@@Z 00424c30 f   libwt:WMessageResources.obj
 0001:00023d1e       ??2@YAPAXI@Z               00424d1e f   msvcprt:newop_s.obj
 0001:00023d43       ??_U@YAPAXI@Z              00424d43 f   msvcprt:newaop_s.obj
 0001:00023d48       ___CxxFrameHandler         00424d48 f   MSVCRT:MSVCR71.dll
 0001:00023d50       ??3@YAXPAX@Z               00424d50 f   MSVCRT:MSVCR71.dll
 0001:00023d56       __purecall                 00424d56 f   MSVCRT:MSVCR71.dll
 0001:00023d5c       ??_V@YAXPAX@Z              00424d5c f   MSVCRT:MSVCR71.dll
 0001:00023d62       ?__ArrayUnwind@@YGXPAXIHP6EX0@Z@Z 00424d62 f   MSVCRT:ehvecdtr.obj
 0001:00023dc0       ??_M@YGXPAXIHP6EX0@Z@Z     00424dc0 f   MSVCRT:ehvecdtr.obj
 0001:00023e51       @__security_check_cookie@4 00424e51 f   MSVCRT:secchk.obj
 0001:00023e60       ??0exception@@QAE@ABV0@@Z  00424e60 f   MSVCRT:MSVCR71.dll
 0001:00023e66       ??_Etype_info@@UAEPAXI@Z   00424e66 f i MSVCRT:ti_inst.obj
 0001:00023eb2       __CxxThrowException@8      00424eb2 f   MSVCRT:MSVCR71.dll
 0001:00023eb8       ??0bad_cast@@QAE@ABV0@@Z   00424eb8 f   MSVCRT:MSVCR71.dll
 0001:00023ec0       __alloca_probe             00424ec0     MSVCRT:chkstk.obj
 0001:00023ec0       __chkstk                   00424ec0 f   MSVCRT:chkstk.obj
 0001:00023efd       __onexit                   00424efd f   MSVCRT:atonexit.obj
 0001:00023f23       _atexit                    00424f23 f   MSVCRT:atonexit.obj
 0001:00023f35       _mainCRTStartup            00424f35 f   MSVCRT:crtexe.obj
 0001:000240ce       _malloc                    004250ce f   MSVCRT:MSVCR71.dll
 0001:000240d4       ___RTDynamicCast           004250d4 f   MSVCRT:MSVCR71.dll
 0001:000240da       __callnewh                 004250da f   MSVCRT:MSVCR71.dll
 0001:000240e0       ?terminate@@YAXXZ          004250e0 f   MSVCRT:MSVCR71.dll
 0001:000240e8       __SEH_prolog               004250e8 f   MSVCRT:sehprolg.obj
 0001:00024123       __SEH_epilog               00425123 f   MSVCRT:sehprolg.obj
 0001:00024134       __except_handler3          00425134 f   MSVCRT:MSVCR71.dll
 0001:0002413a       ___security_init_cookie    0042513a f   MSVCRT:seccinit.obj
 0001:000241a0       ___security_error_handler  004251a0 f   MSVCRT:MSVCR71.dll
 0001:000241a6       ??1type_info@@UAE@XZ       004251a6 f   MSVCRT:MSVCR71.dll
 0001:000241ac       ___dllonexit               004251ac f   MSVCRT:MSVCR71.dll
 0001:000241b2       __XcptFilter               004251b2 f   MSVCRT:MSVCR71.dll
 0001:000241b8       __amsg_exit                004251b8 f   MSVCRT:MSVCR71.dll
 0001:000241be       __RTC_Initialize           004251be f   MSVCRT:initsect.obj
 0001:00024202       __RTC_Terminate            00425202 f   MSVCRT:initsect.obj
 0001:00024246       __initterm                 00425246 f   MSVCRT:MSVCR71.dll
 0001:0002424c       __setdefaultprecision      0042524c f   MSVCRT:fp8.obj
 0001:0002425e       __matherr                  0042525e f   MSVCRT:merr.obj
 0001:0002425e       __setargv                  0042525e f   MSVCRT:dllargv.obj
 0001:00024262       __controlfp                00425262 f   MSVCRT:MSVCR71.dll
 0002:00000000       __imp__GetCurrentProcessId@0 0042c000     kernel32:KERNEL32.dll
 0002:00000004       __imp__WideCharToMultiByte@32 0042c004     kernel32:KERNEL32.dll
 0002:00000008       __imp__GetSystemTimeAsFileTime@4 0042c008     kernel32:KERNEL32.dll
 0002:0000000c       __imp__GetCurrentThreadId@0 0042c00c     kernel32:KERNEL32.dll
 0002:00000010       __imp__GetTickCount@0      0042c010     kernel32:KERNEL32.dll
 0002:00000014       __imp__QueryPerformanceCounter@4 0042c014     kernel32:KERNEL32.dll
 0002:00000018       __imp__GetModuleHandleA@4  0042c018     kernel32:KERNEL32.dll
 0002:0000001c       __imp__ExitProcess@4       0042c01c     kernel32:KERNEL32.dll
 0002:00000020       __imp__WaitForSingleObject@8 0042c020     kernel32:KERNEL32.dll
 0002:00000024       __imp__ResetEvent@4        0042c024     kernel32:KERNEL32.dll
 0002:00000028       __imp__SetEnvironmentVariableA@8 0042c028     kernel32:KERNEL32.dll
 0002:0000002c       __imp__Sleep@4             0042c02c     kernel32:KERNEL32.dll
 0002:00000030       __imp__GetEnvironmentVariableA@12 0042c030     kernel32:KERNEL32.dll
 0002:00000034       __imp__OutputDebugStringA@4 0042c034     kernel32:KERNEL32.dll
 0002:00000038       __imp__CreateEventA@16     0042c038     kernel32:KERNEL32.dll
 0002:0000003c       \177KERNEL32_NULL_THUNK_DATA 0042c03c     kernel32:KERNEL32.dll
 0002:00000040       __imp_??0?$basic_stringstream@DU?$char_traits@D@std@@V?$allocator@D@2@@std@@QAE@H@Z 0042c040     msvcprt:MSVCP71.dll
 0002:00000044       __imp_??_D?$basic_stringstream@DU?$char_traits@D@std@@V?$allocator@D@2@@std@@QAEXXZ 0042c044     msvcprt:MSVCP71.dll
 0002:00000048       __imp_?cerr@std@@3V?$basic_ostream@DU?$char_traits@D@std@@@1@A 0042c048     msvcprt:MSVCP71.dll
 0002:0000004c       __imp_??$?6U?$char_traits@D@std@@@std@@YAAAV?$basic_ostream@DU?$char_traits@D@std@@@0@AAV10@PBD@Z 0042c04c     msvcprt:MSVCP71.dll
 0002:00000050       __imp_??6?$basic_ostream@DU?$char_traits@D@std@@@std@@QAEAAV01@P6AAAV01@AAV01@@Z@Z 0042c050     msvcprt:MSVCP71.dll
 0002:00000054       __imp_??$?MDU?$char_traits@D@std@@V?$allocator@D@1@@std@@YA_NABV?$basic_string@DU?$char_traits@D@std@@V?$allocator@D@2@@0@0@Z 0042c054     msvcprt:MSVCP71.dll
 0002:00000058       __imp_??$?8DU?$char_traits@D@std@@V?$allocator@D@1@@std@@YA_NABV?$basic_string@DU?$char_traits@D@std@@V?$allocator@D@2@@0@0@Z 0042c058     msvcprt:MSVCP71.dll
 0002:0000005c       __imp_?find@?$basic_string@DU?$char_traits@D@std@@V?$allocator@D@2@@std@@QBEIPBDII@Z 0042c05c     msvcprt:MSVCP71.dll
 0002:00000060       __imp_?substr@?$basic_string@DU?$char_traits@D@std@@V?$allocator@D@2@@std@@QBE?AV12@II@Z 0042c060     msvcprt:MSVCP71.dll
 0002:00000064       __imp_??6?$basic_ostream@DU?$char_traits@D@std@@@std@@QAEAAV01@H@Z 0042c064     msvcprt:MSVCP71.dll
 0002:00000068       __imp_?str@?$basic_stringstream@DU?$char_traits@D@std@@V?$allocator@D@2@@std@@QBE?AV?$basic_string@DU?$char_traits@D@std@@V?$allocator@D@2@@2@XZ 0042c068     msvcprt:MSVCP71.dll
 0002:0000006c       __imp_??$?9DU?$char_traits@D@std@@V?$allocator@D@1@@std@@YA_NABV?$basic_string@DU?$char_traits@D@std@@V?$allocator@D@2@@0@0@Z 0042c06c     msvcprt:MSVCP71.dll
 0002:00000070       __imp_??6?$basic_ostream@DU?$char_traits@D@std@@@std@@QAEAAV01@PBX@Z 0042c070     msvcprt:MSVCP71.dll
 0002:00000074       __imp_?replace@?$basic_string@DU?$char_traits@D@std@@V?$allocator@D@2@@std@@QAEAAV12@IIABV12@@Z 0042c074     msvcprt:MSVCP71.dll
 0002:00000078       __imp_?insert@?$basic_string@DU?$char_traits@D@std@@V?$allocator@D@2@@std@@QAEAAV12@IID@Z 0042c078     msvcprt:MSVCP71.dll
 0002:0000007c       __imp_??6?$basic_ostream@DU?$char_traits@D@std@@@std@@QAEAAV01@N@Z 0042c07c     msvcprt:MSVCP71.dll
 0002:00000080       __imp_?_Nomemory@std@@YAXXZ 0042c080     msvcprt:MSVCP71.dll
 0002:00000084       __imp_?endl@std@@YAAAV?$basic_ostream@DU?$char_traits@D@std@@@1@AAV21@@Z 0042c084     msvcprt:MSVCP71.dll
 0002:00000088       __imp_??4?$basic_string@DU?$char_traits@D@std@@V?$allocator@D@2@@std@@QAEAAV01@PBD@Z 0042c088     msvcprt:MSVCP71.dll
 0002:0000008c       __imp_??0?$basic_string@DU?$char_traits@D@std@@V?$allocator@D@2@@std@@QAE@ABV01@@Z 0042c08c     msvcprt:MSVCP71.dll
 0002:00000090       __imp_??1?$basic_string@DU?$char_traits@D@std@@V?$allocator@D@2@@std@@QAE@XZ 0042c090     msvcprt:MSVCP71.dll
 0002:00000094       __imp_??4?$basic_string@DU?$char_traits@D@std@@V?$allocator@D@2@@std@@QAEAAV01@ABV01@@Z 0042c094     msvcprt:MSVCP71.dll
 0002:00000098       __imp_??0?$basic_string@DU?$char_traits@D@std@@V?$allocator@D@2@@std@@QAE@PBD@Z 0042c098     msvcprt:MSVCP71.dll
 0002:0000009c       __imp_??0?$basic_string@DU?$char_traits@D@std@@V?$allocator@D@2@@std@@QAE@XZ 0042c09c     msvcprt:MSVCP71.dll
 0002:000000a0       __imp_?_Unlock@_Mutex@std@@QAEXXZ 0042c0a0     msvcprt:MSVCP71.dll
 0002:000000a4       __imp_?_Lock@_Mutex@std@@QAEXXZ 0042c0a4     msvcprt:MSVCP71.dll
 0002:000000a8       __imp_??Y?$basic_string@DU?$char_traits@D@std@@V?$allocator@D@2@@std@@QAEAAV01@ABV01@@Z 0042c0a8     msvcprt:MSVCP71.dll
 0002:000000ac       __imp_??0?$basic_string@DU?$char_traits@D@std@@V?$allocator@D@2@@std@@QAE@ID@Z 0042c0ac     msvcprt:MSVCP71.dll
 0002:000000b0       __imp_??Y?$basic_string@DU?$char_traits@D@std@@V?$allocator@D@2@@std@@QAEAAV01@PBD@Z 0042c0b0     msvcprt:MSVCP71.dll
 0002:000000b4       __imp_??Y?$basic_string@DU?$char_traits@D@std@@V?$allocator@D@2@@std@@QAEAAV01@D@Z 0042c0b4     msvcprt:MSVCP71.dll
 0002:000000b8       __imp_?uncaught_exception@std@@YA_NXZ 0042c0b8     msvcprt:MSVCP71.dll
 0002:000000bc       __imp_?flush@?$basic_ostream@DU?$char_traits@D@std@@@std@@QAEAAV12@XZ 0042c0bc     msvcprt:MSVCP71.dll
 0002:000000c0       __imp_?_Osfx@?$basic_ostream@DU?$char_traits@D@std@@@std@@QAEXXZ 0042c0c0     msvcprt:MSVCP71.dll
 0002:000000c4       __imp_?clear@ios_base@std@@QAEXH_N@Z 0042c0c4     msvcprt:MSVCP71.dll
 0002:000000c8       __imp_?npos@?$basic_string@DU?$char_traits@D@std@@V?$allocator@D@2@@std@@2IB 0042c0c8     msvcprt:MSVCP71.dll
 0002:000000cc       __imp_?sputc@?$basic_streambuf@DU?$char_traits@D@std@@@std@@QAEHD@Z 0042c0cc     msvcprt:MSVCP71.dll
 0002:000000d0       __imp_??$?8DU?$char_traits@D@std@@V?$allocator@D@1@@std@@YA_NABV?$basic_string@DU?$char_traits@D@std@@V?$allocator@D@2@@0@PBD@Z 0042c0d0     msvcprt:MSVCP71.dll
 0002:000000d4       \177MSVCP71_NULL_THUNK_DATA 0042c0d4     msvcprt:MSVCP71.dll
 0002:000000d8       __imp___onexit             0042c0d8     MSVCRT:MSVCR71.dll
 0002:000000dc       __imp___c_exit             0042c0dc     MSVCRT:MSVCR71.dll
 0002:000000e0       __imp___exit               0042c0e0     MSVCRT:MSVCR71.dll
 0002:000000e4       __imp___XcptFilter         0042c0e4     MSVCRT:MSVCR71.dll
 0002:000000e8       __imp___cexit              0042c0e8     MSVCRT:MSVCR71.dll
 0002:000000ec       __imp____p___initenv       0042c0ec     MSVCRT:MSVCR71.dll
 0002:000000f0       __imp___amsg_exit          0042c0f0     MSVCRT:MSVCR71.dll
 0002:000000f4       __imp____getmainargs       0042c0f4     MSVCRT:MSVCR71.dll
 0002:000000f8       __imp___initterm           0042c0f8     MSVCRT:MSVCR71.dll
 0002:000000fc       __imp____setusermatherr    0042c0fc     MSVCRT:MSVCR71.dll
 0002:00000100       __imp___adjust_fdiv        0042c100     MSVCRT:MSVCR71.dll
 0002:00000104       __imp____p__commode        0042c104     MSVCRT:MSVCR71.dll
 0002:00000108       __imp____p__fmode          0042c108     MSVCRT:MSVCR71.dll
 0002:0000010c       __imp____set_app_type      0042c10c     MSVCRT:MSVCR71.dll
 0002:00000110       __imp___controlfp          0042c110     MSVCRT:MSVCR71.dll
 0002:00000114       __imp__itoa                0042c114     MSVCRT:MSVCR71.dll
 0002:00000114       __imp___itoa               0042c114     MSVCRT:MSVCR71.dll
 0002:00000118       __imp___getpid             0042c118     MSVCRT:MSVCR71.dll
 0002:00000118       __imp__getpid              0042c118     MSVCRT:MSVCR71.dll
 0002:0000011c       __imp___strdup             0042c11c     MSVCRT:MSVCR71.dll
 0002:0000011c       __imp__strdup              0042c11c     MSVCRT:MSVCR71.dll
 0002:00000120       __imp_??1exception@@UAE@XZ 0042c120     MSVCRT:MSVCR71.dll
 0002:00000124       __imp_??0exception@@QAE@XZ 0042c124     MSVCRT:MSVCR71.dll
 0002:00000128       __imp____CxxFrameHandler   0042c128     MSVCRT:MSVCR71.dll
 0002:0000012c       __imp_??3@YAXPAX@Z         0042c12c     MSVCRT:MSVCR71.dll
 0002:00000130       __imp___purecall           0042c130     MSVCRT:MSVCR71.dll
 0002:00000134       __imp_??_V@YAXPAX@Z        0042c134     MSVCRT:MSVCR71.dll
 0002:00000138       __imp_??0exception@@QAE@ABV0@@Z 0042c138     MSVCRT:MSVCR71.dll
 0002:0000013c       __imp___CxxThrowException@8 0042c13c     MSVCRT:MSVCR71.dll
 0002:00000140       __imp_??0bad_cast@@QAE@ABV0@@Z 0042c140     MSVCRT:MSVCR71.dll
 0002:00000144       __imp_??1bad_cast@@UAE@XZ  0042c144     MSVCRT:MSVCR71.dll
 0002:00000148       __imp_??0bad_cast@@QAE@PBD@Z 0042c148     MSVCRT:MSVCR71.dll
 0002:0000014c       __imp__memmove             0042c14c     MSVCRT:MSVCR71.dll
 0002:00000150       __imp__rand                0042c150     MSVCRT:MSVCR71.dll
 0002:00000154       __imp__mktime              0042c154     MSVCRT:MSVCR71.dll
 0002:00000158       __imp__time                0042c158     MSVCRT:MSVCR71.dll
 0002:0000015c       __imp__localtime           0042c15c     MSVCRT:MSVCR71.dll
 0002:00000160       __imp__free                0042c160     MSVCRT:MSVCR71.dll
 0002:00000164       __imp__sscanf              0042c164     MSVCRT:MSVCR71.dll
 0002:00000168       __imp__sprintf             0042c168     MSVCRT:MSVCR71.dll
 0002:0000016c       __imp__strstr              0042c16c     MSVCRT:MSVCR71.dll
 0002:00000170       __imp__exit                0042c170     MSVCRT:MSVCR71.dll
 0002:00000174       __imp__strtok              0042c174     MSVCRT:MSVCR71.dll
 0002:00000178       __imp__fclose              0042c178     MSVCRT:MSVCR71.dll
 0002:0000017c       __imp__fputs               0042c17c     MSVCRT:MSVCR71.dll
 0002:00000180       __imp__fopen               0042c180     MSVCRT:MSVCR71.dll
 0002:00000184       __imp__strchr              0042c184     MSVCRT:MSVCR71.dll
 0002:00000188       __imp__strncpy             0042c188     MSVCRT:MSVCR71.dll
 0002:0000018c       __imp__fgets               0042c18c     MSVCRT:MSVCR71.dll
 0002:00000190       __imp__malloc              0042c190     MSVCRT:MSVCR71.dll
 0002:00000194       __imp___iob                0042c194     MSVCRT:MSVCR71.dll
 0002:00000198       __imp__printf              0042c198     MSVCRT:MSVCR71.dll
 0002:0000019c       __imp__strerror            0042c19c     MSVCRT:MSVCR71.dll
 0002:000001a0       __imp___errno              0042c1a0     MSVCRT:MSVCR71.dll
 0002:000001a4       __imp__isalnum             0042c1a4     MSVCRT:MSVCR71.dll
 0002:000001a8       __imp__atoi                0042c1a8     MSVCRT:MSVCR71.dll
 0002:000001ac       __imp__realloc             0042c1ac     MSVCRT:MSVCR71.dll
 0002:000001b0       __imp____RTDynamicCast     0042c1b0     MSVCRT:MSVCR71.dll
 0002:000001b4       __imp___callnewh           0042c1b4     MSVCRT:MSVCR71.dll
 0002:000001b8       __imp_?terminate@@YAXXZ    0042c1b8     MSVCRT:MSVCR71.dll
 0002:000001bc       __imp___except_handler3    0042c1bc     MSVCRT:MSVCR71.dll
 0002:000001c0       __imp____security_error_handler 0042c1c0     MSVCRT:MSVCR71.dll
 0002:000001c4       __imp_??1type_info@@UAE@XZ 0042c1c4     MSVCRT:MSVCR71.dll
 0002:000001c8       __imp____dllonexit         0042c1c8     MSVCRT:MSVCR71.dll
 0002:000001cc       \177MSVCR71_NULL_THUNK_DATA 0042c1cc     MSVCRT:MSVCR71.dll
 0002:000001d0       __imp__FCGI_Accept         0042c1d0     libfcgi:libfcgi.dll
 0002:000001d4       __imp__FCGI_fprintf        0042c1d4     libfcgi:libfcgi.dll
 0002:000001d8       __imp__FCGI_Finish         0042c1d8     libfcgi:libfcgi.dll
 0002:000001dc       __imp__FCGI_printf         0042c1dc     libfcgi:libfcgi.dll
 0002:000001e0       __imp___fcgi_sF            0042c1e0     libfcgi:libfcgi.dll
 0002:000001e4       __imp__FCGI_GetEnv         0042c1e4     libfcgi:libfcgi.dll
 0002:000001e8       \177libfcgi_NULL_THUNK_DATA 0042c1e8     libfcgi:libfcgi.dll
 0002:000001ec       __imp_?PushMessage@@YA_NV?$basic_string@DU?$char_traits@D@std@@V?$allocator@D@2@@std@@0PBDI00@Z 0042c1ec     svapi:svapi.dll
 0002:000001f0       __imp_?GetEntity@@YAPAXV?$basic_string@DU?$char_traits@D@std@@V?$allocator@D@2@@std@@00@Z 0042c1f0     svapi:svapi.dll
 0002:000001f4       __imp_?GetEntityMainAttribNode@@YAPAXPAX@Z 0042c1f4     svapi:svapi.dll
 0002:000001f8       __imp_?GetEntityTemplet@@YAPAXV?$basic_string@DU?$char_traits@D@std@@V?$allocator@D@2@@std@@00@Z 0042c1f8     svapi:svapi.dll
 0002:000001fc       __imp_?GetEntityTempletMainAttribNode@@YAPAXPAX@Z 0042c1fc     svapi:svapi.dll
 0002:00000200       __imp_?CloseEntityTemplet@@YA_NAAPAX@Z 0042c200     svapi:svapi.dll
 0002:00000204       __imp_?CloseEntity@@YA_NAAPAX@Z 0042c204     svapi:svapi.dll
 0002:00000208       __imp_?CreateQueue@@YA_NV?$basic_string@DU?$char_traits@D@std@@V?$allocator@D@2@@std@@H00@Z 0042c208     svapi:svapi.dll
 0002:0000020c       __imp_?FindSEID@@YA?AV?$basic_string@DU?$char_traits@D@std@@V?$allocator@D@2@@std@@V12@@Z 0042c20c     svapi:svapi.dll
 0002:00000210       __imp_?FindParentID@@YA?AV?$basic_string@DU?$char_traits@D@std@@V?$allocator@D@2@@std@@V12@@Z 0042c210     svapi:svapi.dll
 0002:00000214       __imp_?GetSVDYN@@YA_NV?$basic_string@DU?$char_traits@D@std@@V?$allocator@D@2@@std@@AAUsv_dyn@@00@Z 0042c214     svapi:svapi.dll
 0002:00000218       __imp_?CloseMQRecord@@YA_NAAPAX@Z 0042c218     svapi:svapi.dll
 0002:0000021c       __imp_?GetMessageData@@YA_NPAXAAV?$basic_string@DU?$char_traits@D@std@@V?$allocator@D@2@@std@@AAVTTime@chen@@PADAAI@Z 0042c21c     svapi:svapi.dll
 0002:00000220       __imp_?PopMessage@@YAPAXV?$basic_string@DU?$char_traits@D@std@@V?$allocator@D@2@@std@@I00@Z 0042c220     svapi:svapi.dll
 0002:00000224       __imp_?GetMonitor@@YAPAXV?$basic_string@DU?$char_traits@D@std@@V?$allocator@D@2@@std@@00@Z 0042c224     svapi:svapi.dll
 0002:00000228       __imp_?GetMonitorMainAttribNode@@YAPAXPAX@Z 0042c228     svapi:svapi.dll
 0002:0000022c       __imp_?CloseMonitor@@YAXAAPAX@Z 0042c22c     svapi:svapi.dll
 0002:00000230       __imp_?LoadResource@@YAPAXV?$basic_string@DU?$char_traits@D@std@@V?$allocator@D@2@@std@@0@Z 0042c230     svapi:svapi.dll
 0002:00000234       __imp_?GetResourceNode@@YAPAXPAX@Z 0042c234     svapi:svapi.dll
 0002:00000238       __imp_?FindNodeValue@@YA_NPAXV?$basic_string@DU?$char_traits@D@std@@V?$allocator@D@2@@std@@AAV12@@Z 0042c238     svapi:svapi.dll
 0002:0000023c       __imp_?CloseResource@@YA_NAAPAX@Z 0042c23c     svapi:svapi.dll
 0002:00000240       __imp_?DeleteQueue@@YA_NV?$basic_string@DU?$char_traits@D@std@@V?$allocator@D@2@@std@@00@Z 0042c240     svapi:svapi.dll
 0002:00000244       \177svapi_NULL_THUNK_DATA  0042c244     svapi:svapi.dll
 0002:00000248       ??_7logic_error@std@@6B@   0042c248     refresh.obj
 0002:00000250       ??_7length_error@std@@6B@  0042c250     refresh.obj
 0002:00000258       ??_7out_of_range@std@@6B@  0042c258     refresh.obj
 0002:00000260       ??_7WCssRule@@6B@          0042c260     refresh.obj
 0002:00000268       ??_C@_01EEMJAFIK@?6?$AA@   0042c268     refresh.obj
 0002:0000026c       ??_C@_0BA@DIDOPAAI@class?5?$DN?5?$CCwinbg?$CC?$AA@ 0042c26c     refresh.obj
 0002:0000027c       ??_C@_0BA@NKJAKCJ@class?5?$DN?5?8winbg?8?$AA@ 0042c27c     refresh.obj
 0002:0000028c       ??_C@_0CC@NAACGDLJ@IDS_Refresh_To_Get_Monitor_Statu@ 0042c28c     refresh.obj
 0002:000002b0       ??_C@_07DLHCIBDH@default?$AA@ 0042c2b0     refresh.obj
 0002:000002b8       ??_C@_09IPAEKDAI@localhost?$AA@ 0042c2b8     refresh.obj
 0002:000002c4       ??_C@_0BD@OLBABOEK@vector?$DMT?$DO?5too?5long?$AA@ 0042c2c4     refresh.obj
 0002:000002d8       ??_C@_08EPJLHIJG@bad?5cast?$AA@ 0042c2d8     refresh.obj
 0002:000002e4       ??_C@_05KOLFGEDA@DEBUG?$AA@ 0042c2e4     refresh.obj
 0002:000002ea       ??_C@_00CNPNBAHC@?$AA@     0042c2ea     refresh.obj
 0002:000002ec       ??_C@_0BM@PAPJHAGI@invalid?5map?1set?$DMT?$DO?5iterator?$AA@ 0042c2ec     refresh.obj
 0002:00000324       ??_C@_0BH@IGHJFDON@?$CFd?5?9?5?$CFd?5?9?5?$CFd?5?9?5?$CFd?5?3?5?$CFd?$AA@ 0042c324     refreshform.obj
 0002:0000033c       ??_C@_0L@GHBKOMKF@sv_endtime?$AA@ 0042c33c     refreshform.obj
 0002:00000348       ??_C@_04CLCEDBPF@time?$AA@ 0042c348     refreshform.obj
 0002:00000350       ??_C@_04LOAJBDKD@true?$AA@ 0042c350     refreshform.obj
 0002:00000358       ??_C@_0L@OAHBFFC@sv_disable?$AA@ 0042c358     refreshform.obj
 0002:00000364       ??_C@_0P@LMIIIMGD@?$CFd?$CFd?$CFd?$CFd?$CFd?$CFd?$CFd?$AA@ 0042c364     refreshform.obj
 0002:00000374       ??_C@_0BA@BBAAJPPH@IDS_Refresh_Tip?$AA@ 0042c374     refreshform.obj
 0002:00000384       ??_C@_0M@NEOAJFPG@IDS_Refresh?$AA@ 0042c384     refreshform.obj
 0002:00000390       ??_C@_0BC@PHJNJOEE@IDS_Translate_Tip?$AA@ 0042c390     refreshform.obj
 0002:000003a4       ??_C@_0O@KMMCKEHN@IDS_Translate?$AA@ 0042c3a4     refreshform.obj
 0002:000003b4       ??_C@_0BK@LBPGMMEP@IDS_Refresh_Too_Long_Time?$AA@ 0042c3b4     refreshform.obj
 0002:000003d0       ??_C@_0BK@DJJHNKOC@IDS_Refresh_Not_Available?$AA@ 0042c3d0     refreshform.obj
 0002:000003ec       ??_C@_0BD@NEHONILK@IDS_Refresh_Finish?$AA@ 0042c3ec     refreshform.obj
 0002:00000400       ??_C@_0BD@JMNOGDL@IDS_Refresh_Failed?$AA@ 0042c400     refreshform.obj
 0002:00000414       ??_C@_0P@DDKODAFC@IDS_Refreshing?$AA@ 0042c414     refreshform.obj
 0002:00000424       ??_C@_0M@IMKIBGNL@IDS_Warning?$AA@ 0042c424     refreshform.obj
 0002:00000430       ??_C@_09LAKDFDJN@IDS_Error?$AA@ 0042c430     refreshform.obj
 0002:0000043c       ??_C@_0L@EOGAPIBM@IDS_Normal?$AA@ 0042c43c     refreshform.obj
 0002:00000448       ??_C@_0BO@JEJIJNAL@IDS_Result_of_Refresh_Monitor?$AA@ 0042c448     refreshform.obj
 0002:00000468       ??_C@_0BA@LGNAMNDF@IDS_Description?$AA@ 0042c468     refreshform.obj
 0002:00000478       ??_C@_09LNDAHHMN@IDS_State?$AA@ 0042c478     refreshform.obj
 0002:00000484       ??_C@_0BB@IPJENOCP@IDS_Monitor_Name?$AA@ 0042c484     refreshform.obj
 0002:00000498       ??_C@_0BB@PFBECMB@IDS_Close_Window?$AA@ 0042c498     refreshform.obj
 0002:000004ac       ??_C@_0BA@MOHIEIGK@IDS_Close_Space?$AA@ 0042c4ac     refreshform.obj
 0002:000004bc       ??_C@_0M@JHNNHCMN@?8?$DL?$DM?1SCRIPT?$DO?$AA@ 0042c4bc     refreshform.obj
 0002:000004c8       ??_C@_02PGMIOCEL@?$DN?8?$AA@ 0042c4c8     refreshform.obj
 0002:000004cc       ??_C@_0CF@NNDILOJE@?$DMSCRIPT?5language?$DN?8JavaScript?8?5?$DO?5@ 0042c4cc     refreshform.obj
 0002:000004f4       ??_C@_0DO@EMKICNLN@setTimeout?$CI?$CClocation?4href?5?$DN?8?1fcg@ 0042c4f4     refreshform.obj
 0002:00000534       ??_C@_0BO@NLGBKHGP@?9?9?9?9?9?9?9?9?9Refresh?9?9?9?9?9?9?9?9?9?9?9?9?6?$AA@ 0042c534     refreshform.obj
 0002:00000554       ??_C@_02HJPKOJGD@?8?$CJ?$AA@ 0042c554     refreshform.obj
 0002:00000558       ??_C@_0L@BCIEMAKA@refreshRes?$AA@ 0042c558     refreshform.obj
 0002:00000564       ??_C@_0BA@HHEEMAB@showTranslate?$CI?8?$AA@ 0042c564     refreshform.obj
 0002:00000574       ??_C@_0CA@BBPBLOF@?9?9?9?9?9?9?9?9?9Translate?9?9?9?9?9?9?9?9?9?9?9?9?6?$AA@ 0042c574     refreshform.obj
 0002:00000594       ??_C@_01IHBHIGKO@?0?$AA@   0042c594     refreshform.obj
 0002:00000598       ??_C@_03GJIMBAPG@160?$AA@  0042c598     refreshform.obj
 0002:0000059c       ??_C@_06MAIPDONP@?$DM?1div?$DO?$AA@ 0042c59c     refreshform.obj
 0002:000005a4       ??_C@_0BG@BHFDHKIJ@?8?5class?$DN?8panel_item?8?$DO?$AA@ 0042c5a4     refreshform.obj
 0002:000005bc       ??_C@_08NPGKDGCB@listpan1?$AA@ 0042c5bc     refreshform.obj
 0002:000005c8       ??_C@_09POJFMPOO@?$DMdiv?5id?$DN?8?$AA@ 0042c5c8     refreshform.obj
 0002:000005d4       ??_C@_09BJCPFAGO@widthauto?$AA@ 0042c5d4     refreshform.obj
 0002:000005e0       ??_C@_0L@NAFJDCMN@xclicked?$CI?$CJ?$AA@ 0042c5e0     refreshform.obj
 0002:000005ec       ??_C@_0BA@HNEIOGAM@window?4close?$CI?$CJ?$DL?$AA@ 0042c5ec     refreshform.obj
 0002:000005fc       ??_C@_0BA@LFPMGOEO@button_bg_m?4png?$AA@ 0042c5fc     refreshform.obj
 0002:0000060c       ??_C@_0N@EFLHGDHC@ygetresult?$CI?$CJ?$AA@ 0042c60c     refreshform.obj
 0002:0000061c       ??_C@_0O@JOBCAKOC@yshowresult?$CI?$CJ?$AA@ 0042c61c     refreshform.obj
 0002:00000630       ??_7SVRefresh@@6B@         0042c630     refreshform.obj
 0002:00000714       ??_C@_0O@MDBDMLPJ@sv_devicetype?$AA@ 0042c714     refreshform.obj
 0002:00000724       ??_C@_07DHHPHHAN@sv_name?$AA@ 0042c724     refreshform.obj
 0002:0000072c       ??_C@_0DK@MADBIIKI@?$DMSCRIPT?5language?$DN?8JavaScript?8?5sr@ 0042c72c     refreshform.obj
 0002:00000768       ??_C@_08LDPCJBHJ@bGeneral?$AA@ 0042c768     refreshform.obj
 0002:00000774       ??_C@_05LAPONLG@false?$AA@ 0042c774     refreshform.obj
 0002:0000077c       ??_C@_09HPHOINJB@fullstyle?$AA@ 0042c77c     refreshform.obj
 0002:00000788       ??_C@_07KONHMNIE@uistyle?$AA@ 0042c788     refreshform.obj
 0002:00000790       ??_C@_0P@GKAMHGHN@viewpanandlist?$AA@ 0042c790     refreshform.obj
 0002:000007a0       ??_C@_07FLAHOCJG@listpan?$AA@ 0042c7a0     refreshform.obj
 0002:000007a8       ??_C@_09KEBNOGEF@listtitle?$AA@ 0042c7a8     refreshform.obj
 0002:000007b4       ??_C@_0L@NNFEGFKL@listheight?$AA@ 0042c7b4     refreshform.obj
 0002:000007c0       ??_C@_0CJ@BNIBPOKN@?$DMdiv?5id?$DN?8view_panel?8?5class?$DN?8pane@ 0042c7c0     refreshform.obj
 0002:000007ec       ??_C@_0DJ@OCMKICHI@?6?$DMSCRIPT?5language?$DN?8JavaScript?8?5s@ 0042c7ec     refreshform.obj
 0002:00000828       ??_C@_0CE@MHNNAJOG@delete?5queue?5failed?$CB?5queue?5name?5@ 0042c828     refreshform.obj
 0002:0000084c       ??_C@_0O@BCJGFINO@close?5windows?$AA@ 0042c84c     refreshform.obj
 0002:0000085c       ??_C@_03OIHACFDD@?8?$CJ?$DL?$AA@ 0042c85c     refreshform.obj
 0002:00000860       ??_C@_08FPPCKMFB@update?$CI?8?$AA@ 0042c860     refreshform.obj
 0002:0000086c       ??_C@_0BP@GHAIMOBK@PushMessage?5into?5queue?5failed?$CB?$AA@ 0042c86c     refreshform.obj
 0002:0000088c       ??_C@_07MMIDIINJ@DISABLE?$AA@ 0042c88c     refreshform.obj
 0002:00000894       ??_C@_0DG@BJEPNIBD@PushMessage?5into?5SiteView70_Refr@ 0042c894     refreshform.obj
 0002:000008cc       ??_C@_0L@HFFOECKE@monitorid?$DN?$AA@ 0042c8cc     refreshform.obj
 0002:000008d8       ??_C@_0BC@LBAHJOCL@queuename?$DN?5?$CF?$FL0?99?$FN?$AA@ 0042c8d8     refreshform.obj
 0002:000008ec       ??_C@_0L@OLGKOLNN@queuename?$DN?$AA@ 0042c8ec     refreshform.obj
 0002:000008f8       ??_C@_0N@CMJHMENF@QUERY_STRING?$AA@ 0042c8f8     refreshform.obj
 0002:00000908       ??_C@_0M@COPBGLJN@Refresh_END?$AA@ 0042c908     refreshform.obj
 0002:00000914       ??_C@_0BJ@BBMIGLGM@?$CC?$CJ?4scrollIntoView?$CItrue?$CJ?$DL?$AA@ 0042c914     refreshform.obj
 0002:00000930       ??_C@_0BK@JKLMDKAA@document?4getElementById?$CI?$CC?$AA@ 0042c930     refreshform.obj
 0002:0000094c       ??_C@_0CB@OOEJKKPG@addLoadEvent?$CI_OnLoad?$CI?$CJ?$CJ?$DLupdate?$CI?8@ 0042c94c     refreshform.obj
 0002:00000970       ??_C@_01JLIPDDHJ@?3?$AA@   0042c970     refreshform.obj
 0002:00000974       ??_C@_0BH@FKPNACLM@?1images?1state_stop?4gif?$AA@ 0042c974     refreshform.obj
 0002:0000098c       ??_C@_04ECOMCMHA@?$DMBR?$DO?$AA@ 0042c98c     refreshform.obj
 0002:00000994       ??_C@_0BG@NHPBFDGM@?1images?1state_red?4gif?$AA@ 0042c994     refreshform.obj
 0002:000009ac       ??_C@_0BJ@FJEANDHC@?1images?1state_yellow?4gif?$AA@ 0042c9ac     refreshform.obj
 0002:000009c8       ??_C@_0BI@LJGLDJGH@?1images?1state_green?4gif?$AA@ 0042c9c8     refreshform.obj
 0002:000009e0       ??_C@_0BH@OOMBBGMA@?1images?1state_grey?4gif?$AA@ 0042c9e0     refreshform.obj
 0002:000009f8       ??_C@_0BI@KMGDLJMJ@Get?5message?5data?5failed?$AA@ 0042c9f8     refreshform.obj
 0002:00000a10       ??_C@_0L@EEDHOIGH@Refresh_OK?$AA@ 0042ca10     refreshform.obj
 0002:00000a1c       ??_C@_0BE@JONHPENG@map?1set?$DMT?$DO?5too?5long?$AA@ 0042ca1c     refreshformwt.obj
 0002:00000a30       ??_C@_0L@HICFLHLK@ExChange?$CI?$CJ?$AA@ 0042ca30     refreshformwt.obj
 0002:00000a3c       ??_C@_0M@GIEOCDDJ@Translate?$CI?$CJ?$AA@ 0042ca3c     refreshformwt.obj
 0002:00000a48       ??_C@_0M@MHHJFPD@getresult?$CI?$CJ?$AA@ 0042ca48     refreshformwt.obj
 0002:00000a54       ??_C@_0N@EOEHJKC@showresult?$CI?$CJ?$AA@ 0042ca54     refreshformwt.obj
 0002:00000a64       ??_C@_0BD@MPFOPIOM@clearEnvironment?$CI?$CJ?$AA@ 0042ca64     refreshformwt.obj
 0002:00000a78       ??_C@_08BEHKFNNO@disabled?$AA@ 0042ca78     WSPopButton.obj
 0002:00000a88       ??_7WSPopButton@@6B@       0042ca88     WSPopButton.obj
 0002:00000b6c       ??_C@_09PKJBNAHG@pop_but_r?$AA@ 0042cb6c     WSPopButton.obj
 0002:00000b78       ??_C@_06KMFGCGJP@nowrap?$AA@ 0042cb78     WSPopButton.obj
 0002:00000b80       ??_C@_09DHMLNOOI@pop_but_m?$AA@ 0042cb80     WSPopButton.obj
 0002:00000b8c       ??_C@_09CONAOPKJ@pop_but_l?$AA@ 0042cb8c     WSPopButton.obj
 0002:00000b98       __real@4034000000000000    0042cb98     WSPopButton.obj
 0002:00000ba0       ??_C@_0BC@MHMFAPAM@?1Images?1space?4gif?$AA@ 0042cba0     WSPopButton.obj
 0002:00000bb4       ??_C@_08DIOEMMDH@?1Images?1?$AA@ 0042cbb4     WSPopButton.obj
 0002:00000bc0       ??_C@_0BA@HFEBLEBL@button_img_font?$AA@ 0042cbc0     WSPopButton.obj
 0002:00000bd0       ??_C@_09LGPPBFPI@padding_3?$AA@ 0042cbd0     WSPopButton.obj
 0002:00000bdc       ??_C@_0BM@IBBKNKIL@?1Images?1pop_table_top_r?4png?$AA@ 0042cbdc     WSPopTable.obj
 0002:00000bf8       ??_C@_0O@CCFFKHIB@pop_table_top?$AA@ 0042cbf8     WSPopTable.obj
 0002:00000c08       ??_C@_0BM@LIMGLJGA@?1Images?1pop_table_top_l?4png?$AA@ 0042cc08     WSPopTable.obj
 0002:00000c24       ??_C@_0BM@EMBEAPNO@?1Images?1pop_table_bom_r?4png?$AA@ 0042cc24     WSPopTable.obj
 0002:00000c40       ??_C@_0O@KIELMDNO@pop_table_bom?$AA@ 0042cc40     WSPopTable.obj
 0002:00000c50       ??_C@_0BM@HFMIGMDF@?1Images?1pop_table_bom_l?4png?$AA@ 0042cc50     WSPopTable.obj
 0002:00000c6c       ??_C@_0M@NLMPKMMO@padding_top?$AA@ 0042cc6c     WSPopTable.obj
 0002:00000c78       ??_C@_08OAPDBDIN@tr_align?$AA@ 0042cc78     WSPopTable.obj
 0002:00000c88       __real@4059000000000000    0042cc88     WSPopTable.obj
 0002:00000c90       ??_C@_06HMAKFADA@pop_bg?$AA@ 0042cc90     WSPopTable.obj
 0002:00000c98       ??_7WSPopTable@@6B@        0042cc98     WSPopTable.obj
 0002:00000d7c       ??_C@_0BA@GECBKJNG@pop_table_mid_r?$AA@ 0042cd7c     WSPopTable.obj
 0002:00000d8c       ??_C@_0BH@BFKFFDPD@table_data_input_space?$AA@ 0042cd8c     WSPopTable.obj
 0002:00000da4       ??_C@_07PMHCLHIB@bgcolor?$AA@ 0042cda4     WSPopTable.obj
 0002:00000dac       ??_C@_0BA@LAGAJGAJ@pop_table_mid_l?$AA@ 0042cdac     WSPopTable.obj
 0002:00000dbc       ??_C@_09KPOECELJ@padding_2?$AA@ 0042cdbc     WSPopTable.obj
 0002:00000dc8       ??_C@_04FANNOMIB@hand?$AA@ 0042cdc8     WSPopTable.obj
 0002:00000dd0       ??_C@_0BB@NNIOIJMI@?1Images?1help?4png?$AA@ 0042cdd0     WSPopTable.obj
 0002:00000de4       ??_C@_08KDGNFJFD@textbold?$AA@ 0042cde4     WSPopTable.obj
 0002:00000df0       ??_C@_09OAKFLCHO@padding_5?$AA@ 0042cdf0     WSPopTable.obj
 0002:00000dfc       ??_C@_09MLMCBFPL@BtnProc?$CI?$CJ?$AA@ 0042cdfc     WSPopTableWt.obj
 0002:00000e08       ??_C@_03NIEPJMFE@?5?$HN?6?$AA@ 0042ce08     libwt:WCssStyleSheet.obj
 0002:00000e0c       ??_C@_03LDKJCMMO@?5?$HL?5?$AA@ 0042ce0c     libwt:WCssStyleSheet.obj
 0002:00000e10       ??_7bad_lexical_cast@boost@@6B@ 0042ce10     libwt:WWebWidget.obj
 0002:00000e18       ??_C@_0EH@FFMEKAOB@bad?5lexical?5cast?3?5source?5type?5va@ 0042ce18     libwt:WWebWidget.obj
 0002:00000e60       ??_C@_0CP@MNJJKLPL@WWebWidget?3?3offset?$CI?$CJ?5with?5weird?5@ 0042ce60     libwt:WWebWidget.obj
 0002:00000e90       ??_C@_0DD@KMFFPBCL@Error?3?5WWebWidget?3?3margin?$CISide?$CJ?5@ 0042ce90     libwt:WWebWidget.obj
 0002:00000ec8       __real@0000000000000000    0042cec8     libwt:WWebWidget.obj
 0002:00000ed0       ??_7WWebWidget@@6B@        0042ced0     libwt:WWebWidget.obj
 0002:00000fb4       ??_C@_05ENKANFLO@class?$AA@ 0042cfb4     libwt:WWebWidget.obj
 0002:00000fbc       ??_C@_05PHLGJONK@title?$AA@ 0042cfbc     libwt:WWebWidget.obj
 0002:00000fc4       ??_C@_0M@DGBLJBCD@text?9bottom?$AA@ 0042cfc4     libwt:WWebWidget.obj
 0002:00000fd0       ??_C@_06PMMPCIPB@bottom?$AA@ 0042cfd0     libwt:WWebWidget.obj
 0002:00000fd8       ??_C@_06CGLIEPEJ@middle?$AA@ 0042cfd8     libwt:WWebWidget.obj
 0002:00000fe0       ??_C@_08NCDOCPFJ@text?9top?$AA@ 0042cfe0     libwt:WWebWidget.obj
 0002:00000fec       ??_C@_03FGFCOCMD@top?$AA@  0042cfec     libwt:WWebWidget.obj
 0002:00000ff0       ??_C@_05MKJDPMKP@super?$AA@ 0042cff0     libwt:WWebWidget.obj
 0002:00000ff8       ??_C@_03KCMAIMAP@sub?$AA@  0042cff8     libwt:WWebWidget.obj
 0002:0000100c       ??_C@_04EHLGOKLJ@both?$AA@ 0042d00c     libwt:WWebWidget.obj
 0002:00001014       ??_C@_04GOOOJOPP@left?$AA@ 0042d014     libwt:WWebWidget.obj
 0002:0000101c       ??_C@_05DHJDAOHK@right?$AA@ 0042d01c     libwt:WWebWidget.obj
 0002:00001024       ??_C@_08NCJMCBDF@relative?$AA@ 0042d024     libwt:WWebWidget.obj
 0002:00001030       ??_C@_08KPFDDLMF@absolute?$AA@ 0042d030     libwt:WWebWidget.obj
 0002:0000103c       ??_C@_05OFLEIIDM@fixed?$AA@ 0042d03c     libwt:WWebWidget.obj
 0002:00001044       ??_C@_04CGFJFPFD@none?$AA@ 0042d044     libwt:WWebWidget.obj
 0002:0000104c       ??_C@_06OGMBMJA@inline?$AA@ 0042d04c     libwt:WWebWidget.obj
 0002:00001054       ??_C@_05PIBOEKAB@block?$AA@ 0042d054     libwt:WWebWidget.obj
 0002:0000105c       ??_C@_0N@NLFBEFHA@inline?9block?$AA@ 0042d05c     libwt:WWebWidget.obj
 0002:0000106c       ??_C@_0N@JBPLNCCJ@inline?9table?$AA@ 0042d06c     libwt:WWebWidget.obj
 0002:0000107c       ??_C@_0BO@CHBEEIEI@child?5disappeared?5in?5widget?5?$DP?$AA@ 0042d07c     libwt:WWebWidget.obj
 0002:0000109c       ??_C@_0CL@DINGDLAE@WWebWidget?3?3addChild?5of?5child?5wi@ 0042d09c     libwt:WWebWidget.obj
 0002:000010c8       ??_7WInteractWidget@@6B@   0042d0c8     libwt:WInteractWidget.obj
 0002:000011ac       ??_C@_0P@FJFCECKD@xcontextmenu?$CI?$CJ?$AA@ 0042d1ac     libwt:WInteractWidget.obj
 0002:000011bc       ??_C@_0M@NAMPODJM@contextmenu?$AA@ 0042d1bc     libwt:WInteractWidget.obj
 0002:000011c8       ??_C@_0P@DDGMIFJD@xmouseWentUp?$CI?$CJ?$AA@ 0042d1c8     libwt:WInteractWidget.obj
 0002:000011d8       ??_C@_07DIKNHLOB@mouseup?$AA@ 0042d1d8     libwt:WInteractWidget.obj
 0002:000011e0       ??_C@_0BB@BMDOCBGP@xmouseWentOver?$CI?$CJ?$AA@ 0042d1e0     libwt:WInteractWidget.obj
 0002:000011f4       ??_C@_09NMJMJAPE@mouseover?$AA@ 0042d1f4     libwt:WInteractWidget.obj
 0002:00001200       ??_C@_0BA@MHMHEFDA@xmouseWentOut?$CI?$CJ?$AA@ 0042d200     libwt:WInteractWidget.obj
 0002:00001210       ??_C@_08KFAJLGHH@mouseout?$AA@ 0042d210     libwt:WInteractWidget.obj
 0002:0000121c       ??_C@_0O@OFAHHDOF@xmouseMoved?$CI?$CJ?$AA@ 0042d21c     libwt:WInteractWidget.obj
 0002:0000122c       ??_C@_09JAKOECDO@mousemove?$AA@ 0042d22c     libwt:WInteractWidget.obj
 0002:00001238       ??_C@_0BB@DKAPAKAD@xmouseWentDown?$CI?$CJ?$AA@ 0042d238     libwt:WInteractWidget.obj
 0002:0000124c       ??_C@_09HPIIJDLD@mousedown?$AA@ 0042d24c     libwt:WInteractWidget.obj
 0002:00001258       ??_C@_0BB@MFHKNKH@xdoubleClicked?$CI?$CJ?$AA@ 0042d258     libwt:WInteractWidget.obj
 0002:0000126c       ??_C@_08JOLFCCIK@dblclick?$AA@ 0042d26c     libwt:WInteractWidget.obj
 0002:00001278       ??_C@_0L@EIEFNJMP@xchanged?$CI?$CJ?$AA@ 0042d278     libwt:WInteractWidget.obj
 0002:00001284       ??_C@_06BGNDGHEE@change?$AA@ 0042d284     libwt:WInteractWidget.obj
 0002:0000128c       ??_C@_0M@EEKEIINB@xredicted?$CI?$CJ?$AA@ 0042d28c     libwt:WInteractWidget.obj
 0002:00001298       ??_C@_06GKADNPOF@redict?$AA@ 0042d298     libwt:WInteractWidget.obj
 0002:000012a0       ??_C@_05BGCJMGHI@click?$AA@ 0042d2a0     libwt:WInteractWidget.obj
 0002:000012a8       ??_C@_0M@ENNHIEEL@ygotClick?$CI?$CJ?$AA@ 0042d2a8     libwt:WInteractWidget.obj
 0002:000012b4       ??_C@_0BB@COAEDCAO@xclicked?$CIvoid?5?$CK?$CJ?$AA@ 0042d2b4     libwt:WInteractWidget.obj
 0002:000012c8       ??_C@_0BA@FPNBKDJD@xkeyWentUp?$CIint?$CJ?$AA@ 0042d2c8     libwt:WInteractWidget.obj
 0002:000012d8       ??_C@_05BGOOGFKD@keyup?$AA@ 0042d2d8     libwt:WInteractWidget.obj
 0002:000012e0       ??_C@_0BB@ICOOMGAK@xkeyPressed?$CIint?$CJ?$AA@ 0042d2e0     libwt:WInteractWidget.obj
 0002:000012f4       ??_C@_08PAFGIKGM@keypress?$AA@ 0042d2f4     libwt:WInteractWidget.obj
 0002:00001300       ??_C@_0BC@LHALEJGJ@xkeyWentDown?$CIint?$CJ?$AA@ 0042d300     libwt:WInteractWidget.obj
 0002:00001314       ??_C@_07EHMIKNBE@keydown?$AA@ 0042d314     libwt:WInteractWidget.obj
 0002:0000131c       ??_C@_0BD@BKCJCFEJ@event?4keyCode?5?$CB?$DN?50?$AA@ 0042d31c     libwt:WInteractWidget.obj
 0002:00001330       ??_C@_07MJLNJKOC@keyCode?$AA@ 0042d330     libwt:WInteractWidget.obj
 0002:00001338       ??_C@_0L@OEGGEIKN@gotClick?$CI?$CJ?$AA@ 0042d338     libwt:WInteractWidget.obj
 0002:00001344       ??_C@_0O@JGOPCOKI@contextmenu?$CI?$CJ?$AA@ 0042d344     libwt:WInteractWidget.obj
 0002:00001354       ??_C@_09IEKJLDOD@changed?$CI?$CJ?$AA@ 0042d354     libwt:WInteractWidget.obj
 0002:00001360       ??_C@_0L@HGLAAIFI@redicted?$CI?$CJ?$AA@ 0042d360     libwt:WInteractWidget.obj
 0002:0000136c       ??_C@_0BA@IJPEAJAL@clicked?$CIvoid?5?$CK?$CJ?$AA@ 0042d36c     libwt:WInteractWidget.obj
 0002:0000137c       ??_C@_0N@OCPOOBND@mouseMoved?$CI?$CJ?$AA@ 0042d37c     libwt:WInteractWidget.obj
 0002:0000138c       ??_C@_0BA@LLMOBKGK@mouseWentOver?$CI?$CJ?$AA@ 0042d38c     libwt:WInteractWidget.obj
 0002:0000139c       ??_C@_0P@FANKCBNE@mouseWentOut?$CI?$CJ?$AA@ 0042d39c     libwt:WInteractWidget.obj
 0002:000013ac       ??_C@_0O@PMNBOJJI@mouseWentUp?$CI?$CJ?$AA@ 0042d3ac     libwt:WInteractWidget.obj
 0002:000013bc       ??_C@_0BA@JNPPDBAG@mouseWentDown?$CI?$CJ?$AA@ 0042d3bc     libwt:WInteractWidget.obj
 0002:000013cc       ??_C@_0BA@KLKHJGKC@doubleClicked?$CI?$CJ?$AA@ 0042d3cc     libwt:WInteractWidget.obj
 0002:000013dc       ??_C@_09BMLFFIOB@clicked?$CI?$CJ?$AA@ 0042d3dc     libwt:WInteractWidget.obj
 0002:000013e8       ??_C@_0P@MIMMMHHH@keyWentUp?$CIint?$CJ?$AA@ 0042d3e8     libwt:WInteractWidget.obj
 0002:000013f8       ??_C@_0BA@CFBOPNAP@keyPressed?$CIint?$CJ?$AA@ 0042d3f8     libwt:WInteractWidget.obj
 0002:00001408       ??_C@_0BB@MHMGENNN@keyWentDown?$CIint?$CJ?$AA@ 0042d408     libwt:WInteractWidget.obj
 0002:0000141c       ??_C@_0DK@NGFADHGM@Error?3?5WContainerWidget?3?3padding@ 0042d41c     libwt:WContainerWidget.obj
 0002:00001458       ??_7WContainerWidget@@6B@  0042d458     libwt:WContainerWidget.obj
 0002:00001544       ??_C@_01CLKCMJKC@?5?$AA@   0042d544     libwt:WContainerWidget.obj
 0002:00001548       ??_C@_07BAMLJHKN@justify?$AA@ 0042d548     libwt:WContainerWidget.obj
 0002:00001550       ??_C@_06BBLOAEEI@center?$AA@ 0042d550     libwt:WContainerWidget.obj
 0002:00001558       ??_C@_0DF@CEDMHPLP@Warning?3?5WContainerWidget?3?5ignor@ 0042d558     libwt:WContainerWidget.obj
 0002:00001590       ??_7WTable@@6B@            0042d590     libwt:WTable.obj
 0002:00001674       ??_C@_01ODHLEDKK@?$CI?$AA@ 0042d674     libwt:WTable.obj
 0002:00001678       ??_C@_03LPPJIELD@?$CJ?3?5?$AA@ 0042d678     libwt:WTable.obj
 0002:0000167c       ??_C@_07MPAOONDD@Table?3?5?$AA@ 0042d67c     libwt:WTable.obj
 0002:00001684       ??_C@_01FJMABOPO@x?$AA@    0042d684     libwt:WTable.obj
 0002:00001688       ??_C@_01NEMOKFLO@?$DN?$AA@ 0042d688     libwt:WTable.obj
 0002:0000168c       ??_C@_0M@IPMJHNPD@cellSpacing?$AA@ 0042d68c     libwt:WTable.obj
 0002:00001698       ??_C@_0M@CCACKAMJ@cellPadding?$AA@ 0042d698     libwt:WTable.obj
 0002:000016a4       ??_C@_02DPKJAMEF@?$CFd?$AA@ 0042d6a4     libwt:WTable.obj
 0002:000016a8       ??_7WTableRow@@6B@         0042d6a8     libwt:WTable.obj
 0002:00001798       ??_7WText@@6B@             0042d798     libwt:WText.obj
 0002:00001880       __real@41f0000000000000    0042d880     libwt:WText.obj
 0002:00001888       ??_C@_06DDLNFFBN@?$CGquot?$DL?$AA@ 0042d888     libwt:WText.obj
 0002:00001890       ??_C@_04LOOHDCEI@?$CGgt?$DL?$AA@ 0042d890     libwt:WText.obj
 0002:00001898       ??_C@_04GJOGLFEJ@?$CGlt?$DL?$AA@ 0042d898     libwt:WText.obj
 0002:000018a0       ??_C@_05JKJFEODM@?$CGamp?$DL?$AA@ 0042d8a0     libwt:WText.obj
 0002:000018a8       ??_C@_05OMDPILML@?$CG?$CD39?$DL?$AA@ 0042d8a8     libwt:WText.obj
 0002:000018b0       ??_C@_05IPNHIEEO@?$CG?$CD92?$DL?$AA@ 0042d8b0     libwt:WText.obj
 0002:000018b8       ??_7WImage@@6B@            0042d8b8     libwt:WImage.obj
 0002:0000199c       ??_C@_0P@MGHKDNBD@xdataChanged?$CI?$CJ?$AA@ 0042d99c     libwt:WImage.obj
 0002:000019ac       ??_C@_0BD@DFDPHIHI@yresourceChanged?$CI?$CJ?$AA@ 0042d9ac     libwt:WImage.obj
 0002:000019c0       ??_C@_0BC@COKBECLB@resourceChanged?$CI?$CJ?$AA@ 0042d9c0     libwt:WImage.obj
 0002:000019d8       ??_7WFormWidget@@6B@       0042d9d8     libwt:WFormWidget.obj
 0002:00001abc       ??_C@_0M@HIAHEKIK@xfocussed?$CI?$CJ?$AA@ 0042dabc     libwt:WFormWidget.obj
 0002:00001ac8       ??_C@_05PEEJIKOE@focus?$AA@ 0042dac8     libwt:WFormWidget.obj
 0002:00001ad0       ??_C@_0L@PBPPLJLO@xblurred?$CI?$CJ?$AA@ 0042dad0     libwt:WFormWidget.obj
 0002:00001adc       ??_C@_04OEOMNFLL@blur?$AA@ 0042dadc     libwt:WFormWidget.obj
 0002:00001ae4       ??_C@_0M@GJFNOAEG@xselected?$CI?$CJ?$AA@ 0042dae4     libwt:WFormWidget.obj
 0002:00001af0       ??_C@_06LGNCCACI@select?$AA@ 0042daf0     libwt:WFormWidget.obj
 0002:00001af8       ??_C@_0BB@JAKMJJP@setEnabled?$CIbool?$CJ?$AA@ 0042daf8     libwt:WFormWidget.obj
 0002:00001b0c       ??_C@_09FMLJGOMB@disable?$CI?$CJ?$AA@ 0042db0c     libwt:WFormWidget.obj
 0002:00001b18       ??_C@_08IALMGBPN@enable?$CI?$CJ?$AA@ 0042db18     libwt:WFormWidget.obj
 0002:00001b24       ??_C@_0L@EKBDMKAD@focussed?$CI?$CJ?$AA@ 0042db24     libwt:WFormWidget.obj
 0002:00001b30       ??_C@_09DNBDNDJC@blurred?$CI?$CJ?$AA@ 0042db30     libwt:WFormWidget.obj
 0002:00001b3c       ??_C@_0L@FLEJGAMP@selected?$CI?$CJ?$AA@ 0042db3c     libwt:WFormWidget.obj
 0002:00001b48       ??_7WPushButton@@6B@       0042db48     libwt:WPushButton.obj
 0002:00001c2c       ??_C@_04GPMDFGEJ@type?$AA@ 0042dc2c     libwt:WPushButton.obj
 0002:00001c34       ??_C@_06HFKPFKMP@button?$AA@ 0042dc34     libwt:WPushButton.obj
 0002:00001c40       ??_7WScrollArea@@6B@       0042dc40     libwt:WScrollArea.obj
 0002:00001d24       ??_C@_04HAPDLBFF@auto?$AA@ 0042dd24     libwt:WScrollArea.obj
 0002:00001d2c       ??_C@_06JIKFICKK@hidden?$AA@ 0042dd2c     libwt:WScrollArea.obj
 0002:00001d34       ??_C@_06FJKBNFNG@scroll?$AA@ 0042dd34     libwt:WScrollArea.obj
 0002:00001d3c       ??_C@_0BG@BHGMMKBF@Exposing?5a?5resource?4?5?$AA@ 0042dd3c     libwt:WApplication.obj
 0002:00001d54       ??_7WApplication@@6B@      0042dd54     libwt:WApplication.obj
 0002:00001d80       ??_C@_0EH@EFFJCPDD@Error?3?5WApplication?3?3removeExpos@ 0042dd80     libwt:WApplication.obj
 0002:00001dc8       ??_C@_0EJ@PKKCALNA@Error?3?5WApplication?3?3removeExpos@ 0042ddc8     libwt:WApplication.obj
 0002:00001e14       ??_C@_0BM@HOLKLDFC@Removing?5exposed?5resource?4?5?$AA@ 0042de14     libwt:WApplication.obj
 0002:00001e30       ??_C@_0BO@ILDEDML@http?3?1?1witty?4sourceforge?4net?1?$AA@ 0042de30     libwt:WApplication.obj
 0002:00001e50       ??_C@_0BG@PFONAMBD@scheduleUploadFiles?$CI?$CJ?$AA@ 0042de50     libwt:WApplication.obj
 0002:00001e68       ??_C@_06HBAEMNCI@quit?$CI?$CJ?$AA@ 0042de68     libwt:WApplication.obj
 0002:00001e70       ??_C@_0O@OHPGGCNA@Not?5That?5Many?$AA@ 0042de70     libwt:WebSession.obj
 0002:00001e80       ??_C@_0BB@NMGLGCBG@Cookie?5Not?5Found?$AA@ 0042de80     libwt:WebSession.obj
 0002:00001e94       ??_C@_0L@HDNHDIAC@No?5Cookies?$AA@ 0042de94     libwt:WebSession.obj
 0002:00001ea0       ??_C@_0BL@MKGJAEAP@Content?5Length?5Discrepancy?$AA@ 0042dea0     libwt:WebSession.obj
 0002:00001ebc       ??_C@_0BD@MOLPLHJN@Bad?5Content?5Length?$AA@ 0042debc     libwt:WebSession.obj
 0002:00001ed0       ??_C@_0BC@HPDAABKL@NULL?5Query?5String?$AA@ 0042ded0     libwt:WebSession.obj
 0002:00001ee4       ??_C@_0BH@DLJALBOE@Incorrect?5Content?5Type?$AA@ 0042dee4     libwt:WebSession.obj
 0002:00001efc       ??_C@_0P@ECMBGKAN@Unknown?5method?$AA@ 0042defc     libwt:WebSession.obj
 0002:00001f0c       ??_C@_0O@GECCKPJF@Not?5a?5boolean?$AA@ 0042df0c     libwt:WebSession.obj
 0002:00001f1c       ??_C@_0N@CBOPCKOH@Not?5a?5double?$AA@ 0042df1c     libwt:WebSession.obj
 0002:00001f2c       ??_C@_0P@ELLMHAHK@Not?5an?5integer?$AA@ 0042df2c     libwt:WebSession.obj
 0002:00001f40       ??_C@_02DPNLHKJD@a?$CL?$AA@ 0042df40     libwt:WebSession.obj
 0002:00001f44       ??_C@_0N@OOAKLEHK@c?3?2start?4log?$AA@ 0042df44     libwt:WebSession.obj
 0002:00001f54       ??_C@_0M@JEIGMJPN@c?3?2free?4log?$AA@ 0042df54     libwt:WebSession.obj
 0002:00001f60       ??_C@_0M@NLJHBKOA@HTTP_COOKIE?$AA@ 0042df60     libwt:WebSession.obj
 0002:00001f6c       ??_C@_0BF@LJOEKIFL@Content?9Type?3?5?$CFs?$AN?6?$AN?6?$AA@ 0042df6c     libwt:WebSession.obj
 0002:00001f84       ??_C@_03INNDMBFN@?$CF4x?$AA@ 0042df84     libwt:WebSession.obj
 0002:00001f88       ??_C@_01KDCPPGHE@r?$AA@    0042df88     libwt:WebSession.obj
 0002:00001f8c       ??_C@_0BE@FMKABEGP@Can?8t?5open?5?$CFs?5?9?5?$CFs?6?$AA@ 0042df8c     libwt:WebSession.obj
 0002:00001fa0       ??_C@_03OFAPEBGM@?$CFs?6?$AA@ 0042dfa0     libwt:WebSession.obj
 0002:00001fa4       ??_C@_0BA@DOOELCMK@?$DMh1?$DOError?$DM?1h1?$DO?6?$AA@ 0042dfa4     libwt:WebSession.obj
 0002:00001fb4       ??_C@_05IKAEGFCC@svsid?$AA@ 0042dfb4     libwt:WebSession.obj
 0002:00001fbc       ??_C@_06IHAGGOEE@userid?$AA@ 0042dfbc     libwt:WebSession.obj
 0002:00001fc4       ??_C@_01ICJEACDI@?$DL?$AA@ 0042dfc4     libwt:WebSession.obj
 0002:00001fc8       ??_C@_0BD@IOKCJKGG@?5?$CF?$CF?$CFi?$FL?$FO?$DN?$FN?$DN?$CF?$CF?$CFi?$FL?$FO?$DL?$FN?$AA@ 0042dfc8     libwt:WebSession.obj
 0002:00001fdc       ??_C@_03DLDNIBIK@?$CFlf?$AA@ 0042dfdc     libwt:WebSession.obj
 0002:00001fe0       ??_C@_09KABDMIOB@text?1html?$AA@ 0042dfe0     libwt:WebSession.obj
 0002:00001fec       ??_C@_03HAPOJHBM@GET?$AA@  0042dfec     libwt:WebSession.obj
 0002:00001ff0       ??_C@_0P@GJMOGDPG@Content?9Type?3?5?$AA@ 0042dff0     libwt:WebSession.obj
 0002:00002000       ??_C@_0BJ@JDCJMJCJ@application?1octet?9stream?$AA@ 0042e000     libwt:WebSession.obj
 0002:0000201c       ??_C@_0L@NNMNIONE@filename?$DN?$CC?$AA@ 0042e01c     libwt:WebSession.obj
 0002:00002028       ??_C@_06JMOJEPOI@name?$DN?$CC?$AA@ 0042e028     libwt:WebSession.obj
 0002:00002030       ??_C@_0BG@HDDGLJCG@Content?9Disposition?3?5?$AA@ 0042e030     libwt:WebSession.obj
 0002:00002048       ??_C@_09LCENMFDK@boundary?$DN?$AA@ 0042e048     libwt:WebSession.obj
 0002:00002054       ??_C@_0BE@PILCJFLE@multipart?1form?9data?$AA@ 0042e054     libwt:WebSession.obj
 0002:00002068       ??_C@_0P@HGGOGAMC@CONTENT_LENGTH?$AA@ 0042e068     libwt:WebSession.obj
 0002:00002078       ??_C@_0CC@FLKANKNI@application?1x?9www?9form?9urlencode@ 0042e078     libwt:WebSession.obj
 0002:0000209c       ??_C@_0N@JOIOCFIA@CONTENT_TYPE?$AA@ 0042e09c     libwt:WebSession.obj
 0002:000020ac       ??_C@_04HCJEIHPL@POST?$AA@ 0042e0ac     libwt:WebSession.obj
 0002:000020b4       ??_C@_0P@OLMAFMHK@REQUEST_METHOD?$AA@ 0042e0b4     libwt:WebSession.obj
 0002:000020c4       ??_C@_07ENHGAJCI@request?$AA@ 0042e0c4     libwt:WebSession.obj
 0002:000020cc       ??_C@_03CAOIPBNL@arg?$AA@  0042e0cc     libwt:WebSession.obj
 0002:000020d0       ??_C@_0BA@LOHLDOHC@signal?5is?5null?6?$AA@ 0042e0d0     libwt:WebSession.obj
 0002:000020e0       ??_C@_0M@CNGGLBPB@REMOTE_ADDR?$AA@ 0042e0e0     libwt:WebSession.obj
 0002:000020ec       ??_C@_04EONOHKEP@load?$AA@ 0042e0ec     libwt:WebSession.obj
 0002:000020f4       ??_C@_09BCBIKKAE@signal?3?5?8?$AA@ 0042e0f4     libwt:WebSession.obj
 0002:00002100       ??_C@_01GEODFPGF@?8?$AA@   0042e100     libwt:WebSession.obj
 0002:00002104       ??_C@_06OAFOBKHE@signal?$AA@ 0042e104     libwt:WebSession.obj
 0002:0000210c       ??_C@_08NJJFDENH@resource?$AA@ 0042e10c     libwt:WebSession.obj
 0002:00002118       ??_C@_0BB@LFOEGFGH@ModFcgi?9Event?9?$CFd?$AA@ 0042e118     libwt:WebSession.obj
 0002:0000212c       ??_C@_0BG@JFAFJBDJ@SiteView?9Cgi?9Event?9?$CFd?$AA@ 0042e12c     libwt:WebSession.obj
 0002:00002144       ??_C@_0P@MIGDDGFP@?$DM?1body?$DO?$DM?1html?$DO?$AA@ 0042e144     libwt:WebSession.obj
 0002:00002154       ??_C@_09JCILIIII@?$CFs?$DM?1form?$DO?$AA@ 0042e154     libwt:WebSession.obj
 0002:00002160       ??_C@_0BB@BHBIMILC@?$DM?1head?$DO?6?$DM?1html?$DO?6?$AA@ 0042e160     libwt:WebSession.obj
 0002:00002178       ??_C@_0NC@EOJAAJPB@?$DMhtml?5lang?$DN?$CCen?$CC?5dir?$DN?$CCltr?$CC?$DO?6?$DMhead@ 0042e178     libwt:WebSession.obj
 0002:0000224c       ??_C@_02CHHAKFFB@w?$CL?$AA@ 0042e24c     libwt:WebSession.obj
 0002:00002250       ??_C@_0EG@KBLKLHFD@?$DMinput?5name?$DN?8signal?8?5id?$DN?8signal?8@ 0042e250     libwt:WebSession.obj
 0002:00002298       ??_C@_0FA@EIBJGPHO@?$DMbody?$DO?6?$DMform?5method?$DN?8post?8?5actio@ 0042e298     libwt:WebSession.obj
 0002:000022e8       ??_C@_0DP@MJFEBFDN@?$DMtitle?$DO?$CFs?$DM?1title?$DO?6?$DMstyle?5type?$DN?$CCt@ 0042e2e8     libwt:WebSession.obj
 0002:00002328       ??_C@_0JH@LAOBJKKC@?$DMscript?5language?$DN?$CCJavaScript?$CC?$DO?6f@ 0042e328     libwt:WebSession.obj
 0002:000023c0       ??_C@_0PP@PNPEPNHP@Content?9type?3?5text?1html?$AN?6Expires@ 0042e3c0     libwt:WebSession.obj
 0002:000024c0       ??_C@_04CLOGDNII@aaaa?$AA@ 0042e4c0     libwt:WebSession.obj
 0002:000024c8       ??_C@_0BAF@MPCEHKGJ@?$DMbody?5onload?$DN?$CCdoOnLoad?$CI?$CJ?$DL?5?$CC?5?$CFs?5?$DO@ 0042e4c8     libwt:WebSession.obj
 0002:000025d0       ??_C@_02DKCKIIND@?$CFs?$AA@ 0042e5d0     libwt:WebSession.obj
 0002:000025d8       ??_C@_0CIM@HKODIHPB@Content?9type?3?5text?1html?$AN?6Content@ 0042e5d8     libwt:WebSession.obj
 0002:00002864       ??_C@_04EFNHPJLJ@?8?$CJ?$DL?6?$AA@ 0042e864     libwt:WebSession.obj
 0002:0000286c       ??_C@_0L@BLLNIFBE@?5?5update?$CI?8?$AA@ 0042e86c     libwt:WebSession.obj
 0002:00002878       ??_C@_0CO@PKMFBNJI@?5?5keepAliveTimer?5?$DN?5setTimeout?$CI?8k@ 0042e878     libwt:WebSession.obj
 0002:000028a8       ??_C@_0BH@OAEFMFOH@function?5doOnLoad?$CI?$CJ?5?$HL?6?$AA@ 0042e8a8     libwt:WebSession.obj
 0002:000028c0       ??_C@_02KGHIDFGE@?$HN?6?$AA@ 0042e8c0     libwt:WebSession.obj
 0002:000028c4       ??_C@_0BD@PBGLOMJH@?5?5update?$CI?8none?8?$CJ?$DL?6?$AA@ 0042e8c4     libwt:WebSession.obj
 0002:000028d8       ??_C@_0BD@OCIJGHFN@?5?5update?$CI?8load?8?$CJ?$DL?6?$AA@ 0042e8d8     libwt:WebSession.obj
 0002:000028ec       ??_C@_0BI@CBJMJNEA@function?5keepAlive?$CI?$CJ?5?$HL?6?$AA@ 0042e8ec     libwt:WebSession.obj
 0002:00002904       ??_C@_0BE@HMKHAFPP@var?5keepAliveTimer?$DL?$AA@ 0042e904     libwt:WebSession.obj
 0002:00002918       ??_C@_0FAK@NIPMGEIA@?$CJ?$CJ?$DL?6?5?5?5?5?5?5?5?5requests?$FLi?$FN?5?$DN?5null?$DL?6@ 0042e918     libwt:WebSession.obj
 0002:00002e28       ??_C@_0EN@OJNGNAII@?$CJ?$DL?6?5?5?5?5?5?5?5?5var?5message_num?5?$DN?5par@ 0042ee28     libwt:WebSession.obj
 0002:00002e78       ??_C@_0CFI@JANILONK@?8?$DL?6function?5getElement?$CIname?$CJ?5?$HL?6?5@ 0042ee78     libwt:WebSession.obj
 0002:000030d0       ??_C@_0BC@EBFPCKI@?8?$DL?6var?5appUrl?5?$DN?5?8?$AA@ 0042f0d0     libwt:WebSession.obj
 0002:000030e4       ??_C@_0M@GPDDOJFA@var?5url?5?$DN?5?8?$AA@ 0042f0e4     libwt:WebSession.obj
 0002:000030f0       ??_C@_0CB@JGNNPNFC@?$CJ?$DL?6return?50?$DL?$HNelse?$HL?6return?51?$DL?$HN?6?$HN?6@ 0042f0f0     libwt:WebSession.obj
 0002:00003118       ??_C@_0MP@KMHLKHJG@?5?5xmlHttpReq?4open?$CI?8GET?8?0?5url?5?$CL?5q@ 0042f118     libwt:WebSession.obj
 0002:000031e8       ??_C@_0BGE@CCMDEBKK@?5?5xmlHttpReq?4open?$CI?8GET?8?0?5url?0?5tr@ 0042f1e8     libwt:WebSession.obj
 0002:0000334c       ??_C@_0M@BPGNFEI@SCRIPT_NAME?$AA@ 0042f34c     libwt:WebSession.obj
 0002:00003358       ??_C@_06LNKFDEGN@noname?$AA@ 0042f358     libwt:WebSession.obj
 0002:00003360       ??_C@_03NBFACCKM@?$CJ?$DL?6?$AA@ 0042f360     libwt:WebSession.obj
 0002:00003364       ??_C@_0BN@BAOGKJEL@var?5formObjects?5?$DN?5new?5Array?$CI?$AA@ 0042f364     libwt:WebSession.obj
 0002:00003388       ??_C@_0KP@GDEGKGKH@Content?9Type?3?5text?1plain?$DLcharset@ 0042f388     libwt:WebSession.obj
 0002:00003438       ??_C@_0N@JCBHBJNP@Responding?3?5?$AA@ 0042f438     libwt:WebSession.obj
 0002:00003448       ??_C@_07KNGDIDJJ@?$DO?$DO?$DO?$DO?$DO?$DO?$DO?$AA@ 0042f448     libwt:WebSession.obj
 0002:00003450       ??_C@_07NEGKBJMB@?$DM?$DM?$DM?$DM?$DM?$DM?$DM?$AA@ 0042f450     libwt:WebSession.obj
 0002:00003458       ??_C@_03GLPMCEFE@msg?$AA@  0042f458     libwt:WebSession.obj
 0002:0000345c       ??_C@_0BN@PCPHJKEC@getElement?$CI?8form?8?$CJ?4submit?$CI?$CJ?$DL?$AA@ 0042f45c     libwt:WebSession.obj
 0002:0000347c       ??_C@_0BO@KAGIEEII@clearTimeout?$CIkeepAliveTimer?$CJ?$DL?$AA@ 0042f47c     libwt:WebSession.obj
 0002:0000349c       ??_C@_02LJALELK@?$CJ?$DL?$AA@ 0042f49c     libwt:WebSession.obj
 0002:000034a0       ??_C@_0BJ@NADNEMG@formObjects?5?$DN?5new?5Array?$CI?$AA@ 0042f4a0     libwt:WebSession.obj
 0002:000034bc       ??_C@_04MLMMMEIO@form?$AA@ 0042f4bc     libwt:WebSession.obj
 0002:000034c8       ??_C@_0KC@MHAFBMPD@Content?9Type?3?5text?1plain?$AN?6Pragma@ 0042f4c8     libwt:WebSession.obj
 0002:0000356c       ??_C@_0P@CGDAMDO@Waiting?5?4?4?4?4?4?4?$AA@ 0042f56c     libwt:WebSession.obj
 0002:0000357c       ??_C@_09CCIJNBCO@Good?5bye?4?$AA@ 0042f57c     libwt:WebSession.obj
 0002:00003588       ??_C@_0M@PLPOOMBO@?$DPsessionid?$DN?$AA@ 0042f588     libwt:WebSession.obj
 0002:00003594       ??_C@_0N@JBACMKAO@standalone_?6?$AA@ 0042f594     libwt:WebSession.obj
 0002:000035a4       ??_7WObject@@6B@           0042f5a4     libwt:WObject.obj
 0002:000035c8       ??_C@_03GEJOLAED@o?$CFx?$AA@ 0042f5c8     libwt:WObject.obj
 0002:000035cc       ??_C@_0DD@HCCNKBMN@Internal?5error?3?5WObject?3?3setForm@ 0042f5cc     libwt:WObject.obj
 0002:00003600       ??_C@_0DF@FOHNBDAA@Internal?5error?3?5WObject?3?3setNoFo@ 0042f600     libwt:WObject.obj
 0002:00003638       ??_C@_0DA@GPFPLMPH@WObject?5internal?5error?3?5slot?5not@ 0042f638     libwt:WObject.obj
 0002:00003668       ??_C@_0CA@EAGDNIEN@Warning?5could?5not?5find?5signal?3?5?$AA@ 0042f668     libwt:WObject.obj
 0002:00003688       ??_C@_0CG@HKFMJOLG@Object?3?3connect?5could?5not?5find?5s@ 0042f688     libwt:WObject.obj
 0002:000036b0       ??_C@_0CI@PNMNPCOI@Object?3?3connect?5could?5not?5find?5s@ 0042f6b0     libwt:WObject.obj
 0002:000036d8       ??_C@_01BJJEKLCA@?$CC?$AA@ 0042f6d8     libwt:WObject.obj
 0002:000036dc       ??_C@_0BF@PKGBLNPE@destroyed?$CIWObject?5?$CK?$CJ?$AA@ 0042f6dc     libwt:WObject.obj
 0002:000036f4       ??_C@_07KBFHKJFO@colspan?$AA@ 0042f6f4     libwt:WTableCell.obj
 0002:000036fc       ??_C@_07HIFHGKLD@rowspan?$AA@ 0042f6fc     libwt:WTableCell.obj
 0002:00003708       ??_7WTableCell@@6B@        0042f708     libwt:WTableCell.obj
 0002:000037f8       ??_7WWidget@@6B@           0042f7f8     libwt:WWidget.obj
 0002:000038d0       ??_C@_0BIP@IILBEMLG@?6?$DM?1style?$DO?6?$DMscript?$DO?6function?5getE@ 0042f8d0     libwt:WWidget.obj
 0002:00003a60       ??_C@_0MG@CCCGPFFH@?$DM?$CBDOCTYPE?5HTML?5PUBLIC?5?$CC?9?1?1W3C?1?1D@ 0042fa60     libwt:WWidget.obj
 0002:00003b28       ??_C@_06MECGJHAK@show?$CI?$CJ?$AA@ 0042fb28     libwt:WWidget.obj
 0002:00003b30       ??_C@_06OHGDCCJO@hide?$CI?$CJ?$AA@ 0042fb30     libwt:WWidget.obj
 0002:00003b38       ??_C@_0DN@ELIKIDBM@Inconsitency?5in?5slot?5rConnection@ 0042fb38     libwt:WSlotInstance_.obj
 0002:00003b78       ??_C@_05PHBPDODA@s?$CF08x?$AA@ 0042fb78     libwt:WSignalInstance_.obj
 0002:00003b80       ??_C@_0DG@JCCGIFAC@Error?3?5decodeSignal?5did?5not?5yiel@ 0042fb80     libwt:WSignalInstance_.obj
 0002:00003bb8       ??_C@_03HOFBFIGE@s?$CFx?$AA@ 0042fbb8     libwt:WSignalInstance_.obj
 0002:00003bbc       ??_C@_0DF@EANCENCJ@WSignalInstance_?5trigger?5error?$CIC@ 0042fbbc     libwt:WSignalInstance_.obj
 0002:00003bf4       ??_C@_0DO@MHJDBNCK@Inconsitency?5in?5signal?5connectio@ 0042fbf4     libwt:WSignalInstance_.obj
 0002:00003c38       __real@bff0000000000000    0042fc38     libwt:WLength.obj
 0002:00003c40       ??_C@_01FGNFDNOH@?$CF?$AA@ 0042fc40     libwt:WLength.obj
 0002:00003c44       ??_C@_02BKJPHGNJ@pc?$AA@   0042fc44     libwt:WLength.obj
 0002:00003c48       ??_C@_02BPBMPCEP@pt?$AA@   0042fc48     libwt:WLength.obj
 0002:00003c4c       ??_C@_02JAOCGLHE@mm?$AA@   0042fc4c     libwt:WLength.obj
 0002:00003c50       ??_C@_02JKHMEGHO@cm?$AA@   0042fc50     libwt:WLength.obj
 0002:00003c54       ??_C@_02LMMGJAGL@in?$AA@   0042fc54     libwt:WLength.obj
 0002:00003c58       ??_C@_02LDKJLNED@px?$AA@   0042fc58     libwt:WLength.obj
 0002:00003c5c       ??_C@_02KJEENMNI@ex?$AA@   0042fc5c     libwt:WLength.obj
 0002:00003c60       ??_C@_02JOPBDKMM@em?$AA@   0042fc60     libwt:WLength.obj
 0002:00003c64       ??_C@_01PKGAHCOL@?$CJ?$AA@ 0042fc64     libwt:WCssDecorationStyle.obj
 0002:00003c68       ??_C@_04NFEJJDKE@url?$CI?$AA@ 0042fc68     libwt:WCssDecorationStyle.obj
 0002:00003c70       ??_C@_04PCJFHION@help?$AA@ 0042fc70     libwt:WCssDecorationStyle.obj
 0002:00003c78       ??_C@_04CIMGMMMG@text?$AA@ 0042fc78     libwt:WCssDecorationStyle.obj
 0002:00003c80       ??_C@_04PNOAOIAG@wait?$AA@ 0042fc80     libwt:WCssDecorationStyle.obj
 0002:00003c88       ??_C@_04HDMMNHEL@move?$AA@ 0042fc88     libwt:WCssDecorationStyle.obj
 0002:00003c90       ??_C@_07PFMCDPMA@pointer?$AA@ 0042fc90     libwt:WCssDecorationStyle.obj
 0002:00003c98       ??_C@_09NBNKIDFG@crosshair?$AA@ 0042fc98     libwt:WCssDecorationStyle.obj
 0002:00003ca4       ??_C@_0BD@KFHHFOBI@background?9color?3?5?$AA@ 0042fca4     libwt:WCssDecorationStyle.obj
 0002:00003cb8       ??_C@_07KAFNLIIM@color?3?5?$AA@ 0042fcb8     libwt:WCssDecorationStyle.obj
 0002:00003cc0       ??_C@_08KGKGKIOE@border?3?5?$AA@ 0042fcc0     libwt:WCssDecorationStyle.obj
 0002:00003ccc       ??_C@_0O@FPFNLAJK@cursor?3?5help?$DL?$AA@ 0042fccc     libwt:WCssDecorationStyle.obj
 0002:00003cdc       ??_C@_0O@PDDLBKGO@cursor?3?5text?$DL?$AA@ 0042fcdc     libwt:WCssDecorationStyle.obj
 0002:00003cec       ??_C@_0O@GIIKPOPK@cursor?3?5wait?$DL?$AA@ 0042fcec     libwt:WCssDecorationStyle.obj
 0002:00003cfc       ??_C@_0O@GAGJOPOI@cursor?3?5move?$DL?$AA@ 0042fcfc     libwt:WCssDecorationStyle.obj
 0002:00003d0c       ??_C@_0BB@FBDLJFMK@cursor?3?5pointer?$DL?$AA@ 0042fd0c     libwt:WCssDecorationStyle.obj
 0002:00003d20       ??_C@_0BD@JECKKIPL@cursor?3?5crosshair?$DL?$AA@ 0042fd20     libwt:WCssDecorationStyle.obj
 0002:00003d34       ??_C@_0BB@HCCMECML@cursor?3?5default?$DL?$AA@ 0042fd34     libwt:WCssDecorationStyle.obj
 0002:00003d48       ??_C@_01KICIPPFI@?2?$AA@   0042fd48     libwt:DomElement.obj
 0002:00003d4c       ??_C@_0N@LLFCKHIP@getElement?$CI?8?$AA@ 0042fd4c     libwt:DomElement.obj
 0002:00003d5c       ??_C@_0BJ@DEOAEKPD@document?4createElement?$CI?8?$AA@ 0042fd5c     libwt:DomElement.obj
 0002:00003d78       ??_C@_09ODEEPDNN@?$DM?1button?$DO?$AA@ 0042fd78     libwt:DomElement.obj
 0002:00003d84       ??_C@_0CM@GKNGGEHM@?$DMbutton?5type?$DN?8submit?8?5name?$DN?8sign@ 0042fd84     libwt:DomElement.obj
 0002:00003db0       ??_C@_0HM@MFBICANB@?5style?$DN?8border?30px?$DLbackground?9co@ 0042fdb0     libwt:DomElement.obj
 0002:00003e2c       ??_C@_03MFNJFHN@?5?1?$DO?$AA@ 0042fe2c     libwt:DomElement.obj
 0002:00003e30       ??_C@_02DPNDACHE@?$DM?1?$AA@ 0042fe30     libwt:DomElement.obj
 0002:00003e34       ??_C@_01PPODPGHN@?$DO?$AA@ 0042fe34     libwt:DomElement.obj
 0002:00003e38       ??_C@_08CLJOAOGL@?5style?$DN?8?$AA@ 0042fe38     libwt:DomElement.obj
 0002:00003e44       ??_C@_0BM@IOPAFEEE@cursor?3pointer?$DLcursor?3hand?$DL?$AA@ 0042fe44     libwt:DomElement.obj
 0002:00003e60       ??_C@_07GCCODDFC@display?$AA@ 0042fe60     libwt:DomElement.obj
 0002:00003e68       ??_C@_0P@LEPGJDNP@border?9spacing?$AA@ 0042fe68     libwt:DomElement.obj
 0002:00003e78       ??_C@_0N@IPIFHOKP@table?9layout?$AA@ 0042fe78     libwt:DomElement.obj
 0002:00003e88       ??_C@_0BC@JMIAACLG@background?9repeat?$AA@ 0042fe88     libwt:DomElement.obj
 0002:00003e9c       ??_C@_0BB@IEADCOI@background?9image?$AA@ 0042fe9c     libwt:DomElement.obj
 0002:00003eb0       ??_C@_0BB@CKOBEPBN@background?9color?$AA@ 0042feb0     libwt:DomElement.obj
 0002:00003ec4       ??_C@_09JMJCKNGA@font?9size?$AA@ 0042fec4     libwt:DomElement.obj
 0002:00003ed0       ??_C@_0M@MOMJMPLL@font?9weight?$AA@ 0042fed0     libwt:DomElement.obj
 0002:00003edc       ??_C@_0N@JFFDBOKB@font?9variant?$AA@ 0042fedc     libwt:DomElement.obj
 0002:00003eec       ??_C@_0L@NALAKLEF@font?9style?$AA@ 0042feec     libwt:DomElement.obj
 0002:00003ef8       ??_C@_0M@DDAJBNLF@font?9family?$AA@ 0042fef8     libwt:DomElement.obj
 0002:00003f04       ??_C@_08CLAAFLMB@overflow?$AA@ 0042ff04     libwt:DomElement.obj
 0002:00003f10       ??_C@_05PEENBMOG@color?$AA@ 0042ff10     libwt:DomElement.obj
 0002:00003f18       ??_C@_06ODFLABIG@border?$AA@ 0042ff18     libwt:DomElement.obj
 0002:00003f20       ??_C@_06CHDIMBDP@cursor?$AA@ 0042ff20     libwt:DomElement.obj
 0002:00003f28       ??_C@_0M@JBBPKIJL@margin?9left?$AA@ 0042ff28     libwt:DomElement.obj
 0002:00003f34       ??_C@_0O@DCOEOMDK@margin?9bottom?$AA@ 0042ff34     libwt:DomElement.obj
 0002:00003f44       ??_C@_0N@HNLDFKAN@margin?9right?$AA@ 0042ff44     libwt:DomElement.obj
 0002:00003f54       ??_C@_0L@KIAOPGBK@margin?9top?$AA@ 0042ff54     libwt:DomElement.obj
 0002:00003f60       ??_C@_07MKEAMJFF@padding?$AA@ 0042ff60     libwt:DomElement.obj
 0002:00003f68       ??_C@_0L@EPOEGDBL@text?9align?$AA@ 0042ff68     libwt:DomElement.obj
 0002:00003f74       ??_C@_0P@OFMNGKHB@vertical?9align?$AA@ 0042ff74     libwt:DomElement.obj
 0002:00003f84       ??_C@_0L@MHDBIMKP@max?9height?$AA@ 0042ff84     libwt:DomElement.obj
 0002:00003f90       ??_C@_09GKDGDGOF@max?9width?$AA@ 0042ff90     libwt:DomElement.obj
 0002:00003f9c       ??_C@_0L@LDMPHKA@min?9height?$AA@ 0042ff9c     libwt:DomElement.obj
 0002:00003fa8       ??_C@_09GLDKKMFB@min?9width?$AA@ 0042ffa8     libwt:DomElement.obj
 0002:00003fb4       ??_C@_06LNLHEAAG@height?$AA@ 0042ffb4     libwt:DomElement.obj
 0002:00003fbc       ??_C@_05IGKADHGO@width?$AA@ 0042ffbc     libwt:DomElement.obj
 0002:00003fc4       ??_C@_05MEHLAELG@clear?$AA@ 0042ffc4     libwt:DomElement.obj
 0002:00003fcc       ??_C@_05KNFBNCOH@float?$AA@ 0042ffcc     libwt:DomElement.obj
 0002:00003fd4       ??_C@_07BNGAPIEN@z?9index?$AA@ 0042ffd4     libwt:DomElement.obj
 0002:00003fdc       ??_C@_08OAGMDKAF@position?$AA@ 0042ffdc     libwt:DomElement.obj
 0002:00003fe8       ??_C@_06HMGPEJJG@?5src?$DN?8?$AA@ 0042ffe8     libwt:DomElement.obj
 0002:00003ff0       ??_C@_0BF@FBAKKPBN@?5selected?$DN?8selected?8?$AA@ 0042fff0     libwt:DomElement.obj
 0002:00004008       ??_C@_0BD@HIINCOEM@?5checked?$DN?8checked?8?$AA@ 00430008     libwt:DomElement.obj
 0002:0000401c       ??_C@_0BF@NHEIMONN@?5disabled?$DN?8disabled?8?$AA@ 0043001c     libwt:DomElement.obj
 0002:00004034       ??_C@_03MGHMEFOJ@?5on?$AA@ 00430034     libwt:DomElement.obj
 0002:00004038       ??_C@_0L@KGJFMADL@?5onClick?$DN?8?$AA@ 00430038     libwt:DomElement.obj
 0002:00004044       ??_C@_05JPIBOKKE@?5id?$DN?8?$AA@ 00430044     libwt:DomElement.obj
 0002:0000404c       ??_C@_01MNNFJEPP@?$DM?$AA@ 0043004c     libwt:DomElement.obj
 0002:00004050       ??_C@_0DD@HEICNDHG@ERROR?3?5DomElement?3?3asHTML?$CI?$CJ?5call@ 00430050     libwt:DomElement.obj
 0002:00004084       ??_C@_01CELHOKLL@?$HN?$AA@ 00430084     libwt:DomElement.obj
 0002:00004088       ??_C@_03PHAHCGIK@?$CJ?5?$HL?$AA@ 00430088     libwt:DomElement.obj
 0002:0000408c       ??_C@_04NGKCFNEL@if?5?$CI?$AA@ 0043008c     libwt:DomElement.obj
 0002:00004094       ??_C@_05FFEDCMJC@?$CJ?$DN?$DN0?$CJ?$AA@ 00430094     libwt:DomElement.obj
 0002:0000409c       ??_C@_0L@JCMCHOOG@if?$CIupdate?$CI?$AA@ 0043009c     libwt:DomElement.obj
 0002:000040a8       ??_C@_07FCCOOMFC@update?$CI?$AA@ 004300a8     libwt:DomElement.obj
 0002:000040b0       ??_C@_0BA@JBCBHPKD@?$CGarg?$DN?8?5?$CL?5event?4?$AA@ 004300b0     libwt:DomElement.obj
 0002:000040c0       ??_C@_04MEMAJGDJ@name?$AA@ 004300c0     libwt:DomElement.obj
 0002:000040c8       ??_C@_01LFCBOECM@?4?$AA@   004300c8     libwt:DomElement.obj
 0002:000040cc       ??_C@_06OPIJGPAC@style?4?$AA@ 004300cc     libwt:DomElement.obj
 0002:000040d4       ??_C@_0N@GKIHHGFC@borderSpacin?$AA@ 004300d4     libwt:DomElement.obj
 0002:000040e4       ??_C@_0M@LJPHCJB@tableLayout?$AA@ 004300e4     libwt:DomElement.obj
 0002:000040f0       ??_C@_0BB@CFOEMJJH@backgroundRepeat?$AA@ 004300f0     libwt:DomElement.obj
 0002:00004104       ??_C@_0BA@KFPBKJO@backgroundImage?$AA@ 00430104     libwt:DomElement.obj
 0002:00004114       ??_C@_0BA@CIPOGHGL@backgroundColor?$AA@ 00430114     libwt:DomElement.obj
 0002:00004124       ??_C@_08MAPKGPB@fontSize?$AA@ 00430124     libwt:DomElement.obj
 0002:00004130       ??_C@_0L@DBEBDNPF@fontWeight?$AA@ 00430130     libwt:DomElement.obj
 0002:0000413c       ??_C@_0M@EMIPKME@fontVariant?$AA@ 0043013c     libwt:DomElement.obj
 0002:00004148       ??_C@_09FHCIJFJM@fontStyle?$AA@ 00430148     libwt:DomElement.obj
 0002:00004154       ??_C@_0L@MMIBOPPL@fontFamily?$AA@ 00430154     libwt:DomElement.obj
 0002:00004160       ??_C@_0L@IPEEGGJG@marginLeft?$AA@ 00430160     libwt:DomElement.obj
 0002:0000416c       ??_C@_0N@PLJGGDJL@marginBottom?$AA@ 0043016c     libwt:DomElement.obj
 0002:0000417c       ??_C@_0M@DBMHNHO@marginRight?$AA@ 0043017c     libwt:DomElement.obj
 0002:00004188       ??_C@_09PCDCJDII@marginTop?$AA@ 00430188     libwt:DomElement.obj
 0002:00004194       ??_C@_09PKLPGIBN@textAlign?$AA@ 00430194     libwt:DomElement.obj
 0002:000041a0       ??_C@_0O@NJPKFNHD@verticalAlign?$AA@ 004301a0     libwt:DomElement.obj
 0002:000041b0       ??_C@_09BMFIFOJA@maxHeight?$AA@ 004301b0     libwt:DomElement.obj
 0002:000041bc       ??_C@_08LICNNPMP@maxWidth?$AA@ 004301bc     libwt:DomElement.obj
 0002:000041c8       ??_C@_09BNFEMECE@minHeight?$AA@ 004301c8     libwt:DomElement.obj
 0002:000041d4       ??_C@_08GPMGGNIO@minWidth?$AA@ 004301d4     libwt:DomElement.obj
 0002:000041e0       ??_C@_06DJGAKHAN@zIndex?$AA@ 004301e0     libwt:DomElement.obj
 0002:000041e8       ??_C@_03LOJEKLML@src?$AA@  004301e8     libwt:DomElement.obj
 0002:000041ec       ??_C@_0O@MEMLIBHC@selectedIndex?$AA@ 004301ec     libwt:DomElement.obj
 0002:000041fc       ??_C@_08CJLOJPNI@selected?$AA@ 004301fc     libwt:DomElement.obj
 0002:00004208       ??_C@_07FJOBMBFC@checked?$AA@ 00430208     libwt:DomElement.obj
 0002:00004210       ??_C@_02JOGGLHBA@?2n?$AA@  00430210     libwt:DomElement.obj
 0002:00004214       ??_C@_09PHEBAKOD@innerHTML?$AA@ 00430214     libwt:DomElement.obj
 0002:00004220       ??_C@_0O@LAGNDCPN@?4appendChild?$CI?$AA@ 00430220     libwt:DomElement.obj
 0002:00004230       ??_C@_0P@BDCOLHAJ@?4insertBefore?$CI?$AA@ 00430230     libwt:DomElement.obj
 0002:00004240       ??_C@_02HMFFLFL@?$CC?$DL?$AA@ 00430240     libwt:DomElement.obj
 0002:00004244       ??_C@_0N@CDLOEJDL@?4innerHTML?$DN?$CC?$AA@ 00430244     libwt:DomElement.obj
 0002:00004254       ??_C@_03CGKDDCNK@?4on?$AA@ 00430254     libwt:DomElement.obj
 0002:00004258       ??_C@_04OBNAGKEO@?$CI?$CJ?5?$HL?$AA@ 00430258     libwt:DomElement.obj
 0002:00004260       ??_C@_09LFJOPOOD@function?5?$AA@ 00430260     libwt:DomElement.obj
 0002:0000426c       ??_C@_0BN@LANLCCEN@?4setAttribute?$CI?8className?8?0?5?8?$AA@ 0043026c     libwt:DomElement.obj
 0002:0000428c       ??_C@_03NPKONFAB@?$CC?$CJ?$DL?$AA@ 0043028c     libwt:DomElement.obj
 0002:00004290       ??_C@_04PHMHGEMA@?$CC?0?5?$CC?$AA@ 00430290     libwt:DomElement.obj
 0002:00004298       ??_C@_0BA@JMAFAAMI@?4setAttribute?$CI?$CC?$AA@ 00430298     libwt:DomElement.obj
 0002:000042a8       ??_C@_02HDBGODGB@?2?2?$AA@ 004302a8     libwt:DomElement.obj
 0002:000042ac       ??_C@_05MFEJDJP@value?$AA@ 004302ac     libwt:DomElement.obj
 0002:000042b4       ??_C@_02EGCJHIOB@id?$AA@   004302b4     libwt:DomElement.obj
 0002:000042b8       ??_C@_0O@PGDBEOFL@?4firstChild?$CJ?$DL?$AA@ 004302b8     libwt:DomElement.obj
 0002:000042c8       ??_C@_0O@IEOJJLPH@?4removeChild?$CI?$AA@ 004302c8     libwt:DomElement.obj
 0002:000042d8       ??_C@_0P@CAPHFFJO@?4firstChild?$CJ?5?$HL?$AA@ 004302d8     libwt:DomElement.obj
 0002:000042e8       ??_C@_07JOMAJBDI@while?5?$CI?$AA@ 004302e8     libwt:DomElement.obj
 0002:000042f0       ??_C@_0BK@NMGGLNCE@?4parentNode?4insertBefore?$CI?$AA@ 004302f0     libwt:DomElement.obj
 0002:0000430c       ??_C@_0BK@EBFOEFIC@?4parentNode?4replaceChild?$CI?$AA@ 0043030c     libwt:DomElement.obj
 0002:00004328       ??_C@_0BJ@HGHGCPMB@?4parentNode?4removeChild?$CI?$AA@ 00430328     libwt:DomElement.obj
 0002:00004344       ??_C@_07GDIJMEOM@block?$CI?8?$AA@ 00430344     libwt:DomElement.obj
 0002:0000434c       ??_C@_08IJNLHNAE@inline?$CI?8?$AA@ 0043034c     libwt:DomElement.obj
 0002:00004358       ??_C@_06HJOAAPBA@hide?$CI?8?$AA@ 00430358     libwt:DomElement.obj
 0002:00004360       ??_C@_01JBBJJEPG@p?$AA@    00430360     libwt:DomElement.obj
 0002:00004364       ??_C@_02EOEPPNBF@tr?$AA@   00430364     libwt:DomElement.obj
 0002:00004368       ??_C@_08DEBIGDAL@textarea?$AA@ 00430368     libwt:DomElement.obj
 0002:00004374       ??_C@_02FCNHEIMC@td?$AA@   00430374     libwt:DomElement.obj
 0002:00004378       ??_C@_05OPBKHDLA@tbody?$AA@ 00430378     libwt:DomElement.obj
 0002:00004380       ??_C@_05LCLENNFI@table?$AA@ 00430380     libwt:DomElement.obj
 0002:00004388       ??_C@_04FOPLNFFP@span?$AA@ 00430388     libwt:DomElement.obj
 0002:00004390       ??_C@_02JLMMKIPN@ul?$AA@   00430390     libwt:DomElement.obj
 0002:00004394       ??_C@_06OGMGCFPO@option?$AA@ 00430394     libwt:DomElement.obj
 0002:0000439c       ??_C@_02IKHNIOFL@ol?$AA@   0043039c     libwt:DomElement.obj
 0002:000043a0       ??_C@_02PFEMMEEH@li?$AA@   004303a0     libwt:DomElement.obj
 0002:000043a4       ??_C@_06BCIOHMBM@legend?$AA@ 004303a4     libwt:DomElement.obj
 0002:000043ac       ??_C@_05IDCCNNGI@label?$AA@ 004303ac     libwt:DomElement.obj
 0002:000043b4       ??_C@_05DFJCHPDH@input?$AA@ 004303b4     libwt:DomElement.obj
 0002:000043bc       ??_C@_03PCCGDNHJ@img?$AA@  004303bc     libwt:DomElement.obj
 0002:000043c0       ??_C@_06PKBNCBKI@iframe?$AA@ 004303c0     libwt:DomElement.obj
 0002:000043c8       ??_C@_02MPGGCNAA@h6?$AA@   004303c8     libwt:DomElement.obj
 0002:000043cc       ??_C@_02OEELHOMD@h5?$AA@   004303cc     libwt:DomElement.obj
 0002:000043d0       ??_C@_02PNFAEPIC@h4?$AA@   004303d0     libwt:DomElement.obj
 0002:000043d4       ??_C@_02LCBBNJEF@h3?$AA@   004303d4     libwt:DomElement.obj
 0002:000043d8       ??_C@_02KLAKOIAE@h2?$AA@   004303d8     libwt:DomElement.obj
 0002:000043dc       ??_C@_02IACHLLMH@h1?$AA@   004303dc     libwt:DomElement.obj
 0002:000043e0       ??_C@_08EPOEGPEK@fieldset?$AA@ 004303e0     libwt:DomElement.obj
 0002:000043ec       ??_C@_03FEJMGOGI@div?$AA@  004303ec     libwt:DomElement.obj
 0002:000043f0       ??_C@_03HNOLNALI@col?$AA@  004303f0     libwt:DomElement.obj
 0002:000043f4       ??_C@_02FGOECCNH@br?$AA@   004303f4     libwt:DomElement.obj
 0002:000043f8       ??_C@_01MCMALHOG@a?$AA@    004303f8     libwt:DomElement.obj
 0002:000043fc       ??_7WResource@@6B@         004303fc     libwt:WResource.obj
 0002:00004428       ??_C@_0DJ@LBMPNAAI@Error?3?5decodeResource?5did?5not?5yi@ 00430428     libwt:WResource.obj
 0002:00004464       ??_C@_06NCIJHFGC@?$CGrand?$DN?$AA@ 00430464     libwt:WResource.obj
 0002:0000446c       ??_C@_0L@JEKCAGPD@?$CGresource?$DN?$AA@ 0043046c     libwt:WResource.obj
 0002:00004478       ??_C@_05IDALPMNA@o?$CF08x?$AA@ 00430478     libwt:WResource.obj
 0002:00004480       ??_C@_0O@JMHFBBI@dataChanged?$CI?$CJ?$AA@ 00430480     libwt:WResource.obj
 0002:00004490       ??_7WLabel@@6B@            00430490     libwt:WLabel.obj
 0002:00004574       ??_C@_03JOHEBPFF@for?$AA@  00430574     libwt:WLabel.obj
 0002:00004578       ??_C@_07ENBDKFKF@?4scroll?$AA@ 00430578     libwt:WScrollBar.obj
 0002:00004580       ??_C@_03PGGAENPN@Top?$AA@  00430580     libwt:WScrollBar.obj
 0002:00004584       ??_C@_04KPCPLBPL@Left?$AA@ 00430584     libwt:WScrollBar.obj
 0002:0000458c       ??_7WScrollBar@@6B@        0043058c     libwt:WScrollBar.obj
 0002:000045b0       ??_C@_0O@BGAHHIHP@setValue?$CIint?$CJ?$AA@ 004305b0     libwt:WScrollBar.obj
 0002:000045c0       ??_C@_02HHFHKOHM@?$DP?$DP?$AA@ 004305c0     libwt:WMessageResourceBundle.obj
 0002:000045c4       ??_C@_01CBDEGOCN@j?$AA@    004305c4     libwt:JavaScript.obj
 0002:000045c8       ??_C@_04OCEBFHH@var?5?$AA@ 004305c8     libwt:JavaScript.obj
 0002:000045d0       ??_C@_01INIBCBCB@f?$AA@    004305d0     libwt:JavaScript.obj
 0002:000045d4       ??_C@_06JLNLLEEF@larger?$AA@ 004305d4     libwt:WFont.obj
 0002:000045dc       ??_C@_07OPOMIHHH@smaller?$AA@ 004305dc     libwt:WFont.obj
 0002:000045e4       ??_C@_08MMBCODGJ@xx?9large?$AA@ 004305e4     libwt:WFont.obj
 0002:000045f0       ??_C@_07EECEJGD@x?9large?$AA@ 004305f0     libwt:WFont.obj
 0002:000045f8       ??_C@_05BHNOFNA@large?$AA@ 004305f8     libwt:WFont.obj
 0002:00004600       ??_C@_05KJDGBEEG@small?$AA@ 00430600     libwt:WFont.obj
 0002:00004608       ??_C@_07KMAJLIPF@x?9small?$AA@ 00430608     libwt:WFont.obj
 0002:00004610       ??_C@_08GEFJBCPP@xx?9small?$AA@ 00430610     libwt:WFont.obj
 0002:0000461c       ??_C@_06HIDOEFBI@medium?$AA@ 0043061c     libwt:WFont.obj
 0002:00004624       ??_C@_07IEMLKEO@lighter?$AA@ 00430624     libwt:WFont.obj
 0002:0000462c       ??_C@_06DMILCIGF@bolder?$AA@ 0043062c     libwt:WFont.obj
 0002:00004634       ??_C@_04PJDGFHHN@bold?$AA@ 00430634     libwt:WFont.obj
 0002:0000463c       ??_C@_0L@OBDCDKNF@small?9caps?$AA@ 0043063c     libwt:WFont.obj
 0002:00004648       ??_C@_06IKLLLDHL@normal?$AA@ 00430648     libwt:WFont.obj
 0002:00004650       ??_C@_06DAHKLION@italic?$AA@ 00430650     libwt:WFont.obj
 0002:00004658       ??_C@_07PNBIOHPA@oblique?$AA@ 00430658     libwt:WFont.obj
 0002:00004660       ??_C@_09KGMMDNOE@monospace?$AA@ 00430660     libwt:WFont.obj
 0002:0000466c       ??_C@_08LMEPJBC@fantasay?$AA@ 0043066c     libwt:WFont.obj
 0002:00004678       ??_C@_07IMKJHNBO@cursive?$AA@ 00430678     libwt:WFont.obj
 0002:00004680       ??_C@_0L@LMHKFCHN@sans?9serif?$AA@ 00430680     libwt:WFont.obj
 0002:0000468c       ??_C@_05CHMOINJH@serif?$AA@ 0043068c     libwt:WFont.obj
 0002:00004694       ??_C@_07PGOGPNPO@inherit?$AA@ 00430694     libwt:WFont.obj
 0002:0000469c       ??_C@_04KDAMFBD@rgb?$CI?$AA@ 0043069c     libwt:WColor.obj
 0002:000046a4       ??_C@_05PMAELIEO@white?$AA@ 004306a4     libwt:WColor.obj
 0002:000046ac       ??_C@_05BIMBDNDC@black?$AA@ 004306ac     libwt:WColor.obj
 0002:000046b4       ??_C@_03FAAAOPJM@red?$AA@  004306b4     libwt:WColor.obj
 0002:000046b8       ??_C@_06BDPIEPJF@maroon?$AA@ 004306b8     libwt:WColor.obj
 0002:000046c0       ??_C@_04HLLEONLG@lime?$AA@ 004306c0     libwt:WColor.obj
 0002:000046c8       ??_C@_05GBEEJKMC@green?$AA@ 004306c8     libwt:WColor.obj
 0002:000046d0       ??_C@_04OBGPFBCN@blue?$AA@ 004306d0     libwt:WColor.obj
 0002:000046d8       ??_C@_04DCMEIHPF@navy?$AA@ 004306d8     libwt:WColor.obj
 0002:000046e0       ??_C@_04GANAGBLL@aqua?$AA@ 004306e0     libwt:WColor.obj
 0002:000046e8       ??_C@_04LJCKMMGA@teal?$AA@ 004306e8     libwt:WColor.obj
 0002:000046f0       ??_C@_07FHEBJCGF@fuchsia?$AA@ 004306f0     libwt:WColor.obj
 0002:000046f8       ??_C@_06GEHONCEN@purple?$AA@ 004306f8     libwt:WColor.obj
 0002:00004700       ??_C@_06ENJNJKEL@yellow?$AA@ 00430700     libwt:WColor.obj
 0002:00004708       ??_C@_05OFIFEKBG@olive?$AA@ 00430708     libwt:WColor.obj
 0002:00004710       ??_C@_04GEBBKIAA@gray?$AA@ 00430710     libwt:WColor.obj
 0002:00004718       ??_C@_06NBGLMDBG@silver?$AA@ 00430718     libwt:WColor.obj
 0002:00004720       ??_C@_0M@CEEDCJLA@transparent?$AA@ 00430720     libwt:WColor.obj
 0002:0000472c       ??_C@_05PNHKFCJL@thick?$AA@ 0043072c     libwt:WBorder.obj
 0002:00004734       ??_C@_04HHGFCHIH@thin?$AA@ 00430734     libwt:WBorder.obj
 0002:0000473c       ??_C@_06DEBFHMLL@outset?$AA@ 0043073c     libwt:WBorder.obj
 0002:00004744       ??_C@_05DLABHDKJ@inset?$AA@ 00430744     libwt:WBorder.obj
 0002:0000474c       ??_C@_05HNKDMFLJ@ridge?$AA@ 0043074c     libwt:WBorder.obj
 0002:00004754       ??_C@_06FKLJHCOJ@groove?$AA@ 00430754     libwt:WBorder.obj
 0002:0000475c       ??_C@_06BNJCAIGJ@double?$AA@ 0043075c     libwt:WBorder.obj
 0002:00004764       ??_C@_05OPIONHBI@solid?$AA@ 00430764     libwt:WBorder.obj
 0002:0000476c       ??_C@_06NBKPHGBD@dashed?$AA@ 0043076c     libwt:WBorder.obj
 0002:00004774       ??_C@_06EDEKCDFE@dotted?$AA@ 00430774     libwt:WBorder.obj
 0002:000047b0       ??_7type_info@@6B@         004307b0     MSVCRT:ti_inst.obj
 0002:000047e8       __load_config_used         004307e8     MSVCRT:loadcfg.obj
 0002:00004830       ??_R1A@?0A@A@type_info@@8  00430830     MSVCRT:ti_inst.obj
 0002:00004848       ??_R2type_info@@8          00430848     MSVCRT:ti_inst.obj
 0002:00004850       ??_R3type_info@@8          00430850     MSVCRT:ti_inst.obj
 0002:00004860       ??_R4type_info@@6B@        00430860     MSVCRT:ti_inst.obj
 0002:00004880       ___safe_se_handler_table   00430880     <linker-defined>
 0002:00004c58       ___rtc_iaa                 00430c58     MSVCRT:initsect.obj
 0002:00004c5c       ___rtc_izz                 00430c5c     MSVCRT:initsect.obj
 0002:00004c60       ___rtc_taa                 00430c60     MSVCRT:initsect.obj
 0002:00004c64       ___rtc_tzz                 00430c64     MSVCRT:initsect.obj
 0002:00004d90       __CT??_R0?AVexception@@@8??0exception@@QAE@ABV0@@Z12 00430d90     refresh.obj
 0002:00004dac       __CT??_R0?AVlogic_error@std@@@8??0logic_error@std@@QAE@ABV01@@Z40 00430dac     refresh.obj
 0002:00004dc8       __CT??_R0?AVlength_error@std@@@8??0length_error@std@@QAE@ABV01@@Z40 00430dc8     refresh.obj
 0002:00004de4       __CTA3?AVlength_error@std@@ 00430de4     refresh.obj
 0002:00004df4       __TI3?AVlength_error@std@@ 00430df4     refresh.obj
 0002:00004e28       __CT??_R0?AVbad_cast@@@8??0bad_cast@@QAE@ABV0@@Z12 00430e28     refresh.obj
 0002:00005038       __CT??_R0?AVout_of_range@std@@@8??0out_of_range@std@@QAE@ABV01@@Z40 00431038     refresh.obj
 0002:00005054       __CTA3?AVout_of_range@std@@ 00431054     refresh.obj
 0002:00005064       __TI3?AVout_of_range@std@@ 00431064     refresh.obj
 0002:00005fb8       __CT??_R0?AVbad_lexical_cast@boost@@@8??0bad_lexical_cast@boost@@QAE@ABV01@@Z20 00431fb8     libwt:WWebWidget.obj
 0002:00005fd4       __CTA3?AVbad_lexical_cast@boost@@ 00431fd4     libwt:WWebWidget.obj
 0002:00005fe4       __TI3?AVbad_lexical_cast@boost@@ 00431fe4     libwt:WWebWidget.obj
 0002:000091f4       __IMPORT_DESCRIPTOR_libfcgi 004351f4     libfcgi:libfcgi.dll
 0002:00009208       __IMPORT_DESCRIPTOR_svapi  00435208     svapi:svapi.dll
 0002:0000921c       __IMPORT_DESCRIPTOR_KERNEL32 0043521c     kernel32:KERNEL32.dll
 0002:00009230       __IMPORT_DESCRIPTOR_MSVCP71 00435230     msvcprt:MSVCP71.dll
 0002:00009244       __IMPORT_DESCRIPTOR_MSVCR71 00435244     MSVCRT:MSVCR71.dll
 0002:00009258       __NULL_IMPORT_DESCRIPTOR   00435258     libfcgi:libfcgi.dll
 0003:00000000       ___xc_a                    00443000     MSVCRT:cinitexe.obj
 0003:000000f0       ___xc_z                    004430f0     MSVCRT:cinitexe.obj
 0003:000000f4       ___xi_a                    004430f4     MSVCRT:cinitexe.obj
 0003:000000f8       ___xi_z                    004430f8     MSVCRT:cinitexe.obj
 0003:00000100       ??_R0?AVexception@@@8      00443100     refresh.obj
 0003:00000118       ??_R0?AVlogic_error@std@@@8 00443118     refresh.obj
 0003:00000138       ??_R0?AVlength_error@std@@@8 00443138     refresh.obj
 0003:00000158       ??_R0?AVbad_cast@@@8       00443158     refresh.obj
 0003:00000170       ??_R0?AVout_of_range@std@@@8 00443170     refresh.obj
 0003:00000190       ??_R0?AVbad_lexical_cast@boost@@@8 00443190     libwt:WWebWidget.obj
 0003:000001b8       ??_R0?AV?$basic_string@DU?$char_traits@D@std@@V?$allocator@D@2@@std@@@8 004431b8     libwt:WWebWidget.obj
 0003:00000204       ??_R0H@8                   00443204     libwt:WWebWidget.obj
 0003:00000210       ?cgi_error_strings@@3PAPADA 00443210     libwt:WebSession.obj
 0003:00000248       ??_R0N@8                   00443248     libwt:WLength.obj
 0003:00000298       ??_R0?AVWObject@@@8        00443298     libwt:WResource.obj
 0003:000002b0       ??_R0?AVWResource@@@8      004432b0     libwt:WResource.obj
 0003:000002d0       ___security_cookie         004432d0     MSVCRT:seccook.obj
 0003:000002d4       ??_R0?AVtype_info@@@8      004432d4     MSVCRT:ti_inst.obj
 0003:000002f0       ___defaultmatherr          004432f0     MSVCRT:merr.obj
 0003:000002f8       ?gMainApp@@3PAVWApplication@@A 004432f8     refresh.obj
 0003:00000378       ?signals_@SVRefresh@@1PAVWSignal_@@A 00443378     refreshformwt.obj
 0003:00000398       ?slots_@SVRefresh@@1PAVWSlot_@@A 00443398     refreshformwt.obj
 0003:00000458       ?signals_@WSPopTable@@1PAVWSignal_@@A 00443458     WSPopTableWt.obj
 0003:00000478       ?slots_@WSPopTable@@1PAVWSlot_@@A 00443478     WSPopTableWt.obj
 0003:000004b8       ?signals_@WWebWidget@@1PAVWSignal_@@A 004434b8     libwt:WWebWidget.obj
 0003:000004d8       ?slots_@WWebWidget@@1PAVWSlot_@@A 004434d8     libwt:WWebWidget.obj
 0003:000004f8       ?slots_@WInteractWidget@@1PAVWSlot_@@A 004434f8     libwt:WInteractWidget.obj
 0003:00000538       ?signals_@WInteractWidget@@1PAVWSignal_@@A 00443538     libwt:WInteractWidget.obj
 0003:00000718       ?signals_@WContainerWidget@@1PAVWSignal_@@A 00443718     libwt:WContainerWidget.obj
 0003:00000738       ?slots_@WContainerWidget@@1PAVWSlot_@@A 00443738     libwt:WContainerWidget.obj
 0003:00000758       ?signals_@WTable@@1PAVWSignal_@@A 00443758     libwt:WTable.obj
 0003:00000778       ?signals_@WTableRow@@1PAVWSignal_@@A 00443778     libwt:WTable.obj
 0003:00000798       ?slots_@WTableRow@@1PAVWSlot_@@A 00443798     libwt:WTable.obj
 0003:000007b8       ?slots_@WTable@@1PAVWSlot_@@A 004437b8     libwt:WTable.obj
 0003:000007d8       ?slots_@WText@@1PAVWSlot_@@A 004437d8     libwt:WText.obj
 0003:000007f8       ?signals_@WText@@1PAVWSignal_@@A 004437f8     libwt:WText.obj
 0003:00000818       ?slots_@WImage@@1PAVWSlot_@@A 00443818     libwt:WImage.obj
 0003:00000858       ?signals_@WImage@@1PAVWSignal_@@A 00443858     libwt:WImage.obj
 0003:00000878       ?slots_@WFormWidget@@1PAVWSlot_@@A 00443878     libwt:WFormWidget.obj
 0003:000008f8       ?signals_@WFormWidget@@1PAVWSignal_@@A 004438f8     libwt:WFormWidget.obj
 0003:00000978       ?slots_@WPushButton@@1PAVWSlot_@@A 00443978     libwt:WPushButton.obj
 0003:00000998       ?signals_@WPushButton@@1PAVWSignal_@@A 00443998     libwt:WPushButton.obj
 0003:000009b8       ?signals_@WScrollArea@@1PAVWSignal_@@A 004439b8     libwt:WScrollArea.obj
 0003:000009d8       ?slots_@WScrollArea@@1PAVWSlot_@@A 004439d8     libwt:WScrollArea.obj
 0003:000009f8       ?instance_@WApplication@@0PAV1@A 004439f8     libwt:WApplication.obj
 0003:000009fc       ?wApp@@3PAVWApplication@@A 004439fc     libwt:WApplication.obj
 0003:00000a00       ?slots_@WApplication@@1PAVWSlot_@@A 00443a00     libwt:WApplication.obj
 0003:00000a60       ?signals_@WApplication@@1PAVWSignal_@@A 00443a60     libwt:WApplication.obj
 0003:00000a80       ?instance_@WebSession@@0PAV1@A 00443a80     libwt:WebSession.obj
 0003:00000a84       ?js_af_up@WebSession@@2V?$basic_string@DU?$char_traits@D@std@@V?$allocator@D@2@@std@@A 00443a84     libwt:WebSession.obj
 0003:00000b38       ?nextObjId_@WObject@@0HA   00443b38     libwt:WObject.obj
 0003:00000b40       ?signals_@WObject@@1PAVWSignal_@@A 00443b40     libwt:WObject.obj
 0003:00000b80       ?slots_@WObject@@1PAVWSlot_@@A 00443b80     libwt:WObject.obj
 0003:00000ba0       ?signals_@WTableCell@@1PAVWSignal_@@A 00443ba0     libwt:WTableCell.obj
 0003:00000bc0       ?slots_@WTableCell@@1PAVWSlot_@@A 00443bc0     libwt:WTableCell.obj
 0003:00000c30       ?signals_@WWidget@@1PAVWSignal_@@A 00443c30     libwt:WWidget.obj
 0003:00000c50       ?slots_@WWidget@@1PAVWSlot_@@A 00443c50     libwt:WWidget.obj
 0003:00000cb0       ?m_nCount@WSlotInstance_@@2HA 00443cb0     libwt:WSlotInstance_.obj
 0003:00000cb4       ?m_nCount@WSignalInstance_@@2HA 00443cb4     libwt:WSignalInstance_.obj
 0003:00000cb8       ?m_nObjCount@DomElement@@2HA 00443cb8     libwt:DomElement.obj
 0003:00001810       ?signals_@WResource@@1PAVWSignal_@@A 00444810     libwt:WResource.obj
 0003:00001850       ?slots_@WResource@@1PAVWSlot_@@A 00444850     libwt:WResource.obj
 0003:00001870       ?slots_@WLabel@@1PAVWSlot_@@A 00444870     libwt:WLabel.obj
 0003:00001890       ?signals_@WLabel@@1PAVWSignal_@@A 00444890     libwt:WLabel.obj
 0003:000018b0       ?signals_@WScrollBar@@1PAVWSignal_@@A 004448b0     libwt:WScrollBar.obj
 0003:000018d0       ?slots_@WScrollBar@@1PAVWSlot_@@A 004448d0     libwt:WScrollBar.obj
 0003:00001910       ?varId_@JSVar@@0HA         00444910     libwt:JavaScript.obj
 0003:00001914       ?currentFunctionId_@JavaScript@@0HA 00444914     libwt:JavaScript.obj
 0003:00001918       ?m_nCount@WConnection_@@2HA 00444918     libwt:WConnection_.obj
 0003:0000191c       ?lightGray@Wt@@3VWColor@@B 0044491c     libwt:WColor.obj
 0003:00001948       ?darkGreen@Wt@@3VWColor@@B 00444948     libwt:WColor.obj
 0003:00001974       ?black@Wt@@3VWColor@@B     00444974     libwt:WColor.obj
 0003:000019a0       ?darkCyan@Wt@@3VWColor@@B  004449a0     libwt:WColor.obj
 0003:000019cc       ?darkBlue@Wt@@3VWColor@@B  004449cc     libwt:WColor.obj
 0003:000019f8       ?yellow@Wt@@3VWColor@@B    004449f8     libwt:WColor.obj
 0003:00001a24       ?white@Wt@@3VWColor@@B     00444a24     libwt:WColor.obj
 0003:00001a50       ?green@Wt@@3VWColor@@B     00444a50     libwt:WColor.obj
 0003:00001a7c       ?magenta@Wt@@3VWColor@@B   00444a7c     libwt:WColor.obj
 0003:00001aa8       ?red@Wt@@3VWColor@@B       00444aa8     libwt:WColor.obj
 0003:00001ad4       ?darkRed@Wt@@3VWColor@@B   00444ad4     libwt:WColor.obj
 0003:00001b00       ?transparent@Wt@@3VWColor@@B 00444b00     libwt:WColor.obj
 0003:00001b2c       ?cyan@Wt@@3VWColor@@B      00444b2c     libwt:WColor.obj
 0003:00001b58       ?blue@Wt@@3VWColor@@B      00444b58     libwt:WColor.obj
 0003:00001b84       ?gray@Wt@@3VWColor@@B      00444b84     libwt:WColor.obj
 0003:00001bb0       ?darkYellow@Wt@@3VWColor@@B 00444bb0     libwt:WColor.obj
 0003:00001bdc       ?darkMagenta@Wt@@3VWColor@@B 00444bdc     libwt:WColor.obj
 0003:00001c08       ?darkGray@Wt@@3VWColor@@B  00444c08     libwt:WColor.obj
 0003:00001c34       __dowildcard               00444c34     MSVCRT:wildcard.obj
 0003:00001c38       __newmode                  00444c38     MSVCRT:_newmode.obj
 0003:00001c3c       __commode                  00444c3c     MSVCRT:xncommod.obj
 0003:00001c40       __fmode                    00444c40     MSVCRT:xtxtmode.obj
 0003:00001c44       __adjust_fdiv              00444c44     <common>
 0003:00001c48       ___onexitend               00444c48     <common>
 0003:00001c4c       ___onexitbegin             00444c4c     <common>

 entry point at        0001:00023f35

 Static symbols

 0001:00001ac1       $L83914                    00402ac1 f i refresh.obj
 0001:00001d27       $L85196                    00402d27 f i refresh.obj
 0001:00001f28       $L85751                    00402f28 f i refresh.obj
 0001:00001fd8       $L85822                    00402fd8 f i refresh.obj
 0001:00003676       $L88455                    00404676 f i refresh.obj
 0001:00003676       $L88579                    00404676 f i refresh.obj
 0001:000038a8       $L89447                    004048a8 f i refresh.obj
 0001:00007927       $L31960                    00408927 f i refreshformwt.obj
 0001:00007e66       $L35627                    00408e66 f i refreshformwt.obj
 0001:0000b17e       $L55162                    0040c17e f i libwt:WWebWidget.obj
 0001:0000b227       $L55197                    0040c227 f i libwt:WWebWidget.obj
 0001:0000b2c7       $L55239                    0040c2c7 f i libwt:WWebWidget.obj
 0001:0000b76e       $L57742                    0040c76e f i libwt:WWebWidget.obj
 0001:0000b7ed       $L57820                    0040c7ed f i libwt:WWebWidget.obj
 0001:0000b7ed       $L57914                    0040c7ed f i libwt:WWebWidget.obj
 0001:0000cd48       $L64979                    0040dd48 f i libwt:WWebWidget.obj
 0001:0000cdf8       $L65050                    0040ddf8 f i libwt:WWebWidget.obj
 0001:0000d8f8       $L68254                    0040e8f8 f i libwt:WWebWidget.obj
 0001:0000db01       $L68545                    0040eb01 f i libwt:WWebWidget.obj
 0001:0000db91       $L68825                    0040eb91 f i libwt:WWebWidget.obj
 0001:0000dc54       $L69106                    0040ec54 f i libwt:WWebWidget.obj
 0001:0000de71       $L70252                    0040ee71 f i libwt:WWebWidget.obj
 0001:000101ee       $L57768                    004111ee f i libwt:WTable.obj
 0001:000101fa       $L57770                    004111fa f i libwt:WTable.obj
 0001:00011160       ?replace@@YAXAAV?$basic_string@DU?$char_traits@D@std@@V?$allocator@D@2@@std@@DV12@@Z 00412160 f   libwt:WText.obj
 0001:00014290       ?getValue@@YAPADPBD0@Z     00415290 f   libwt:WebSession.obj
 0001:00019d5f       $L80793                    0041ad5f f   libwt:WSignalInstance_.obj
 0001:0001aea0       ?replace@@YA?AV?$basic_string@DU?$char_traits@D@std@@V?$allocator@D@2@@std@@V12@D0@Z 0041bea0 f   libwt:DomElement.obj
 0001:0001b110       ?escape@@YA?AV?$basic_string@DU?$char_traits@D@std@@V?$allocator@D@2@@std@@V12@D@Z 0041c110 f   libwt:DomElement.obj
 0001:0001bb30       $L85092                    0041cb30 f i libwt:DomElement.obj
 0001:0001d8a0       $L91428                    0041e8a0 f i libwt:DomElement.obj
 0001:0001d937       $L91430                    0041e937 f i libwt:DomElement.obj
 0001:00023e20       _report_failure            00424e20 f   MSVCRT:secchk.obj
 0001:00024270       $L81155                    00425270 f   refresh.obj
 0001:00024270       $L81195                    00425270 f   refresh.obj
 0001:0002427b       $L81196                    0042527b f   refresh.obj
 0001:0002427b       $L81156                    0042527b f   refresh.obj
 0001:00024286       $L81197                    00425286 f   refresh.obj
 0001:00024286       $L81157                    00425286 f   refresh.obj
 0001:00024291       $L81198                    00425291 f   refresh.obj
 0001:00024291       $L81158                    00425291 f   refresh.obj
 0001:000242a0       __ehhandler$??0WCssDecorationStyle@@QAE@ABV0@@Z 004252a0 f   refresh.obj
 0001:000242a0       __ehhandler$??1WCssDecorationStyle@@QAE@XZ 004252a0 f   refresh.obj
 0001:000242b0       $L81272                    004252b0 f   refresh.obj
 0001:000242b9       __ehhandler$?setBeforBodyStr@WApplication@@QAEXV?$basic_string@DU?$char_traits@D@std@@V?$allocator@D@2@@std@@@Z 004252b9 f   refresh.obj
 0001:000242d0       $L81397                    004252d0 f   refresh.obj
 0001:000242d8       $L81398                    004252d8 f   refresh.obj
 0001:000242e6       __ehhandler$??1WText@@UAE@XZ 004252e6 f   refresh.obj
 0001:000242f0       $L81426                    004252f0 f   refresh.obj
 0001:000242f8       $L81427                    004252f8 f   refresh.obj
 0001:00024307       __ehhandler$??1WImage@@UAE@XZ 00425307 f   refresh.obj
 0001:00024320       $L81456                    00425320 f   refresh.obj
 0001:00024328       $L81457                    00425328 f   refresh.obj
 0001:00024337       __ehhandler$??1WPushButton@@UAE@XZ 00425337 f   refresh.obj
 0001:00024350       $L81493                    00425350 f   refresh.obj
 0001:0002435c       $L81494                    0042535c f   refresh.obj
 0001:00024368       $L81497                    00425368 f   refresh.obj
 0001:00024373       $L81499                    00425373 f   refresh.obj
 0001:0002437e       $L81501                    0042537e f   refresh.obj
 0001:0002438a       __ehhandler$?refreshmonitor@@YAXHQAPAD@Z 0042538a f   refresh.obj
 0001:000243a0       $L87447                    004253a0 f   refresh.obj
 0001:000243a0       $L81756                    004253a0 f   refresh.obj
 0001:000243a0       $L81698                    004253a0 f   refresh.obj
 0001:000243a0       $L81779                    004253a0 f   refresh.obj
 0001:000243a0       $L81848                    004253a0 f   refresh.obj
 0001:000243a0       $L87845                    004253a0 f   refresh.obj
 0001:000243a0       $L81802                    004253a0 f   refresh.obj
 0001:000243a0       $L81825                    004253a0 f   refresh.obj
 0001:000243a0       $L81725                    004253a0 f   refresh.obj
 0001:000243a0       $L87005                    004253a0 f   refresh.obj
 0001:000243a9       $L87015                    004253a9 f   refresh.obj
 0001:000243a9       $L81852                    004253a9 f   refresh.obj
 0001:000243a9       $L87457                    004253a9 f   refresh.obj
 0001:000243a9       $L81729                    004253a9 f   refresh.obj
 0001:000243a9       $L87855                    004253a9 f   refresh.obj
 0001:000243a9       $L81760                    004253a9 f   refresh.obj
 0001:000243a9       $L81829                    004253a9 f   refresh.obj
 0001:000243a9       $L81806                    004253a9 f   refresh.obj
 0001:000243a9       $L81783                    004253a9 f   refresh.obj
 0001:000243a9       $L81702                    004253a9 f   refresh.obj
 0001:000243b2       __ehhandler$?_Xlen@?$vector@PAVWMessageResources@@V?$allocator@PAVWMessageResources@@@std@@@std@@IBEXXZ 004253b2 f   refresh.obj
 0001:000243b2       __ehhandler$?_Xlen@?$vector@PAVWWidget@@V?$allocator@PAVWWidget@@@std@@@std@@IBEXXZ 004253b2 f   refresh.obj
 0001:000243b2       __ehhandler$?_Xlen@?$vector@PAVWObject@@V?$allocator@PAVWObject@@@std@@@std@@IBEXXZ 004253b2 f   refresh.obj
 0001:000243b2       __ehhandler$?_Xlen@?$vector@UTableData@WTableRow@@V?$allocator@UTableData@WTableRow@@@std@@@std@@IBEXXZ 004253b2 f   refresh.obj
 0001:000243b2       __ehhandler$?erase@?$_Tree@V?$_Tset_traits@PBVWResource@@U?$less@PBVWResource@@@std@@V?$allocator@PBVWResource@@@3@$0A@@std@@@std@@QAE?AViterator@12@V312@@Z 004253b2 f   refresh.obj
 0001:000243b2       __ehhandler$?erase@?$_Tree@V?$_Tset_traits@PBVWSignalInstance_@@U?$less@PBVWSignalInstance_@@@std@@V?$allocator@PBVWSignalInstance_@@@3@$0A@@std@@@std@@QAE?AViterator@12@V312@@Z 004253b2 f   refresh.obj
 0001:000243b2       __ehhandler$?_Xlen@?$vector@PAVWTableRow@@V?$allocator@PAVWTableRow@@@std@@@std@@IBEXXZ 004253b2 f   refresh.obj
 0001:000243b2       __ehhandler$?erase@?$_Tree@V?$_Tmap_traits@V?$basic_string@DU?$char_traits@D@std@@V?$allocator@D@2@@std@@PAVWCssRule@@U?$less@V?$basic_string@DU?$char_traits@D@std@@V?$allocator@D@2@@std@@@2@V?$allocator@U?$pair@$$CBV?$basic_string@DU?$char_traits@D@std@@V?$allocator@D@2@@std@@PAVWCssRule@@@std@@@2@$0A@@std@@@std@@QAE?AViterator@12@V312@@Z 004253b2 f   refresh.obj
 0001:000243b2       __ehhandler$?_Xlen@?$vector@PAVDomElement@@V?$allocator@PAVDomElement@@@std@@@std@@IBEXXZ 004253b2 f   refresh.obj
 0001:000243b2       __ehhandler$?_Xlen@?$vector@PAVWScrollBar@@V?$allocator@PAVWScrollBar@@@std@@@std@@IBEXXZ 004253b2 f   refresh.obj
 0001:000243c0       $L81921                    004253c0 f   refresh.obj
 0001:000243c0       $L80966                    004253c0 f   refresh.obj
 0001:000243c9       __ehhandler$??0logic_error@std@@QAE@ABV01@@Z 004253c9 f   refresh.obj
 0001:000243c9       __ehhandler$??1logic_error@std@@UAE@XZ 004253c9 f   refresh.obj
 0001:000243e0       $L82077                    004253e0 f   refresh.obj
 0001:000243e0       $L82116                    004253e0 f   refresh.obj
 0001:000243e0       $L82103                    004253e0 f   refresh.obj
 0001:000243e0       $L82064                    004253e0 f   refresh.obj
 0001:000243e0       $L82090                    004253e0 f   refresh.obj
 0001:000243e9       $L82065                    004253e9 f   refresh.obj
 0001:000243e9       $L82104                    004253e9 f   refresh.obj
 0001:000243e9       $L82078                    004253e9 f   refresh.obj
 0001:000243e9       $L82117                    004253e9 f   refresh.obj
 0001:000243e9       $L82091                    004253e9 f   refresh.obj
 0001:00024403       __ehhandler$??$?HDU?$char_traits@D@std@@V?$allocator@D@1@@std@@YA?AV?$basic_string@DU?$char_traits@D@std@@V?$allocator@D@2@@0@ABV10@PBD@Z 00425403 f   refresh.obj
 0001:00024403       __ehhandler$??$?HDU?$char_traits@D@std@@V?$allocator@D@1@@std@@YA?AV?$basic_string@DU?$char_traits@D@std@@V?$allocator@D@2@@0@ABV10@0@Z 00425403 f   refresh.obj
 0001:00024403       __ehhandler$??$?HDU?$char_traits@D@std@@V?$allocator@D@1@@std@@YA?AV?$basic_string@DU?$char_traits@D@std@@V?$allocator@D@2@@0@ABV10@D@Z 00425403 f   refresh.obj
 0001:00024403       __ehhandler$??$?HDU?$char_traits@D@std@@V?$allocator@D@1@@std@@YA?AV?$basic_string@DU?$char_traits@D@std@@V?$allocator@D@2@@0@PBDABV10@@Z 00425403 f   refresh.obj
 0001:00024403       __ehhandler$??$?HDU?$char_traits@D@std@@V?$allocator@D@1@@std@@YA?AV?$basic_string@DU?$char_traits@D@std@@V?$allocator@D@2@@0@DABV10@@Z 00425403 f   refresh.obj
 0001:00024410       $L82632                    00425410 f   refresh.obj
 0001:00024410       $L82576                    00425410 f   refresh.obj
 0001:00024418       __ehhandler$??0sentry@?$basic_ostream@DU?$char_traits@D@std@@@std@@QAE@AAV12@@Z 00425418 f   refresh.obj
 0001:00024418       __ehhandler$??1sentry@?$basic_ostream@DU?$char_traits@D@std@@@std@@QAE@XZ 00425418 f   refresh.obj
 0001:00024430       $L83915                    00425430 f   refresh.obj
 0001:00024438       $L84043                    00425438 f   refresh.obj
 0001:00024440       __ehhandler$??$?6DU?$char_traits@D@std@@V?$allocator@D@1@@std@@YAAAV?$basic_ostream@DU?$char_traits@D@std@@@0@AAV10@ABV?$basic_string@DU?$char_traits@D@std@@V?$allocator@D@2@@0@@Z 00425440 f   refresh.obj
 0001:00024450       $L85197                    00425450 f   refresh.obj
 0001:00024461       __ehhandler$?_Buynode@?$_Tree@V?$_Tmap_traits@V?$basic_string@DU?$char_traits@D@std@@V?$allocator@D@2@@std@@PAVWCssRule@@U?$less@V?$basic_string@DU?$char_traits@D@std@@V?$allocator@D@2@@std@@@2@V?$allocator@U?$pair@$$CBV?$basic_string@DU?$char_traits@D@std@@V?$allocator@D@2@@std@@PAVWCssRule@@@std@@@2@$0A@@std@@@std@@IAEPAU_Node@?$_Tree_nod@V?$_Tmap_traits@V?$basic_string@DU?$char_traits@D@std@@V?$allocator@D@2@@std@@PAVWCssRule@@U?$less@V?$basic_string@DU?$char_traits@D@std@@V?$allocator@D@2@@std@@@2@V?$allocator@U?$pair@$$CBV?$basic_string@DU?$char_traits@D@std@@V?$allocator@D@2@@std@@PAVWCssRule@@@std@@@2@$0A@@std@@@2@PAU342@00ABU?$pair@$$CBV?$basic_string@DU?$char_traits@D@std@@V?$allocator@D@2@@std@@PAVWCssRule@@@2@D@Z 00425461 f   refresh.obj
 0001:00024470       __ehhandler$?_Copy@?$_Tree@V?$_Tset_traits@PBVWSignalInstance_@@U?$less@PBVWSignalInstance_@@@std@@V?$allocator@PBVWSignalInstance_@@@3@$0A@@std@@@std@@IAEPAU_Node@?$_Tree_nod@V?$_Tset_traits@PBVWSignalInstance_@@U?$less@PBVWSignalInstance_@@@std@@V?$allocator@PBVWSignalInstance_@@@3@$0A@@std@@@2@PAU342@0@Z 00425470 f   refresh.obj
 0001:00024480       __ehhandler$?_Copy@?$_Tree@V?$_Tset_traits@PBVWResource@@U?$less@PBVWResource@@@std@@V?$allocator@PBVWResource@@@3@$0A@@std@@@std@@IAEPAU_Node@?$_Tree_nod@V?$_Tset_traits@PBVWResource@@U?$less@PBVWResource@@@std@@V?$allocator@PBVWResource@@@3@$0A@@std@@@2@PAU342@0@Z 00425480 f   refresh.obj
 0001:00024490       $L86051                    00425490 f   refresh.obj
 0001:0002449c       $L86052                    0042549c f   refresh.obj
 0001:000244a8       $L86054                    004254a8 f   refresh.obj
 0001:000244b3       $L86055                    004254b3 f   refresh.obj
 0001:000244bf       $L86056                    004254bf f   refresh.obj
 0001:000244cb       $L86058                    004254cb f   refresh.obj
 0001:000244d6       __ehhandler$_main          004254d6 f   refresh.obj
 0001:000244e0       __ehhandler$??0?$vector@PAVWObject@@V?$allocator@PAVWObject@@@std@@@std@@QAE@ABV01@@Z 004254e0 f   refresh.obj
 0001:000244e0       __ehhandler$??0?$vector@PAVWMessageResources@@V?$allocator@PAVWMessageResources@@@std@@@std@@QAE@ABV01@@Z 004254e0 f   refresh.obj
 0001:000244f0       __ehhandler$?_Copy@?$_Tree@V?$_Tmap_traits@V?$basic_string@DU?$char_traits@D@std@@V?$allocator@D@2@@std@@PAVWCssRule@@U?$less@V?$basic_string@DU?$char_traits@D@std@@V?$allocator@D@2@@std@@@2@V?$allocator@U?$pair@$$CBV?$basic_string@DU?$char_traits@D@std@@V?$allocator@D@2@@std@@PAVWCssRule@@@std@@@2@$0A@@std@@@std@@IAEPAU_Node@?$_Tree_nod@V?$_Tmap_traits@V?$basic_string@DU?$char_traits@D@std@@V?$allocator@D@2@@std@@PAVWCssRule@@U?$less@V?$basic_string@DU?$char_traits@D@std@@V?$allocator@D@2@@std@@@2@V?$allocator@U?$pair@$$CBV?$basic_string@DU?$char_traits@D@std@@V?$allocator@D@2@@std@@PAVWCssRule@@@std@@@2@$0A@@std@@@2@PAU342@0@Z 004254f0 f   refresh.obj
 0001:00024500       $L85912                    00425500 f   refresh.obj
 0001:00024500       $L89482                    00425500 f   refresh.obj
 0001:0002450c       $L89483                    0042550c f   refresh.obj
 0001:0002450c       $L85913                    0042550c f   refresh.obj
 0001:00024518       $L85914                    00425518 f   refresh.obj
 0001:00024518       $L89484                    00425518 f   refresh.obj
 0001:00024524       $L89485                    00425524 f   refresh.obj
 0001:00024524       $L85915                    00425524 f   refresh.obj
 0001:00024530       $L85916                    00425530 f   refresh.obj
 0001:00024530       $L89486                    00425530 f   refresh.obj
 0001:0002453f       $L85917                    0042553f f   refresh.obj
 0001:0002453f       $L89487                    0042553f f   refresh.obj
 0001:0002454e       $L85918                    0042554e f   refresh.obj
 0001:0002454e       $L89488                    0042554e f   refresh.obj
 0001:0002455d       $L85919                    0042555d f   refresh.obj
 0001:0002455d       $L89489                    0042555d f   refresh.obj
 0001:0002456b       __ehhandler$??0WebSession@@QAE@ABV0@@Z 0042556b f   refresh.obj
 0001:0002456b       __ehhandler$??1WebSession@@QAE@XZ 0042556b f   refresh.obj
 0001:00024580       $L89502                    00425580 f   refresh.obj
 0001:00024588       __ehhandler$??1WTableRow@@UAE@XZ 00425588 f   refresh.obj
 0001:000245a0       $L83110                    004255a0 f   refreshform.obj
 0001:000245a9       $L83111                    004255a9 f   refreshform.obj
 0001:000245b2       $L83112                    004255b2 f   refreshform.obj
 0001:000245bb       $L83113                    004255bb f   refreshform.obj
 0001:000245c4       $L83115                    004255c4 f   refreshform.obj
 0001:000245cd       $L83117                    004255cd f   refreshform.obj
 0001:000245d6       __ehhandler$?isMonitorDisable@@YA_NAAV?$basic_string@DU?$char_traits@D@std@@V?$allocator@D@2@@std@@V12@1@Z 004255d6 f   refreshform.obj
 0001:000245e0       $L83179                    004255e0 f   refreshform.obj
 0001:000245e9       $L83180                    004255e9 f   refreshform.obj
 0001:00024603       __ehhandler$?makeQueueName@@YA?AV?$basic_string@DU?$char_traits@D@std@@V?$allocator@D@2@@std@@XZ 00425603 f   refreshform.obj
 0001:00024610       $L83226                    00425610 f   refreshform.obj
 0001:00024619       $L83229                    00425619 f   refreshform.obj
 0001:00024639       __ehhandler$?getRefreshQueueName@@YA?AV?$basic_string@DU?$char_traits@D@std@@V?$allocator@D@2@@std@@ABV12@@Z 00425639 f   refreshform.obj
 0001:00024650       $L83276                    00425650 f   refreshform.obj
 0001:00024659       __ehhandler$?loadString@SVRefresh@@AAEXXZ 00425659 f   refreshform.obj
 0001:00024670       $L83310                    00425670 f   refreshform.obj
 0001:00024679       $L83311                    00425679 f   refreshform.obj
 0001:00024682       $L83312                    00425682 f   refreshform.obj
 0001:0002468b       $L83313                    0042568b f   refreshform.obj
 0001:00024696       __ehhandler$?AddJsParam@SVRefresh@@AAEXV?$basic_string@DU?$char_traits@D@std@@V?$allocator@D@2@@std@@0PAVWContainerWidget@@@Z 00425696 f   refreshform.obj
 0001:000246a0       $L83370                    004256a0 f   refreshform.obj
 0001:000246ab       $L83372                    004256ab f   refreshform.obj
 0001:000246b4       $L83373                    004256b4 f   refreshform.obj
 0001:000246bf       $L83375                    004256bf f   refreshform.obj
 0001:000246ca       $L83376                    004256ca f   refreshform.obj
 0001:000246d5       $L83378                    004256d5 f   refreshform.obj
 0001:000246de       $L83379                    004256de f   refreshform.obj
 0001:000246e9       $L83381                    004256e9 f   refreshform.obj
 0001:000246f4       $L83383                    004256f4 f   refreshform.obj
 0001:000246ff       $L83385                    004256ff f   refreshform.obj
 0001:0002470a       __ehhandler$?createState@SVRefresh@@AAEXXZ 0042570a f   refreshform.obj
 0001:00024720       $L83408                    00425720 f   refreshform.obj
 0001:0002472b       $L83410                    0042572b f   refreshform.obj
 0001:00024734       $L83411                    00425734 f   refreshform.obj
 0001:0002473f       __ehhandler$?createContain@SVRefresh@@AAEXXZ 0042573f f   refreshform.obj
 0001:00024750       $L83428                    00425750 f   refreshform.obj
 0001:0002475b       $L83429                    0042575b f   refreshform.obj
 0001:00024764       $L83430                    00425764 f   refreshform.obj
 0001:0002476d       $L83431                    0042576d f   refreshform.obj
 0001:00024776       __ehhandler$?createOperate@SVRefresh@@AAEXXZ 00425776 f   refreshform.obj
 0001:00024780       $L83451                    00425780 f   refreshform.obj
 0001:0002478b       $L83453                    0042578b f   refreshform.obj
 0001:00024796       __ehhandler$?createHideButton@SVRefresh@@AAEXXZ 00425796 f   refreshform.obj
 0001:000247a0       $L83466                    004257a0 f   refreshform.obj
 0001:000247a8       $L83467                    004257a8 f   refreshform.obj
 0001:000247b7       $L83468                    004257b7 f   refreshform.obj
 0001:000247c6       $L83469                    004257c6 f   refreshform.obj
 0001:000247d5       $L83470                    004257d5 f   refreshform.obj
 0001:000247e4       $L83471                    004257e4 f   refreshform.obj
 0001:000247f3       $L83472                    004257f3 f   refreshform.obj
 0001:00024802       $L83473                    00425802 f   refreshform.obj
 0001:00024811       $L83474                    00425811 f   refreshform.obj
 0001:00024820       $L83475                    00425820 f   refreshform.obj
 0001:0002482f       $L83476                    0042582f f   refreshform.obj
 0001:0002483e       $L83477                    0042583e f   refreshform.obj
 0001:0002484d       $L83478                    0042584d f   refreshform.obj
 0001:0002485c       $L83479                    0042585c f   refreshform.obj
 0001:0002486b       $L83480                    0042586b f   refreshform.obj
 0001:0002487a       $L83481                    0042587a f   refreshform.obj
 0001:00024889       $L83482                    00425889 f   refreshform.obj
 0001:00024898       $L83483                    00425898 f   refreshform.obj
 0001:000248a7       $L83484                    004258a7 f   refreshform.obj
 0001:000248b6       $L83485                    004258b6 f   refreshform.obj
 0001:000248c5       $L83486                    004258c5 f   refreshform.obj
 0001:000248d4       $L83487                    004258d4 f   refreshform.obj
 0001:000248e3       $L83488                    004258e3 f   refreshform.obj
 0001:000248f2       $L83489                    004258f2 f   refreshform.obj
 0001:00024901       $L83490                    00425901 f   refreshform.obj
 0001:00024910       $L83491                    00425910 f   refreshform.obj
 0001:0002491f       $L83492                    0042591f f   refreshform.obj
 0001:0002492e       $L83493                    0042592e f   refreshform.obj
 0001:0002493d       $L83494                    0042593d f   refreshform.obj
 0001:00024946       $L83495                    00425946 f   refreshform.obj
 0001:0002494f       __ehhandler$??1SVRefresh@@UAE@XZ 0042594f f   refreshform.obj
 0001:00024960       $L83518                    00425960 f   refreshform.obj
 0001:00024969       $L83519                    00425969 f   refreshform.obj
 0001:00024972       $L83522                    00425972 f   refreshform.obj
 0001:0002497b       $L83524                    0042597b f   refreshform.obj
 0001:00024984       $L83525                    00425984 f   refreshform.obj
 0001:0002498d       __ehhandler$?getDeviceData@SVRefresh@@AAEXAAV?$basic_string@DU?$char_traits@D@std@@V?$allocator@D@2@@std@@@Z 0042598d f   refreshform.obj
 0001:000249a0       $L84416                    004259a0 f   refreshform.obj
 0001:000249ab       $L84418                    004259ab f   refreshform.obj
 0001:000249b6       $L84420                    004259b6 f   refreshform.obj
 0001:000249c1       $L84422                    004259c1 f   refreshform.obj
 0001:000249ca       $L84424                    004259ca f   refreshform.obj
 0001:000249d3       $L84426                    004259d3 f   refreshform.obj
 0001:000249dc       $L84428                    004259dc f   refreshform.obj
 0001:000249e5       $L84430                    004259e5 f   refreshform.obj
 0001:000249ee       $L84432                    004259ee f   refreshform.obj
 0001:000249f7       $L84434                    004259f7 f   refreshform.obj
 0001:00024a02       __ehhandler$?initForm@SVRefresh@@AAEXXZ 00425a02 f   refreshform.obj
 0001:00024a10       $L84451                    00425a10 f   refreshform.obj
 0001:00024a19       $L84452                    00425a19 f   refreshform.obj
 0001:00024a22       $L84454                    00425a22 f   refreshform.obj
 0001:00024a2b       __ehhandler$?clearEnvironment@SVRefresh@@AAEXXZ 00425a2b f   refreshform.obj
 0001:00024a40       $L84511                    00425a40 f   refreshform.obj
 0001:00024a4e       $L84512                    00425a4e f   refreshform.obj
 0001:00024a5a       $L84513                    00425a5a f   refreshform.obj
 0001:00024a66       $L84515                    00425a66 f   refreshform.obj
 0001:00024a72       $L84516                    00425a72 f   refreshform.obj
 0001:00024a7e       $L84517                    00425a7e f   refreshform.obj
 0001:00024a8a       $L84518                    00425a8a f   refreshform.obj
 0001:00024a96       $L84520                    00425a96 f   refreshform.obj
 0001:00024aa2       $L84521                    00425aa2 f   refreshform.obj
 0001:00024aae       $L84522                    00425aae f   refreshform.obj
 0001:00024aba       $L84524                    00425aba f   refreshform.obj
 0001:00024ac6       $L84526                    00425ac6 f   refreshform.obj
 0001:00024ad2       $L84527                    00425ad2 f   refreshform.obj
 0001:00024ade       $L84528                    00425ade f   refreshform.obj
 0001:00024aea       $L84530                    00425aea f   refreshform.obj
 0001:00024af6       $L84531                    00425af6 f   refreshform.obj
 0001:00024b02       $L84532                    00425b02 f   refreshform.obj
 0001:00024b0e       $L84534                    00425b0e f   refreshform.obj
 0001:00024b1a       $L84535                    00425b1a f   refreshform.obj
 0001:00024b26       $L84536                    00425b26 f   refreshform.obj
 0001:00024b32       $L84538                    00425b32 f   refreshform.obj
 0001:00024b3e       $L84539                    00425b3e f   refreshform.obj
 0001:00024b4a       $L84540                    00425b4a f   refreshform.obj
 0001:00024b56       __ehhandler$?refresh@SVRefresh@@UAEXXZ 00425b56 f   refreshform.obj
 0001:00024b60       $L84590                    00425b60 f   refreshform.obj
 0001:00024b69       $L84591                    00425b69 f   refreshform.obj
 0001:00024b75       $L84592                    00425b75 f   refreshform.obj
 0001:00024b7e       $L84593                    00425b7e f   refreshform.obj
 0001:00024b87       $L84594                    00425b87 f   refreshform.obj
 0001:00024b90       $L84595                    00425b90 f   refreshform.obj
 0001:00024b99       $L84596                    00425b99 f   refreshform.obj
 0001:00024ba5       __ehhandler$?showresult@SVRefresh@@AAEXXZ 00425ba5 f   refreshform.obj
 0001:00024bb0       $L84640                    00425bb0 f   refreshform.obj
 0001:00024bb8       $L84641                    00425bb8 f   refreshform.obj
 0001:00024bc3       $L84643                    00425bc3 f   refreshform.obj
 0001:00024bce       $L84645                    00425bce f   refreshform.obj
 0001:00024bd9       $L84648                    00425bd9 f   refreshform.obj
 0001:00024be2       $L84649                    00425be2 f   refreshform.obj
 0001:00024beb       $L84650                    00425beb f   refreshform.obj
 0001:00024bf4       $L84652                    00425bf4 f   refreshform.obj
 0001:00024bfd       $L84654                    00425bfd f   refreshform.obj
 0001:00024c06       __ehhandler$?addDisableDyn@SVRefresh@@AAEXPBD@Z 00425c06 f   refreshform.obj
 0001:00024c10       $L84724                    00425c10 f   refreshform.obj
 0001:00024c1b       $L84725                    00425c1b f   refreshform.obj
 0001:00024c29       $L84727                    00425c29 f   refreshform.obj
 0001:00024c37       $L84729                    00425c37 f   refreshform.obj
 0001:00024c45       $L84731                    00425c45 f   refreshform.obj
 0001:00024c51       $L84732                    00425c51 f   refreshform.obj
 0001:00024c5d       $L84739                    00425c5d f   refreshform.obj
 0001:00024c66       $L84740                    00425c66 f   refreshform.obj
 0001:00024c72       $L84741                    00425c72 f   refreshform.obj
 0001:00024c7b       $L84742                    00425c7b f   refreshform.obj
 0001:00024c84       $L84743                    00425c84 f   refreshform.obj
 0001:00024c8d       $L84746                    00425c8d f   refreshform.obj
 0001:00024c96       $L84747                    00425c96 f   refreshform.obj
 0001:00024ca2       $L84748                    00425ca2 f   refreshform.obj
 0001:00024cae       $L84750                    00425cae f   refreshform.obj
 0001:00024cb7       $L84752                    00425cb7 f   refreshform.obj
 0001:00024cc3       __ehhandler$?addDynData@SVRefresh@@AAEXPBD@Z 00425cc3 f   refreshform.obj
 0001:00024cd0       $L87290                    00425cd0 f   refreshform.obj
 0001:00024cd8       $L87291                    00425cd8 f   refreshform.obj
 0001:00024ce7       $L87292                    00425ce7 f   refreshform.obj
 0001:00024cf6       $L87293                    00425cf6 f   refreshform.obj
 0001:00024d05       $L87294                    00425d05 f   refreshform.obj
 0001:00024d14       $L87295                    00425d14 f   refreshform.obj
 0001:00024d23       $L87296                    00425d23 f   refreshform.obj
 0001:00024d32       $L87297                    00425d32 f   refreshform.obj
 0001:00024d41       $L87298                    00425d41 f   refreshform.obj
 0001:00024d50       $L87299                    00425d50 f   refreshform.obj
 0001:00024d5f       $L87300                    00425d5f f   refreshform.obj
 0001:00024d6e       $L87301                    00425d6e f   refreshform.obj
 0001:00024d7d       $L87302                    00425d7d f   refreshform.obj
 0001:00024d8c       $L87303                    00425d8c f   refreshform.obj
 0001:00024d9b       $L87304                    00425d9b f   refreshform.obj
 0001:00024daa       $L87305                    00425daa f   refreshform.obj
 0001:00024db9       $L87306                    00425db9 f   refreshform.obj
 0001:00024dc8       $L87307                    00425dc8 f   refreshform.obj
 0001:00024dd7       $L87308                    00425dd7 f   refreshform.obj
 0001:00024de6       $L87309                    00425de6 f   refreshform.obj
 0001:00024df5       $L87310                    00425df5 f   refreshform.obj
 0001:00024e04       $L87311                    00425e04 f   refreshform.obj
 0001:00024e13       $L87312                    00425e13 f   refreshform.obj
 0001:00024e22       $L87313                    00425e22 f   refreshform.obj
 0001:00024e31       $L87314                    00425e31 f   refreshform.obj
 0001:00024e40       $L87315                    00425e40 f   refreshform.obj
 0001:00024e4f       $L87316                    00425e4f f   refreshform.obj
 0001:00024e5e       $L87317                    00425e5e f   refreshform.obj
 0001:00024e6d       __ehhandler$??0SVRefresh@@QAE@PAVWContainerWidget@@@Z 00425e6d f   refreshform.obj
 0001:00024e80       $L87349                    00425e80 f   refreshform.obj
 0001:00024e8e       $L87350                    00425e8e f   refreshform.obj
 0001:00024e9c       $L87351                    00425e9c f   refreshform.obj
 0001:00024eaa       $L87352                    00425eaa f   refreshform.obj
 0001:00024eb3       $L87353                    00425eb3 f   refreshform.obj
 0001:00024ebf       $L87354                    00425ebf f   refreshform.obj
 0001:00024ecb       $L87356                    00425ecb f   refreshform.obj
 0001:00024ed7       $L87357                    00425ed7 f   refreshform.obj
 0001:00024ee3       $L87359                    00425ee3 f   refreshform.obj
 0001:00024eec       $L87362                    00425eec f   refreshform.obj
 0001:00024ef8       $L87363                    00425ef8 f   refreshform.obj
 0001:00024f04       $L87365                    00425f04 f   refreshform.obj
 0001:00024f0d       $L87367                    00425f0d f   refreshform.obj
 0001:00024f16       $L87368                    00425f16 f   refreshform.obj
 0001:00024f1f       $L87369                    00425f1f f   refreshform.obj
 0001:00024f28       __ehhandler$?getresult@SVRefresh@@AAEXXZ 00425f28 f   refreshform.obj
 0001:00024f40       $L27647                    00425f40 f   refreshformwt.obj
 0001:00024f4b       $L27648                    00425f4b f   refreshformwt.obj
 0001:00024f54       __ehhandler$?buildSlotMap@SVRefresh@@MAEXAAV?$map@V?$basic_string@DU?$char_traits@D@std@@V?$allocator@D@2@@std@@PAVWSlotInstance_@@U?$less@V?$basic_string@DU?$char_traits@D@std@@V?$allocator@D@2@@std@@@2@V?$allocator@U?$pair@$$CBV?$basic_string@DU?$char_traits@D@std@@V?$allocator@D@2@@std@@PAVWSlotInstance_@@@std@@@2@@std@@@Z 00425f54 f   refreshformwt.obj
 0001:00024f60       $L31961                    00425f60 f   refreshformwt.obj
 0001:00024f71       __ehhandler$?_Buynode@?$_Tree@V?$_Tmap_traits@V?$basic_string@DU?$char_traits@D@std@@V?$allocator@D@2@@std@@PAVWSignalInstance_@@U?$less@V?$basic_string@DU?$char_traits@D@std@@V?$allocator@D@2@@std@@@2@V?$allocator@U?$pair@$$CBV?$basic_string@DU?$char_traits@D@std@@V?$allocator@D@2@@std@@PAVWSignalInstance_@@@std@@@2@$0A@@std@@@std@@IAEPAU_Node@?$_Tree_nod@V?$_Tmap_traits@V?$basic_string@DU?$char_traits@D@std@@V?$allocator@D@2@@std@@PAVWSignalInstance_@@U?$less@V?$basic_string@DU?$char_traits@D@std@@V?$allocator@D@2@@std@@@2@V?$allocator@U?$pair@$$CBV?$basic_string@DU?$char_traits@D@std@@V?$allocator@D@2@@std@@PAVWSignalInstance_@@@std@@@2@$0A@@std@@@2@PAU342@00ABU?$pair@$$CBV?$basic_string@DU?$char_traits@D@std@@V?$allocator@D@2@@std@@PAVWSignalInstance_@@@2@D@Z 00425f71 f   refreshformwt.obj
 0001:00024f80       $L28007                    00425f80 f   refreshformwt.obj
 0001:00024f80       $L32537                    00425f80 f   refreshformwt.obj
 0001:00024f89       $L32557                    00425f89 f   refreshformwt.obj
 0001:00024f89       $L28011                    00425f89 f   refreshformwt.obj
 0001:00024f92       __ehhandler$?_Insert@?$_Tree@V?$_Tmap_traits@V?$basic_string@DU?$char_traits@D@std@@V?$allocator@D@2@@std@@PAVWSignalInstance_@@U?$less@V?$basic_string@DU?$char_traits@D@std@@V?$allocator@D@2@@std@@@2@V?$allocator@U?$pair@$$CBV?$basic_string@DU?$char_traits@D@std@@V?$allocator@D@2@@std@@PAVWSignalInstance_@@@std@@@2@$0A@@std@@@std@@IAE?AViterator@12@_NPAU_Node@?$_Tree_nod@V?$_Tmap_traits@V?$basic_string@DU?$char_traits@D@std@@V?$allocator@D@2@@std@@PAVWSignalInstance_@@U?$less@V?$basic_string@DU?$char_traits@D@std@@V?$allocator@D@2@@std@@@2@V?$allocator@U?$pair@$$CBV?$basic_string@DU?$char_traits@D@std@@V?$allocator@D@2@@std@@PAVWSignalInstance_@@@std@@@2@$0A@@std@@@2@ABU?$pair@$$CBV?$basic_string@DU?$char_traits@D@std@@V?$allocator@D@2@@std@@PAVWSignalInstance_@@@2@@Z 00425f92 f   refreshformwt.obj
 0001:00024f92       __ehhandler$?_Xlen@?$vector@PAVWConnection_@@V?$allocator@PAVWConnection_@@@std@@@std@@IBEXXZ 00425f92 f   refreshformwt.obj
 0001:00024fa0       __ehhandler$??0?$vector@PAVWConnection_@@V?$allocator@PAVWConnection_@@@std@@@std@@QAE@ABV01@@Z 00425fa0 f   refreshformwt.obj
 0001:00024fb0       $L37137                    00425fb0 f   refreshformwt.obj
 0001:00024fbb       __ehhandler$??0WSignalInstance_@@QAE@ABV0@@Z 00425fbb f   refreshformwt.obj
 0001:00024fd0       $L37147                    00425fd0 f   refreshformwt.obj
 0001:00024fdb       __ehhandler$??0WSlotInstance_@@QAE@ABV0@@Z 00425fdb f   refreshformwt.obj
 0001:00024ff0       $L37376                    00425ff0 f   refreshformwt.obj
 0001:00024ff8       __ehhandler$??A?$map@V?$basic_string@DU?$char_traits@D@std@@V?$allocator@D@2@@std@@PAVWSignalInstance_@@U?$less@V?$basic_string@DU?$char_traits@D@std@@V?$allocator@D@2@@std@@@2@V?$allocator@U?$pair@$$CBV?$basic_string@DU?$char_traits@D@std@@V?$allocator@D@2@@std@@PAVWSignalInstance_@@@std@@@2@@std@@QAEAAPAVWSignalInstance_@@ABV?$basic_string@DU?$char_traits@D@std@@V?$allocator@D@2@@1@@Z 00425ff8 f   refreshformwt.obj
 0001:00025010       $L38092                    00426010 f   refreshformwt.obj
 0001:0002501b       $L38093                    0042601b f   refreshformwt.obj
 0001:00025024       __ehhandler$?buildSignalMap@SVRefresh@@MAEXAAV?$map@V?$basic_string@DU?$char_traits@D@std@@V?$allocator@D@2@@std@@PAVWSignalInstance_@@U?$less@V?$basic_string@DU?$char_traits@D@std@@V?$allocator@D@2@@std@@@2@V?$allocator@U?$pair@$$CBV?$basic_string@DU?$char_traits@D@std@@V?$allocator@D@2@@std@@PAVWSignalInstance_@@@std@@@2@@std@@@Z 00426024 f   refreshformwt.obj
 0001:00025030       $L38680                    00426030 f   refreshformwt.obj
 0001:00025038       $L38681                    00426038 f   refreshformwt.obj
 0001:00025042       $L38683                    00426042 f   refreshformwt.obj
 0001:0002504a       $L38684                    0042604a f   refreshformwt.obj
 0001:00025054       $L38686                    00426054 f   refreshformwt.obj
 0001:0002505c       $L38687                    0042605c f   refreshformwt.obj
 0001:00025066       $L38689                    00426066 f   refreshformwt.obj
 0001:0002506e       $L38690                    0042606e f   refreshformwt.obj
 0001:00025078       $L38692                    00426078 f   refreshformwt.obj
 0001:00025080       $L38693                    00426080 f   refreshformwt.obj
 0001:0002508a       __ehhandler$_$E7           0042608a f   refreshformwt.obj
 0001:000250a0       $L20927                    004260a0 f   WSPopButton.obj
 0001:000250a9       $L20928                    004260a9 f   WSPopButton.obj
 0001:000250b2       $L20929                    004260b2 f   WSPopButton.obj
 0001:000250bb       $L20930                    004260bb f   WSPopButton.obj
 0001:000250c3       $L20933                    004260c3 f   WSPopButton.obj
 0001:000250cc       $L20934                    004260cc f   WSPopButton.obj
 0001:000250d5       $L20935                    004260d5 f   WSPopButton.obj
 0001:000250e0       $L20936                    004260e0 f   WSPopButton.obj
 0001:000250e9       $L20938                    004260e9 f   WSPopButton.obj
 0001:000250f2       $L20939                    004260f2 f   WSPopButton.obj
 0001:000250fd       $L20941                    004260fd f   WSPopButton.obj
 0001:00025106       $L20943                    00426106 f   WSPopButton.obj
 0001:00025111       $L20944                    00426111 f   WSPopButton.obj
 0001:0002511a       $L20946                    0042611a f   WSPopButton.obj
 0001:00025123       $L20947                    00426123 f   WSPopButton.obj
 0001:0002512e       $L20948                    0042612e f   WSPopButton.obj
 0001:00025137       $L20950                    00426137 f   WSPopButton.obj
 0001:00025140       $L20951                    00426140 f   WSPopButton.obj
 0001:0002514b       $L20953                    0042614b f   WSPopButton.obj
 0001:00025154       $L20955                    00426154 f   WSPopButton.obj
 0001:0002515f       $L20956                    0042615f f   WSPopButton.obj
 0001:00025168       $L20958                    00426168 f   WSPopButton.obj
 0001:00025171       __ehhandler$??0WSPopButton@@QAE@PAVWContainerWidget@@V?$basic_string@DU?$char_traits@D@std@@V?$allocator@D@2@@std@@11_N@Z 00426171 f   WSPopButton.obj
 0001:00025180       $L75854                    00426180 f   WSPopTable.obj
 0001:00025180       $L75826                    00426180 f   WSPopTable.obj
 0001:0002518b       $L75827                    0042618b f   WSPopTable.obj
 0001:0002518b       $L75855                    0042618b f   WSPopTable.obj
 0001:00025194       $L75829                    00426194 f   WSPopTable.obj
 0001:00025194       $L75857                    00426194 f   WSPopTable.obj
 0001:0002519d       $L75858                    0042619d f   WSPopTable.obj
 0001:0002519d       $L75830                    0042619d f   WSPopTable.obj
 0001:000251a8       $L75859                    004261a8 f   WSPopTable.obj
 0001:000251a8       $L75831                    004261a8 f   WSPopTable.obj
 0001:000251b1       __ehhandler$?ShowBottom@WSPopTable@@AAEXPAVWTable@@@Z 004261b1 f   WSPopTable.obj
 0001:000251b1       __ehhandler$?ShowTop@WSPopTable@@AAEXPAVWTable@@@Z 004261b1 f   WSPopTable.obj
 0001:000251c0       $L76107                    004261c0 f   WSPopTable.obj
 0001:000251c9       $L76111                    004261c9 f   WSPopTable.obj
 0001:000251d2       __ehhandler$?_Xlen@?$vector@PAVWTable@@V?$allocator@PAVWTable@@@std@@@std@@IBEXXZ 004261d2 f   WSPopTable.obj
 0001:000251e0       $L79466                    004261e0 f   WSPopTable.obj
 0001:000251e8       $L79467                    004261e8 f   WSPopTable.obj
 0001:000251f6       $L79468                    004261f6 f   WSPopTable.obj
 0001:00025204       $L79470                    00426204 f   WSPopTable.obj
 0001:0002520d       $L79471                    0042620d f   WSPopTable.obj
 0001:00025218       __ehhandler$??0WSPopTable@@QAE@PAVWContainerWidget@@_N@Z 00426218 f   WSPopTable.obj
 0001:00025230       $L80043                    00426230 f   WSPopTable.obj
 0001:00025239       $L80044                    00426239 f   WSPopTable.obj
 0001:00025244       $L80046                    00426244 f   WSPopTable.obj
 0001:0002524d       $L80047                    0042624d f   WSPopTable.obj
 0001:00025258       $L80049                    00426258 f   WSPopTable.obj
 0001:00025263       $L80050                    00426263 f   WSPopTable.obj
 0001:0002526c       $L80053                    0042626c f   WSPopTable.obj
 0001:00025275       $L80054                    00426275 f   WSPopTable.obj
 0001:00025280       $L80055                    00426280 f   WSPopTable.obj
 0001:00025289       $L80056                    00426289 f   WSPopTable.obj
 0001:00025294       $L80058                    00426294 f   WSPopTable.obj
 0001:0002529d       $L80059                    0042629d f   WSPopTable.obj
 0001:000252a8       $L80060                    004262a8 f   WSPopTable.obj
 0001:000252b1       $L80061                    004262b1 f   WSPopTable.obj
 0001:000252bc       $L80062                    004262bc f   WSPopTable.obj
 0001:000252c5       $L80063                    004262c5 f   WSPopTable.obj
 0001:000252d0       $L80064                    004262d0 f   WSPopTable.obj
 0001:000252d9       $L80066                    004262d9 f   WSPopTable.obj
 0001:000252e2       $L80067                    004262e2 f   WSPopTable.obj
 0001:000252ed       $L80068                    004262ed f   WSPopTable.obj
 0001:000252f6       __ehhandler$?AppendRows@WSPopTable@@QAEXV?$basic_string@DU?$char_traits@D@std@@V?$allocator@D@2@@std@@@Z 004262f6 f   WSPopTable.obj
 0001:00025300       $L22555                    00426300 f   WSPopTableWt.obj
 0001:0002530b       $L22556                    0042630b f   WSPopTableWt.obj
 0001:00025314       __ehhandler$?buildSlotMap@WSPopTable@@MAEXAAV?$map@V?$basic_string@DU?$char_traits@D@std@@V?$allocator@D@2@@std@@PAVWSlotInstance_@@U?$less@V?$basic_string@DU?$char_traits@D@std@@V?$allocator@D@2@@std@@@2@V?$allocator@U?$pair@$$CBV?$basic_string@DU?$char_traits@D@std@@V?$allocator@D@2@@std@@PAVWSlotInstance_@@@std@@@2@@std@@@Z 00426314 f   WSPopTableWt.obj
 0001:00025320       $L27748                    00426320 f   WSPopTableWt.obj
 0001:0002532b       $L27749                    0042632b f   WSPopTableWt.obj
 0001:00025334       __ehhandler$?buildSignalMap@WSPopTable@@MAEXAAV?$map@V?$basic_string@DU?$char_traits@D@std@@V?$allocator@D@2@@std@@PAVWSignalInstance_@@U?$less@V?$basic_string@DU?$char_traits@D@std@@V?$allocator@D@2@@std@@@2@V?$allocator@U?$pair@$$CBV?$basic_string@DU?$char_traits@D@std@@V?$allocator@D@2@@std@@PAVWSignalInstance_@@@std@@@2@@std@@@Z 00426334 f   WSPopTableWt.obj
 0001:00025340       $L27773                    00426340 f   WSPopTableWt.obj
 0001:00025348       $L27774                    00426348 f   WSPopTableWt.obj
 0001:00025352       __ehhandler$_$E7           00426352 f   WSPopTableWt.obj
 0001:00025360       $L17430                    00426360 f   libwt:WCssStyleSheet.obj
 0001:00025369       __ehhandler$??0WCssRule@@QAE@V?$basic_string@DU?$char_traits@D@std@@V?$allocator@D@2@@std@@@Z 00426369 f   libwt:WCssStyleSheet.obj
 0001:00025380       $L19911                    00426380 f   libwt:WCssStyleSheet.obj
 0001:00025389       $L19912                    00426389 f   libwt:WCssStyleSheet.obj
 0001:00025392       $L19913                    00426392 f   libwt:WCssStyleSheet.obj
 0001:0002539b       $L19914                    0042639b f   libwt:WCssStyleSheet.obj
 0001:000253a4       $L19915                    004263a4 f   libwt:WCssStyleSheet.obj
 0001:000253b0       $L19916                    004263b0 f   libwt:WCssStyleSheet.obj
 0001:000253d0       __ehhandler$?cssText@WCssStyleSheet@@QBE?AV?$basic_string@DU?$char_traits@D@std@@V?$allocator@D@2@@std@@XZ 004263d0 f   libwt:WCssStyleSheet.obj
 0001:000253e0       $L22481                    004263e0 f   libwt:WCssStyleSheet.obj
 0001:000253e8       __ehhandler$??1WCssStyleSheet@@QAE@XZ 004263e8 f   libwt:WCssStyleSheet.obj
 0001:00025400       $L48255                    00426400 f   libwt:WWebWidget.obj
 0001:00025400       $L49987                    00426400 f   libwt:WWebWidget.obj
 0001:00025400       $L49965                    00426400 f   libwt:WWebWidget.obj
 0001:00025400       $L49997                    00426400 f   libwt:WWebWidget.obj
 0001:00025400       $L48245                    00426400 f   libwt:WWebWidget.obj
 0001:00025400       $L49955                    00426400 f   libwt:WWebWidget.obj
 0001:00025400       $L52497                    00426400 f   libwt:WWebWidget.obj
 0001:00025400       $L52487                    00426400 f   libwt:WWebWidget.obj
 0001:00025409       __ehhandler$??1?$pair@V?$basic_string@DU?$char_traits@D@std@@V?$allocator@D@2@@std@@V12@@std@@QAE@XZ 00426409 f   libwt:WWebWidget.obj
 0001:00025409       __ehhandler$??0?$pair@$$CBV?$basic_string@DU?$char_traits@D@std@@V?$allocator@D@2@@std@@V12@@std@@QAE@ABU01@@Z 00426409 f   libwt:WWebWidget.obj
 0001:00025409       __ehhandler$??1?$pair@$$CBV?$basic_string@DU?$char_traits@D@std@@V?$allocator@D@2@@std@@U?$pair@V?$basic_string@DU?$char_traits@D@std@@V?$allocator@D@2@@std@@V12@@2@@std@@QAE@XZ 00426409 f   libwt:WWebWidget.obj
 0001:00025409       __ehhandler$??0?$pair@V?$basic_string@DU?$char_traits@D@std@@V?$allocator@D@2@@std@@V12@@std@@QAE@ABU01@@Z 00426409 f   libwt:WWebWidget.obj
 0001:00025409       __ehhandler$??0JavaScript@@QAE@ABV0@@Z 00426409 f   libwt:WWebWidget.obj
 0001:00025409       __ehhandler$??1?$pair@$$CBV?$basic_string@DU?$char_traits@D@std@@V?$allocator@D@2@@std@@V12@@std@@QAE@XZ 00426409 f   libwt:WWebWidget.obj
 0001:00025409       __ehhandler$??1JavaScript@@QAE@XZ 00426409 f   libwt:WWebWidget.obj
 0001:00025409       __ehhandler$??0?$pair@$$CBV?$basic_string@DU?$char_traits@D@std@@V?$allocator@D@2@@std@@U?$pair@V?$basic_string@DU?$char_traits@D@std@@V?$allocator@D@2@@std@@V12@@2@@std@@QAE@ABU01@@Z 00426409 f   libwt:WWebWidget.obj
 0001:00025420       $L48409                    00426420 f   libwt:WWebWidget.obj
 0001:00025429       __ehhandler$?setStyleClass@WWebWidget@@UAEXV?$basic_string@DU?$char_traits@D@std@@V?$allocator@D@2@@std@@@Z 00426429 f   libwt:WWebWidget.obj
 0001:00025440       $L48422                    00426440 f   libwt:WWebWidget.obj
 0001:00025449       $L48423                    00426449 f   libwt:WWebWidget.obj
 0001:00025451       __ehhandler$?setToolTip@WWebWidget@@UAEXV?$basic_string@DU?$char_traits@D@std@@V?$allocator@D@2@@std@@@Z 00426451 f   libwt:WWebWidget.obj
 0001:00025460       $L50699                    00426460 f   libwt:WWebWidget.obj
 0001:00025460       $L48499                    00426460 f   libwt:WWebWidget.obj
 0001:00025469       __ehhandler$?updateSignalConnection@WWebWidget@@IAEXAAVDomElement@@PBDV?$basic_string@DU?$char_traits@D@std@@V?$allocator@D@2@@std@@_N1@Z 00426469 f   libwt:WWebWidget.obj
 0001:00025469       __ehhandler$?updateSignalConnection@WWebWidget@@IAEXAAVDomElement@@PBDV?$basic_string@DU?$char_traits@D@std@@V?$allocator@D@2@@std@@1_N1@Z 00426469 f   libwt:WWebWidget.obj
 0001:00025480       $L50528                    00426480 f   libwt:WWebWidget.obj
 0001:00025489       __ehhandler$??5?$lexical_stream@V?$basic_string@DU?$char_traits@D@std@@V?$allocator@D@2@@std@@H@detail@boost@@QAE_NAAV?$basic_string@DU?$char_traits@D@std@@V?$allocator@D@2@@std@@@Z 00426489 f   libwt:WWebWidget.obj
 0001:000254a0       $L55163                    004264a0 f   libwt:WWebWidget.obj
 0001:000254b1       __ehhandler$?_Buynode@?$_Tree@V?$_Tmap_traits@V?$basic_string@DU?$char_traits@D@std@@V?$allocator@D@2@@std@@V12@U?$less@V?$basic_string@DU?$char_traits@D@std@@V?$allocator@D@2@@std@@@2@V?$allocator@U?$pair@$$CBV?$basic_string@DU?$char_traits@D@std@@V?$allocator@D@2@@std@@V12@@std@@@2@$0A@@std@@@std@@IAEPAU_Node@?$_Tree_nod@V?$_Tmap_traits@V?$basic_string@DU?$char_traits@D@std@@V?$allocator@D@2@@std@@V12@U?$less@V?$basic_string@DU?$char_traits@D@std@@V?$allocator@D@2@@std@@@2@V?$allocator@U?$pair@$$CBV?$basic_string@DU?$char_traits@D@std@@V?$allocator@D@2@@std@@V12@@std@@@2@$0A@@std@@@2@PAU342@00ABU?$pair@$$CBV?$basic_string@DU?$char_traits@D@std@@V?$allocator@D@2@@std@@V12@@2@D@Z 004264b1 f   libwt:WWebWidget.obj
 0001:000254c0       $L55198                    004264c0 f   libwt:WWebWidget.obj
 0001:000254d1       __ehhandler$?_Buynode@?$_Tree@V?$_Tmap_traits@W4Property@Wt@@V?$basic_string@DU?$char_traits@D@std@@V?$allocator@D@2@@std@@U?$less@W4Property@Wt@@@4@V?$allocator@U?$pair@$$CBW4Property@Wt@@V?$basic_string@DU?$char_traits@D@std@@V?$allocator@D@2@@std@@@std@@@4@$0A@@std@@@std@@IAEPAU_Node@?$_Tree_nod@V?$_Tmap_traits@W4Property@Wt@@V?$basic_string@DU?$char_traits@D@std@@V?$allocator@D@2@@std@@U?$less@W4Property@Wt@@@4@V?$allocator@U?$pair@$$CBW4Property@Wt@@V?$basic_string@DU?$char_traits@D@std@@V?$allocator@D@2@@std@@@std@@@4@$0A@@std@@@2@PAU342@00ABU?$pair@$$CBW4Property@Wt@@V?$basic_string@DU?$char_traits@D@std@@V?$allocator@D@2@@std@@@2@D@Z 004264d1 f   libwt:WWebWidget.obj
 0001:000254e0       $L55240                    004264e0 f   libwt:WWebWidget.obj
 0001:000254f1       __ehhandler$?_Buynode@?$_Tree@V?$_Tmap_traits@V?$basic_string@DU?$char_traits@D@std@@V?$allocator@D@2@@std@@PAVWSlotInstance_@@U?$less@V?$basic_string@DU?$char_traits@D@std@@V?$allocator@D@2@@std@@@2@V?$allocator@U?$pair@$$CBV?$basic_string@DU?$char_traits@D@std@@V?$allocator@D@2@@std@@PAVWSlotInstance_@@@std@@@2@$0A@@std@@@std@@IAEPAU_Node@?$_Tree_nod@V?$_Tmap_traits@V?$basic_string@DU?$char_traits@D@std@@V?$allocator@D@2@@std@@PAVWSlotInstance_@@U?$less@V?$basic_string@DU?$char_traits@D@std@@V?$allocator@D@2@@std@@@2@V?$allocator@U?$pair@$$CBV?$basic_string@DU?$char_traits@D@std@@V?$allocator@D@2@@std@@PAVWSlotInstance_@@@std@@@2@$0A@@std@@@2@PAU342@00ABU?$pair@$$CBV?$basic_string@DU?$char_traits@D@std@@V?$allocator@D@2@@std@@PAVWSlotInstance_@@@2@D@Z 004264f1 f   libwt:WWebWidget.obj
 0001:00025500       $L55358                    00426500 f   libwt:WWebWidget.obj
 0001:0002550b       $L55359                    0042650b f   libwt:WWebWidget.obj
 0001:00025514       $L55361                    00426514 f   libwt:WWebWidget.obj
 0001:00025534       $L55360                    00426534 f   libwt:WWebWidget.obj
 0001:0002553f       __ehhandler$??$lexical_cast@V?$basic_string@DU?$char_traits@D@std@@V?$allocator@D@2@@std@@H@boost@@YA?AV?$basic_string@DU?$char_traits@D@std@@V?$allocator@D@2@@std@@ABH@Z 0042653f f   libwt:WWebWidget.obj
 0001:00025550       $L55749                    00426550 f   libwt:WWebWidget.obj
 0001:00025559       $L55750                    00426559 f   libwt:WWebWidget.obj
 0001:00025561       __ehhandler$?refresh@WWebWidget@@UAEXXZ 00426561 f   libwt:WWebWidget.obj
 0001:00025570       $L57743                    00426570 f   libwt:WWebWidget.obj
 0001:00025581       __ehhandler$?_Buynode@?$_Tree@V?$_Tmap_traits@V?$basic_string@DU?$char_traits@D@std@@V?$allocator@D@2@@std@@U?$pair@V?$basic_string@DU?$char_traits@D@std@@V?$allocator@D@2@@std@@V12@@2@U?$less@V?$basic_string@DU?$char_traits@D@std@@V?$allocator@D@2@@std@@@2@V?$allocator@U?$pair@$$CBV?$basic_string@DU?$char_traits@D@std@@V?$allocator@D@2@@std@@U?$pair@V?$basic_string@DU?$char_traits@D@std@@V?$allocator@D@2@@std@@V12@@2@@std@@@2@$0A@@std@@@std@@IAEPAU_Node@?$_Tree_nod@V?$_Tmap_traits@V?$basic_string@DU?$char_traits@D@std@@V?$allocator@D@2@@std@@U?$pair@V?$basic_string@DU?$char_traits@D@std@@V?$allocator@D@2@@std@@V12@@2@U?$less@V?$basic_string@DU?$char_traits@D@std@@V?$allocator@D@2@@std@@@2@V?$allocator@U?$pair@$$CBV?$basic_string@DU?$char_traits@D@std@@V?$allocator@D@2@@std@@U?$pair@V?$basic_string@DU?$char_traits@D@std@@V?$allocator@D@2@@std@@V12@@2@@std@@@2@$0A@@std@@@2@PAU342@00ABU?$pair@$$CBV?$basic_string@DU?$char_traits@D@std@@V?$allocator@D@2@@std@@U?$pair@V?$basic_string@DU?$char_traits@D@std@@V?$allocator@D@2@@std@@V12@@2@@2@D@Z 00426581 f   libwt:WWebWidget.obj
 0001:00025590       $L57841                    00426590 f   libwt:WWebWidget.obj
 0001:00025590       $L57921                    00426590 f   libwt:WWebWidget.obj
 0001:000255a1       __ehhandler$??$_Uninit_copy@PAU?$pair@V?$basic_string@DU?$char_traits@D@std@@V?$allocator@D@2@@std@@PAVDomElement@@@std@@PAU12@V?$allocator@U?$pair@V?$basic_string@DU?$char_traits@D@std@@V?$allocator@D@2@@std@@PAVDomElement@@@std@@@2@@std@@YAPAU?$pair@V?$basic_string@DU?$char_traits@D@std@@V?$allocator@D@2@@std@@PAVDomElement@@@0@PAU10@00AAV?$allocator@U?$pair@V?$basic_string@DU?$char_traits@D@std@@V?$allocator@D@2@@std@@PAVDomElement@@@std@@@0@U_Nonscalar_ptr_iterator_tag@0@@Z 004265a1 f   libwt:WWebWidget.obj
 0001:000255a1       __ehhandler$??$_Uninit_copy@Vconst_iterator@?$vector@U?$pair@V?$basic_string@DU?$char_traits@D@std@@V?$allocator@D@2@@std@@PAVDomElement@@@std@@V?$allocator@U?$pair@V?$basic_string@DU?$char_traits@D@std@@V?$allocator@D@2@@std@@PAVDomElement@@@std@@@2@@std@@PAU?$pair@V?$basic_string@DU?$char_traits@D@std@@V?$allocator@D@2@@std@@PAVDomElement@@@3@V?$allocator@U?$pair@V?$basic_string@DU?$char_traits@D@std@@V?$allocator@D@2@@std@@PAVDomElement@@@std@@@3@@std@@YAPAU?$pair@V?$basic_string@DU?$char_traits@D@std@@V?$allocator@D@2@@std@@PAVDomElement@@@0@Vconst_iterator@?$vector@U?$pair@V?$basic_string@DU?$char_traits@D@std@@V?$allocator@D@2@@std@@PAVDomElement@@@std@@V?$allocator@U?$pair@V?$basic_string@DU?$char_traits@D@std@@V?$allocator@D@2@@std@@PAVDomElement@@@std@@@2@@0@0PAU10@AAV?$allocator@U?$pair@V?$basic_string@DU?$char_traits@D@std@@V?$allocator@D@2@@std@@PAVDomElement@@@std@@@0@U_Nonscalar_ptr_iterator_tag@0@@Z 004265a1 f   libwt:WWebWidget.obj
 0001:000255b0       $L58015                    004265b0 f   libwt:WWebWidget.obj
 0001:000255b8       $L58016                    004265b8 f   libwt:WWebWidget.obj
 0001:000255c6       $L58017                    004265c6 f   libwt:WWebWidget.obj
 0001:000255d5       $L58018                    004265d5 f   libwt:WWebWidget.obj
 0001:000255e4       $L58019                    004265e4 f   libwt:WWebWidget.obj
 0001:000255f2       $L58020                    004265f2 f   libwt:WWebWidget.obj
 0001:00025600       $L58021                    00426600 f   libwt:WWebWidget.obj
 0001:0002560e       __ehhandler$??0WWebWidget@@QAE@PAVWContainerWidget@@@Z 0042660e f   libwt:WWebWidget.obj
 0001:00025620       $L58232                    00426620 f   libwt:WWebWidget.obj
 0001:00025628       $L58233                    00426628 f   libwt:WWebWidget.obj
 0001:00025636       $L58234                    00426636 f   libwt:WWebWidget.obj
 0001:00025645       $L58235                    00426645 f   libwt:WWebWidget.obj
 0001:00025654       $L58236                    00426654 f   libwt:WWebWidget.obj
 0001:00025662       $L58237                    00426662 f   libwt:WWebWidget.obj
 0001:00025670       $L58238                    00426670 f   libwt:WWebWidget.obj
 0001:0002567e       __ehhandler$??1WWebWidget@@UAE@XZ 0042667e f   libwt:WWebWidget.obj
 0001:00025690       $L58510                    00426690 f   libwt:WWebWidget.obj
 0001:00025699       $L58512                    00426699 f   libwt:WWebWidget.obj
 0001:000256a2       __ehhandler$?updateDom@WWebWidget@@MAEXAAVDomElement@@_N@Z 004266a2 f   libwt:WWebWidget.obj
 0001:000256b0       $L60843                    004266b0 f   libwt:WWebWidget.obj
 0001:000256b9       $L60853                    004266b9 f   libwt:WWebWidget.obj
 0001:000256c2       $L61224                    004266c2 f   libwt:WWebWidget.obj
 0001:000256cb       __ehhandler$?erase@?$_Tree@V?$_Tmap_traits@V?$basic_string@DU?$char_traits@D@std@@V?$allocator@D@2@@std@@V12@U?$less@V?$basic_string@DU?$char_traits@D@std@@V?$allocator@D@2@@std@@@2@V?$allocator@U?$pair@$$CBV?$basic_string@DU?$char_traits@D@std@@V?$allocator@D@2@@std@@V12@@std@@@2@$0A@@std@@@std@@QAE?AViterator@12@V312@@Z 004266cb f   libwt:WWebWidget.obj
 0001:000256e0       $L61283                    004266e0 f   libwt:WWebWidget.obj
 0001:000256e0       $L56930                    004266e0 f   libwt:WWebWidget.obj
 0001:000256e0       $L49011                    004266e0 f   libwt:WWebWidget.obj
 0001:000256e9       $L49015                    004266e9 f   libwt:WWebWidget.obj
 0001:000256e9       $L61293                    004266e9 f   libwt:WWebWidget.obj
 0001:000256e9       $L56950                    004266e9 f   libwt:WWebWidget.obj
 0001:000256f2       __ehhandler$?erase@?$_Tree@V?$_Tmap_traits@W4Property@Wt@@V?$basic_string@DU?$char_traits@D@std@@V?$allocator@D@2@@std@@U?$less@W4Property@Wt@@@4@V?$allocator@U?$pair@$$CBW4Property@Wt@@V?$basic_string@DU?$char_traits@D@std@@V?$allocator@D@2@@std@@@std@@@4@$0A@@std@@@std@@QAE?AViterator@12@V312@@Z 004266f2 f   libwt:WWebWidget.obj
 0001:000256f2       __ehhandler$?_Insert@?$_Tree@V?$_Tmap_traits@V?$basic_string@DU?$char_traits@D@std@@V?$allocator@D@2@@std@@PAVWSlotInstance_@@U?$less@V?$basic_string@DU?$char_traits@D@std@@V?$allocator@D@2@@std@@@2@V?$allocator@U?$pair@$$CBV?$basic_string@DU?$char_traits@D@std@@V?$allocator@D@2@@std@@PAVWSlotInstance_@@@std@@@2@$0A@@std@@@std@@IAE?AViterator@12@_NPAU_Node@?$_Tree_nod@V?$_Tmap_traits@V?$basic_string@DU?$char_traits@D@std@@V?$allocator@D@2@@std@@PAVWSlotInstance_@@U?$less@V?$basic_string@DU?$char_traits@D@std@@V?$allocator@D@2@@std@@@2@V?$allocator@U?$pair@$$CBV?$basic_string@DU?$char_traits@D@std@@V?$allocator@D@2@@std@@PAVWSlotInstance_@@@std@@@2@$0A@@std@@@2@ABU?$pair@$$CBV?$basic_string@DU?$char_traits@D@std@@V?$allocator@D@2@@std@@PAVWSlotInstance_@@@2@@Z 004266f2 f   libwt:WWebWidget.obj
 0001:000256f2       __ehhandler$?_Xlen@?$vector@U?$pair@V?$basic_string@DU?$char_traits@D@std@@V?$allocator@D@2@@std@@PAVDomElement@@@std@@V?$allocator@U?$pair@V?$basic_string@DU?$char_traits@D@std@@V?$allocator@D@2@@std@@PAVDomElement@@@std@@@2@@std@@IBEXXZ 004266f2 f   libwt:WWebWidget.obj
 0001:00025700       __ehhandler$?_Copy@?$_Tree@V?$_Tmap_traits@V?$basic_string@DU?$char_traits@D@std@@V?$allocator@D@2@@std@@V12@U?$less@V?$basic_string@DU?$char_traits@D@std@@V?$allocator@D@2@@std@@@2@V?$allocator@U?$pair@$$CBV?$basic_string@DU?$char_traits@D@std@@V?$allocator@D@2@@std@@V12@@std@@@2@$0A@@std@@@std@@IAEPAU_Node@?$_Tree_nod@V?$_Tmap_traits@V?$basic_string@DU?$char_traits@D@std@@V?$allocator@D@2@@std@@V12@U?$less@V?$basic_string@DU?$char_traits@D@std@@V?$allocator@D@2@@std@@@2@V?$allocator@U?$pair@$$CBV?$basic_string@DU?$char_traits@D@std@@V?$allocator@D@2@@std@@V12@@std@@@2@$0A@@std@@@2@PAU342@0@Z 00426700 f   libwt:WWebWidget.obj
 0001:00025710       __ehhandler$?_Copy@?$_Tree@V?$_Tmap_traits@W4Property@Wt@@V?$basic_string@DU?$char_traits@D@std@@V?$allocator@D@2@@std@@U?$less@W4Property@Wt@@@4@V?$allocator@U?$pair@$$CBW4Property@Wt@@V?$basic_string@DU?$char_traits@D@std@@V?$allocator@D@2@@std@@@std@@@4@$0A@@std@@@std@@IAEPAU_Node@?$_Tree_nod@V?$_Tmap_traits@W4Property@Wt@@V?$basic_string@DU?$char_traits@D@std@@V?$allocator@D@2@@std@@U?$less@W4Property@Wt@@@4@V?$allocator@U?$pair@$$CBW4Property@Wt@@V?$basic_string@DU?$char_traits@D@std@@V?$allocator@D@2@@std@@@std@@@4@$0A@@std@@@2@PAU342@0@Z 00426710 f   libwt:WWebWidget.obj
 0001:00025720       $L65091                    00426720 f   libwt:WWebWidget.obj
 0001:00025729       $L65101                    00426729 f   libwt:WWebWidget.obj
 0001:00025732       $L65472                    00426732 f   libwt:WWebWidget.obj
 0001:0002573b       $L65475                    0042673b f   libwt:WWebWidget.obj
 0001:00025744       __ehhandler$?erase@?$_Tree@V?$_Tmap_traits@V?$basic_string@DU?$char_traits@D@std@@V?$allocator@D@2@@std@@U?$pair@V?$basic_string@DU?$char_traits@D@std@@V?$allocator@D@2@@std@@V12@@2@U?$less@V?$basic_string@DU?$char_traits@D@std@@V?$allocator@D@2@@std@@@2@V?$allocator@U?$pair@$$CBV?$basic_string@DU?$char_traits@D@std@@V?$allocator@D@2@@std@@U?$pair@V?$basic_string@DU?$char_traits@D@std@@V?$allocator@D@2@@std@@V12@@2@@std@@@2@$0A@@std@@@std@@QAE?AViterator@12@V312@@Z 00426744 f   libwt:WWebWidget.obj
 0001:00025750       $L66337                    00426750 f   libwt:WWebWidget.obj
 0001:00025758       __ehhandler$??A?$map@V?$basic_string@DU?$char_traits@D@std@@V?$allocator@D@2@@std@@PAVWSlotInstance_@@U?$less@V?$basic_string@DU?$char_traits@D@std@@V?$allocator@D@2@@std@@@2@V?$allocator@U?$pair@$$CBV?$basic_string@DU?$char_traits@D@std@@V?$allocator@D@2@@std@@PAVWSlotInstance_@@@std@@@2@@std@@QAEAAPAVWSlotInstance_@@ABV?$basic_string@DU?$char_traits@D@std@@V?$allocator@D@2@@1@@Z 00426758 f   libwt:WWebWidget.obj
 0001:00025770       __ehhandler$?_Copy@?$_Tree@V?$_Tmap_traits@V?$basic_string@DU?$char_traits@D@std@@V?$allocator@D@2@@std@@U?$pair@V?$basic_string@DU?$char_traits@D@std@@V?$allocator@D@2@@std@@V12@@2@U?$less@V?$basic_string@DU?$char_traits@D@std@@V?$allocator@D@2@@std@@@2@V?$allocator@U?$pair@$$CBV?$basic_string@DU?$char_traits@D@std@@V?$allocator@D@2@@std@@U?$pair@V?$basic_string@DU?$char_traits@D@std@@V?$allocator@D@2@@std@@V12@@2@@std@@@2@$0A@@std@@@std@@IAEPAU_Node@?$_Tree_nod@V?$_Tmap_traits@V?$basic_string@DU?$char_traits@D@std@@V?$allocator@D@2@@std@@U?$pair@V?$basic_string@DU?$char_traits@D@std@@V?$allocator@D@2@@std@@V12@@2@U?$less@V?$basic_string@DU?$char_traits@D@std@@V?$allocator@D@2@@std@@@2@V?$allocator@U?$pair@$$CBV?$basic_string@DU?$char_traits@D@std@@V?$allocator@D@2@@std@@U?$pair@V?$basic_string@DU?$char_traits@D@std@@V?$allocator@D@2@@std@@V12@@2@@std@@@2@$0A@@std@@@2@PAU342@0@Z 00426770 f   libwt:WWebWidget.obj
 0001:00025780       $L68442                    00426780 f   libwt:WWebWidget.obj
 0001:00025780       $L68469                    00426780 f   libwt:WWebWidget.obj
 0001:0002578b       $L68443                    0042678b f   libwt:WWebWidget.obj
 0001:0002578b       $L68470                    0042678b f   libwt:WWebWidget.obj
 0001:00025794       __ehhandler$?buildSignalMap@WWebWidget@@MAEXAAV?$map@V?$basic_string@DU?$char_traits@D@std@@V?$allocator@D@2@@std@@PAVWSignalInstance_@@U?$less@V?$basic_string@DU?$char_traits@D@std@@V?$allocator@D@2@@std@@@2@V?$allocator@U?$pair@$$CBV?$basic_string@DU?$char_traits@D@std@@V?$allocator@D@2@@std@@PAVWSignalInstance_@@@std@@@2@@std@@@Z 00426794 f   libwt:WWebWidget.obj
 0001:00025794       __ehhandler$?buildSlotMap@WWebWidget@@MAEXAAV?$map@V?$basic_string@DU?$char_traits@D@std@@V?$allocator@D@2@@std@@PAVWSlotInstance_@@U?$less@V?$basic_string@DU?$char_traits@D@std@@V?$allocator@D@2@@std@@@2@V?$allocator@U?$pair@$$CBV?$basic_string@DU?$char_traits@D@std@@V?$allocator@D@2@@std@@PAVWSlotInstance_@@@std@@@2@@std@@@Z 00426794 f   libwt:WWebWidget.obj
 0001:000257a0       __ehhandler$??0?$_Tree@V?$_Tmap_traits@V?$basic_string@DU?$char_traits@D@std@@V?$allocator@D@2@@std@@V12@U?$less@V?$basic_string@DU?$char_traits@D@std@@V?$allocator@D@2@@std@@@2@V?$allocator@U?$pair@$$CBV?$basic_string@DU?$char_traits@D@std@@V?$allocator@D@2@@std@@V12@@std@@@2@$0A@@std@@@std@@QAE@ABV01@@Z 004267a0 f   libwt:WWebWidget.obj
 0001:000257b0       __ehhandler$??0?$_Tree@V?$_Tmap_traits@W4Property@Wt@@V?$basic_string@DU?$char_traits@D@std@@V?$allocator@D@2@@std@@U?$less@W4Property@Wt@@@4@V?$allocator@U?$pair@$$CBW4Property@Wt@@V?$basic_string@DU?$char_traits@D@std@@V?$allocator@D@2@@std@@@std@@@4@$0A@@std@@@std@@QAE@ABV01@@Z 004267b0 f   libwt:WWebWidget.obj
 0001:000257c0       __ehhandler$??0?$vector@U?$pair@V?$basic_string@DU?$char_traits@D@std@@V?$allocator@D@2@@std@@PAVDomElement@@@std@@V?$allocator@U?$pair@V?$basic_string@DU?$char_traits@D@std@@V?$allocator@D@2@@std@@PAVDomElement@@@std@@@2@@std@@QAE@ABV01@@Z 004267c0 f   libwt:WWebWidget.obj
 0001:000257d0       __ehhandler$??0?$_Tree@V?$_Tmap_traits@V?$basic_string@DU?$char_traits@D@std@@V?$allocator@D@2@@std@@U?$pair@V?$basic_string@DU?$char_traits@D@std@@V?$allocator@D@2@@std@@V12@@2@U?$less@V?$basic_string@DU?$char_traits@D@std@@V?$allocator@D@2@@std@@@2@V?$allocator@U?$pair@$$CBV?$basic_string@DU?$char_traits@D@std@@V?$allocator@D@2@@std@@U?$pair@V?$basic_string@DU?$char_traits@D@std@@V?$allocator@D@2@@std@@V12@@2@@std@@@2@$0A@@std@@@std@@QAE@ABV01@@Z 004267d0 f   libwt:WWebWidget.obj
 0001:000257e0       $L71289                    004267e0 f   libwt:WWebWidget.obj
 0001:000257ec       $L71290                    004267ec f   libwt:WWebWidget.obj
 0001:000257f7       $L71291                    004267f7 f   libwt:WWebWidget.obj
 0001:00025802       $L71292                    00426802 f   libwt:WWebWidget.obj
 0001:0002580d       __ehhandler$??0DomElement@@QAE@ABV0@@Z 0042680d f   libwt:WWebWidget.obj
 0001:00025820       $L37279                    00426820 f   libwt:WInteractWidget.obj
 0001:00025820       $L37306                    00426820 f   libwt:WInteractWidget.obj
 0001:0002582b       $L37307                    0042682b f   libwt:WInteractWidget.obj
 0001:0002582b       $L37280                    0042682b f   libwt:WInteractWidget.obj
 0001:00025834       __ehhandler$?buildSignalMap@WInteractWidget@@MAEXAAV?$map@V?$basic_string@DU?$char_traits@D@std@@V?$allocator@D@2@@std@@PAVWSignalInstance_@@U?$less@V?$basic_string@DU?$char_traits@D@std@@V?$allocator@D@2@@std@@@2@V?$allocator@U?$pair@$$CBV?$basic_string@DU?$char_traits@D@std@@V?$allocator@D@2@@std@@PAVWSignalInstance_@@@std@@@2@@std@@@Z 00426834 f   libwt:WInteractWidget.obj
 0001:00025834       __ehhandler$?buildSlotMap@WInteractWidget@@MAEXAAV?$map@V?$basic_string@DU?$char_traits@D@std@@V?$allocator@D@2@@std@@PAVWSlotInstance_@@U?$less@V?$basic_string@DU?$char_traits@D@std@@V?$allocator@D@2@@std@@@2@V?$allocator@U?$pair@$$CBV?$basic_string@DU?$char_traits@D@std@@V?$allocator@D@2@@std@@PAVWSlotInstance_@@@std@@@2@@std@@@Z 00426834 f   libwt:WInteractWidget.obj
 0001:00025840       $L39898                    00426840 f   libwt:WInteractWidget.obj
 0001:00025848       $L39899                    00426848 f   libwt:WInteractWidget.obj
 0001:00025852       __ehhandler$_$E4           00426852 f   libwt:WInteractWidget.obj
 0001:00025860       $L39947                    00426860 f   libwt:WInteractWidget.obj
 0001:00025868       $L39948                    00426868 f   libwt:WInteractWidget.obj
 0001:00025872       $L39950                    00426872 f   libwt:WInteractWidget.obj
 0001:0002587a       $L39951                    0042687a f   libwt:WInteractWidget.obj
 0001:00025884       $L39953                    00426884 f   libwt:WInteractWidget.obj
 0001:0002588c       $L39954                    0042688c f   libwt:WInteractWidget.obj
 0001:00025896       $L39956                    00426896 f   libwt:WInteractWidget.obj
 0001:0002589e       $L39957                    0042689e f   libwt:WInteractWidget.obj
 0001:000258a8       $L39959                    004268a8 f   libwt:WInteractWidget.obj
 0001:000258b0       $L39960                    004268b0 f   libwt:WInteractWidget.obj
 0001:000258ba       $L39962                    004268ba f   libwt:WInteractWidget.obj
 0001:000258c2       $L39963                    004268c2 f   libwt:WInteractWidget.obj
 0001:000258cc       $L39965                    004268cc f   libwt:WInteractWidget.obj
 0001:000258d4       $L39966                    004268d4 f   libwt:WInteractWidget.obj
 0001:000258de       $L39968                    004268de f   libwt:WInteractWidget.obj
 0001:000258e6       $L39969                    004268e6 f   libwt:WInteractWidget.obj
 0001:000258f0       $L39971                    004268f0 f   libwt:WInteractWidget.obj
 0001:000258f8       $L39972                    004268f8 f   libwt:WInteractWidget.obj
 0001:00025902       $L39974                    00426902 f   libwt:WInteractWidget.obj
 0001:0002590a       $L39975                    0042690a f   libwt:WInteractWidget.obj
 0001:00025914       $L39977                    00426914 f   libwt:WInteractWidget.obj
 0001:0002591c       $L39978                    0042691c f   libwt:WInteractWidget.obj
 0001:00025926       $L39980                    00426926 f   libwt:WInteractWidget.obj
 0001:0002592e       $L39981                    0042692e f   libwt:WInteractWidget.obj
 0001:00025938       $L39983                    00426938 f   libwt:WInteractWidget.obj
 0001:00025940       $L39984                    00426940 f   libwt:WInteractWidget.obj
 0001:0002594a       $L39986                    0042694a f   libwt:WInteractWidget.obj
 0001:00025952       $L39987                    00426952 f   libwt:WInteractWidget.obj
 0001:0002595c       __ehhandler$_$E7           0042695c f   libwt:WInteractWidget.obj
 0001:00025970       $L34747                    00426970 f   libwt:WContainerWidget.obj
 0001:00025978       $L34748                    00426978 f   libwt:WContainerWidget.obj
 0001:00025986       __ehhandler$??0WContainerWidget@@QAE@PAV0@@Z 00426986 f   libwt:WContainerWidget.obj
 0001:00025990       $L35017                    00426990 f   libwt:WContainerWidget.obj
 0001:0002599c       $L35018                    0042699c f   libwt:WContainerWidget.obj
 0001:000259a8       $L35019                    004269a8 f   libwt:WContainerWidget.obj
 0001:000259b4       $L35020                    004269b4 f   libwt:WContainerWidget.obj
 0001:000259c0       $L35021                    004269c0 f   libwt:WContainerWidget.obj
 0001:000259cc       $L35022                    004269cc f   libwt:WContainerWidget.obj
 0001:000259d8       $L35023                    004269d8 f   libwt:WContainerWidget.obj
 0001:000259e4       $L35024                    004269e4 f   libwt:WContainerWidget.obj
 0001:000259f0       $L35025                    004269f0 f   libwt:WContainerWidget.obj
 0001:000259fc       __ehhandler$?updateDom@WContainerWidget@@MAEXAAVDomElement@@_N@Z 004269fc f   libwt:WContainerWidget.obj
 0001:00025a10       $L40985                    00426a10 f   libwt:WContainerWidget.obj
 0001:00025a10       $L40958                    00426a10 f   libwt:WContainerWidget.obj
 0001:00025a1b       $L40986                    00426a1b f   libwt:WContainerWidget.obj
 0001:00025a1b       $L40959                    00426a1b f   libwt:WContainerWidget.obj
 0001:00025a24       __ehhandler$?buildSignalMap@WContainerWidget@@MAEXAAV?$map@V?$basic_string@DU?$char_traits@D@std@@V?$allocator@D@2@@std@@PAVWSignalInstance_@@U?$less@V?$basic_string@DU?$char_traits@D@std@@V?$allocator@D@2@@std@@@2@V?$allocator@U?$pair@$$CBV?$basic_string@DU?$char_traits@D@std@@V?$allocator@D@2@@std@@PAVWSignalInstance_@@@std@@@2@@std@@@Z 00426a24 f   libwt:WContainerWidget.obj
 0001:00025a24       __ehhandler$?buildSlotMap@WContainerWidget@@MAEXAAV?$map@V?$basic_string@DU?$char_traits@D@std@@V?$allocator@D@2@@std@@PAVWSlotInstance_@@U?$less@V?$basic_string@DU?$char_traits@D@std@@V?$allocator@D@2@@std@@@2@V?$allocator@U?$pair@$$CBV?$basic_string@DU?$char_traits@D@std@@V?$allocator@D@2@@std@@PAVWSlotInstance_@@@std@@@2@@std@@@Z 00426a24 f   libwt:WContainerWidget.obj
 0001:00025a30       $L51419                    00426a30 f   libwt:WTable.obj
 0001:00025a39       $L51420                    00426a39 f   libwt:WTable.obj
 0001:00025a42       __ehhandler$?adjustRowStyle@WTable@@QAEXV?$basic_string@DU?$char_traits@D@std@@V?$allocator@D@2@@std@@0@Z 00426a42 f   libwt:WTable.obj
 0001:00025a50       $L53315                    00426a50 f   libwt:WTable.obj
 0001:00025a50       $L53414                    00426a50 f   libwt:WTable.obj
 0001:00025a58       $L53316                    00426a58 f   libwt:WTable.obj
 0001:00025a58       $L53415                    00426a58 f   libwt:WTable.obj
 0001:00025a66       __ehhandler$??1WTable@@UAE@XZ 00426a66 f   libwt:WTable.obj
 0001:00025a66       __ehhandler$??0WTable@@QAE@PAVWContainerWidget@@@Z 00426a66 f   libwt:WTable.obj
 0001:00025a70       $L53514                    00426a70 f   libwt:WTable.obj
 0001:00025a79       __ehhandler$?printDebug@WTable@@QAEXXZ 00426a79 f   libwt:WTable.obj
 0001:00025a90       $L62362                    00426a90 f   libwt:WTable.obj
 0001:00025a90       $L53887                    00426a90 f   libwt:WTable.obj
 0001:00025a9b       __ehhandler$?insertColumn@WTableRow@@QAEXH@Z 00426a9b f   libwt:WTable.obj
 0001:00025a9b       __ehhandler$?removeCell@WTable@@QAEXHH@Z 00426a9b f   libwt:WTable.obj
 0001:00025ab0       $L54471                    00426ab0 f   libwt:WTable.obj
 0001:00025ab9       $L54473                    00426ab9 f   libwt:WTable.obj
 0001:00025ac2       $L54475                    00426ac2 f   libwt:WTable.obj
 0001:00025acb       $L54476                    00426acb f   libwt:WTable.obj
 0001:00025ad4       $L54477                    00426ad4 f   libwt:WTable.obj
 0001:00025add       $L54478                    00426add f   libwt:WTable.obj
 0001:00025ae6       __ehhandler$?createDomElement@WTable@@MAEPAVDomElement@@XZ 00426ae6 f   libwt:WTable.obj
 0001:00025af0       __ehhandler$?_Insert_n@?$vector@UTableData@WTableRow@@V?$allocator@UTableData@WTableRow@@@std@@@std@@IAEXViterator@12@IABUTableData@WTableRow@@@Z 00426af0 f   libwt:WTable.obj
 0001:00025b00       $L62278                    00426b00 f   libwt:WTable.obj
 0001:00025b00       $L62251                    00426b00 f   libwt:WTable.obj
 0001:00025b00       $L62305                    00426b00 f   libwt:WTable.obj
 0001:00025b00       $L62332                    00426b00 f   libwt:WTable.obj
 0001:00025b0b       $L62333                    00426b0b f   libwt:WTable.obj
 0001:00025b0b       $L62279                    00426b0b f   libwt:WTable.obj
 0001:00025b0b       $L62306                    00426b0b f   libwt:WTable.obj
 0001:00025b0b       $L62252                    00426b0b f   libwt:WTable.obj
 0001:00025b14       __ehhandler$?buildSlotMap@WTableRow@@MAEXAAV?$map@V?$basic_string@DU?$char_traits@D@std@@V?$allocator@D@2@@std@@PAVWSlotInstance_@@U?$less@V?$basic_string@DU?$char_traits@D@std@@V?$allocator@D@2@@std@@@2@V?$allocator@U?$pair@$$CBV?$basic_string@DU?$char_traits@D@std@@V?$allocator@D@2@@std@@PAVWSlotInstance_@@@std@@@2@@std@@@Z 00426b14 f   libwt:WTable.obj
 0001:00025b14       __ehhandler$?buildSignalMap@WTableRow@@MAEXAAV?$map@V?$basic_string@DU?$char_traits@D@std@@V?$allocator@D@2@@std@@PAVWSignalInstance_@@U?$less@V?$basic_string@DU?$char_traits@D@std@@V?$allocator@D@2@@std@@@2@V?$allocator@U?$pair@$$CBV?$basic_string@DU?$char_traits@D@std@@V?$allocator@D@2@@std@@PAVWSignalInstance_@@@std@@@2@@std@@@Z 00426b14 f   libwt:WTable.obj
 0001:00025b14       __ehhandler$?buildSlotMap@WTable@@MAEXAAV?$map@V?$basic_string@DU?$char_traits@D@std@@V?$allocator@D@2@@std@@PAVWSlotInstance_@@U?$less@V?$basic_string@DU?$char_traits@D@std@@V?$allocator@D@2@@std@@@2@V?$allocator@U?$pair@$$CBV?$basic_string@DU?$char_traits@D@std@@V?$allocator@D@2@@std@@PAVWSlotInstance_@@@std@@@2@@std@@@Z 00426b14 f   libwt:WTable.obj
 0001:00025b14       __ehhandler$?buildSignalMap@WTable@@MAEXAAV?$map@V?$basic_string@DU?$char_traits@D@std@@V?$allocator@D@2@@std@@PAVWSignalInstance_@@U?$less@V?$basic_string@DU?$char_traits@D@std@@V?$allocator@D@2@@std@@@2@V?$allocator@U?$pair@$$CBV?$basic_string@DU?$char_traits@D@std@@V?$allocator@D@2@@std@@PAVWSignalInstance_@@@std@@@2@@std@@@Z 00426b14 f   libwt:WTable.obj
 0001:00025b20       $L64476                    00426b20 f   libwt:WTable.obj
 0001:00025b2b       __ehhandler$?expand@WTableRow@@AAEXH@Z 00426b2b f   libwt:WTable.obj
 0001:00025b40       $L65386                    00426b40 f   libwt:WTable.obj
 0001:00025b48       $L65387                    00426b48 f   libwt:WTable.obj
 0001:00025b57       $L65388                    00426b57 f   libwt:WTable.obj
 0001:00025b65       __ehhandler$??0WTableRow@@QAE@PAVWTable@@H@Z 00426b65 f   libwt:WTable.obj
 0001:00025b70       $L65488                    00426b70 f   libwt:WTable.obj
 0001:00025b7b       __ehhandler$?expand@WTable@@AAEXHHHH@Z 00426b7b f   libwt:WTable.obj
 0001:00025b90       $L65956                    00426b90 f   libwt:WTable.obj
 0001:00025b9b       __ehhandler$?insertRow@WTable@@QAEXH@Z 00426b9b f   libwt:WTable.obj
 0001:00025bb0       $L66181                    00426bb0 f   libwt:WTable.obj
 0001:00025bb9       $L66182                    00426bb9 f   libwt:WTable.obj
 0001:00025bc4       __ehhandler$?insertRow@WTable@@QAEXHV?$basic_string@DU?$char_traits@D@std@@V?$allocator@D@2@@std@@@Z 00426bc4 f   libwt:WTable.obj
 0001:00025bd0       $L26181                    00426bd0 f   libwt:WText.obj
 0001:00025bd8       $L26182                    00426bd8 f   libwt:WText.obj
 0001:00025be6       $L26183                    00426be6 f   libwt:WText.obj
 0001:00025bf5       __ehhandler$??0WText@@QAE@PAVWContainerWidget@@@Z 00426bf5 f   libwt:WText.obj
 0001:00025c00       $L26192                    00426c00 f   libwt:WText.obj
 0001:00025c09       $L26193                    00426c09 f   libwt:WText.obj
 0001:00025c11       $L26194                    00426c11 f   libwt:WText.obj
 0001:00025c1f       $L26195                    00426c1f f   libwt:WText.obj
 0001:00025c2e       __ehhandler$??0WText@@QAE@V?$basic_string@DU?$char_traits@D@std@@V?$allocator@D@2@@std@@PAVWContainerWidget@@@Z 00426c2e f   libwt:WText.obj
 0001:00025c40       $L26205                    00426c40 f   libwt:WText.obj
 0001:00025c48       $L26206                    00426c48 f   libwt:WText.obj
 0001:00025c56       $L26207                    00426c56 f   libwt:WText.obj
 0001:00025c65       $L26208                    00426c65 f   libwt:WText.obj
 0001:00025c6e       __ehhandler$??0WText@@QAE@ABVWMessage@@PAVWContainerWidget@@@Z 00426c6e f   libwt:WText.obj
 0001:00025c80       $L26232                    00426c80 f   libwt:WText.obj
 0001:00025c89       $L26233                    00426c89 f   libwt:WText.obj
 0001:00025c91       __ehhandler$?setText@WText@@QAEXV?$basic_string@DU?$char_traits@D@std@@V?$allocator@D@2@@std@@@Z 00426c91 f   libwt:WText.obj
 0001:00025ca0       $L26259                    00426ca0 f   libwt:WText.obj
 0001:00025ca9       __ehhandler$?replace@@YAXAAV?$basic_string@DU?$char_traits@D@std@@V?$allocator@D@2@@std@@DV12@@Z 00426ca9 f   libwt:WText.obj
 0001:00025cc0       $L26308                    00426cc0 f   libwt:WText.obj
 0001:00025cc9       $L26309                    00426cc9 f   libwt:WText.obj
 0001:00025ce3       $L26312                    00426ce3 f   libwt:WText.obj
 0001:00025cec       __ehhandler$?formattedText@WText@@QBE?AV?$basic_string@DU?$char_traits@D@std@@V?$allocator@D@2@@std@@XZ 00426cec f   libwt:WText.obj
 0001:00025d00       $L26339                    00426d00 f   libwt:WText.obj
 0001:00025d1a       $L26342                    00426d1a f   libwt:WText.obj
 0001:00025d22       __ehhandler$?refresh@WText@@UAEXXZ 00426d22 f   libwt:WText.obj
 0001:00025d30       $L38335                    00426d30 f   libwt:WText.obj
 0001:00025d30       $L38362                    00426d30 f   libwt:WText.obj
 0001:00025d3b       $L38336                    00426d3b f   libwt:WText.obj
 0001:00025d3b       $L38363                    00426d3b f   libwt:WText.obj
 0001:00025d44       __ehhandler$?buildSlotMap@WText@@MAEXAAV?$map@V?$basic_string@DU?$char_traits@D@std@@V?$allocator@D@2@@std@@PAVWSlotInstance_@@U?$less@V?$basic_string@DU?$char_traits@D@std@@V?$allocator@D@2@@std@@@2@V?$allocator@U?$pair@$$CBV?$basic_string@DU?$char_traits@D@std@@V?$allocator@D@2@@std@@PAVWSlotInstance_@@@std@@@2@@std@@@Z 00426d44 f   libwt:WText.obj
 0001:00025d44       __ehhandler$?buildSignalMap@WText@@MAEXAAV?$map@V?$basic_string@DU?$char_traits@D@std@@V?$allocator@D@2@@std@@PAVWSignalInstance_@@U?$less@V?$basic_string@DU?$char_traits@D@std@@V?$allocator@D@2@@std@@@2@V?$allocator@U?$pair@$$CBV?$basic_string@DU?$char_traits@D@std@@V?$allocator@D@2@@std@@PAVWSignalInstance_@@@std@@@2@@std@@@Z 00426d44 f   libwt:WText.obj
 0001:00025d50       $L26091                    00426d50 f   libwt:WImage.obj
 0001:00025d58       $L26092                    00426d58 f   libwt:WImage.obj
 0001:00025d67       __ehhandler$??0WImage@@QAE@PAVWContainerWidget@@@Z 00426d67 f   libwt:WImage.obj
 0001:00025d80       $L26102                    00426d80 f   libwt:WImage.obj
 0001:00025d89       $L26103                    00426d89 f   libwt:WImage.obj
 0001:00025d91       $L26104                    00426d91 f   libwt:WImage.obj
 0001:00025da0       __ehhandler$??0WImage@@QAE@V?$basic_string@DU?$char_traits@D@std@@V?$allocator@D@2@@std@@PAVWContainerWidget@@@Z 00426da0 f   libwt:WImage.obj
 0001:00025db0       $L26114                    00426db0 f   libwt:WImage.obj
 0001:00025db9       $L26115                    00426db9 f   libwt:WImage.obj
 0001:00025dc2       $L26116                    00426dc2 f   libwt:WImage.obj
 0001:00025dca       $L26117                    00426dca f   libwt:WImage.obj
 0001:00025dd9       __ehhandler$??0WImage@@QAE@V?$basic_string@DU?$char_traits@D@std@@V?$allocator@D@2@@std@@0PAVWContainerWidget@@@Z 00426dd9 f   libwt:WImage.obj
 0001:00025df0       $L26128                    00426df0 f   libwt:WImage.obj
 0001:00025df9       $L26129                    00426df9 f   libwt:WImage.obj
 0001:00025e01       $L26130                    00426e01 f   libwt:WImage.obj
 0001:00025e10       $L26131                    00426e10 f   libwt:WImage.obj
 0001:00025e1f       $L26132                    00426e1f f   libwt:WImage.obj
 0001:00025e28       __ehhandler$??0WImage@@QAE@PAVWResource@@V?$basic_string@DU?$char_traits@D@std@@V?$allocator@D@2@@std@@PAVWContainerWidget@@@Z 00426e28 f   libwt:WImage.obj
 0001:00025e40       $L26150                    00426e40 f   libwt:WImage.obj
 0001:00025e40       $L26141                    00426e40 f   libwt:WImage.obj
 0001:00025e49       __ehhandler$?setAlternateText@WImage@@QAEXV?$basic_string@DU?$char_traits@D@std@@V?$allocator@D@2@@std@@@Z 00426e49 f   libwt:WImage.obj
 0001:00025e49       __ehhandler$?setImageRef@WImage@@QAEXV?$basic_string@DU?$char_traits@D@std@@V?$allocator@D@2@@std@@@Z 00426e49 f   libwt:WImage.obj
 0001:00025e60       $L38121                    00426e60 f   libwt:WImage.obj
 0001:00025e60       $L38148                    00426e60 f   libwt:WImage.obj
 0001:00025e6b       $L38149                    00426e6b f   libwt:WImage.obj
 0001:00025e6b       $L38122                    00426e6b f   libwt:WImage.obj
 0001:00025e74       __ehhandler$?buildSlotMap@WImage@@MAEXAAV?$map@V?$basic_string@DU?$char_traits@D@std@@V?$allocator@D@2@@std@@PAVWSlotInstance_@@U?$less@V?$basic_string@DU?$char_traits@D@std@@V?$allocator@D@2@@std@@@2@V?$allocator@U?$pair@$$CBV?$basic_string@DU?$char_traits@D@std@@V?$allocator@D@2@@std@@PAVWSlotInstance_@@@std@@@2@@std@@@Z 00426e74 f   libwt:WImage.obj
 0001:00025e74       __ehhandler$?buildSignalMap@WImage@@MAEXAAV?$map@V?$basic_string@DU?$char_traits@D@std@@V?$allocator@D@2@@std@@PAVWSignalInstance_@@U?$less@V?$basic_string@DU?$char_traits@D@std@@V?$allocator@D@2@@std@@@2@V?$allocator@U?$pair@$$CBV?$basic_string@DU?$char_traits@D@std@@V?$allocator@D@2@@std@@PAVWSignalInstance_@@@std@@@2@@std@@@Z 00426e74 f   libwt:WImage.obj
 0001:00025e80       $L40740                    00426e80 f   libwt:WImage.obj
 0001:00025e88       $L40741                    00426e88 f   libwt:WImage.obj
 0001:00025e92       __ehhandler$_$E4           00426e92 f   libwt:WImage.obj
 0001:00025ea0       $L25893                    00426ea0 f   libwt:WFormWidget.obj
 0001:00025ea8       __ehhandler$??1WFormWidget@@UAE@XZ 00426ea8 f   libwt:WFormWidget.obj
 0001:00025ec0       $L37391                    00426ec0 f   libwt:WFormWidget.obj
 0001:00025ec0       $L37418                    00426ec0 f   libwt:WFormWidget.obj
 0001:00025ecb       $L37392                    00426ecb f   libwt:WFormWidget.obj
 0001:00025ecb       $L37419                    00426ecb f   libwt:WFormWidget.obj
 0001:00025ed4       __ehhandler$?buildSignalMap@WFormWidget@@MAEXAAV?$map@V?$basic_string@DU?$char_traits@D@std@@V?$allocator@D@2@@std@@PAVWSignalInstance_@@U?$less@V?$basic_string@DU?$char_traits@D@std@@V?$allocator@D@2@@std@@@2@V?$allocator@U?$pair@$$CBV?$basic_string@DU?$char_traits@D@std@@V?$allocator@D@2@@std@@PAVWSignalInstance_@@@std@@@2@@std@@@Z 00426ed4 f   libwt:WFormWidget.obj
 0001:00025ed4       __ehhandler$?buildSlotMap@WFormWidget@@MAEXAAV?$map@V?$basic_string@DU?$char_traits@D@std@@V?$allocator@D@2@@std@@PAVWSlotInstance_@@U?$less@V?$basic_string@DU?$char_traits@D@std@@V?$allocator@D@2@@std@@@2@V?$allocator@U?$pair@$$CBV?$basic_string@DU?$char_traits@D@std@@V?$allocator@D@2@@std@@PAVWSlotInstance_@@@std@@@2@@std@@@Z 00426ed4 f   libwt:WFormWidget.obj
 0001:00025ee0       $L40014                    00426ee0 f   libwt:WFormWidget.obj
 0001:00025ee8       $L40015                    00426ee8 f   libwt:WFormWidget.obj
 0001:00025ef2       $L40017                    00426ef2 f   libwt:WFormWidget.obj
 0001:00025efa       $L40018                    00426efa f   libwt:WFormWidget.obj
 0001:00025f04       $L40020                    00426f04 f   libwt:WFormWidget.obj
 0001:00025f0c       $L40021                    00426f0c f   libwt:WFormWidget.obj
 0001:00025f16       __ehhandler$_$E4           00426f16 f   libwt:WFormWidget.obj
 0001:00025f20       $L40065                    00426f20 f   libwt:WFormWidget.obj
 0001:00025f28       $L40066                    00426f28 f   libwt:WFormWidget.obj
 0001:00025f32       $L40068                    00426f32 f   libwt:WFormWidget.obj
 0001:00025f3a       $L40069                    00426f3a f   libwt:WFormWidget.obj
 0001:00025f44       $L40071                    00426f44 f   libwt:WFormWidget.obj
 0001:00025f4c       $L40072                    00426f4c f   libwt:WFormWidget.obj
 0001:00025f56       __ehhandler$_$E7           00426f56 f   libwt:WFormWidget.obj
 0001:00025f60       $L26158                    00426f60 f   libwt:WPushButton.obj
 0001:00025f68       $L26159                    00426f68 f   libwt:WPushButton.obj
 0001:00025f77       __ehhandler$??0WPushButton@@QAE@PAVWContainerWidget@@@Z 00426f77 f   libwt:WPushButton.obj
 0001:00025f90       $L26169                    00426f90 f   libwt:WPushButton.obj
 0001:00025f99       $L26170                    00426f99 f   libwt:WPushButton.obj
 0001:00025fa1       $L26171                    00426fa1 f   libwt:WPushButton.obj
 0001:00025fb0       __ehhandler$??0WPushButton@@QAE@V?$basic_string@DU?$char_traits@D@std@@V?$allocator@D@2@@std@@PAVWContainerWidget@@@Z 00426fb0 f   libwt:WPushButton.obj
 0001:00025fc0       $L26182                    00426fc0 f   libwt:WPushButton.obj
 0001:00025fc8       $L26183                    00426fc8 f   libwt:WPushButton.obj
 0001:00025fd7       $L26184                    00426fd7 f   libwt:WPushButton.obj
 0001:00025fe5       $L26185                    00426fe5 f   libwt:WPushButton.obj
 0001:00025fee       __ehhandler$??0WPushButton@@QAE@ABVWMessage@@PAVWContainerWidget@@@Z 00426fee f   libwt:WPushButton.obj
 0001:00026000       $L26200                    00427000 f   libwt:WPushButton.obj
 0001:00026009       $L26201                    00427009 f   libwt:WPushButton.obj
 0001:00026011       __ehhandler$?setText@WPushButton@@QAEXV?$basic_string@DU?$char_traits@D@std@@V?$allocator@D@2@@std@@@Z 00427011 f   libwt:WPushButton.obj
 0001:00026020       $L26233                    00427020 f   libwt:WPushButton.obj
 0001:00026029       __ehhandler$?createDomElement@WPushButton@@MAEPAVDomElement@@XZ 00427029 f   libwt:WPushButton.obj
 0001:00026040       $L26249                    00427040 f   libwt:WPushButton.obj
 0001:0002605a       $L26252                    0042705a f   libwt:WPushButton.obj
 0001:00026062       __ehhandler$?refresh@WPushButton@@UAEXXZ 00427062 f   libwt:WPushButton.obj
 0001:00026070       $L38246                    00427070 f   libwt:WPushButton.obj
 0001:00026070       $L38273                    00427070 f   libwt:WPushButton.obj
 0001:0002607b       $L38274                    0042707b f   libwt:WPushButton.obj
 0001:0002607b       $L38247                    0042707b f   libwt:WPushButton.obj
 0001:00026084       __ehhandler$?buildSlotMap@WPushButton@@MAEXAAV?$map@V?$basic_string@DU?$char_traits@D@std@@V?$allocator@D@2@@std@@PAVWSlotInstance_@@U?$less@V?$basic_string@DU?$char_traits@D@std@@V?$allocator@D@2@@std@@@2@V?$allocator@U?$pair@$$CBV?$basic_string@DU?$char_traits@D@std@@V?$allocator@D@2@@std@@PAVWSlotInstance_@@@std@@@2@@std@@@Z 00427084 f   libwt:WPushButton.obj
 0001:00026084       __ehhandler$?buildSignalMap@WPushButton@@MAEXAAV?$map@V?$basic_string@DU?$char_traits@D@std@@V?$allocator@D@2@@std@@PAVWSignalInstance_@@U?$less@V?$basic_string@DU?$char_traits@D@std@@V?$allocator@D@2@@std@@@2@V?$allocator@U?$pair@$$CBV?$basic_string@DU?$char_traits@D@std@@V?$allocator@D@2@@std@@PAVWSignalInstance_@@@std@@@2@@std@@@Z 00427084 f   libwt:WPushButton.obj
 0001:00026090       $L26573                    00427090 f   libwt:WScrollArea.obj
 0001:00026098       $L26574                    00427098 f   libwt:WScrollArea.obj
 0001:000260a3       $L26575                    004270a3 f   libwt:WScrollArea.obj
 0001:000260ae       __ehhandler$??0WScrollArea@@QAE@PAVWContainerWidget@@@Z 004270ae f   libwt:WScrollArea.obj
 0001:000260c0       $L26593                    004270c0 f   libwt:WScrollArea.obj
 0001:000260c8       __ehhandler$??1WScrollArea@@UAE@XZ 004270c8 f   libwt:WScrollArea.obj
 0001:000260e0       $L38865                    004270e0 f   libwt:WScrollArea.obj
 0001:000260e0       $L38892                    004270e0 f   libwt:WScrollArea.obj
 0001:000260eb       $L38866                    004270eb f   libwt:WScrollArea.obj
 0001:000260eb       $L38893                    004270eb f   libwt:WScrollArea.obj
 0001:000260f4       __ehhandler$?buildSlotMap@WScrollArea@@MAEXAAV?$map@V?$basic_string@DU?$char_traits@D@std@@V?$allocator@D@2@@std@@PAVWSlotInstance_@@U?$less@V?$basic_string@DU?$char_traits@D@std@@V?$allocator@D@2@@std@@@2@V?$allocator@U?$pair@$$CBV?$basic_string@DU?$char_traits@D@std@@V?$allocator@D@2@@std@@PAVWSlotInstance_@@@std@@@2@@std@@@Z 004270f4 f   libwt:WScrollArea.obj
 0001:000260f4       __ehhandler$?buildSignalMap@WScrollArea@@MAEXAAV?$map@V?$basic_string@DU?$char_traits@D@std@@V?$allocator@D@2@@std@@PAVWSignalInstance_@@U?$less@V?$basic_string@DU?$char_traits@D@std@@V?$allocator@D@2@@std@@@2@V?$allocator@U?$pair@$$CBV?$basic_string@DU?$char_traits@D@std@@V?$allocator@D@2@@std@@PAVWSignalInstance_@@@std@@@2@@std@@@Z 004270f4 f   libwt:WScrollArea.obj
 0001:00026100       $L81590                    00427100 f   libwt:WApplication.obj
 0001:00026100       $L81608                    00427100 f   libwt:WApplication.obj
 0001:00026100       $L81567                    00427100 f   libwt:WApplication.obj
 0001:00026109       __ehhandler$?setTitle@WApplication@@QAEXV?$basic_string@DU?$char_traits@D@std@@V?$allocator@D@2@@std@@@Z 00427109 f   libwt:WApplication.obj
 0001:00026109       __ehhandler$?setOAPLDownloadPath@WApplication@@QAEXV?$basic_string@DU?$char_traits@D@std@@V?$allocator@D@2@@std@@@Z 00427109 f   libwt:WApplication.obj
 0001:00026109       __ehhandler$?setBodyAttribute@WApplication@@QAEXV?$basic_string@DU?$char_traits@D@std@@V?$allocator@D@2@@std@@@Z 00427109 f   libwt:WApplication.obj
 0001:00026120       $L81617                    00427120 f   libwt:WApplication.obj
 0001:00026129       __ehhandler$?setRefreshTime@WApplication@@QAEXHV?$basic_string@DU?$char_traits@D@std@@V?$allocator@D@2@@std@@@Z 00427129 f   libwt:WApplication.obj
 0001:00026140       $L89113                    00427140 f   libwt:WApplication.obj
 0001:00026140       $L88624                    00427140 f   libwt:WApplication.obj
 0001:00026149       $L89133                    00427149 f   libwt:WApplication.obj
 0001:00026149       $L88644                    00427149 f   libwt:WApplication.obj
 0001:00026152       __ehhandler$?_Insert@?$_Tree@V?$_Tset_traits@PBVWResource@@U?$less@PBVWResource@@@std@@V?$allocator@PBVWResource@@@3@$0A@@std@@@std@@IAE?AViterator@12@_NPAU_Node@?$_Tree_nod@V?$_Tset_traits@PBVWResource@@U?$less@PBVWResource@@@std@@V?$allocator@PBVWResource@@@3@$0A@@std@@@2@ABQBVWResource@@@Z 00427152 f   libwt:WApplication.obj
 0001:00026152       __ehhandler$?_Insert@?$_Tree@V?$_Tset_traits@PBVWSignalInstance_@@U?$less@PBVWSignalInstance_@@@std@@V?$allocator@PBVWSignalInstance_@@@3@$0A@@std@@@std@@IAE?AViterator@12@_NPAU_Node@?$_Tree_nod@V?$_Tset_traits@PBVWSignalInstance_@@U?$less@PBVWSignalInstance_@@@std@@V?$allocator@PBVWSignalInstance_@@@3@$0A@@std@@@2@ABQBVWSignalInstance_@@@Z 00427152 f   libwt:WApplication.obj
 0001:00026160       $L96652                    00427160 f   libwt:WApplication.obj
 0001:00026168       $L96653                    00427168 f   libwt:WApplication.obj
 0001:00026174       $L96654                    00427174 f   libwt:WApplication.obj
 0001:00026180       $L96655                    00427180 f   libwt:WApplication.obj
 0001:0002618c       $L96656                    0042718c f   libwt:WApplication.obj
 0001:00026197       $L96657                    00427197 f   libwt:WApplication.obj
 0001:000261a5       $L96658                    004271a5 f   libwt:WApplication.obj
 0001:000261b4       $L96659                    004271b4 f   libwt:WApplication.obj
 0001:000261c3       $L96660                    004271c3 f   libwt:WApplication.obj
 0001:000261d2       $L96661                    004271d2 f   libwt:WApplication.obj
 0001:000261e0       $L96662                    004271e0 f   libwt:WApplication.obj
 0001:000261ee       __ehhandler$??1WApplication@@UAE@XZ 004271ee f   libwt:WApplication.obj
 0001:00026200       $L98060                    00427200 f   libwt:WApplication.obj
 0001:00026200       $L98087                    00427200 f   libwt:WApplication.obj
 0001:0002620b       $L98088                    0042720b f   libwt:WApplication.obj
 0001:0002620b       $L98061                    0042720b f   libwt:WApplication.obj
 0001:00026214       __ehhandler$?buildSlotMap@WApplication@@MAEXAAV?$map@V?$basic_string@DU?$char_traits@D@std@@V?$allocator@D@2@@std@@PAVWSlotInstance_@@U?$less@V?$basic_string@DU?$char_traits@D@std@@V?$allocator@D@2@@std@@@2@V?$allocator@U?$pair@$$CBV?$basic_string@DU?$char_traits@D@std@@V?$allocator@D@2@@std@@PAVWSlotInstance_@@@std@@@2@@std@@@Z 00427214 f   libwt:WApplication.obj
 0001:00026214       __ehhandler$?buildSignalMap@WApplication@@MAEXAAV?$map@V?$basic_string@DU?$char_traits@D@std@@V?$allocator@D@2@@std@@PAVWSignalInstance_@@U?$less@V?$basic_string@DU?$char_traits@D@std@@V?$allocator@D@2@@std@@@2@V?$allocator@U?$pair@$$CBV?$basic_string@DU?$char_traits@D@std@@V?$allocator@D@2@@std@@PAVWSignalInstance_@@@std@@@2@@std@@@Z 00427214 f   libwt:WApplication.obj
 0001:00026220       $L98113                    00427220 f   libwt:WApplication.obj
 0001:00026228       $L98114                    00427228 f   libwt:WApplication.obj
 0001:00026234       $L98115                    00427234 f   libwt:WApplication.obj
 0001:00026240       $L98116                    00427240 f   libwt:WApplication.obj
 0001:0002624c       $L98117                    0042724c f   libwt:WApplication.obj
 0001:00026257       $L98118                    00427257 f   libwt:WApplication.obj
 0001:00026265       $L98119                    00427265 f   libwt:WApplication.obj
 0001:00026274       $L98120                    00427274 f   libwt:WApplication.obj
 0001:00026283       $L98121                    00427283 f   libwt:WApplication.obj
 0001:00026292       $L98122                    00427292 f   libwt:WApplication.obj
 0001:000262a0       $L98123                    004272a0 f   libwt:WApplication.obj
 0001:000262ae       $L98124                    004272ae f   libwt:WApplication.obj
 0001:000262b9       __ehhandler$??0WApplication@@QAE@HQAPAD@Z 004272b9 f   libwt:WApplication.obj
 0001:000262d0       $L99115                    004272d0 f   libwt:WApplication.obj
 0001:000262d8       $L99116                    004272d8 f   libwt:WApplication.obj
 0001:000262e2       $L99118                    004272e2 f   libwt:WApplication.obj
 0001:000262ea       $L99119                    004272ea f   libwt:WApplication.obj
 0001:000262f4       __ehhandler$_$E7           004272f4 f   libwt:WApplication.obj
 0001:00026300       $L100044                   00427300 f   libwt:WebSession.obj
 0001:00026309       __ehhandler$?setCurrentWidget@WebSession@@AAEXPAVWWidget@@@Z 00427309 f   libwt:WebSession.obj
 0001:00026320       $L106346                   00427320 f   libwt:WebSession.obj
 0001:0002632c       $L106347                   0042732c f   libwt:WebSession.obj
 0001:00026338       $L106348                   00427338 f   libwt:WebSession.obj
 0001:00026344       $L106349                   00427344 f   libwt:WebSession.obj
 0001:00026350       __ehhandler$?handleRequestData@WebSession@@AAEPAVWResource@@XZ 00427350 f   libwt:WebSession.obj
 0001:00026360       $L106493                   00427360 f   libwt:WebSession.obj
 0001:00026369       $L106494                   00427369 f   libwt:WebSession.obj
 0001:00026372       $L106495                   00427372 f   libwt:WebSession.obj
 0001:0002637b       $L106496                   0042737b f   libwt:WebSession.obj
 0001:00026384       $L106497                   00427384 f   libwt:WebSession.obj
 0001:000263a4       __ehhandler$?createFormsVar@WebSession@@AAE?AV?$basic_string@DU?$char_traits@D@std@@V?$allocator@D@2@@std@@ABV?$vector@PAVWObject@@V?$allocator@PAVWObject@@@std@@@3@@Z 004273a4 f   libwt:WebSession.obj
 0001:000263b0       $L107624                   004273b0 f   libwt:WebSession.obj
 0001:000263b9       $L107625                   004273b9 f   libwt:WebSession.obj
 0001:000263c2       $L107626                   004273c2 f   libwt:WebSession.obj
 0001:000263cb       $L107627                   004273cb f   libwt:WebSession.obj
 0001:000263da       $L107628                   004273da f   libwt:WebSession.obj
 0001:000263e9       $L107629                   004273e9 f   libwt:WebSession.obj
 0001:000263f8       $L107630                   004273f8 f   libwt:WebSession.obj
 0001:00026407       $L107631                   00427407 f   libwt:WebSession.obj
 0001:00026419       $L107632                   00427419 f   libwt:WebSession.obj
 0001:0002642b       $L107633                   0042742b f   libwt:WebSession.obj
 0001:0002643d       $L107634                   0042743d f   libwt:WebSession.obj
 0001:0002644e       __ehhandler$??0WebSession@@QAE@V?$basic_string@DU?$char_traits@D@std@@V?$allocator@D@2@@std@@_N1V12@2@Z 0042744e f   libwt:WebSession.obj
 0001:00026460       $L110989                   00427460 f   libwt:WebSession.obj
 0001:0002646b       $L110990                   0042746b f   libwt:WebSession.obj
 0001:00026476       $L110991                   00427476 f   libwt:WebSession.obj
 0001:0002647f       $L110992                   0042747f f   libwt:WebSession.obj
 0001:00026488       $L110993                   00427488 f   libwt:WebSession.obj
 0001:00026491       $L110994                   00427491 f   libwt:WebSession.obj
 0001:0002649f       $L110995                   0042749f f   libwt:WebSession.obj
 0001:000264ad       $L110996                   004274ad f   libwt:WebSession.obj
 0001:000264bb       $L110997                   004274bb f   libwt:WebSession.obj
 0001:000264c7       $L110998                   004274c7 f   libwt:WebSession.obj
 0001:000264d3       $L110999                   004274d3 f   libwt:WebSession.obj
 0001:000264e1       $L111000                   004274e1 f   libwt:WebSession.obj
 0001:000264ed       $L111001                   004274ed f   libwt:WebSession.obj
 0001:000264f9       $L111002                   004274f9 f   libwt:WebSession.obj
 0001:00026505       $L111003                   00427505 f   libwt:WebSession.obj
 0001:00026511       $L111004                   00427511 f   libwt:WebSession.obj
 0001:0002651d       $L111005                   0042751d f   libwt:WebSession.obj
 0001:00026529       $L111006                   00427529 f   libwt:WebSession.obj
 0001:00026535       $L111007                   00427535 f   libwt:WebSession.obj
 0001:00026541       $L111008                   00427541 f   libwt:WebSession.obj
 0001:0002654d       $L111009                   0042754d f   libwt:WebSession.obj
 0001:00026559       $L111010                   00427559 f   libwt:WebSession.obj
 0001:00026565       $L111011                   00427565 f   libwt:WebSession.obj
 0001:00026571       $L111012                   00427571 f   libwt:WebSession.obj
 0001:0002657d       $L111013                   0042757d f   libwt:WebSession.obj
 0001:00026589       $L111014                   00427589 f   libwt:WebSession.obj
 0001:00026595       $L111015                   00427595 f   libwt:WebSession.obj
 0001:000265a1       $L111016                   004275a1 f   libwt:WebSession.obj
 0001:000265ad       $L111019                   004275ad f   libwt:WebSession.obj
 0001:000265b9       $L111020                   004275b9 f   libwt:WebSession.obj
 0001:000265c5       $L111022                   004275c5 f   libwt:WebSession.obj
 0001:000265d1       $L111024                   004275d1 f   libwt:WebSession.obj
 0001:000265dd       $L111027                   004275dd f   libwt:WebSession.obj
 0001:000265e9       $L111028                   004275e9 f   libwt:WebSession.obj
 0001:000265f5       $L111029                   004275f5 f   libwt:WebSession.obj
 0001:00026601       $L111030                   00427601 f   libwt:WebSession.obj
 0001:0002660d       __ehhandler$?serveMainpage@WebSession@@AAEXPAVWWidget@@@Z 0042760d f   libwt:WebSession.obj
 0001:00026620       $L111511                   00427620 f   libwt:WebSession.obj
 0001:00026628       $L111516                   00427628 f   libwt:WebSession.obj
 0001:00026633       $L111518                   00427633 f   libwt:WebSession.obj
 0001:0002663e       $L111519                   0042763e f   libwt:WebSession.obj
 0001:00026647       $L111520                   00427647 f   libwt:WebSession.obj
 0001:00026653       $L111524                   00427653 f   libwt:WebSession.obj
 0001:0002665c       $L111525                   0042765c f   libwt:WebSession.obj
 0001:00026668       $L111526                   00427668 f   libwt:WebSession.obj
 0001:00026674       $L111527                   00427674 f   libwt:WebSession.obj
 0001:00026680       $L111929                   00427680 f   libwt:WebSession.obj
 0001:00026689       __ehhandler$?serveJavascriptUpdate@WebSession@@AAEXPAVWWidget@@@Z 00427689 f   libwt:WebSession.obj
 0001:000266a0       $L111956                   004276a0 f   libwt:WebSession.obj
 0001:000266ae       $L111957                   004276ae f   libwt:WebSession.obj
 0001:000266b9       $L111959                   004276b9 f   libwt:WebSession.obj
 0001:000266c2       __ehhandler$?generateResponse@WebSession@@AAEXPAVWResource@@@Z 004276c2 f   libwt:WebSession.obj
 0001:000266d0       $L113893                   004276d0 f   libwt:WebSession.obj
 0001:000266d9       $L113894                   004276d9 f   libwt:WebSession.obj
 0001:000266e2       $L113895                   004276e2 f   libwt:WebSession.obj
 0001:000266eb       __ehhandler$?start@WebSession@@QAEXP6AXHPAPAD@ZH0@Z 004276eb f   libwt:WebSession.obj
 0001:00026700       $L29612                    00427700 f   libwt:WObject.obj
 0001:00026700       $L22609                    00427700 f   libwt:WObject.obj
 0001:00026700       $L22599                    00427700 f   libwt:WObject.obj
 0001:00026709       __ehhandler$?triggerSignal@WObject@@IAEXPBVWSignal_@@PAPAX@Z 00427709 f   libwt:WObject.obj
 0001:00026709       __ehhandler$?undoTriggerSlot@WObject@@MAE_NPBVWSlot_@@PAPAX@Z 00427709 f   libwt:WObject.obj
 0001:00026709       __ehhandler$?triggerSlot@WObject@@MAE_NPAV1@PBVWSlot_@@PAPAX@Z 00427709 f   libwt:WObject.obj
 0001:00026720       $L25367                    00427720 f   libwt:WObject.obj
 0001:00026720       $L24925                    00427720 f   libwt:WObject.obj
 0001:00026729       $L25377                    00427729 f   libwt:WObject.obj
 0001:00026729       $L24935                    00427729 f   libwt:WObject.obj
 0001:00026732       __ehhandler$?erase@?$_Tree@V?$_Tmap_traits@V?$basic_string@DU?$char_traits@D@std@@V?$allocator@D@2@@std@@PAVWSignalInstance_@@U?$less@V?$basic_string@DU?$char_traits@D@std@@V?$allocator@D@2@@std@@@2@V?$allocator@U?$pair@$$CBV?$basic_string@DU?$char_traits@D@std@@V?$allocator@D@2@@std@@PAVWSignalInstance_@@@std@@@2@$0A@@std@@@std@@QAE?AViterator@12@V312@@Z 00427732 f   libwt:WObject.obj
 0001:00026732       __ehhandler$?erase@?$_Tree@V?$_Tmap_traits@V?$basic_string@DU?$char_traits@D@std@@V?$allocator@D@2@@std@@PAVWSlotInstance_@@U?$less@V?$basic_string@DU?$char_traits@D@std@@V?$allocator@D@2@@std@@@2@V?$allocator@U?$pair@$$CBV?$basic_string@DU?$char_traits@D@std@@V?$allocator@D@2@@std@@PAVWSlotInstance_@@@std@@@2@$0A@@std@@@std@@QAE?AViterator@12@V312@@Z 00427732 f   libwt:WObject.obj
 0001:00026740       $L28073                    00427740 f   libwt:WObject.obj
 0001:00026740       $L28100                    00427740 f   libwt:WObject.obj
 0001:0002674b       $L28074                    0042774b f   libwt:WObject.obj
 0001:0002674b       $L28101                    0042774b f   libwt:WObject.obj
 0001:00026754       __ehhandler$?buildSignalMap@WObject@@MAEXAAV?$map@V?$basic_string@DU?$char_traits@D@std@@V?$allocator@D@2@@std@@PAVWSignalInstance_@@U?$less@V?$basic_string@DU?$char_traits@D@std@@V?$allocator@D@2@@std@@@2@V?$allocator@U?$pair@$$CBV?$basic_string@DU?$char_traits@D@std@@V?$allocator@D@2@@std@@PAVWSignalInstance_@@@std@@@2@@std@@@Z 00427754 f   libwt:WObject.obj
 0001:00026754       __ehhandler$?buildSlotMap@WObject@@MAEXAAV?$map@V?$basic_string@DU?$char_traits@D@std@@V?$allocator@D@2@@std@@PAVWSlotInstance_@@U?$less@V?$basic_string@DU?$char_traits@D@std@@V?$allocator@D@2@@std@@@2@V?$allocator@U?$pair@$$CBV?$basic_string@DU?$char_traits@D@std@@V?$allocator@D@2@@std@@PAVWSlotInstance_@@@std@@@2@@std@@@Z 00427754 f   libwt:WObject.obj
 0001:00026760       $L28122                    00427760 f   libwt:WObject.obj
 0001:00026769       __ehhandler$?InsertMap@WObject@@SAXAAV?$map@V?$basic_string@DU?$char_traits@D@std@@V?$allocator@D@2@@std@@PAVWSlotInstance_@@U?$less@V?$basic_string@DU?$char_traits@D@std@@V?$allocator@D@2@@std@@@2@V?$allocator@U?$pair@$$CBV?$basic_string@DU?$char_traits@D@std@@V?$allocator@D@2@@std@@PAVWSlotInstance_@@@std@@@2@@std@@V?$basic_string@DU?$char_traits@D@std@@V?$allocator@D@2@@3@PAVWSlotInstance_@@@Z 00427769 f   libwt:WObject.obj
 0001:00026780       $L29043                    00427780 f   libwt:WObject.obj
 0001:00026780       $L29316                    00427780 f   libwt:WObject.obj
 0001:00026789       $L29044                    00427789 f   libwt:WObject.obj
 0001:00026789       $L29317                    00427789 f   libwt:WObject.obj
 0001:00026794       $L29045                    00427794 f   libwt:WObject.obj
 0001:00026794       $L29318                    00427794 f   libwt:WObject.obj
 0001:0002679d       __ehhandler$?getSlot@WObject@@IBEPAVWSlotInstance_@@V?$basic_string@DU?$char_traits@D@std@@V?$allocator@D@2@@std@@@Z 0042779d f   libwt:WObject.obj
 0001:0002679d       __ehhandler$?getSignal@WObject@@IBEPAVWSignalInstance_@@V?$basic_string@DU?$char_traits@D@std@@V?$allocator@D@2@@std@@@Z 0042779d f   libwt:WObject.obj
 0001:000267b0       $L29582                    004277b0 f   libwt:WObject.obj
 0001:000267b9       __ehhandler$?staticSlotChanged@WObject@@QAEXV?$basic_string@DU?$char_traits@D@std@@V?$allocator@D@2@@std@@@Z 004277b9 f   libwt:WObject.obj
 0001:000267d0       $L29940                    004277d0 f   libwt:WObject.obj
 0001:000267d8       $L29941                    004277d8 f   libwt:WObject.obj
 0001:000267e2       __ehhandler$_$E4           004277e2 f   libwt:WObject.obj
 0001:000267f0       $L43018                    004277f0 f   libwt:WTableCell.obj
 0001:000267f9       __ehhandler$?SetMouseMove@WTableCell@@QAEXV?$basic_string@DU?$char_traits@D@std@@V?$allocator@D@2@@std@@0@Z 004277f9 f   libwt:WTableCell.obj
 0001:00026810       $L48634                    00427810 f   libwt:WTableCell.obj
 0001:00026819       $L48636                    00427819 f   libwt:WTableCell.obj
 0001:00026822       $L48638                    00427822 f   libwt:WTableCell.obj
 0001:0002682b       $L48639                    0042782b f   libwt:WTableCell.obj
 0001:00026834       $L48640                    00427834 f   libwt:WTableCell.obj
 0001:0002683d       $L48641                    0042783d f   libwt:WTableCell.obj
 0001:00026846       __ehhandler$?createDomElement@WTableCell@@MAEPAVDomElement@@XZ 00427846 f   libwt:WTableCell.obj
 0001:00026850       $L49954                    00427850 f   libwt:WTableCell.obj
 0001:00026858       __ehhandler$??0WTableCell@@AAE@PAVWTableRow@@H@Z 00427858 f   libwt:WTableCell.obj
 0001:00026870       $L55434                    00427870 f   libwt:WTableCell.obj
 0001:00026870       $L55461                    00427870 f   libwt:WTableCell.obj
 0001:0002687b       $L55462                    0042787b f   libwt:WTableCell.obj
 0001:0002687b       $L55435                    0042787b f   libwt:WTableCell.obj
 0001:00026884       __ehhandler$?buildSignalMap@WTableCell@@MAEXAAV?$map@V?$basic_string@DU?$char_traits@D@std@@V?$allocator@D@2@@std@@PAVWSignalInstance_@@U?$less@V?$basic_string@DU?$char_traits@D@std@@V?$allocator@D@2@@std@@@2@V?$allocator@U?$pair@$$CBV?$basic_string@DU?$char_traits@D@std@@V?$allocator@D@2@@std@@PAVWSignalInstance_@@@std@@@2@@std@@@Z 00427884 f   libwt:WTableCell.obj
 0001:00026884       __ehhandler$?buildSlotMap@WTableCell@@MAEXAAV?$map@V?$basic_string@DU?$char_traits@D@std@@V?$allocator@D@2@@std@@PAVWSlotInstance_@@U?$less@V?$basic_string@DU?$char_traits@D@std@@V?$allocator@D@2@@std@@@2@V?$allocator@U?$pair@$$CBV?$basic_string@DU?$char_traits@D@std@@V?$allocator@D@2@@std@@PAVWSlotInstance_@@@std@@@2@@std@@@Z 00427884 f   libwt:WTableCell.obj
 0001:00026890       $L92081                    00427890 f   libwt:WWidget.obj
 0001:0002689b       $L92082                    0042789b f   libwt:WWidget.obj
 0001:000268a3       $L92532                    004278a3 f   libwt:WWidget.obj
 0001:000268ac       __ehhandler$?updateStaticSlotCode@WWidget@@IAEXPAVWWebWidget@@AAVJavaScript@@@Z 004278ac f   libwt:WWidget.obj
 0001:000268c0       $L101003                   004278c0 f   libwt:WWidget.obj
 0001:000268c0       $L101030                   004278c0 f   libwt:WWidget.obj
 0001:000268cb       $L101004                   004278cb f   libwt:WWidget.obj
 0001:000268cb       $L101031                   004278cb f   libwt:WWidget.obj
 0001:000268d4       __ehhandler$?buildSignalMap@WWidget@@MAEXAAV?$map@V?$basic_string@DU?$char_traits@D@std@@V?$allocator@D@2@@std@@PAVWSignalInstance_@@U?$less@V?$basic_string@DU?$char_traits@D@std@@V?$allocator@D@2@@std@@@2@V?$allocator@U?$pair@$$CBV?$basic_string@DU?$char_traits@D@std@@V?$allocator@D@2@@std@@PAVWSignalInstance_@@@std@@@2@@std@@@Z 004278d4 f   libwt:WWidget.obj
 0001:000268d4       __ehhandler$?buildSlotMap@WWidget@@MAEXAAV?$map@V?$basic_string@DU?$char_traits@D@std@@V?$allocator@D@2@@std@@PAVWSlotInstance_@@U?$less@V?$basic_string@DU?$char_traits@D@std@@V?$allocator@D@2@@std@@@2@V?$allocator@U?$pair@$$CBV?$basic_string@DU?$char_traits@D@std@@V?$allocator@D@2@@std@@PAVWSlotInstance_@@@std@@@2@@std@@@Z 004278d4 f   libwt:WWidget.obj
 0001:000268e0       $L104179                   004278e0 f   libwt:WWidget.obj
 0001:000268e8       $L104180                   004278e8 f   libwt:WWidget.obj
 0001:000268f2       $L104182                   004278f2 f   libwt:WWidget.obj
 0001:000268fa       $L104183                   004278fa f   libwt:WWidget.obj
 0001:00026904       __ehhandler$_$E3           00427904 f   libwt:WWidget.obj
 0001:00026910       $L74538                    00427910 f   libwt:WSlotInstance_.obj
 0001:00026919       __ehhandler$?setStaticCode@WSlotInstance_@@QAEXV?$basic_string@DU?$char_traits@D@std@@V?$allocator@D@2@@std@@@Z 00427919 f   libwt:WSlotInstance_.obj
 0001:00026930       $L74937                    00427930 f   libwt:WSlotInstance_.obj
 0001:0002693b       __ehhandler$??0WSlotInstance_@@QAE@PAVWObject@@PAVWSlot_@@@Z 0042793b f   libwt:WSlotInstance_.obj
 0001:00026950       $L75036                    00427950 f   libwt:WSlotInstance_.obj
 0001:0002695b       $L75037                    0042795b f   libwt:WSlotInstance_.obj
 0001:00026967       __ehhandler$??1WSlotInstance_@@QAE@XZ 00427967 f   libwt:WSlotInstance_.obj
 0001:00026980       $L77185                    00427980 f   libwt:WSignalInstance_.obj
 0001:00026989       __ehhandler$?decodeSignal@WSignalInstance_@@SAPAV1@V?$basic_string@DU?$char_traits@D@std@@V?$allocator@D@2@@std@@@Z 00427989 f   libwt:WSignalInstance_.obj
 0001:000269a0       $L80712                    004279a0 f   libwt:WSignalInstance_.obj
 0001:000269ab       __ehhandler$?connect@WSignalInstance_@@AAE_NPAVWSlotInstance_@@W4ConnectionType@WObject@@@Z 004279ab f   libwt:WSignalInstance_.obj
 0001:000269c0       __ehhandler$?trigger@WSignalInstance_@@ABEXW4ConnectionType@WObject@@PAPAX@Z 004279c0 f   libwt:WSignalInstance_.obj
 0001:000269d0       $L80896                    004279d0 f   libwt:WSignalInstance_.obj
 0001:000269d9       __ehhandler$?getStaticCode@WSignalInstance_@@ABEXAAV?$basic_string@DU?$char_traits@D@std@@V?$allocator@D@2@@std@@@Z 004279d9 f   libwt:WSignalInstance_.obj
 0001:000269f0       $L81600                    004279f0 f   libwt:WSignalInstance_.obj
 0001:000269fb       __ehhandler$??0WSignalInstance_@@QAE@PAVWObject@@PAVWSignal_@@@Z 004279fb f   libwt:WSignalInstance_.obj
 0001:00026a10       $L81699                    00427a10 f   libwt:WSignalInstance_.obj
 0001:00026a1b       $L81700                    00427a1b f   libwt:WSignalInstance_.obj
 0001:00026a27       __ehhandler$??1WSignalInstance_@@QAE@XZ 00427a27 f   libwt:WSignalInstance_.obj
 0001:00026a40       $L15272                    00427a40 f   libwt:WSlot_.obj
 0001:00026a49       __ehhandler$??0WSlot_@@QAE@V?$basic_string@DU?$char_traits@D@std@@V?$allocator@D@2@@std@@_N@Z 00427a49 f   libwt:WSlot_.obj
 0001:00026a60       $L16019                    00427a60 f   libwt:WSignal_.obj
 0001:00026a69       __ehhandler$??0WSignal_@@QAE@V?$basic_string@DU?$char_traits@D@std@@V?$allocator@D@2@@std@@_N@Z 00427a69 f   libwt:WSignal_.obj
 0001:00026a80       $L30495                    00427a80 f   libwt:WLength.obj
 0001:00026a89       __ehhandler$??5?$lexical_stream@V?$basic_string@DU?$char_traits@D@std@@V?$allocator@D@2@@std@@N@detail@boost@@QAE_NAAV?$basic_string@DU?$char_traits@D@std@@V?$allocator@D@2@@std@@@Z 00427a89 f   libwt:WLength.obj
 0001:00026aa0       $L31825                    00427aa0 f   libwt:WLength.obj
 0001:00026aab       $L31826                    00427aab f   libwt:WLength.obj
 0001:00026ab4       $L31828                    00427ab4 f   libwt:WLength.obj
 0001:00026ad4       $L31827                    00427ad4 f   libwt:WLength.obj
 0001:00026adf       __ehhandler$??$lexical_cast@V?$basic_string@DU?$char_traits@D@std@@V?$allocator@D@2@@std@@N@boost@@YA?AV?$basic_string@DU?$char_traits@D@std@@V?$allocator@D@2@@std@@ABN@Z 00427adf f   libwt:WLength.obj
 0001:00026af0       $L31902                    00427af0 f   libwt:WLength.obj
 0001:00026b0a       $L31905                    00427b0a f   libwt:WLength.obj
 0001:00026b13       __ehhandler$?cssText@WLength@@QBE?BV?$basic_string@DU?$char_traits@D@std@@V?$allocator@D@2@@std@@XZ 00427b13 f   libwt:WLength.obj
 0001:00026b20       $L22688                    00427b20 f   libwt:WCssDecorationStyle.obj
 0001:00026b20       $L22701                    00427b20 f   libwt:WCssDecorationStyle.obj
 0001:00026b2b       $L22689                    00427b2b f   libwt:WCssDecorationStyle.obj
 0001:00026b2b       $L22702                    00427b2b f   libwt:WCssDecorationStyle.obj
 0001:00026b36       $L22703                    00427b36 f   libwt:WCssDecorationStyle.obj
 0001:00026b36       $L22690                    00427b36 f   libwt:WCssDecorationStyle.obj
 0001:00026b41       $L22691                    00427b41 f   libwt:WCssDecorationStyle.obj
 0001:00026b41       $L22704                    00427b41 f   libwt:WCssDecorationStyle.obj
 0001:00026b50       __ehhandler$??0WCssDecorationStyle@@AAE@PAVWWebWidget@@@Z 00427b50 f   libwt:WCssDecorationStyle.obj
 0001:00026b50       __ehhandler$??0WCssDecorationStyle@@QAE@XZ 00427b50 f   libwt:WCssDecorationStyle.obj
 0001:00026b60       $L22718                    00427b60 f   libwt:WCssDecorationStyle.obj
 0001:00026b69       __ehhandler$?setBackgroundImage@WCssDecorationStyle@@QAEXV?$basic_string@DU?$char_traits@D@std@@V?$allocator@D@2@@std@@W4Repeat@1@@Z 00427b69 f   libwt:WCssDecorationStyle.obj
 0001:00026b80       $L22727                    00427b80 f   libwt:WCssDecorationStyle.obj
 0001:00026b80       $L22744                    00427b80 f   libwt:WCssDecorationStyle.obj
 0001:00026b88       __ehhandler$?setBackgroundColor@WCssDecorationStyle@@QAEXVWColor@@@Z 00427b88 f   libwt:WCssDecorationStyle.obj
 0001:00026b88       __ehhandler$?setForegroundColor@WCssDecorationStyle@@QAEXVWColor@@@Z 00427b88 f   libwt:WCssDecorationStyle.obj
 0001:00026ba0       $L22761                    00427ba0 f   libwt:WCssDecorationStyle.obj
 0001:00026ba8       __ehhandler$?setBorder@WCssDecorationStyle@@QAEXVWBorder@@@Z 00427ba8 f   libwt:WCssDecorationStyle.obj
 0001:00026bc0       $L24253                    00427bc0 f   libwt:WCssDecorationStyle.obj
 0001:00026bda       $L24255                    00427bda f   libwt:WCssDecorationStyle.obj
 0001:00026bf4       $L24257                    00427bf4 f   libwt:WCssDecorationStyle.obj
 0001:00026c0e       __ehhandler$?updateDomElement@WCssDecorationStyle@@QAEXAAVDomElement@@_N@Z 00427c0e f   libwt:WCssDecorationStyle.obj
 0001:00026c20       $L24312                    00427c20 f   libwt:WCssDecorationStyle.obj
 0001:00026c29       $L24313                    00427c29 f   libwt:WCssDecorationStyle.obj
 0001:00026c32       $L24314                    00427c32 f   libwt:WCssDecorationStyle.obj
 0001:00026c3b       $L24315                    00427c3b f   libwt:WCssDecorationStyle.obj
 0001:00026c44       $L24316                    00427c44 f   libwt:WCssDecorationStyle.obj
 0001:00026c4d       $L24317                    00427c4d f   libwt:WCssDecorationStyle.obj
 0001:00026c56       $L24318                    00427c56 f   libwt:WCssDecorationStyle.obj
 0001:00026c5f       $L24319                    00427c5f f   libwt:WCssDecorationStyle.obj
 0001:00026c68       $L24320                    00427c68 f   libwt:WCssDecorationStyle.obj
 0001:00026c71       $L24321                    00427c71 f   libwt:WCssDecorationStyle.obj
 0001:00026c7a       $L24322                    00427c7a f   libwt:WCssDecorationStyle.obj
 0001:00026c9a       __ehhandler$?cssText@WCssDecorationStyle@@QBE?AV?$basic_string@DU?$char_traits@D@std@@V?$allocator@D@2@@std@@XZ 00427c9a f   libwt:WCssDecorationStyle.obj
 0001:00026cb0       $L78279                    00427cb0 f   libwt:DomElement.obj
 0001:00026cb9       $L78280                    00427cb9 f   libwt:DomElement.obj
 0001:00026cc2       $L78281                    00427cc2 f   libwt:DomElement.obj
 0001:00026cdc       __ehhandler$?replace@@YA?AV?$basic_string@DU?$char_traits@D@std@@V?$allocator@D@2@@std@@V12@D0@Z 00427cdc f   libwt:DomElement.obj
 0001:00026cf0       $L78527                    00427cf0 f   libwt:DomElement.obj
 0001:00026cf0       $L80472                    00427cf0 f   libwt:DomElement.obj
 0001:00026cf9       __ehhandler$??0?$pair@$$CBV?$basic_string@DU?$char_traits@D@std@@V?$allocator@D@2@@std@@U?$pair@V?$basic_string@DU?$char_traits@D@std@@V?$allocator@D@2@@std@@V12@@2@@std@@QAE@ABV?$basic_string@DU?$char_traits@D@std@@V?$allocator@D@2@@1@ABU?$pair@V?$basic_string@DU?$char_traits@D@std@@V?$allocator@D@2@@std@@V12@@1@@Z 00427cf9 f   libwt:DomElement.obj
 0001:00026cf9       __ehhandler$??0?$pair@$$CBV?$basic_string@DU?$char_traits@D@std@@V?$allocator@D@2@@std@@V12@@std@@QAE@ABV?$basic_string@DU?$char_traits@D@std@@V?$allocator@D@2@@1@0@Z 00427cf9 f   libwt:DomElement.obj
 0001:00026d10       $L79990                    00427d10 f   libwt:DomElement.obj
 0001:00026d19       $L79991                    00427d19 f   libwt:DomElement.obj
 0001:00026d22       $L79992                    00427d22 f   libwt:DomElement.obj
 0001:00026d2b       $L79994                    00427d2b f   libwt:DomElement.obj
 0001:00026d45       __ehhandler$?escape@@YA?AV?$basic_string@DU?$char_traits@D@std@@V?$allocator@D@2@@std@@V12@D@Z 00427d45 f   libwt:DomElement.obj
 0001:00026d50       $L80007                    00427d50 f   libwt:DomElement.obj
 0001:00026d59       $L80008                    00427d59 f   libwt:DomElement.obj
 0001:00026d73       $L80011                    00427d73 f   libwt:DomElement.obj
 0001:00026d7c       __ehhandler$?createReference@DomElement@@QBE?AV?$basic_string@DU?$char_traits@D@std@@V?$allocator@D@2@@std@@XZ 00427d7c f   libwt:DomElement.obj
 0001:00026d90       $L82073                    00427d90 f   libwt:DomElement.obj
 0001:00026d99       $L82074                    00427d99 f   libwt:DomElement.obj
 0001:00026db2       __ehhandler$??$make_pair@V?$basic_string@DU?$char_traits@D@std@@V?$allocator@D@2@@std@@PAVDomElement@@@std@@YA?AU?$pair@V?$basic_string@DU?$char_traits@D@std@@V?$allocator@D@2@@std@@PAVDomElement@@@0@V?$basic_string@DU?$char_traits@D@std@@V?$allocator@D@2@@0@PAVDomElement@@@Z 00427db2 f   libwt:DomElement.obj
 0001:00026dc0       $L82089                    00427dc0 f   libwt:DomElement.obj
 0001:00026dc9       $L82090                    00427dc9 f   libwt:DomElement.obj
 0001:00026dd2       $L82095                    00427dd2 f   libwt:DomElement.obj
 0001:00026ddb       $L82091                    00427ddb f   libwt:DomElement.obj
 0001:00026df4       __ehhandler$??$make_pair@V?$basic_string@DU?$char_traits@D@std@@V?$allocator@D@2@@std@@V12@@std@@YA?AU?$pair@V?$basic_string@DU?$char_traits@D@std@@V?$allocator@D@2@@std@@V12@@0@V?$basic_string@DU?$char_traits@D@std@@V?$allocator@D@2@@0@0@Z 00427df4 f   libwt:DomElement.obj
 0001:00026e00       $L84729                    00427e00 f   libwt:DomElement.obj
 0001:00026e00       $L84173                    00427e00 f   libwt:DomElement.obj
 0001:00026e00       $L84451                    00427e00 f   libwt:DomElement.obj
 0001:00026e09       $L84471                    00427e09 f   libwt:DomElement.obj
 0001:00026e09       $L84749                    00427e09 f   libwt:DomElement.obj
 0001:00026e09       $L84193                    00427e09 f   libwt:DomElement.obj
 0001:00026e12       __ehhandler$?_Insert@?$_Tree@V?$_Tmap_traits@V?$basic_string@DU?$char_traits@D@std@@V?$allocator@D@2@@std@@V12@U?$less@V?$basic_string@DU?$char_traits@D@std@@V?$allocator@D@2@@std@@@2@V?$allocator@U?$pair@$$CBV?$basic_string@DU?$char_traits@D@std@@V?$allocator@D@2@@std@@V12@@std@@@2@$0A@@std@@@std@@IAE?AViterator@12@_NPAU_Node@?$_Tree_nod@V?$_Tmap_traits@V?$basic_string@DU?$char_traits@D@std@@V?$allocator@D@2@@std@@V12@U?$less@V?$basic_string@DU?$char_traits@D@std@@V?$allocator@D@2@@std@@@2@V?$allocator@U?$pair@$$CBV?$basic_string@DU?$char_traits@D@std@@V?$allocator@D@2@@std@@V12@@std@@@2@$0A@@std@@@2@ABU?$pair@$$CBV?$basic_string@DU?$char_traits@D@std@@V?$allocator@D@2@@std@@V12@@2@@Z 00427e12 f   libwt:DomElement.obj
 0001:00026e12       __ehhandler$?_Insert@?$_Tree@V?$_Tmap_traits@W4Property@Wt@@V?$basic_string@DU?$char_traits@D@std@@V?$allocator@D@2@@std@@U?$less@W4Property@Wt@@@4@V?$allocator@U?$pair@$$CBW4Property@Wt@@V?$basic_string@DU?$char_traits@D@std@@V?$allocator@D@2@@std@@@std@@@4@$0A@@std@@@std@@IAE?AViterator@12@_NPAU_Node@?$_Tree_nod@V?$_Tmap_traits@W4Property@Wt@@V?$basic_string@DU?$char_traits@D@std@@V?$allocator@D@2@@std@@U?$less@W4Property@Wt@@@4@V?$allocator@U?$pair@$$CBW4Property@Wt@@V?$basic_string@DU?$char_traits@D@std@@V?$allocator@D@2@@std@@@std@@@4@$0A@@std@@@2@ABU?$pair@$$CBW4Property@Wt@@V?$basic_string@DU?$char_traits@D@std@@V?$allocator@D@2@@std@@@2@@Z 00427e12 f   libwt:DomElement.obj
 0001:00026e12       __ehhandler$?_Insert@?$_Tree@V?$_Tmap_traits@V?$basic_string@DU?$char_traits@D@std@@V?$allocator@D@2@@std@@U?$pair@V?$basic_string@DU?$char_traits@D@std@@V?$allocator@D@2@@std@@V12@@2@U?$less@V?$basic_string@DU?$char_traits@D@std@@V?$allocator@D@2@@std@@@2@V?$allocator@U?$pair@$$CBV?$basic_string@DU?$char_traits@D@std@@V?$allocator@D@2@@std@@U?$pair@V?$basic_string@DU?$char_traits@D@std@@V?$allocator@D@2@@std@@V12@@2@@std@@@2@$0A@@std@@@std@@IAE?AViterator@12@_NPAU_Node@?$_Tree_nod@V?$_Tmap_traits@V?$basic_string@DU?$char_traits@D@std@@V?$allocator@D@2@@std@@U?$pair@V?$basic_string@DU?$char_traits@D@std@@V?$allocator@D@2@@std@@V12@@2@U?$less@V?$basic_string@DU?$char_traits@D@std@@V?$allocator@D@2@@std@@@2@V?$allocator@U?$pair@$$CBV?$basic_string@DU?$char_traits@D@std@@V?$allocator@D@2@@std@@U?$pair@V?$basic_string@DU?$char_traits@D@std@@V?$allocator@D@2@@std@@V12@@2@@std@@@2@$0A@@std@@@2@ABU?$pair@$$CBV?$basic_string@DU?$char_traits@D@std@@V?$allocator@D@2@@std@@U?$pair@V?$basic_string@DU?$char_traits@D@std@@V?$allocator@D@2@@std@@V12@@2@@2@@Z 00427e12 f   libwt:DomElement.obj
 0001:00026e20       $L85099                    00427e20 f   libwt:DomElement.obj
 0001:00026e31       __ehhandler$??$_Uninit_fill_n@PAU?$pair@V?$basic_string@DU?$char_traits@D@std@@V?$allocator@D@2@@std@@PAVDomElement@@@std@@IU12@V?$allocator@U?$pair@V?$basic_string@DU?$char_traits@D@std@@V?$allocator@D@2@@std@@PAVDomElement@@@std@@@2@@std@@YAXPAU?$pair@V?$basic_string@DU?$char_traits@D@std@@V?$allocator@D@2@@std@@PAVDomElement@@@0@IABU10@AAV?$allocator@U?$pair@V?$basic_string@DU?$char_traits@D@std@@V?$allocator@D@2@@std@@PAVDomElement@@@std@@@0@U_Nonscalar_ptr_iterator_tag@0@@Z 00427e31 f   libwt:DomElement.obj
 0001:00026e40       $L85280                    00427e40 f   libwt:DomElement.obj
 0001:00026e63       $L85282                    00427e63 f   libwt:DomElement.obj
 0001:00026e86       $L85286                    00427e86 f   libwt:DomElement.obj
 0001:00026e92       $L85287                    00427e92 f   libwt:DomElement.obj
 0001:00026e9e       $L85288                    00427e9e f   libwt:DomElement.obj
 0001:00026eaa       $L85289                    00427eaa f   libwt:DomElement.obj
 0001:00026eb6       $L85290                    00427eb6 f   libwt:DomElement.obj
 0001:00026ebf       $L85291                    00427ebf f   libwt:DomElement.obj
 0001:00026ec8       $L85292                    00427ec8 f   libwt:DomElement.obj
 0001:00026ed4       $L85294                    00427ed4 f   libwt:DomElement.obj
 0001:00026ee0       $L85295                    00427ee0 f   libwt:DomElement.obj
 0001:00026eec       $L85297                    00427eec f   libwt:DomElement.obj
 0001:00026ef8       $L85298                    00427ef8 f   libwt:DomElement.obj
 0001:00026f04       $L85300                    00427f04 f   libwt:DomElement.obj
 0001:00026f10       $L85301                    00427f10 f   libwt:DomElement.obj
 0001:00026f1c       $L85302                    00427f1c f   libwt:DomElement.obj
 0001:00026f28       $L85303                    00427f28 f   libwt:DomElement.obj
 0001:00026f34       $L85304                    00427f34 f   libwt:DomElement.obj
 0001:00026f40       $L85305                    00427f40 f   libwt:DomElement.obj
 0001:00026f4c       $L85307                    00427f4c f   libwt:DomElement.obj
 0001:00026f58       $L85308                    00427f58 f   libwt:DomElement.obj
 0001:00026f64       $L85309                    00427f64 f   libwt:DomElement.obj
 0001:00026f70       $L85310                    00427f70 f   libwt:DomElement.obj
 0001:00026f7c       $L85312                    00427f7c f   libwt:DomElement.obj
 0001:00026f88       $L85313                    00427f88 f   libwt:DomElement.obj
 0001:00026f94       $L85314                    00427f94 f   libwt:DomElement.obj
 0001:00026fa0       $L85315                    00427fa0 f   libwt:DomElement.obj
 0001:00026fac       $L85316                    00427fac f   libwt:DomElement.obj
 0001:00026fb8       $L85317                    00427fb8 f   libwt:DomElement.obj
 0001:00026fc1       $L85318                    00427fc1 f   libwt:DomElement.obj
 0001:00026fca       $L85319                    00427fca f   libwt:DomElement.obj
 0001:00026fd6       $L85320                    00427fd6 f   libwt:DomElement.obj
 0001:00026fe2       $L85321                    00427fe2 f   libwt:DomElement.obj
 0001:00026ff0       $L85322                    00427ff0 f   libwt:DomElement.obj
 0001:00026ffb       $L85323                    00427ffb f   libwt:DomElement.obj
 0001:00027006       $L85324                    00428006 f   libwt:DomElement.obj
 0001:00027011       $L85325                    00428011 f   libwt:DomElement.obj
 0001:0002701c       $L85326                    0042801c f   libwt:DomElement.obj
 0001:00027027       $L85327                    00428027 f   libwt:DomElement.obj
 0001:00027032       $L85328                    00428032 f   libwt:DomElement.obj
 0001:0002703d       $L85329                    0042803d f   libwt:DomElement.obj
 0001:00027048       $L85330                    00428048 f   libwt:DomElement.obj
 0001:00027053       $L85331                    00428053 f   libwt:DomElement.obj
 0001:0002705e       $L85332                    0042805e f   libwt:DomElement.obj
 0001:00027069       $L85333                    00428069 f   libwt:DomElement.obj
 0001:00027074       $L85334                    00428074 f   libwt:DomElement.obj
 0001:0002707f       $L85335                    0042807f f   libwt:DomElement.obj
 0001:0002708a       $L85336                    0042808a f   libwt:DomElement.obj
 0001:00027095       $L85337                    00428095 f   libwt:DomElement.obj
 0001:000270a0       $L85338                    004280a0 f   libwt:DomElement.obj
 0001:000270ab       $L85339                    004280ab f   libwt:DomElement.obj
 0001:000270b6       $L85340                    004280b6 f   libwt:DomElement.obj
 0001:000270c1       $L85341                    004280c1 f   libwt:DomElement.obj
 0001:000270cc       $L85342                    004280cc f   libwt:DomElement.obj
 0001:000270d7       $L85343                    004280d7 f   libwt:DomElement.obj
 0001:000270e2       $L85344                    004280e2 f   libwt:DomElement.obj
 0001:000270ed       $L85345                    004280ed f   libwt:DomElement.obj
 0001:000270f8       $L85346                    004280f8 f   libwt:DomElement.obj
 0001:00027103       $L85347                    00428103 f   libwt:DomElement.obj
 0001:0002710e       $L85348                    0042810e f   libwt:DomElement.obj
 0001:00027119       $L85349                    00428119 f   libwt:DomElement.obj
 0001:00027124       $L85350                    00428124 f   libwt:DomElement.obj
 0001:0002712f       $L85351                    0042812f f   libwt:DomElement.obj
 0001:0002713a       $L85352                    0042813a f   libwt:DomElement.obj
 0001:00027145       $L85353                    00428145 f   libwt:DomElement.obj
 0001:00027150       $L85354                    00428150 f   libwt:DomElement.obj
 0001:0002715b       $L85355                    0042815b f   libwt:DomElement.obj
 0001:00027166       $L85356                    00428166 f   libwt:DomElement.obj
 0001:00027171       $L85357                    00428171 f   libwt:DomElement.obj
 0001:0002717c       $L85359                    0042817c f   libwt:DomElement.obj
 0001:00027188       $L85360                    00428188 f   libwt:DomElement.obj
 0001:00027194       $L85361                    00428194 f   libwt:DomElement.obj
 0001:000271a0       $L85362                    004281a0 f   libwt:DomElement.obj
 0001:000271ac       $L85363                    004281ac f   libwt:DomElement.obj
 0001:000271b8       $L85364                    004281b8 f   libwt:DomElement.obj
 0001:000271c4       $L85365                    004281c4 f   libwt:DomElement.obj
 0001:000271d0       $L85366                    004281d0 f   libwt:DomElement.obj
 0001:000271dc       $L85367                    004281dc f   libwt:DomElement.obj
 0001:000271e8       $L85368                    004281e8 f   libwt:DomElement.obj
 0001:000271f4       $L85369                    004281f4 f   libwt:DomElement.obj
 0001:00027217       $L85371                    00428217 f   libwt:DomElement.obj
 0001:0002723a       $L85375                    0042823a f   libwt:DomElement.obj
 0001:00027246       $L85376                    00428246 f   libwt:DomElement.obj
 0001:00027252       $L85377                    00428252 f   libwt:DomElement.obj
 0001:0002725e       $L85378                    0042825e f   libwt:DomElement.obj
 0001:0002726a       $L85379                    0042826a f   libwt:DomElement.obj
 0001:00027276       $L85380                    00428276 f   libwt:DomElement.obj
 0001:00027282       $L85381                    00428282 f   libwt:DomElement.obj
 0001:0002728e       $L85382                    0042828e f   libwt:DomElement.obj
 0001:0002729a       $L85383                    0042829a f   libwt:DomElement.obj
 0001:000272ba       __ehhandler$?asHTML@DomElement@@QBE?AV?$basic_string@DU?$char_traits@D@std@@V?$allocator@D@2@@std@@XZ 004282ba f   libwt:DomElement.obj
 0001:000272d0       $L91431                    004282d0 f   libwt:DomElement.obj
 0001:000272d8       __ehhandler$?_Insert_n@?$vector@U?$pair@V?$basic_string@DU?$char_traits@D@std@@V?$allocator@D@2@@std@@PAVDomElement@@@std@@V?$allocator@U?$pair@V?$basic_string@DU?$char_traits@D@std@@V?$allocator@D@2@@std@@PAVDomElement@@@std@@@2@@std@@IAEXViterator@12@IABU?$pair@V?$basic_string@DU?$char_traits@D@std@@V?$allocator@D@2@@std@@PAVDomElement@@@2@@Z 004282d8 f   libwt:DomElement.obj
 0001:000272f0       $L91705                    004282f0 f   libwt:DomElement.obj
 0001:000272f9       $L91706                    004282f9 f   libwt:DomElement.obj
 0001:00027301       __ehhandler$??A?$map@V?$basic_string@DU?$char_traits@D@std@@V?$allocator@D@2@@std@@V12@U?$less@V?$basic_string@DU?$char_traits@D@std@@V?$allocator@D@2@@std@@@2@V?$allocator@U?$pair@$$CBV?$basic_string@DU?$char_traits@D@std@@V?$allocator@D@2@@std@@V12@@std@@@2@@std@@QAEAAV?$basic_string@DU?$char_traits@D@std@@V?$allocator@D@2@@1@ABV21@@Z 00428301 f   libwt:DomElement.obj
 0001:00027310       $L91790                    00428310 f   libwt:DomElement.obj
 0001:00027319       $L91791                    00428319 f   libwt:DomElement.obj
 0001:00027321       __ehhandler$??A?$map@W4Property@Wt@@V?$basic_string@DU?$char_traits@D@std@@V?$allocator@D@2@@std@@U?$less@W4Property@Wt@@@4@V?$allocator@U?$pair@$$CBW4Property@Wt@@V?$basic_string@DU?$char_traits@D@std@@V?$allocator@D@2@@std@@@std@@@4@@std@@QAEAAV?$basic_string@DU?$char_traits@D@std@@V?$allocator@D@2@@1@ABW4Property@Wt@@@Z 00428321 f   libwt:DomElement.obj
 0001:00027330       $L92027                    00428330 f   libwt:DomElement.obj
 0001:0002733c       $L91969                    0042833c f   libwt:DomElement.obj
 0001:00027347       $L91970                    00428347 f   libwt:DomElement.obj
 0001:0002734f       __ehhandler$??A?$map@V?$basic_string@DU?$char_traits@D@std@@V?$allocator@D@2@@std@@U?$pair@V?$basic_string@DU?$char_traits@D@std@@V?$allocator@D@2@@std@@V12@@2@U?$less@V?$basic_string@DU?$char_traits@D@std@@V?$allocator@D@2@@std@@@2@V?$allocator@U?$pair@$$CBV?$basic_string@DU?$char_traits@D@std@@V?$allocator@D@2@@std@@U?$pair@V?$basic_string@DU?$char_traits@D@std@@V?$allocator@D@2@@std@@V12@@2@@std@@@2@@std@@QAEAAU?$pair@V?$basic_string@DU?$char_traits@D@std@@V?$allocator@D@2@@std@@V12@@1@ABV?$basic_string@DU?$char_traits@D@std@@V?$allocator@D@2@@1@@Z 0042834f f   libwt:DomElement.obj
 0001:00027360       $L93859                    00428360 f   libwt:DomElement.obj
 0001:00027360       $L93926                    00428360 f   libwt:DomElement.obj
 0001:00027369       $L93927                    00428369 f   libwt:DomElement.obj
 0001:00027369       $L93860                    00428369 f   libwt:DomElement.obj
 0001:00027372       __ehhandler$?addEvent@DomElement@@QAEXV?$basic_string@DU?$char_traits@D@std@@V?$allocator@D@2@@std@@0@Z 00428372 f   libwt:DomElement.obj
 0001:00027372       __ehhandler$?setAttribute@DomElement@@QAEXV?$basic_string@DU?$char_traits@D@std@@V?$allocator@D@2@@std@@0@Z 00428372 f   libwt:DomElement.obj
 0001:00027380       $L93901                    00428380 f   libwt:DomElement.obj
 0001:00027389       $L93902                    00428389 f   libwt:DomElement.obj
 0001:00027392       $L93903                    00428392 f   libwt:DomElement.obj
 0001:0002739b       $L93904                    0042839b f   libwt:DomElement.obj
 0001:000273a4       $L93906                    004283a4 f   libwt:DomElement.obj
 0001:000273ac       $L93913                    004283ac f   libwt:DomElement.obj
 0001:000273b5       __ehhandler$?setEvent@DomElement@@QAEXV?$basic_string@DU?$char_traits@D@std@@V?$allocator@D@2@@std@@0@Z 004283b5 f   libwt:DomElement.obj
 0001:000273c0       $L93952                    004283c0 f   libwt:DomElement.obj
 0001:000273c9       $L93953                    004283c9 f   libwt:DomElement.obj
 0001:000273d2       $L93954                    004283d2 f   libwt:DomElement.obj
 0001:000273db       $L93955                    004283db f   libwt:DomElement.obj
 0001:000273e7       $L93956                    004283e7 f   libwt:DomElement.obj
 0001:000273f3       $L93957                    004283f3 f   libwt:DomElement.obj
 0001:000273ff       $L93958                    004283ff f   libwt:DomElement.obj
 0001:0002740b       $L93959                    0042840b f   libwt:DomElement.obj
 0001:00027417       $L93962                    00428417 f   libwt:DomElement.obj
 0001:00027423       $L93963                    00428423 f   libwt:DomElement.obj
 0001:0002742f       $L93960                    0042842f f   libwt:DomElement.obj
 0001:00027438       $L93961                    00428438 f   libwt:DomElement.obj
 0001:00027444       $L93964                    00428444 f   libwt:DomElement.obj
 0001:0002744d       $L93965                    0042844d f   libwt:DomElement.obj
 0001:00027459       $L93966                    00428459 f   libwt:DomElement.obj
 0001:00027465       $L93967                    00428465 f   libwt:DomElement.obj
 0001:00027471       $L93968                    00428471 f   libwt:DomElement.obj
 0001:0002747a       $L93969                    0042847a f   libwt:DomElement.obj
 0001:00027483       __ehhandler$?addEventSignal@DomElement@@QAEXV?$basic_string@DU?$char_traits@D@std@@V?$allocator@D@2@@std@@ABVWSignalInstance_@@PBD2@Z 00428483 f   libwt:DomElement.obj
 0001:00027490       $L93981                    00428490 f   libwt:DomElement.obj
 0001:00027499       __ehhandler$?setProperty@DomElement@@QAEXW4Property@Wt@@V?$basic_string@DU?$char_traits@D@std@@V?$allocator@D@2@@std@@@Z 00428499 f   libwt:DomElement.obj
 0001:000274b0       $L93992                    004284b0 f   libwt:DomElement.obj
 0001:000274b9       $L93993                    004284b9 f   libwt:DomElement.obj
 0001:000274c2       __ehhandler$?setId@DomElement@@QAEXV?$basic_string@DU?$char_traits@D@std@@V?$allocator@D@2@@std@@_N@Z 004284c2 f   libwt:DomElement.obj
 0001:000274d0       $L95751                    004284d0 f   libwt:DomElement.obj
 0001:000274dc       $L95752                    004284dc f   libwt:DomElement.obj
 0001:000274e7       $L95753                    004284e7 f   libwt:DomElement.obj
 0001:000274f2       $L95754                    004284f2 f   libwt:DomElement.obj
 0001:000274fd       $L95755                    004284fd f   libwt:DomElement.obj
 0001:00027508       __ehhandler$??1DomElement@@QAE@XZ 00428508 f   libwt:DomElement.obj
 0001:00027520       $L96491                    00428520 f   libwt:DomElement.obj
 0001:00027529       $L96493                    00428529 f   libwt:DomElement.obj
 0001:00027531       __ehhandler$?addChild@DomElement@@QAEXPAV1@@Z 00428531 f   libwt:DomElement.obj
 0001:00027540       $L96512                    00428540 f   libwt:DomElement.obj
 0001:00027540       $L93873                    00428540 f   libwt:DomElement.obj
 0001:00027549       $L93874                    00428549 f   libwt:DomElement.obj
 0001:00027549       $L96513                    00428549 f   libwt:DomElement.obj
 0001:00027552       $L96514                    00428552 f   libwt:DomElement.obj
 0001:00027552       $L93875                    00428552 f   libwt:DomElement.obj
 0001:0002755b       $L93877                    0042855b f   libwt:DomElement.obj
 0001:0002755b       $L96516                    0042855b f   libwt:DomElement.obj
 0001:00027563       $L96524                    00428563 f   libwt:DomElement.obj
 0001:00027563       $L93884                    00428563 f   libwt:DomElement.obj
 0001:0002756c       __ehhandler$?removeEventSignal@DomElement@@QAEXV?$basic_string@DU?$char_traits@D@std@@V?$allocator@D@2@@std@@@Z 0042856c f   libwt:DomElement.obj
 0001:0002756c       __ehhandler$?setEventSignal@DomElement@@QAEXV?$basic_string@DU?$char_traits@D@std@@V?$allocator@D@2@@std@@ABVWSignalInstance_@@PBD2@Z 0042856c f   libwt:DomElement.obj
 0001:00027580       $L97353                    00428580 f   libwt:DomElement.obj
 0001:0002758c       $L97354                    0042858c f   libwt:DomElement.obj
 0001:00027597       $L97355                    00428597 f   libwt:DomElement.obj
 0001:000275a2       $L97356                    004285a2 f   libwt:DomElement.obj
 0001:000275ad       __ehhandler$??0DomElement@@AAE@W4Mode@0@W4ElementType@0@@Z 004285ad f   libwt:DomElement.obj
 0001:000275c0       $L98088                    004285c0 f   libwt:DomElement.obj
 0001:000275cb       __ehhandler$?createNew@DomElement@@SAPAV1@W4ElementType@1@@Z 004285cb f   libwt:DomElement.obj
 0001:000275e0       $L98102                    004285e0 f   libwt:DomElement.obj
 0001:000275e9       $L98103                    004285e9 f   libwt:DomElement.obj
 0001:000275f4       __ehhandler$?getForUpdate@DomElement@@SAPAV1@V?$basic_string@DU?$char_traits@D@std@@V?$allocator@D@2@@std@@W4ElementType@1@@Z 004285f4 f   libwt:DomElement.obj
 0001:00027600       $L98270                    00428600 f   libwt:DomElement.obj
 0001:00027608       $L98271                    00428608 f   libwt:DomElement.obj
 0001:00027614       $L98272                    00428614 f   libwt:DomElement.obj
 0001:0002761d       $L98274                    0042861d f   libwt:DomElement.obj
 0001:0002763c       $L98277                    0042863c f   libwt:DomElement.obj
 0001:00027645       $L98279                    00428645 f   libwt:DomElement.obj
 0001:0002764e       $L98282                    0042864e f   libwt:DomElement.obj
 0001:00027656       $L98283                    00428656 f   libwt:DomElement.obj
 0001:00027662       $L98284                    00428662 f   libwt:DomElement.obj
 0001:0002766e       $L98285                    0042866e f   libwt:DomElement.obj
 0001:0002767a       $L98286                    0042867a f   libwt:DomElement.obj
 0001:00027683       $L98288                    00428683 f   libwt:DomElement.obj
 0001:0002768e       $L98289                    0042868e f   libwt:DomElement.obj
 0001:0002769a       $L98290                    0042869a f   libwt:DomElement.obj
 0001:000276a6       $L98291                    004286a6 f   libwt:DomElement.obj
 0001:000276b2       $L98292                    004286b2 f   libwt:DomElement.obj
 0001:000276bb       $L98293                    004286bb f   libwt:DomElement.obj
 0001:000276c7       $L98294                    004286c7 f   libwt:DomElement.obj
 0001:000276d3       $L98295                    004286d3 f   libwt:DomElement.obj
 0001:000276dc       $L98297                    004286dc f   libwt:DomElement.obj
 0001:000276e7       $L98298                    004286e7 f   libwt:DomElement.obj
 0001:000276f3       $L98299                    004286f3 f   libwt:DomElement.obj
 0001:000276ff       $L98300                    004286ff f   libwt:DomElement.obj
 0001:00027708       $L98301                    00428708 f   libwt:DomElement.obj
 0001:00027711       $L98302                    00428711 f   libwt:DomElement.obj
 0001:0002771d       $L98303                    0042871d f   libwt:DomElement.obj
 0001:00027729       $L98304                    00428729 f   libwt:DomElement.obj
 0001:00027735       $L98306                    00428735 f   libwt:DomElement.obj
 0001:00027741       $L98307                    00428741 f   libwt:DomElement.obj
 0001:0002774d       $L98309                    0042874d f   libwt:DomElement.obj
 0001:00027756       $L98310                    00428756 f   libwt:DomElement.obj
 0001:0002775f       $L98311                    0042875f f   libwt:DomElement.obj
 0001:0002776b       $L98312                    0042876b f   libwt:DomElement.obj
 0001:00027777       $L98313                    00428777 f   libwt:DomElement.obj
 0001:00027783       $L98316                    00428783 f   libwt:DomElement.obj
 0001:0002778e       $L98317                    0042878e f   libwt:DomElement.obj
 0001:0002779a       $L98318                    0042879a f   libwt:DomElement.obj
 0001:000277a6       $L98319                    004287a6 f   libwt:DomElement.obj
 0001:000277b2       $L98321                    004287b2 f   libwt:DomElement.obj
 0001:000277be       $L98322                    004287be f   libwt:DomElement.obj
 0001:000277ca       $L98324                    004287ca f   libwt:DomElement.obj
 0001:000277d6       $L98325                    004287d6 f   libwt:DomElement.obj
 0001:000277e2       $L98327                    004287e2 f   libwt:DomElement.obj
 0001:000277ee       $L98328                    004287ee f   libwt:DomElement.obj
 0001:000277fa       $L98329                    004287fa f   libwt:DomElement.obj
 0001:00027806       $L98330                    00428806 f   libwt:DomElement.obj
 0001:00027812       $L98331                    00428812 f   libwt:DomElement.obj
 0001:0002781b       $L98332                    0042881b f   libwt:DomElement.obj
 0001:00027824       $L98334                    00428824 f   libwt:DomElement.obj
 0001:00027830       $L98336                    00428830 f   libwt:DomElement.obj
 0001:0002783c       $L98337                    0042883c f   libwt:DomElement.obj
 0001:00027848       $L98338                    00428848 f   libwt:DomElement.obj
 0001:00027854       $L98339                    00428854 f   libwt:DomElement.obj
 0001:00027860       $L98340                    00428860 f   libwt:DomElement.obj
 0001:0002786c       $L98341                    0042886c f   libwt:DomElement.obj
 0001:00027878       $L98343                    00428878 f   libwt:DomElement.obj
 0001:00027884       $L98344                    00428884 f   libwt:DomElement.obj
 0001:00027890       $L98345                    00428890 f   libwt:DomElement.obj
 0001:0002789c       $L98347                    0042889c f   libwt:DomElement.obj
 0001:000278a8       $L98348                    004288a8 f   libwt:DomElement.obj
 0001:000278b4       $L98349                    004288b4 f   libwt:DomElement.obj
 0001:000278c0       $L98350                    004288c0 f   libwt:DomElement.obj
 0001:000278cc       $L98352                    004288cc f   libwt:DomElement.obj
 0001:000278d8       $L98353                    004288d8 f   libwt:DomElement.obj
 0001:000278e4       $L98354                    004288e4 f   libwt:DomElement.obj
 0001:000278f0       $L98355                    004288f0 f   libwt:DomElement.obj
 0001:000278fc       $L98356                    004288fc f   libwt:DomElement.obj
 0001:00027908       $L98358                    00428908 f   libwt:DomElement.obj
 0001:00027914       $L98359                    00428914 f   libwt:DomElement.obj
 0001:00027920       $L98361                    00428920 f   libwt:DomElement.obj
 0001:0002792c       $L98362                    0042892c f   libwt:DomElement.obj
 0001:00027938       $L98364                    00428938 f   libwt:DomElement.obj
 0001:00027944       $L98365                    00428944 f   libwt:DomElement.obj
 0001:00027950       $L98367                    00428950 f   libwt:DomElement.obj
 0001:0002795c       $L98368                    0042895c f   libwt:DomElement.obj
 0001:00027968       $L98369                    00428968 f   libwt:DomElement.obj
 0001:00027974       $L98370                    00428974 f   libwt:DomElement.obj
 0001:00027980       $L98389                    00428980 f   libwt:DomElement.obj
 0001:0002798c       $L98390                    0042898c f   libwt:DomElement.obj
 0001:00027998       $L98391                    00428998 f   libwt:DomElement.obj
 0001:000279a4       $L98392                    004289a4 f   libwt:DomElement.obj
 0001:000279ad       $L98393                    004289ad f   libwt:DomElement.obj
 0001:000279b9       $L98372                    004289b9 f   libwt:DomElement.obj
 0001:000279c4       $L98375                    004289c4 f   libwt:DomElement.obj
 0001:000279cf       $L98376                    004289cf f   libwt:DomElement.obj
 0001:000279db       $L98377                    004289db f   libwt:DomElement.obj
 0001:000279e7       $L98378                    004289e7 f   libwt:DomElement.obj
 0001:000279f3       $L98379                    004289f3 f   libwt:DomElement.obj
 0001:000279ff       $L98380                    004289ff f   libwt:DomElement.obj
 0001:00027a0b       $L98381                    00428a0b f   libwt:DomElement.obj
 0001:00027a17       $L98382                    00428a17 f   libwt:DomElement.obj
 0001:00027a23       $L98384                    00428a23 f   libwt:DomElement.obj
 0001:00027a2f       $L98385                    00428a2f f   libwt:DomElement.obj
 0001:00027a3b       $L98386                    00428a3b f   libwt:DomElement.obj
 0001:00027a47       $L98387                    00428a47 f   libwt:DomElement.obj
 0001:00027a53       $L98394                    00428a53 f   libwt:DomElement.obj
 0001:00027a5f       $L98396                    00428a5f f   libwt:DomElement.obj
 0001:00027a6b       $L98397                    00428a6b f   libwt:DomElement.obj
 0001:00027a77       $L98399                    00428a77 f   libwt:DomElement.obj
 0001:00027a83       $L98400                    00428a83 f   libwt:DomElement.obj
 0001:00027a8f       $L98402                    00428a8f f   libwt:DomElement.obj
 0001:00027a9b       $L98403                    00428a9b f   libwt:DomElement.obj
 0001:00027aa7       $L98404                    00428aa7 f   libwt:DomElement.obj
 0001:00027ab3       $L98405                    00428ab3 f   libwt:DomElement.obj
 0001:00027abf       $L98407                    00428abf f   libwt:DomElement.obj
 0001:00027acb       $L98408                    00428acb f   libwt:DomElement.obj
 0001:00027ad7       $L98410                    00428ad7 f   libwt:DomElement.obj
 0001:00027ae3       $L98411                    00428ae3 f   libwt:DomElement.obj
 0001:00027aef       $L98413                    00428aef f   libwt:DomElement.obj
 0001:00027afb       $L98414                    00428afb f   libwt:DomElement.obj
 0001:00027b07       $L98415                    00428b07 f   libwt:DomElement.obj
 0001:00027b13       $L98416                    00428b13 f   libwt:DomElement.obj
 0001:00027b1f       $L98417                    00428b1f f   libwt:DomElement.obj
 0001:00027b2b       $L98418                    00428b2b f   libwt:DomElement.obj
 0001:00027b39       $L98419                    00428b39 f   libwt:DomElement.obj
 0001:00027b44       $L98420                    00428b44 f   libwt:DomElement.obj
 0001:00027b4f       $L98421                    00428b4f f   libwt:DomElement.obj
 0001:00027b5a       $L98422                    00428b5a f   libwt:DomElement.obj
 0001:00027b65       $L98423                    00428b65 f   libwt:DomElement.obj
 0001:00027b70       $L98424                    00428b70 f   libwt:DomElement.obj
 0001:00027b7b       $L98425                    00428b7b f   libwt:DomElement.obj
 0001:00027b86       $L98426                    00428b86 f   libwt:DomElement.obj
 0001:00027b91       $L98427                    00428b91 f   libwt:DomElement.obj
 0001:00027b9c       $L98428                    00428b9c f   libwt:DomElement.obj
 0001:00027ba7       $L98429                    00428ba7 f   libwt:DomElement.obj
 0001:00027bb2       $L98430                    00428bb2 f   libwt:DomElement.obj
 0001:00027bbd       $L98431                    00428bbd f   libwt:DomElement.obj
 0001:00027bc8       $L98432                    00428bc8 f   libwt:DomElement.obj
 0001:00027bd3       $L98433                    00428bd3 f   libwt:DomElement.obj
 0001:00027bde       $L98434                    00428bde f   libwt:DomElement.obj
 0001:00027be9       $L98435                    00428be9 f   libwt:DomElement.obj
 0001:00027bf4       $L98436                    00428bf4 f   libwt:DomElement.obj
 0001:00027bff       $L98437                    00428bff f   libwt:DomElement.obj
 0001:00027c0a       $L98438                    00428c0a f   libwt:DomElement.obj
 0001:00027c15       $L98439                    00428c15 f   libwt:DomElement.obj
 0001:00027c20       $L98440                    00428c20 f   libwt:DomElement.obj
 0001:00027c2b       $L98441                    00428c2b f   libwt:DomElement.obj
 0001:00027c36       $L98442                    00428c36 f   libwt:DomElement.obj
 0001:00027c41       $L98443                    00428c41 f   libwt:DomElement.obj
 0001:00027c4c       $L98444                    00428c4c f   libwt:DomElement.obj
 0001:00027c57       $L98445                    00428c57 f   libwt:DomElement.obj
 0001:00027c62       $L98446                    00428c62 f   libwt:DomElement.obj
 0001:00027c6d       $L98447                    00428c6d f   libwt:DomElement.obj
 0001:00027c78       $L98448                    00428c78 f   libwt:DomElement.obj
 0001:00027c83       $L98449                    00428c83 f   libwt:DomElement.obj
 0001:00027c8e       $L98450                    00428c8e f   libwt:DomElement.obj
 0001:00027c99       $L98451                    00428c99 f   libwt:DomElement.obj
 0001:00027ca4       $L98452                    00428ca4 f   libwt:DomElement.obj
 0001:00027caf       $L98453                    00428caf f   libwt:DomElement.obj
 0001:00027cba       $L98454                    00428cba f   libwt:DomElement.obj
 0001:00027cc5       $L98456                    00428cc5 f   libwt:DomElement.obj
 0001:00027cce       $L98457                    00428cce f   libwt:DomElement.obj
 0001:00027cda       $L98458                    00428cda f   libwt:DomElement.obj
 0001:00027ce6       $L98459                    00428ce6 f   libwt:DomElement.obj
 0001:00027cf2       $L98460                    00428cf2 f   libwt:DomElement.obj
 0001:00027cfe       $L98461                    00428cfe f   libwt:DomElement.obj
 0001:00027d0a       $L98462                    00428d0a f   libwt:DomElement.obj
 0001:00027d16       $L98463                    00428d16 f   libwt:DomElement.obj
 0001:00027d22       __ehhandler$?createJSStatements@DomElement@@QBE?AVJSVar@@AAVJavaScript@@@Z 00428d22 f   libwt:DomElement.obj
 0001:00027d30       $L99550                    00428d30 f   libwt:DomElement.obj
 0001:00027d3b       $L99551                    00428d3b f   libwt:DomElement.obj
 0001:00027d46       $L99552                    00428d46 f   libwt:DomElement.obj
 0001:00027d51       $L99553                    00428d51 f   libwt:DomElement.obj
 0001:00027d5c       $L99554                    00428d5c f   libwt:DomElement.obj
 0001:00027d67       $L99555                    00428d67 f   libwt:DomElement.obj
 0001:00027d72       $L99556                    00428d72 f   libwt:DomElement.obj
 0001:00027d7d       $L99557                    00428d7d f   libwt:DomElement.obj
 0001:00027d88       $L99558                    00428d88 f   libwt:DomElement.obj
 0001:00027d93       $L99559                    00428d93 f   libwt:DomElement.obj
 0001:00027d9e       $L99560                    00428d9e f   libwt:DomElement.obj
 0001:00027da9       $L99561                    00428da9 f   libwt:DomElement.obj
 0001:00027db4       $L99562                    00428db4 f   libwt:DomElement.obj
 0001:00027dbf       $L99563                    00428dbf f   libwt:DomElement.obj
 0001:00027dca       $L99564                    00428dca f   libwt:DomElement.obj
 0001:00027dd5       $L99565                    00428dd5 f   libwt:DomElement.obj
 0001:00027de0       $L99566                    00428de0 f   libwt:DomElement.obj
 0001:00027deb       $L99567                    00428deb f   libwt:DomElement.obj
 0001:00027df6       $L99568                    00428df6 f   libwt:DomElement.obj
 0001:00027e01       $L99569                    00428e01 f   libwt:DomElement.obj
 0001:00027e0c       $L99570                    00428e0c f   libwt:DomElement.obj
 0001:00027e17       $L99571                    00428e17 f   libwt:DomElement.obj
 0001:00027e22       $L99572                    00428e22 f   libwt:DomElement.obj
 0001:00027e2d       $L99573                    00428e2d f   libwt:DomElement.obj
 0001:00027e38       $L99574                    00428e38 f   libwt:DomElement.obj
 0001:00027e43       $L99575                    00428e43 f   libwt:DomElement.obj
 0001:00027e4e       $L99576                    00428e4e f   libwt:DomElement.obj
 0001:00027e59       $L99577                    00428e59 f   libwt:DomElement.obj
 0001:00027e64       __ehhandler$_$E3           00428e64 f   libwt:DomElement.obj
 0001:00027e70       $L20495                    00428e70 f   libwt:WMessage.obj
 0001:00027e79       __ehhandler$??0WMessage@@QAE@V?$basic_string@DU?$char_traits@D@std@@V?$allocator@D@2@@std@@@Z 00428e79 f   libwt:WMessage.obj
 0001:00027e90       $L39676                    00428e90 f   libwt:WResource.obj
 0001:00027e98       __ehhandler$??1WResource@@UAE@XZ 00428e98 f   libwt:WResource.obj
 0001:00027eb0       $L39686                    00428eb0 f   libwt:WResource.obj
 0001:00027eb9       __ehhandler$?decodeResource@WResource@@KAPAV1@V?$basic_string@DU?$char_traits@D@std@@V?$allocator@D@2@@std@@@Z 00428eb9 f   libwt:WResource.obj
 0001:00027ed0       $L44192                    00428ed0 f   libwt:WResource.obj
 0001:00027ed9       $L44193                    00428ed9 f   libwt:WResource.obj
 0001:00027ee2       $L44194                    00428ee2 f   libwt:WResource.obj
 0001:00027eee       $L44195                    00428eee f   libwt:WResource.obj
 0001:00027efa       $L44196                    00428efa f   libwt:WResource.obj
 0001:00027f06       $L44197                    00428f06 f   libwt:WResource.obj
 0001:00027f0f       $L44198                    00428f0f f   libwt:WResource.obj
 0001:00027f2f       __ehhandler$?generateUrl@WResource@@QBE?BV?$basic_string@DU?$char_traits@D@std@@V?$allocator@D@2@@std@@XZ 00428f2f f   libwt:WResource.obj
 0001:00027f40       $L50198                    00428f40 f   libwt:WResource.obj
 0001:00027f40       $L50171                    00428f40 f   libwt:WResource.obj
 0001:00027f4b       $L50172                    00428f4b f   libwt:WResource.obj
 0001:00027f4b       $L50199                    00428f4b f   libwt:WResource.obj
 0001:00027f54       __ehhandler$?buildSlotMap@WResource@@MAEXAAV?$map@V?$basic_string@DU?$char_traits@D@std@@V?$allocator@D@2@@std@@PAVWSlotInstance_@@U?$less@V?$basic_string@DU?$char_traits@D@std@@V?$allocator@D@2@@std@@@2@V?$allocator@U?$pair@$$CBV?$basic_string@DU?$char_traits@D@std@@V?$allocator@D@2@@std@@PAVWSlotInstance_@@@std@@@2@@std@@@Z 00428f54 f   libwt:WResource.obj
 0001:00027f54       __ehhandler$?buildSignalMap@WResource@@MAEXAAV?$map@V?$basic_string@DU?$char_traits@D@std@@V?$allocator@D@2@@std@@PAVWSignalInstance_@@U?$less@V?$basic_string@DU?$char_traits@D@std@@V?$allocator@D@2@@std@@@2@V?$allocator@U?$pair@$$CBV?$basic_string@DU?$char_traits@D@std@@V?$allocator@D@2@@std@@PAVWSignalInstance_@@@std@@@2@@std@@@Z 00428f54 f   libwt:WResource.obj
 0001:00027f60       $L50781                    00428f60 f   libwt:WResource.obj
 0001:00027f68       $L50782                    00428f68 f   libwt:WResource.obj
 0001:00027f72       __ehhandler$_$E4           00428f72 f   libwt:WResource.obj
 0001:00027f80       $L26423                    00428f80 f   libwt:WLabel.obj
 0001:00027f89       $L26424                    00428f89 f   libwt:WLabel.obj
 0001:00027f91       $L26425                    00428f91 f   libwt:WLabel.obj
 0001:00027f9c       __ehhandler$??0WLabel@@QAE@V?$basic_string@DU?$char_traits@D@std@@V?$allocator@D@2@@std@@PAVWContainerWidget@@@Z 00428f9c f   libwt:WLabel.obj
 0001:00027fb0       $L26439                    00428fb0 f   libwt:WLabel.obj
 0001:00027fb8       $L26440                    00428fb8 f   libwt:WLabel.obj
 0001:00027fc3       __ehhandler$??0WLabel@@QAE@ABVWMessage@@PAVWContainerWidget@@@Z 00428fc3 f   libwt:WLabel.obj
 0001:00027fd0       $L26466                    00428fd0 f   libwt:WLabel.obj
 0001:00027fd9       $L26467                    00428fd9 f   libwt:WLabel.obj
 0001:00027fe4       __ehhandler$?setText@WLabel@@QAEXV?$basic_string@DU?$char_traits@D@std@@V?$allocator@D@2@@std@@@Z 00428fe4 f   libwt:WLabel.obj
 0001:00027ff0       $L26492                    00428ff0 f   libwt:WLabel.obj
 0001:00027ff9       __ehhandler$?updateDom@WLabel@@MAEXAAVDomElement@@_N@Z 00428ff9 f   libwt:WLabel.obj
 0001:00028010       $L26449                    00429010 f   libwt:WLabel.obj
 0001:00028010       $L28366                    00429010 f   libwt:WLabel.obj
 0001:00028018       __ehhandler$??0WLabel@@QAE@PAVWImage@@PAVWContainerWidget@@@Z 00429018 f   libwt:WLabel.obj
 0001:00028018       __ehhandler$??1WLabel@@UAE@XZ 00429018 f   libwt:WLabel.obj
 0001:00028030       $L38484                    00429030 f   libwt:WLabel.obj
 0001:00028030       $L38511                    00429030 f   libwt:WLabel.obj
 0001:0002803b       $L38512                    0042903b f   libwt:WLabel.obj
 0001:0002803b       $L38485                    0042903b f   libwt:WLabel.obj
 0001:00028044       __ehhandler$?buildSignalMap@WLabel@@MAEXAAV?$map@V?$basic_string@DU?$char_traits@D@std@@V?$allocator@D@2@@std@@PAVWSignalInstance_@@U?$less@V?$basic_string@DU?$char_traits@D@std@@V?$allocator@D@2@@std@@@2@V?$allocator@U?$pair@$$CBV?$basic_string@DU?$char_traits@D@std@@V?$allocator@D@2@@std@@PAVWSignalInstance_@@@std@@@2@@std@@@Z 00429044 f   libwt:WLabel.obj
 0001:00028044       __ehhandler$?buildSlotMap@WLabel@@MAEXAAV?$map@V?$basic_string@DU?$char_traits@D@std@@V?$allocator@D@2@@std@@PAVWSlotInstance_@@U?$less@V?$basic_string@DU?$char_traits@D@std@@V?$allocator@D@2@@std@@@2@V?$allocator@U?$pair@$$CBV?$basic_string@DU?$char_traits@D@std@@V?$allocator@D@2@@std@@PAVWSlotInstance_@@@std@@@2@@std@@@Z 00429044 f   libwt:WLabel.obj
 0001:00028050       $L33064                    00429050 f   libwt:WScrollBar.obj
 0001:00028059       $L33065                    00429059 f   libwt:WScrollBar.obj
 0001:00028065       $L33066                    00429065 f   libwt:WScrollBar.obj
 0001:0002806e       $L33067                    0042906e f   libwt:WScrollBar.obj
 0001:00028077       $L33068                    00429077 f   libwt:WScrollBar.obj
 0001:00028083       $L33069                    00429083 f   libwt:WScrollBar.obj
 0001:0002808f       $L33070                    0042908f f   libwt:WScrollBar.obj
 0001:0002809b       $L33071                    0042909b f   libwt:WScrollBar.obj
 0001:000280a7       $L33072                    004290a7 f   libwt:WScrollBar.obj
 0001:000280b3       $L33073                    004290b3 f   libwt:WScrollBar.obj
 0001:000280bc       $L33074                    004290bc f   libwt:WScrollBar.obj
 0001:000280c8       __ehhandler$?updateDom@WScrollBar@@AAEXAAVDomElement@@_N@Z 004290c8 f   libwt:WScrollBar.obj
 0001:000280e0       $L34616                    004290e0 f   libwt:WScrollBar.obj
 0001:000280e8       __ehhandler$??0WScrollBar@@AAE@PAVWScrollArea@@W4Orientation@0@@Z 004290e8 f   libwt:WScrollBar.obj
 0001:00028100       $L36771                    00429100 f   libwt:WScrollBar.obj
 0001:00028108       $L36772                    00429108 f   libwt:WScrollBar.obj
 0001:00028113       __ehhandler$??1WScrollBar@@EAE@XZ 00429113 f   libwt:WScrollBar.obj
 0001:00028120       $L41027                    00429120 f   libwt:WScrollBar.obj
 0001:00028120       $L41000                    00429120 f   libwt:WScrollBar.obj
 0001:0002812b       $L41001                    0042912b f   libwt:WScrollBar.obj
 0001:0002812b       $L41028                    0042912b f   libwt:WScrollBar.obj
 0001:00028134       __ehhandler$?buildSignalMap@WScrollBar@@MAEXAAV?$map@V?$basic_string@DU?$char_traits@D@std@@V?$allocator@D@2@@std@@PAVWSignalInstance_@@U?$less@V?$basic_string@DU?$char_traits@D@std@@V?$allocator@D@2@@std@@@2@V?$allocator@U?$pair@$$CBV?$basic_string@DU?$char_traits@D@std@@V?$allocator@D@2@@std@@PAVWSignalInstance_@@@std@@@2@@std@@@Z 00429134 f   libwt:WScrollBar.obj
 0001:00028134       __ehhandler$?buildSlotMap@WScrollBar@@MAEXAAV?$map@V?$basic_string@DU?$char_traits@D@std@@V?$allocator@D@2@@std@@PAVWSlotInstance_@@U?$less@V?$basic_string@DU?$char_traits@D@std@@V?$allocator@D@2@@std@@@2@V?$allocator@U?$pair@$$CBV?$basic_string@DU?$char_traits@D@std@@V?$allocator@D@2@@std@@PAVWSlotInstance_@@@std@@@2@@std@@@Z 00429134 f   libwt:WScrollBar.obj
 0001:00028140       $L43619                    00429140 f   libwt:WScrollBar.obj
 0001:00028148       $L43620                    00429148 f   libwt:WScrollBar.obj
 0001:00028152       __ehhandler$_$E3           00429152 f   libwt:WScrollBar.obj
 0001:00028160       $L20654                    00429160 f   libwt:WMessageResourceBundle.obj
 0001:00028169       $L20655                    00429169 f   libwt:WMessageResourceBundle.obj
 0001:00028183       $L20658                    00429183 f   libwt:WMessageResourceBundle.obj
 0001:0002818c       $L20659                    0042918c f   libwt:WMessageResourceBundle.obj
 0001:00028195       __ehhandler$?getValue@WMessageResourceBundle@@QBE?AV?$basic_string@DU?$char_traits@D@std@@V?$allocator@D@2@@std@@ABVWMessage@@@Z 00429195 f   libwt:WMessageResourceBundle.obj
 0001:000281a0       $L22352                    004291a0 f   libwt:WMessageResourceBundle.obj
 0001:000281a9       $L22353                    004291a9 f   libwt:WMessageResourceBundle.obj
 0001:000281b2       $L22354                    004291b2 f   libwt:WMessageResourceBundle.obj
 0001:000281bd       __ehhandler$?use@WMessageResourceBundle@@QAEXV?$basic_string@DU?$char_traits@D@std@@V?$allocator@D@2@@std@@@Z 004291bd f   libwt:WMessageResourceBundle.obj
 0001:000281d0       $L23577                    004291d0 f   libwt:WMessageResourceBundle.obj
 0001:000281d9       $L23578                    004291d9 f   libwt:WMessageResourceBundle.obj
 0001:000281e4       __ehhandler$??1WMessageResources@@QAE@XZ 004291e4 f   libwt:WMessageResourceBundle.obj
 0001:000281f0       $L23908                    004291f0 f   libwt:WMessageResourceBundle.obj
 0001:000281f9       $L23909                    004291f9 f   libwt:WMessageResourceBundle.obj
 0001:00028204       __ehhandler$??0WMessageResources@@QAE@ABV0@@Z 00429204 f   libwt:WMessageResourceBundle.obj
 0001:00028210       $L31060                    00429210 f   libwt:JavaScript.obj
 0001:00028219       __ehhandler$??0JavaScript@@QAE@XZ 00429219 f   libwt:JavaScript.obj
 0001:00028230       $L31073                    00429230 f   libwt:JavaScript.obj
 0001:00028239       __ehhandler$?addStatement@JavaScript@@QAEXV?$basic_string@DU?$char_traits@D@std@@V?$allocator@D@2@@std@@@Z 00429239 f   libwt:JavaScript.obj
 0001:00028250       $L32816                    00429250 f   libwt:JavaScript.obj
 0001:00028259       $L32817                    00429259 f   libwt:JavaScript.obj
 0001:00028262       __ehhandler$??0JSVar@@AAE@XZ 00429262 f   libwt:JavaScript.obj
 0001:00028270       $L32832                    00429270 f   libwt:JavaScript.obj
 0001:00028279       $L32833                    00429279 f   libwt:JavaScript.obj
 0001:00028281       $L32834                    00429281 f   libwt:JavaScript.obj
 0001:0002828a       $L32835                    0042928a f   libwt:JavaScript.obj
 0001:00028293       $L32836                    00429293 f   libwt:JavaScript.obj
 0001:0002829c       $L32837                    0042929c f   libwt:JavaScript.obj
 0001:000282a8       $L32843                    004292a8 f   libwt:JavaScript.obj
 0001:000282b4       $L32839                    004292b4 f   libwt:JavaScript.obj
 0001:000282d3       __ehhandler$?declareVar@JavaScript@@QAE?AVJSVar@@V?$basic_string@DU?$char_traits@D@std@@V?$allocator@D@2@@std@@@Z 004292d3 f   libwt:JavaScript.obj
 0001:000282e0       $L32866                    004292e0 f   libwt:JavaScript.obj
 0001:000282e9       $L32867                    004292e9 f   libwt:JavaScript.obj
 0001:00028303       __ehhandler$?getTempFunctionName@JavaScript@@QAE?BV?$basic_string@DU?$char_traits@D@std@@V?$allocator@D@2@@std@@XZ 00429303 f   libwt:JavaScript.obj
 0001:00028310       $L38557                    00429310 f   libwt:WFont.obj
 0001:00028310       $L38566                    00429310 f   libwt:WFont.obj
 0001:0002831c       __ehhandler$??0WFont@@QAE@XZ 0042931c f   libwt:WFont.obj
 0001:0002831c       __ehhandler$??0WFont@@AAE@PAVWWebWidget@@@Z 0042931c f   libwt:WFont.obj
 0001:00028330       $L38575                    00429330 f   libwt:WFont.obj
 0001:00028339       __ehhandler$?setFamily@WFont@@QAEXW4GenericFamily@1@V?$basic_string@DU?$char_traits@D@std@@V?$allocator@D@2@@std@@@Z 00429339 f   libwt:WFont.obj
 0001:00028350       $L42563                    00429350 f   libwt:WFont.obj
 0001:00028359       __ehhandler$?updateDomElement@WFont@@AAEXAAVDomElement@@_N1@Z 00429359 f   libwt:WFont.obj
 0001:00028370       $L30397                    00429370 f   libwt:WColor.obj
 0001:00028379       __ehhandler$??0WColor@@QAE@V?$basic_string@DU?$char_traits@D@std@@V?$allocator@D@2@@std@@@Z 00429379 f   libwt:WColor.obj
 0001:00028390       $L32151                    00429390 f   libwt:WColor.obj
 0001:000283b0       $L32154                    004293b0 f   libwt:WColor.obj
 0001:000283b9       $L32155                    004293b9 f   libwt:WColor.obj
 0001:000283c2       $L32156                    004293c2 f   libwt:WColor.obj
 0001:000283ce       $L32157                    004293ce f   libwt:WColor.obj
 0001:000283da       $L32158                    004293da f   libwt:WColor.obj
 0001:000283e6       $L32159                    004293e6 f   libwt:WColor.obj
 0001:000283ef       $L32160                    004293ef f   libwt:WColor.obj
 0001:000283fb       $L32161                    004293fb f   libwt:WColor.obj
 0001:00028404       __ehhandler$?cssText@WColor@@QBE?BV?$basic_string@DU?$char_traits@D@std@@V?$allocator@D@2@@std@@XZ 00429404 f   libwt:WColor.obj
 0001:00028410       $L32274                    00429410 f   libwt:WColor.obj
 0001:00028410       $L32386                    00429410 f   libwt:WColor.obj
 0001:00028410       $L32370                    00429410 f   libwt:WColor.obj
 0001:00028410       $L32178                    00429410 f   libwt:WColor.obj
 0001:00028410       $L32354                    00429410 f   libwt:WColor.obj
 0001:00028410       $L32194                    00429410 f   libwt:WColor.obj
 0001:00028410       $L32338                    00429410 f   libwt:WColor.obj
 0001:00028410       $L32404                    00429410 f   libwt:WColor.obj
 0001:00028410       $L32322                    00429410 f   libwt:WColor.obj
 0001:00028410       $L32210                    00429410 f   libwt:WColor.obj
 0001:00028410       $L32306                    00429410 f   libwt:WColor.obj
 0001:00028410       $L32420                    00429410 f   libwt:WColor.obj
 0001:00028410       $L32290                    00429410 f   libwt:WColor.obj
 0001:00028410       $L32226                    00429410 f   libwt:WColor.obj
 0001:00028410       $L32242                    00429410 f   libwt:WColor.obj
 0001:00028410       $L32436                    00429410 f   libwt:WColor.obj
 0001:00028410       $L32258                    00429410 f   libwt:WColor.obj
 0001:00028419       __ehhandler$_$E25          00429419 f   libwt:WColor.obj
 0001:00028419       __ehhandler$_$E28          00429419 f   libwt:WColor.obj
 0001:00028419       __ehhandler$_$E31          00429419 f   libwt:WColor.obj
 0001:00028419       __ehhandler$_$E34          00429419 f   libwt:WColor.obj
 0001:00028419       __ehhandler$_$E37          00429419 f   libwt:WColor.obj
 0001:00028419       __ehhandler$_$E40          00429419 f   libwt:WColor.obj
 0001:00028419       __ehhandler$_$E46          00429419 f   libwt:WColor.obj
 0001:00028419       __ehhandler$_$E19          00429419 f   libwt:WColor.obj
 0001:00028419       __ehhandler$_$E49          00429419 f   libwt:WColor.obj
 0001:00028419       __ehhandler$_$E52          00429419 f   libwt:WColor.obj
 0001:00028419       __ehhandler$_$E1           00429419 f   libwt:WColor.obj
 0001:00028419       __ehhandler$_$E4           00429419 f   libwt:WColor.obj
 0001:00028419       __ehhandler$_$E16          00429419 f   libwt:WColor.obj
 0001:00028419       __ehhandler$_$E7           00429419 f   libwt:WColor.obj
 0001:00028419       __ehhandler$_$E10          00429419 f   libwt:WColor.obj
 0001:00028419       __ehhandler$_$E13          00429419 f   libwt:WColor.obj
 0001:00028419       __ehhandler$_$E22          00429419 f   libwt:WColor.obj
 0001:00028430       $L14564                    00429430 f   libwt:WBorder.obj
 0001:00028438       __ehhandler$??0WBorder@@QAE@W4Style@0@W4Width@0@VWColor@@@Z 00429438 f   libwt:WBorder.obj
 0001:00028450       $L14589                    00429450 f   libwt:WBorder.obj
 0001:00028458       __ehhandler$?setColor@WBorder@@QAEXVWColor@@@Z 00429458 f   libwt:WBorder.obj
 0001:00028470       $L14955                    00429470 f   libwt:WBorder.obj
 0001:00028479       $L14956                    00429479 f   libwt:WBorder.obj
 0001:00028499       $L14959                    00429499 f   libwt:WBorder.obj
 0001:000284a2       $L14960                    004294a2 f   libwt:WBorder.obj
 0001:000284ae       $L14961                    004294ae f   libwt:WBorder.obj
 0001:000284b7       $L14962                    004294b7 f   libwt:WBorder.obj
 0001:000284c0       $L14963                    004294c0 f   libwt:WBorder.obj
 0001:000284cc       $L14964                    004294cc f   libwt:WBorder.obj
 0001:000284d8       __ehhandler$?cssText@WBorder@@QBE?AV?$basic_string@DU?$char_traits@D@std@@V?$allocator@D@2@@std@@XZ 004294d8 f   libwt:WBorder.obj
 0001:000284f0       $L25672                    004294f0 f   libwt:WMessageResources.obj
 0001:000284f9       $L25673                    004294f9 f   libwt:WMessageResources.obj
 0001:00028502       $L25674                    00429502 f   libwt:WMessageResources.obj
 0001:0002850b       __ehhandler$?getValue@WMessageResources@@QBE_NABVWMessage@@AAV?$basic_string@DU?$char_traits@D@std@@V?$allocator@D@2@@std@@@Z 0042950b f   libwt:WMessageResources.obj
 0001:00028520       $L31679                    00429520 f   libwt:WMessageResources.obj
 0001:00028529       $L31680                    00429529 f   libwt:WMessageResources.obj
 0001:00028532       $L31681                    00429532 f   libwt:WMessageResources.obj
 0001:0002853d       $L31682                    0042953d f   libwt:WMessageResources.obj
 0001:00028548       __ehhandler$??0WMessageResources@@QAE@V?$basic_string@DU?$char_traits@D@std@@V?$allocator@D@2@@std@@@Z 00429548 f   libwt:WMessageResources.obj
 0001:00028560       _$E7                       00429560 f   refreshformwt.obj
 0001:00028720       _$E10                      00429720 f   refreshformwt.obj
 0001:00028740       _$E7                       00429740 f   WSPopTableWt.obj
 0001:000287d0       _$E10                      004297d0 f   WSPopTableWt.obj
 0001:000287f0       _$E5                       004297f0 f   libwt:WWebWidget.obj
 0001:00028810       _$E8                       00429810 f   libwt:WWebWidget.obj
 0001:00028830       _$E4                       00429830 f   libwt:WInteractWidget.obj
 0001:000288c0       _$E7                       004298c0 f   libwt:WInteractWidget.obj
 0001:00028d10       _$E5                       00429d10 f   libwt:WContainerWidget.obj
 0001:00028d30       _$E8                       00429d30 f   libwt:WContainerWidget.obj
 0001:00028d50       _$E7                       00429d50 f   libwt:WTable.obj
 0001:00028d70       _$E10                      00429d70 f   libwt:WTable.obj
 0001:00028d90       _$E13                      00429d90 f   libwt:WTable.obj
 0001:00028db0       _$E16                      00429db0 f   libwt:WTable.obj
 0001:00028dd0       _$E4                       00429dd0 f   libwt:WText.obj
 0001:00028df0       _$E7                       00429df0 f   libwt:WText.obj
 0001:00028e10       _$E4                       00429e10 f   libwt:WImage.obj
 0001:00028ea0       _$E7                       00429ea0 f   libwt:WImage.obj
 0001:00028ec0       _$E4                       00429ec0 f   libwt:WFormWidget.obj
 0001:00028fe0       _$E7                       00429fe0 f   libwt:WFormWidget.obj
 0001:00029100       _$E4                       0042a100 f   libwt:WPushButton.obj
 0001:00029120       _$E7                       0042a120 f   libwt:WPushButton.obj
 0001:00029140       _$E3                       0042a140 f   libwt:WScrollArea.obj
 0001:00029160       _$E6                       0042a160 f   libwt:WScrollArea.obj
 0001:00029180       _$E7                       0042a180 f   libwt:WApplication.obj
 0001:00029260       _$E10                      0042a260 f   libwt:WApplication.obj
 0001:00029280       _$E7                       0042a280 f   libwt:WebSession.obj
 0001:000292a0       _$E1                       0042a2a0 f   libwt:WObject.obj
 0001:000292c0       _$E4                       0042a2c0 f   libwt:WObject.obj
 0001:00029350       _$E7                       0042a350 f   libwt:WTableCell.obj
 0001:00029370       _$E10                      0042a370 f   libwt:WTableCell.obj
 0001:00029390       _$E3                       0042a390 f   libwt:WWidget.obj
 0001:00029470       _$E6                       0042a470 f   libwt:WWidget.obj
 0001:00029490       _$E3                       0042a490 f   libwt:DomElement.obj
 0001:00029720       _$E1                       0042a720 f   libwt:WResource.obj
 0001:00029740       _$E4                       0042a740 f   libwt:WResource.obj
 0001:000297d0       _$E4                       0042a7d0 f   libwt:WLabel.obj
 0001:000297f0       _$E7                       0042a7f0 f   libwt:WLabel.obj
 0001:00029810       _$E3                       0042a810 f   libwt:WScrollBar.obj
 0001:000298a0       _$E6                       0042a8a0 f   libwt:WScrollBar.obj
 0001:000298c0       _$E1                       0042a8c0 f   libwt:WColor.obj
 0001:00029930       _$E4                       0042a930 f   libwt:WColor.obj
 0001:000299a0       _$E7                       0042a9a0 f   libwt:WColor.obj
 0001:00029a10       _$E10                      0042aa10 f   libwt:WColor.obj
 0001:00029a80       _$E13                      0042aa80 f   libwt:WColor.obj
 0001:00029af0       _$E16                      0042aaf0 f   libwt:WColor.obj
 0001:00029b60       _$E19                      0042ab60 f   libwt:WColor.obj
 0001:00029bd0       _$E22                      0042abd0 f   libwt:WColor.obj
 0001:00029c40       _$E25                      0042ac40 f   libwt:WColor.obj
 0001:00029cb0       _$E28                      0042acb0 f   libwt:WColor.obj
 0001:00029d20       _$E31                      0042ad20 f   libwt:WColor.obj
 0001:00029d90       _$E34                      0042ad90 f   libwt:WColor.obj
 0001:00029e00       _$E37                      0042ae00 f   libwt:WColor.obj
 0001:00029e70       _$E40                      0042ae70 f   libwt:WColor.obj
 0001:00029ee0       _$E43                      0042aee0 f   libwt:WColor.obj
 0001:00029f10       _$E46                      0042af10 f   libwt:WColor.obj
 0001:00029f80       _$E49                      0042af80 f   libwt:WColor.obj
 0001:00029ff0       _$E52                      0042aff0 f   libwt:WColor.obj
 0001:0002a060       _$E10                      0042b060 f   refreshform.obj
 0001:0002a070       _$E14                      0042b070 f   refreshform.obj
 0001:0002a080       _$E13                      0042b080 f   refreshform.obj
 0001:0002a090       _$E12                      0042b090 f   refreshform.obj
 0001:0002a0a0       _$E8                       0042b0a0 f   refreshformwt.obj
 0001:0002a0c0       _$E11                      0042b0c0 f   refreshformwt.obj
 0001:0002a0e0       _$E8                       0042b0e0 f   WSPopTableWt.obj
 0001:0002a100       _$E11                      0042b100 f   WSPopTableWt.obj
 0001:0002a120       _$E6                       0042b120 f   libwt:WWebWidget.obj
 0001:0002a140       _$E9                       0042b140 f   libwt:WWebWidget.obj
 0001:0002a160       _$E5                       0042b160 f   libwt:WInteractWidget.obj
 0001:0002a180       _$E8                       0042b180 f   libwt:WInteractWidget.obj
 0001:0002a1a0       _$E6                       0042b1a0 f   libwt:WContainerWidget.obj
 0001:0002a1c0       _$E9                       0042b1c0 f   libwt:WContainerWidget.obj
 0001:0002a1e0       _$E8                       0042b1e0 f   libwt:WTable.obj
 0001:0002a200       _$E11                      0042b200 f   libwt:WTable.obj
 0001:0002a220       _$E14                      0042b220 f   libwt:WTable.obj
 0001:0002a240       _$E17                      0042b240 f   libwt:WTable.obj
 0001:0002a260       _$E5                       0042b260 f   libwt:WText.obj
 0001:0002a280       _$E8                       0042b280 f   libwt:WText.obj
 0001:0002a2a0       _$E5                       0042b2a0 f   libwt:WImage.obj
 0001:0002a2c0       _$E8                       0042b2c0 f   libwt:WImage.obj
 0001:0002a2e0       _$E5                       0042b2e0 f   libwt:WFormWidget.obj
 0001:0002a300       _$E8                       0042b300 f   libwt:WFormWidget.obj
 0001:0002a320       _$E5                       0042b320 f   libwt:WPushButton.obj
 0001:0002a340       _$E8                       0042b340 f   libwt:WPushButton.obj
 0001:0002a360       _$E4                       0042b360 f   libwt:WScrollArea.obj
 0001:0002a380       _$E7                       0042b380 f   libwt:WScrollArea.obj
 0001:0002a3a0       _$E8                       0042b3a0 f   libwt:WApplication.obj
 0001:0002a3c0       _$E11                      0042b3c0 f   libwt:WApplication.obj
 0001:0002a3e0       _$E8                       0042b3e0 f   libwt:WebSession.obj
 0001:0002a3f0       _$E14                      0042b3f0 f   libwt:WebSession.obj
 0001:0002a400       _$E13                      0042b400 f   libwt:WebSession.obj
 0001:0002a410       _$E12                      0042b410 f   libwt:WebSession.obj
 0001:0002a420       _$E11                      0042b420 f   libwt:WebSession.obj
 0001:0002a430       _$E16                      0042b430 f   libwt:WebSession.obj
 0001:0002a440       _$E2                       0042b440 f   libwt:WObject.obj
 0001:0002a460       _$E5                       0042b460 f   libwt:WObject.obj
 0001:0002a480       _$E8                       0042b480 f   libwt:WTableCell.obj
 0001:0002a4a0       _$E11                      0042b4a0 f   libwt:WTableCell.obj
 0001:0002a4c0       _$E4                       0042b4c0 f   libwt:WWidget.obj
 0001:0002a4e0       _$E7                       0042b4e0 f   libwt:WWidget.obj
 0001:0002a500       _$E4                       0042b500 f   libwt:DomElement.obj
 0001:0002a520       _$E7                       0042b520 f   libwt:DomElement.obj
 0001:0002a540       _$E9                       0042b540 f   libwt:DomElement.obj
 0001:0002a560       _$E2                       0042b560 f   libwt:WResource.obj
 0001:0002a580       _$E5                       0042b580 f   libwt:WResource.obj
 0001:0002a5a0       _$E5                       0042b5a0 f   libwt:WLabel.obj
 0001:0002a5c0       _$E8                       0042b5c0 f   libwt:WLabel.obj
 0001:0002a5e0       _$E4                       0042b5e0 f   libwt:WScrollBar.obj
 0001:0002a600       _$E7                       0042b600 f   libwt:WScrollBar.obj
 0001:0002a620       _$E2                       0042b620 f   libwt:WColor.obj
 0001:0002a630       _$E5                       0042b630 f   libwt:WColor.obj
 0001:0002a640       _$E8                       0042b640 f   libwt:WColor.obj
 0001:0002a650       _$E11                      0042b650 f   libwt:WColor.obj
 0001:0002a660       _$E14                      0042b660 f   libwt:WColor.obj
 0001:0002a670       _$E17                      0042b670 f   libwt:WColor.obj
 0001:0002a680       _$E20                      0042b680 f   libwt:WColor.obj
 0001:0002a690       _$E23                      0042b690 f   libwt:WColor.obj
 0001:0002a6a0       _$E26                      0042b6a0 f   libwt:WColor.obj
 0001:0002a6b0       _$E29                      0042b6b0 f   libwt:WColor.obj
 0001:0002a6c0       _$E32                      0042b6c0 f   libwt:WColor.obj
 0001:0002a6d0       _$E35                      0042b6d0 f   libwt:WColor.obj
 0001:0002a6e0       _$E38                      0042b6e0 f   libwt:WColor.obj
 0001:0002a6f0       _$E41                      0042b6f0 f   libwt:WColor.obj
 0001:0002a700       _$E44                      0042b700 f   libwt:WColor.obj
 0001:0002a710       _$E47                      0042b710 f   libwt:WColor.obj
 0001:0002a720       _$E50                      0042b720 f   libwt:WColor.obj
 0001:0002a730       _$E53                      0042b730 f   libwt:WColor.obj
